   1              		.cpu cortex-m4
   2              		.eabi_attribute 20, 1
   3              		.eabi_attribute 21, 1
   4              		.eabi_attribute 23, 3
   5              		.eabi_attribute 24, 1
   6              		.eabi_attribute 25, 1
   7              		.eabi_attribute 26, 1
   8              		.eabi_attribute 30, 6
   9              		.eabi_attribute 34, 1
  10              		.eabi_attribute 18, 4
  11              		.file	"gd32f3x0_hal_smartcard.c"
  12              		.text
  13              	.Ltext0:
  14              		.cfi_sections	.debug_frame
  15              		.section	.text.hal_smartcard_struct_init,"ax",%progbits
  16              		.align	1
  17              		.global	hal_smartcard_struct_init
  18              		.arch armv7e-m
  19              		.syntax unified
  20              		.thumb
  21              		.thumb_func
  22              		.fpu softvfp
  24              	hal_smartcard_struct_init:
  25              	.LFB119:
  26              		.file 1 "../firmware/gd32f3x0_hal_peripheral/Source/gd32f3x0_hal_smartcard.c"
   1:../firmware/gd32f3x0_hal_peripheral/Source/gd32f3x0_hal_smartcard.c **** /*!
   2:../firmware/gd32f3x0_hal_peripheral/Source/gd32f3x0_hal_smartcard.c ****     \file    gd32f3x0_hal_smartcard.c
   3:../firmware/gd32f3x0_hal_peripheral/Source/gd32f3x0_hal_smartcard.c ****     \brief   SMARTCARD driver
   4:../firmware/gd32f3x0_hal_peripheral/Source/gd32f3x0_hal_smartcard.c **** 
   5:../firmware/gd32f3x0_hal_peripheral/Source/gd32f3x0_hal_smartcard.c ****     \version 2023-08-01, V1.0.0, HAL firmware for GD32F3x0
   6:../firmware/gd32f3x0_hal_peripheral/Source/gd32f3x0_hal_smartcard.c **** */
   7:../firmware/gd32f3x0_hal_peripheral/Source/gd32f3x0_hal_smartcard.c **** 
   8:../firmware/gd32f3x0_hal_peripheral/Source/gd32f3x0_hal_smartcard.c **** /*
   9:../firmware/gd32f3x0_hal_peripheral/Source/gd32f3x0_hal_smartcard.c ****     Copyright (c) 2023, GigaDevice Semiconductor Inc.
  10:../firmware/gd32f3x0_hal_peripheral/Source/gd32f3x0_hal_smartcard.c **** 
  11:../firmware/gd32f3x0_hal_peripheral/Source/gd32f3x0_hal_smartcard.c ****     Redistribution and use in source and binary forms, with or without modification,
  12:../firmware/gd32f3x0_hal_peripheral/Source/gd32f3x0_hal_smartcard.c **** are permitted provided that the following conditions are met:
  13:../firmware/gd32f3x0_hal_peripheral/Source/gd32f3x0_hal_smartcard.c **** 
  14:../firmware/gd32f3x0_hal_peripheral/Source/gd32f3x0_hal_smartcard.c ****     1. Redistributions of source code must retain the above copyright notice, this
  15:../firmware/gd32f3x0_hal_peripheral/Source/gd32f3x0_hal_smartcard.c ****        list of conditions and the following disclaimer.
  16:../firmware/gd32f3x0_hal_peripheral/Source/gd32f3x0_hal_smartcard.c ****     2. Redistributions in binary form must reproduce the above copyright notice,
  17:../firmware/gd32f3x0_hal_peripheral/Source/gd32f3x0_hal_smartcard.c ****        this list of conditions and the following disclaimer in the documentation
  18:../firmware/gd32f3x0_hal_peripheral/Source/gd32f3x0_hal_smartcard.c ****        and/or other materials provided with the distribution.
  19:../firmware/gd32f3x0_hal_peripheral/Source/gd32f3x0_hal_smartcard.c ****     3. Neither the name of the copyright holder nor the names of its contributors
  20:../firmware/gd32f3x0_hal_peripheral/Source/gd32f3x0_hal_smartcard.c ****        may be used to endorse or promote products derived from this software without
  21:../firmware/gd32f3x0_hal_peripheral/Source/gd32f3x0_hal_smartcard.c ****        specific prior written permission.
  22:../firmware/gd32f3x0_hal_peripheral/Source/gd32f3x0_hal_smartcard.c **** 
  23:../firmware/gd32f3x0_hal_peripheral/Source/gd32f3x0_hal_smartcard.c ****     THIS SOFTWARE IS PROVIDED BY THE COPYRIGHT HOLDERS AND CONTRIBUTORS "AS IS"
  24:../firmware/gd32f3x0_hal_peripheral/Source/gd32f3x0_hal_smartcard.c **** AND ANY EXPRESS OR IMPLIED WARRANTIES, INCLUDING, BUT NOT LIMITED TO, THE IMPLIED
  25:../firmware/gd32f3x0_hal_peripheral/Source/gd32f3x0_hal_smartcard.c **** WARRANTIES OF MERCHANTABILITY AND FITNESS FOR A PARTICULAR PURPOSE ARE DISCLAIMED.
  26:../firmware/gd32f3x0_hal_peripheral/Source/gd32f3x0_hal_smartcard.c **** IN NO EVENT SHALL THE COPYRIGHT HOLDER OR CONTRIBUTORS BE LIABLE FOR ANY DIRECT,
  27:../firmware/gd32f3x0_hal_peripheral/Source/gd32f3x0_hal_smartcard.c **** INDIRECT, INCIDENTAL, SPECIAL, EXEMPLARY, OR CONSEQUENTIAL DAMAGES (INCLUDING, BUT
  28:../firmware/gd32f3x0_hal_peripheral/Source/gd32f3x0_hal_smartcard.c **** NOT LIMITED TO, PROCUREMENT OF SUBSTITUTE GOODS OR SERVICES; LOSS OF USE, DATA, OR
  29:../firmware/gd32f3x0_hal_peripheral/Source/gd32f3x0_hal_smartcard.c **** PROFITS; OR BUSINESS INTERRUPTION) HOWEVER CAUSED AND ON ANY THEORY OF LIABILITY,
  30:../firmware/gd32f3x0_hal_peripheral/Source/gd32f3x0_hal_smartcard.c **** WHETHER IN CONTRACT, STRICT LIABILITY, OR TORT (INCLUDING NEGLIGENCE OR OTHERWISE)
  31:../firmware/gd32f3x0_hal_peripheral/Source/gd32f3x0_hal_smartcard.c **** ARISING IN ANY WAY OUT OF THE USE OF THIS SOFTWARE, EVEN IF ADVISED OF THE POSSIBILITY
  32:../firmware/gd32f3x0_hal_peripheral/Source/gd32f3x0_hal_smartcard.c **** OF SUCH DAMAGE.
  33:../firmware/gd32f3x0_hal_peripheral/Source/gd32f3x0_hal_smartcard.c **** */
  34:../firmware/gd32f3x0_hal_peripheral/Source/gd32f3x0_hal_smartcard.c **** 
  35:../firmware/gd32f3x0_hal_peripheral/Source/gd32f3x0_hal_smartcard.c **** #include "gd32f3x0_hal.h"
  36:../firmware/gd32f3x0_hal_peripheral/Source/gd32f3x0_hal_smartcard.c **** 
  37:../firmware/gd32f3x0_hal_peripheral/Source/gd32f3x0_hal_smartcard.c **** /* smartcard private function */
  38:../firmware/gd32f3x0_hal_peripheral/Source/gd32f3x0_hal_smartcard.c **** static FlagStatus _smartcard_error_flag_get(hal_smartcard_dev_struct *smartcard);
  39:../firmware/gd32f3x0_hal_peripheral/Source/gd32f3x0_hal_smartcard.c **** static void _smartcard_transmit_complete_interrupt(void *smartcard);
  40:../firmware/gd32f3x0_hal_peripheral/Source/gd32f3x0_hal_smartcard.c **** static void _smartcard_transmit_interrupt(void *smartcard);
  41:../firmware/gd32f3x0_hal_peripheral/Source/gd32f3x0_hal_smartcard.c **** static void _smartcard_receive_interrupt(void *smartcard);
  42:../firmware/gd32f3x0_hal_peripheral/Source/gd32f3x0_hal_smartcard.c **** static void _smartcard_transmit_dma(void *dma);
  43:../firmware/gd32f3x0_hal_peripheral/Source/gd32f3x0_hal_smartcard.c **** static void _smartcard_receive_dma(void *dma);
  44:../firmware/gd32f3x0_hal_peripheral/Source/gd32f3x0_hal_smartcard.c **** static void _smartcard_dma_error(void *dma);
  45:../firmware/gd32f3x0_hal_peripheral/Source/gd32f3x0_hal_smartcard.c **** 
  46:../firmware/gd32f3x0_hal_peripheral/Source/gd32f3x0_hal_smartcard.c **** /*!
  47:../firmware/gd32f3x0_hal_peripheral/Source/gd32f3x0_hal_smartcard.c ****     \brief      initialize the smartcard structure with the default values
  48:../firmware/gd32f3x0_hal_peripheral/Source/gd32f3x0_hal_smartcard.c ****                 note: this function must be called after the structure is created
  49:../firmware/gd32f3x0_hal_peripheral/Source/gd32f3x0_hal_smartcard.c ****     \param[in]  hal_struct_type: smartcard structure type
  50:../firmware/gd32f3x0_hal_peripheral/Source/gd32f3x0_hal_smartcard.c ****       \arg        HAL_SMARTCARD_INIT_STRUCT: initialization structure
  51:../firmware/gd32f3x0_hal_peripheral/Source/gd32f3x0_hal_smartcard.c ****       \arg        HAL_SMARTCARD_INIT_EX_STRUCT: initialization extend structure
  52:../firmware/gd32f3x0_hal_peripheral/Source/gd32f3x0_hal_smartcard.c ****       \arg        HAL_SMARTCARD_DEV_STRUCT: device information structure
  53:../firmware/gd32f3x0_hal_peripheral/Source/gd32f3x0_hal_smartcard.c ****       \arg        HAL_SMARTCARD_USER_CALLBCAK_STRUCT: user callback structure
  54:../firmware/gd32f3x0_hal_peripheral/Source/gd32f3x0_hal_smartcard.c ****       \arg        HAL_SMARTCARD_IRQ_INIT_STRUCT: interrupt callback initialization structure
  55:../firmware/gd32f3x0_hal_peripheral/Source/gd32f3x0_hal_smartcard.c ****     \param[in]  p_struct: init structure pointer
  56:../firmware/gd32f3x0_hal_peripheral/Source/gd32f3x0_hal_smartcard.c ****     \param[out] none
  57:../firmware/gd32f3x0_hal_peripheral/Source/gd32f3x0_hal_smartcard.c ****     \retval     none
  58:../firmware/gd32f3x0_hal_peripheral/Source/gd32f3x0_hal_smartcard.c **** */
  59:../firmware/gd32f3x0_hal_peripheral/Source/gd32f3x0_hal_smartcard.c **** void hal_smartcard_struct_init(hal_smartcard_struct_type_enum hal_struct_type, void *p_struct)
  60:../firmware/gd32f3x0_hal_peripheral/Source/gd32f3x0_hal_smartcard.c **** {
  27              		.loc 1 60 1
  28              		.cfi_startproc
  29              		@ args = 0, pretend = 0, frame = 8
  30              		@ frame_needed = 1, uses_anonymous_args = 0
  31              		@ link register save eliminated.
  32 0000 80B4     		push	{r7}
  33              		.cfi_def_cfa_offset 4
  34              		.cfi_offset 7, -4
  35 0002 83B0     		sub	sp, sp, #12
  36              		.cfi_def_cfa_offset 16
  37 0004 00AF     		add	r7, sp, #0
  38              		.cfi_def_cfa_register 7
  39 0006 0346     		mov	r3, r0
  40 0008 3960     		str	r1, [r7]
  41 000a FB71     		strb	r3, [r7, #7]
  61:../firmware/gd32f3x0_hal_peripheral/Source/gd32f3x0_hal_smartcard.c **** #if (1U == HAL_PARAMETER_CHECK)
  62:../firmware/gd32f3x0_hal_peripheral/Source/gd32f3x0_hal_smartcard.c ****     if(NULL == p_struct) {
  63:../firmware/gd32f3x0_hal_peripheral/Source/gd32f3x0_hal_smartcard.c ****         HAL_DEBUGE("parameter [*p_struct] value is invalid");
  64:../firmware/gd32f3x0_hal_peripheral/Source/gd32f3x0_hal_smartcard.c ****     }
  65:../firmware/gd32f3x0_hal_peripheral/Source/gd32f3x0_hal_smartcard.c **** #endif /* 1U == HAL_PARAMETER_CHECK */
  66:../firmware/gd32f3x0_hal_peripheral/Source/gd32f3x0_hal_smartcard.c **** 
  67:../firmware/gd32f3x0_hal_peripheral/Source/gd32f3x0_hal_smartcard.c ****     switch(hal_struct_type) {
  42              		.loc 1 67 5
  43 000c FB79     		ldrb	r3, [r7, #7]	@ zero_extendqisi2
  44 000e 032B     		cmp	r3, #3
  45 0010 00F2BD80 		bhi	.L9
  46 0014 01A2     		adr	r2, .L4
  47 0016 52F823F0 		ldr	pc, [r2, r3, lsl #2]
  48 001a 00BF     		.p2align 2
  49              	.L4:
  50 001c 2D000000 		.word	.L7+1
  51 0020 E1000000 		.word	.L6+1
  52 0024 67010000 		.word	.L5+1
  53 0028 75010000 		.word	.L3+1
  54              		.p2align 1
  55              	.L7:
  68:../firmware/gd32f3x0_hal_peripheral/Source/gd32f3x0_hal_smartcard.c ****     case HAL_SMARTCARD_INIT_STRUCT:
  69:../firmware/gd32f3x0_hal_peripheral/Source/gd32f3x0_hal_smartcard.c ****         /* initialize smartcard initialization structure with the default values */
  70:../firmware/gd32f3x0_hal_peripheral/Source/gd32f3x0_hal_smartcard.c ****         ((hal_smartcard_init_struct *)p_struct)->baudrate                = 115200U;
  56              		.loc 1 70 74
  57 002c 3B68     		ldr	r3, [r7]
  58 002e 4FF4E132 		mov	r2, #115200
  59 0032 1A60     		str	r2, [r3]
  71:../firmware/gd32f3x0_hal_peripheral/Source/gd32f3x0_hal_smartcard.c ****         ((hal_smartcard_init_struct *)p_struct)->parity                  = SMARTCARD_PARITY_EVEN;
  60              		.loc 1 71 74
  61 0034 3B68     		ldr	r3, [r7]
  62 0036 4FF48062 		mov	r2, #1024
  63 003a 5A60     		str	r2, [r3, #4]
  72:../firmware/gd32f3x0_hal_peripheral/Source/gd32f3x0_hal_smartcard.c ****         ((hal_smartcard_init_struct *)p_struct)->word_length             = SMARTCARD_WORD_LENGTH_9B
  64              		.loc 1 72 74
  65 003c 3B68     		ldr	r3, [r7]
  66 003e 4FF48052 		mov	r2, #4096
  67 0042 9A60     		str	r2, [r3, #8]
  73:../firmware/gd32f3x0_hal_peripheral/Source/gd32f3x0_hal_smartcard.c ****         ((hal_smartcard_init_struct *)p_struct)->stop_bit                = SMARTCARD_STOP_BIT_1_5;
  68              		.loc 1 73 74
  69 0044 3B68     		ldr	r3, [r7]
  70 0046 4FF44052 		mov	r2, #12288
  71 004a DA60     		str	r2, [r3, #12]
  74:../firmware/gd32f3x0_hal_peripheral/Source/gd32f3x0_hal_smartcard.c ****         ((hal_smartcard_init_struct *)p_struct)->direction               = SMARTCARD_DIRECTION_RX_T
  72              		.loc 1 74 74
  73 004c 3B68     		ldr	r3, [r7]
  74 004e 0C22     		movs	r2, #12
  75 0050 1A61     		str	r2, [r3, #16]
  75:../firmware/gd32f3x0_hal_peripheral/Source/gd32f3x0_hal_smartcard.c ****         ((hal_smartcard_init_struct *)p_struct)->clock_polarity          = SMARTCARD_CLOCK_POLARITY
  76              		.loc 1 75 74
  77 0052 3B68     		ldr	r3, [r7]
  78 0054 0022     		movs	r2, #0
  79 0056 5A61     		str	r2, [r3, #20]
  76:../firmware/gd32f3x0_hal_peripheral/Source/gd32f3x0_hal_smartcard.c ****         ((hal_smartcard_init_struct *)p_struct)->clock_phase             = SMARTCARD_CLOCK_PHASE_1C
  80              		.loc 1 76 74
  81 0058 3B68     		ldr	r3, [r7]
  82 005a 0022     		movs	r2, #0
  83 005c 9A61     		str	r2, [r3, #24]
  77:../firmware/gd32f3x0_hal_peripheral/Source/gd32f3x0_hal_smartcard.c ****         ((hal_smartcard_init_struct *)p_struct)->clock_length_lastbit    = SMARTCARD_LAST_BIT_NOT_O
  84              		.loc 1 77 74
  85 005e 3B68     		ldr	r3, [r7]
  86 0060 0022     		movs	r2, #0
  87 0062 DA61     		str	r2, [r3, #28]
  78:../firmware/gd32f3x0_hal_peripheral/Source/gd32f3x0_hal_smartcard.c ****         ((hal_smartcard_init_struct *)p_struct)->prescaler               = 1U;
  88              		.loc 1 78 74
  89 0064 3B68     		ldr	r3, [r7]
  90 0066 0122     		movs	r2, #1
  91 0068 1A62     		str	r2, [r3, #32]
  79:../firmware/gd32f3x0_hal_peripheral/Source/gd32f3x0_hal_smartcard.c ****         ((hal_smartcard_init_struct *)p_struct)->guard_time              = 0U;
  92              		.loc 1 79 74
  93 006a 3B68     		ldr	r3, [r7]
  94 006c 0022     		movs	r2, #0
  95 006e 5A62     		str	r2, [r3, #36]
  80:../firmware/gd32f3x0_hal_peripheral/Source/gd32f3x0_hal_smartcard.c ****         ((hal_smartcard_init_struct *)p_struct)->nack_state              = SMARTCARD_NACK_DISABLE;
  96              		.loc 1 80 74
  97 0070 3B68     		ldr	r3, [r7]
  98 0072 0022     		movs	r2, #0
  99 0074 9A62     		str	r2, [r3, #40]
  81:../firmware/gd32f3x0_hal_peripheral/Source/gd32f3x0_hal_smartcard.c ****         ((hal_smartcard_init_struct *)p_struct)->early_nack              = DISABLE;
 100              		.loc 1 81 74
 101 0076 3B68     		ldr	r3, [r7]
 102 0078 0022     		movs	r2, #0
 103 007a 83F82C20 		strb	r2, [r3, #44]
  82:../firmware/gd32f3x0_hal_peripheral/Source/gd32f3x0_hal_smartcard.c ****         ((hal_smartcard_init_struct *)p_struct)->rx_fifo_en              = DISABLE;
 104              		.loc 1 82 74
 105 007e 3B68     		ldr	r3, [r7]
 106 0080 0022     		movs	r2, #0
 107 0082 83F82D20 		strb	r2, [r3, #45]
  83:../firmware/gd32f3x0_hal_peripheral/Source/gd32f3x0_hal_smartcard.c ****         ((hal_smartcard_init_struct *)p_struct)->timeout_enable          = DISABLE;
 108              		.loc 1 83 74
 109 0086 3B68     		ldr	r3, [r7]
 110 0088 0022     		movs	r2, #0
 111 008a 83F82E20 		strb	r2, [r3, #46]
  84:../firmware/gd32f3x0_hal_peripheral/Source/gd32f3x0_hal_smartcard.c ****         ((hal_smartcard_init_struct *)p_struct)->timeout_value           = 0U;
 112              		.loc 1 84 74
 113 008e 3B68     		ldr	r3, [r7]
 114 0090 0022     		movs	r2, #0
 115 0092 1A63     		str	r2, [r3, #48]
  85:../firmware/gd32f3x0_hal_peripheral/Source/gd32f3x0_hal_smartcard.c ****         ((hal_smartcard_init_struct *)p_struct)->sample_method           = SMARTCARD_THREE_SAMPLE_B
 116              		.loc 1 85 74
 117 0094 3B68     		ldr	r3, [r7]
 118 0096 0022     		movs	r2, #0
 119 0098 5A63     		str	r2, [r3, #52]
  86:../firmware/gd32f3x0_hal_peripheral/Source/gd32f3x0_hal_smartcard.c ****         ((hal_smartcard_init_struct *)p_struct)->block_length            = 0U;
 120              		.loc 1 86 74
 121 009a 3B68     		ldr	r3, [r7]
 122 009c 0022     		movs	r2, #0
 123 009e 9A63     		str	r2, [r3, #56]
  87:../firmware/gd32f3x0_hal_peripheral/Source/gd32f3x0_hal_smartcard.c ****         ((hal_smartcard_init_struct *)p_struct)->auto_retry_count        = 0U;
 124              		.loc 1 87 74
 125 00a0 3B68     		ldr	r3, [r7]
 126 00a2 0022     		movs	r2, #0
 127 00a4 DA63     		str	r2, [r3, #60]
  88:../firmware/gd32f3x0_hal_peripheral/Source/gd32f3x0_hal_smartcard.c ****         ((hal_smartcard_init_struct *)p_struct)->first_bit_msb           = DISABLE;
 128              		.loc 1 88 74
 129 00a6 3B68     		ldr	r3, [r7]
 130 00a8 0022     		movs	r2, #0
 131 00aa 83F84020 		strb	r2, [r3, #64]
  89:../firmware/gd32f3x0_hal_peripheral/Source/gd32f3x0_hal_smartcard.c ****         ((hal_smartcard_init_struct *)p_struct)->tx_rx_swap              = DISABLE;
 132              		.loc 1 89 74
 133 00ae 3B68     		ldr	r3, [r7]
 134 00b0 0022     		movs	r2, #0
 135 00b2 83F84120 		strb	r2, [r3, #65]
  90:../firmware/gd32f3x0_hal_peripheral/Source/gd32f3x0_hal_smartcard.c ****         ((hal_smartcard_init_struct *)p_struct)->rx_level_invert         = DISABLE;
 136              		.loc 1 90 74
 137 00b6 3B68     		ldr	r3, [r7]
 138 00b8 0022     		movs	r2, #0
 139 00ba 83F84220 		strb	r2, [r3, #66]
  91:../firmware/gd32f3x0_hal_peripheral/Source/gd32f3x0_hal_smartcard.c ****         ((hal_smartcard_init_struct *)p_struct)->tx_level_invert         = DISABLE;
 140              		.loc 1 91 74
 141 00be 3B68     		ldr	r3, [r7]
 142 00c0 0022     		movs	r2, #0
 143 00c2 83F84320 		strb	r2, [r3, #67]
  92:../firmware/gd32f3x0_hal_peripheral/Source/gd32f3x0_hal_smartcard.c ****         ((hal_smartcard_init_struct *)p_struct)->data_bit_invert         = DISABLE;
 144              		.loc 1 92 74
 145 00c6 3B68     		ldr	r3, [r7]
 146 00c8 0022     		movs	r2, #0
 147 00ca 83F84420 		strb	r2, [r3, #68]
  93:../firmware/gd32f3x0_hal_peripheral/Source/gd32f3x0_hal_smartcard.c ****         ((hal_smartcard_init_struct *)p_struct)->overrun_disable         = DISABLE;
 148              		.loc 1 93 74
 149 00ce 3B68     		ldr	r3, [r7]
 150 00d0 0022     		movs	r2, #0
 151 00d2 83F84520 		strb	r2, [r3, #69]
  94:../firmware/gd32f3x0_hal_peripheral/Source/gd32f3x0_hal_smartcard.c ****         ((hal_smartcard_init_struct *)p_struct)->rx_error_dma_stop       = DISABLE;
 152              		.loc 1 94 74
 153 00d6 3B68     		ldr	r3, [r7]
 154 00d8 0022     		movs	r2, #0
 155 00da 83F84620 		strb	r2, [r3, #70]
  95:../firmware/gd32f3x0_hal_peripheral/Source/gd32f3x0_hal_smartcard.c ****         break;
 156              		.loc 1 95 9
 157 00de 57E0     		b	.L8
 158              	.L6:
  96:../firmware/gd32f3x0_hal_peripheral/Source/gd32f3x0_hal_smartcard.c **** 
  97:../firmware/gd32f3x0_hal_peripheral/Source/gd32f3x0_hal_smartcard.c ****     case HAL_SMARTCARD_DEV_STRUCT:
  98:../firmware/gd32f3x0_hal_peripheral/Source/gd32f3x0_hal_smartcard.c ****         /* initialize smartcard device information structure with the default values */
  99:../firmware/gd32f3x0_hal_peripheral/Source/gd32f3x0_hal_smartcard.c ****         ((hal_smartcard_dev_struct *)p_struct)->periph                                 = 0U;
 159              		.loc 1 99 88
 160 00e0 3B68     		ldr	r3, [r7]
 161 00e2 0022     		movs	r2, #0
 162 00e4 1A60     		str	r2, [r3]
 100:../firmware/gd32f3x0_hal_peripheral/Source/gd32f3x0_hal_smartcard.c ****         ((hal_smartcard_dev_struct *)p_struct)->smartcard_irq.error_handle             = NULL;
 163              		.loc 1 100 88
 164 00e6 3B68     		ldr	r3, [r7]
 165 00e8 0022     		movs	r2, #0
 166 00ea 1A61     		str	r2, [r3, #16]
 101:../firmware/gd32f3x0_hal_peripheral/Source/gd32f3x0_hal_smartcard.c ****         ((hal_smartcard_dev_struct *)p_struct)->smartcard_irq.receive_complete_handle  = NULL;
 167              		.loc 1 101 88
 168 00ec 3B68     		ldr	r3, [r7]
 169 00ee 0022     		movs	r2, #0
 170 00f0 5A60     		str	r2, [r3, #4]
 102:../firmware/gd32f3x0_hal_peripheral/Source/gd32f3x0_hal_smartcard.c ****         ((hal_smartcard_dev_struct *)p_struct)->smartcard_irq.transmit_complete_handle = NULL;
 171              		.loc 1 102 88
 172 00f2 3B68     		ldr	r3, [r7]
 173 00f4 0022     		movs	r2, #0
 174 00f6 DA60     		str	r2, [r3, #12]
 103:../firmware/gd32f3x0_hal_peripheral/Source/gd32f3x0_hal_smartcard.c ****         ((hal_smartcard_dev_struct *)p_struct)->smartcard_irq.transmit_ready_handle    = NULL;
 175              		.loc 1 103 88
 176 00f8 3B68     		ldr	r3, [r7]
 177 00fa 0022     		movs	r2, #0
 178 00fc 9A60     		str	r2, [r3, #8]
 104:../firmware/gd32f3x0_hal_peripheral/Source/gd32f3x0_hal_smartcard.c ****         ((hal_smartcard_dev_struct *)p_struct)->p_dma_rx                               = NULL;
 179              		.loc 1 104 88
 180 00fe 3B68     		ldr	r3, [r7]
 181 0100 0022     		movs	r2, #0
 182 0102 5A61     		str	r2, [r3, #20]
 105:../firmware/gd32f3x0_hal_peripheral/Source/gd32f3x0_hal_smartcard.c ****         ((hal_smartcard_dev_struct *)p_struct)->p_dma_tx                               = NULL;
 183              		.loc 1 105 88
 184 0104 3B68     		ldr	r3, [r7]
 185 0106 0022     		movs	r2, #0
 186 0108 9A61     		str	r2, [r3, #24]
 106:../firmware/gd32f3x0_hal_peripheral/Source/gd32f3x0_hal_smartcard.c ****         ((hal_smartcard_dev_struct *)p_struct)->txbuffer.buffer                        = NULL;
 187              		.loc 1 106 88
 188 010a 3B68     		ldr	r3, [r7]
 189 010c 0022     		movs	r2, #0
 190 010e DA61     		str	r2, [r3, #28]
 107:../firmware/gd32f3x0_hal_peripheral/Source/gd32f3x0_hal_smartcard.c ****         ((hal_smartcard_dev_struct *)p_struct)->txbuffer.length                        = 0U;
 191              		.loc 1 107 88
 192 0110 3B68     		ldr	r3, [r7]
 193 0112 0022     		movs	r2, #0
 194 0114 1A62     		str	r2, [r3, #32]
 108:../firmware/gd32f3x0_hal_peripheral/Source/gd32f3x0_hal_smartcard.c ****         ((hal_smartcard_dev_struct *)p_struct)->txbuffer.pos                           = 0U;
 195              		.loc 1 108 88
 196 0116 3B68     		ldr	r3, [r7]
 197 0118 0022     		movs	r2, #0
 198 011a 5A62     		str	r2, [r3, #36]
 109:../firmware/gd32f3x0_hal_peripheral/Source/gd32f3x0_hal_smartcard.c ****         ((hal_smartcard_dev_struct *)p_struct)->rxbuffer.buffer                        = NULL;
 199              		.loc 1 109 88
 200 011c 3B68     		ldr	r3, [r7]
 201 011e 0022     		movs	r2, #0
 202 0120 9A62     		str	r2, [r3, #40]
 110:../firmware/gd32f3x0_hal_peripheral/Source/gd32f3x0_hal_smartcard.c ****         ((hal_smartcard_dev_struct *)p_struct)->rxbuffer.length                        = 0U;
 203              		.loc 1 110 88
 204 0122 3B68     		ldr	r3, [r7]
 205 0124 0022     		movs	r2, #0
 206 0126 DA62     		str	r2, [r3, #44]
 111:../firmware/gd32f3x0_hal_peripheral/Source/gd32f3x0_hal_smartcard.c ****         ((hal_smartcard_dev_struct *)p_struct)->rxbuffer.pos                           = 0U;
 207              		.loc 1 111 88
 208 0128 3B68     		ldr	r3, [r7]
 209 012a 0022     		movs	r2, #0
 210 012c 1A63     		str	r2, [r3, #48]
 112:../firmware/gd32f3x0_hal_peripheral/Source/gd32f3x0_hal_smartcard.c ****         ((hal_smartcard_dev_struct *)p_struct)->last_error                             = HAL_SMARTC
 211              		.loc 1 112 88
 212 012e 3B68     		ldr	r3, [r7]
 213 0130 0022     		movs	r2, #0
 214 0132 9A86     		strh	r2, [r3, #52]	@ movhi
 113:../firmware/gd32f3x0_hal_peripheral/Source/gd32f3x0_hal_smartcard.c ****         ((hal_smartcard_dev_struct *)p_struct)->error_state                            = HAL_SMARTC
 215              		.loc 1 113 88
 216 0134 3B68     		ldr	r3, [r7]
 217 0136 0022     		movs	r2, #0
 218 0138 DA86     		strh	r2, [r3, #54]	@ movhi
 114:../firmware/gd32f3x0_hal_peripheral/Source/gd32f3x0_hal_smartcard.c ****         ((hal_smartcard_dev_struct *)p_struct)->tx_state                               = SMARTCARD_
 219              		.loc 1 114 88
 220 013a 3B68     		ldr	r3, [r7]
 221 013c 0022     		movs	r2, #0
 222 013e 83F83820 		strb	r2, [r3, #56]
 115:../firmware/gd32f3x0_hal_peripheral/Source/gd32f3x0_hal_smartcard.c ****         ((hal_smartcard_dev_struct *)p_struct)->rx_state                               = SMARTCARD_
 223              		.loc 1 115 88
 224 0142 3B68     		ldr	r3, [r7]
 225 0144 0022     		movs	r2, #0
 226 0146 83F83920 		strb	r2, [r3, #57]
 116:../firmware/gd32f3x0_hal_peripheral/Source/gd32f3x0_hal_smartcard.c ****         ((hal_smartcard_dev_struct *)p_struct)->rx_callback                            = NULL;
 227              		.loc 1 116 88
 228 014a 3B68     		ldr	r3, [r7]
 229 014c 0022     		movs	r2, #0
 230 014e DA63     		str	r2, [r3, #60]
 117:../firmware/gd32f3x0_hal_peripheral/Source/gd32f3x0_hal_smartcard.c ****         ((hal_smartcard_dev_struct *)p_struct)->tx_callback                            = NULL;
 231              		.loc 1 117 88
 232 0150 3B68     		ldr	r3, [r7]
 233 0152 0022     		movs	r2, #0
 234 0154 1A64     		str	r2, [r3, #64]
 118:../firmware/gd32f3x0_hal_peripheral/Source/gd32f3x0_hal_smartcard.c ****         ((hal_smartcard_dev_struct *)p_struct)->mutex                                  = HAL_MUTEX_
 235              		.loc 1 118 88
 236 0156 3B68     		ldr	r3, [r7]
 237 0158 0022     		movs	r2, #0
 238 015a 83F84420 		strb	r2, [r3, #68]
 119:../firmware/gd32f3x0_hal_peripheral/Source/gd32f3x0_hal_smartcard.c ****         ((hal_smartcard_dev_struct *)p_struct)->priv                                   = NULL;
 239              		.loc 1 119 88
 240 015e 3B68     		ldr	r3, [r7]
 241 0160 0022     		movs	r2, #0
 242 0162 9A64     		str	r2, [r3, #72]
 120:../firmware/gd32f3x0_hal_peripheral/Source/gd32f3x0_hal_smartcard.c ****         break;
 243              		.loc 1 120 9
 244 0164 14E0     		b	.L8
 245              	.L5:
 121:../firmware/gd32f3x0_hal_peripheral/Source/gd32f3x0_hal_smartcard.c **** 
 122:../firmware/gd32f3x0_hal_peripheral/Source/gd32f3x0_hal_smartcard.c ****     case HAL_SMARTCARD_USER_CALLBCAK_STRUCT:
 123:../firmware/gd32f3x0_hal_peripheral/Source/gd32f3x0_hal_smartcard.c ****         /* initialize user callback structure with the default values */
 124:../firmware/gd32f3x0_hal_peripheral/Source/gd32f3x0_hal_smartcard.c ****         ((hal_smartcard_user_callback_struct *)p_struct)->complete_func = NULL;
 246              		.loc 1 124 73
 247 0166 3B68     		ldr	r3, [r7]
 248 0168 0022     		movs	r2, #0
 249 016a 1A60     		str	r2, [r3]
 125:../firmware/gd32f3x0_hal_peripheral/Source/gd32f3x0_hal_smartcard.c ****         ((hal_smartcard_user_callback_struct *)p_struct)->error_func = NULL;
 250              		.loc 1 125 70
 251 016c 3B68     		ldr	r3, [r7]
 252 016e 0022     		movs	r2, #0
 253 0170 5A60     		str	r2, [r3, #4]
 126:../firmware/gd32f3x0_hal_peripheral/Source/gd32f3x0_hal_smartcard.c ****         break;
 254              		.loc 1 126 9
 255 0172 0DE0     		b	.L8
 256              	.L3:
 127:../firmware/gd32f3x0_hal_peripheral/Source/gd32f3x0_hal_smartcard.c **** 
 128:../firmware/gd32f3x0_hal_peripheral/Source/gd32f3x0_hal_smartcard.c ****     case HAL_SMARTCARD_IRQ_INIT_STRUCT:
 129:../firmware/gd32f3x0_hal_peripheral/Source/gd32f3x0_hal_smartcard.c ****         /* initialize interrupt callback structure with the default values */
 130:../firmware/gd32f3x0_hal_peripheral/Source/gd32f3x0_hal_smartcard.c ****         ((hal_smartcard_irq_struct *)p_struct)->error_handle = NULL;
 257              		.loc 1 130 62
 258 0174 3B68     		ldr	r3, [r7]
 259 0176 0022     		movs	r2, #0
 260 0178 DA60     		str	r2, [r3, #12]
 131:../firmware/gd32f3x0_hal_peripheral/Source/gd32f3x0_hal_smartcard.c ****         ((hal_smartcard_irq_struct *)p_struct)->receive_complete_handle = NULL;
 261              		.loc 1 131 73
 262 017a 3B68     		ldr	r3, [r7]
 263 017c 0022     		movs	r2, #0
 264 017e 1A60     		str	r2, [r3]
 132:../firmware/gd32f3x0_hal_peripheral/Source/gd32f3x0_hal_smartcard.c ****         ((hal_smartcard_irq_struct *)p_struct)->transmit_complete_handle = NULL;
 265              		.loc 1 132 74
 266 0180 3B68     		ldr	r3, [r7]
 267 0182 0022     		movs	r2, #0
 268 0184 9A60     		str	r2, [r3, #8]
 133:../firmware/gd32f3x0_hal_peripheral/Source/gd32f3x0_hal_smartcard.c ****         ((hal_smartcard_irq_struct *)p_struct)->transmit_ready_handle = NULL;
 269              		.loc 1 133 71
 270 0186 3B68     		ldr	r3, [r7]
 271 0188 0022     		movs	r2, #0
 272 018a 5A60     		str	r2, [r3, #4]
 134:../firmware/gd32f3x0_hal_peripheral/Source/gd32f3x0_hal_smartcard.c ****         break;
 273              		.loc 1 134 9
 274 018c 00E0     		b	.L8
 275              	.L9:
 135:../firmware/gd32f3x0_hal_peripheral/Source/gd32f3x0_hal_smartcard.c **** 
 136:../firmware/gd32f3x0_hal_peripheral/Source/gd32f3x0_hal_smartcard.c ****     default:
 137:../firmware/gd32f3x0_hal_peripheral/Source/gd32f3x0_hal_smartcard.c ****         HAL_DEBUGW("parameter [hal_struct_type] value is undefine");
 138:../firmware/gd32f3x0_hal_peripheral/Source/gd32f3x0_hal_smartcard.c ****         break;
 276              		.loc 1 138 9
 277 018e 00BF     		nop
 278              	.L8:
 139:../firmware/gd32f3x0_hal_peripheral/Source/gd32f3x0_hal_smartcard.c ****     }
 140:../firmware/gd32f3x0_hal_peripheral/Source/gd32f3x0_hal_smartcard.c **** }
 279              		.loc 1 140 1
 280 0190 00BF     		nop
 281 0192 0C37     		adds	r7, r7, #12
 282              		.cfi_def_cfa_offset 4
 283 0194 BD46     		mov	sp, r7
 284              		.cfi_def_cfa_register 13
 285              		@ sp needed
 286 0196 80BC     		pop	{r7}
 287              		.cfi_restore 7
 288              		.cfi_def_cfa_offset 0
 289 0198 7047     		bx	lr
 290              		.cfi_endproc
 291              	.LFE119:
 293 019a 00BF     		.section	.text.hal_smartcard_deinit,"ax",%progbits
 294              		.align	1
 295              		.global	hal_smartcard_deinit
 296              		.syntax unified
 297              		.thumb
 298              		.thumb_func
 299              		.fpu softvfp
 301              	hal_smartcard_deinit:
 302              	.LFB120:
 141:../firmware/gd32f3x0_hal_peripheral/Source/gd32f3x0_hal_smartcard.c **** 
 142:../firmware/gd32f3x0_hal_peripheral/Source/gd32f3x0_hal_smartcard.c **** /*!
 143:../firmware/gd32f3x0_hal_peripheral/Source/gd32f3x0_hal_smartcard.c ****     \brief      deinitialize smartcard
 144:../firmware/gd32f3x0_hal_peripheral/Source/gd32f3x0_hal_smartcard.c ****     \param[in]  smartcard: smartcard device information structure
 145:../firmware/gd32f3x0_hal_peripheral/Source/gd32f3x0_hal_smartcard.c ****                     the structure is not necessary to be reconfigured after structrue initializatio
 146:../firmware/gd32f3x0_hal_peripheral/Source/gd32f3x0_hal_smartcard.c ****                     the structure parameters altering is automatically configured by core
 147:../firmware/gd32f3x0_hal_peripheral/Source/gd32f3x0_hal_smartcard.c ****     \param[out] none
 148:../firmware/gd32f3x0_hal_peripheral/Source/gd32f3x0_hal_smartcard.c ****     \retval     none
 149:../firmware/gd32f3x0_hal_peripheral/Source/gd32f3x0_hal_smartcard.c **** */
 150:../firmware/gd32f3x0_hal_peripheral/Source/gd32f3x0_hal_smartcard.c **** void hal_smartcard_deinit(hal_smartcard_dev_struct *smartcard)
 151:../firmware/gd32f3x0_hal_peripheral/Source/gd32f3x0_hal_smartcard.c **** {
 303              		.loc 1 151 1
 304              		.cfi_startproc
 305              		@ args = 0, pretend = 0, frame = 16
 306              		@ frame_needed = 1, uses_anonymous_args = 0
 307 0000 80B5     		push	{r7, lr}
 308              		.cfi_def_cfa_offset 8
 309              		.cfi_offset 7, -8
 310              		.cfi_offset 14, -4
 311 0002 84B0     		sub	sp, sp, #16
 312              		.cfi_def_cfa_offset 24
 313 0004 00AF     		add	r7, sp, #0
 314              		.cfi_def_cfa_register 7
 315 0006 7860     		str	r0, [r7, #4]
 152:../firmware/gd32f3x0_hal_peripheral/Source/gd32f3x0_hal_smartcard.c ****     uint32_t periph;
 153:../firmware/gd32f3x0_hal_peripheral/Source/gd32f3x0_hal_smartcard.c ****     periph = smartcard->periph;
 316              		.loc 1 153 12
 317 0008 7B68     		ldr	r3, [r7, #4]
 318 000a 1B68     		ldr	r3, [r3]
 319 000c FB60     		str	r3, [r7, #12]
 154:../firmware/gd32f3x0_hal_peripheral/Source/gd32f3x0_hal_smartcard.c **** 
 155:../firmware/gd32f3x0_hal_peripheral/Source/gd32f3x0_hal_smartcard.c ****     if((USART0 == periph)) {
 320              		.loc 1 155 7
 321 000e FB68     		ldr	r3, [r7, #12]
 322 0010 084A     		ldr	r2, .L13
 323 0012 9342     		cmp	r3, r2
 324 0014 09D1     		bne	.L12
 156:../firmware/gd32f3x0_hal_peripheral/Source/gd32f3x0_hal_smartcard.c ****         /* deinitialize the peripheral */
 157:../firmware/gd32f3x0_hal_peripheral/Source/gd32f3x0_hal_smartcard.c ****         hals_smartcard_deinit(periph);
 325              		.loc 1 157 9
 326 0016 F868     		ldr	r0, [r7, #12]
 327 0018 FFF7FEFF 		bl	hals_smartcard_deinit
 158:../firmware/gd32f3x0_hal_peripheral/Source/gd32f3x0_hal_smartcard.c ****         /* initialize smartcard extend initialization structure */
 159:../firmware/gd32f3x0_hal_peripheral/Source/gd32f3x0_hal_smartcard.c ****         hal_smartcard_struct_init(HAL_SMARTCARD_DEV_STRUCT, smartcard);
 328              		.loc 1 159 9
 329 001c 7968     		ldr	r1, [r7, #4]
 330 001e 0120     		movs	r0, #1
 331 0020 FFF7FEFF 		bl	hal_smartcard_struct_init
 160:../firmware/gd32f3x0_hal_peripheral/Source/gd32f3x0_hal_smartcard.c ****         smartcard->periph = periph;
 332              		.loc 1 160 27
 333 0024 7B68     		ldr	r3, [r7, #4]
 334 0026 FA68     		ldr	r2, [r7, #12]
 335 0028 1A60     		str	r2, [r3]
 336              	.L12:
 161:../firmware/gd32f3x0_hal_peripheral/Source/gd32f3x0_hal_smartcard.c ****     } else {
 162:../firmware/gd32f3x0_hal_peripheral/Source/gd32f3x0_hal_smartcard.c ****         HAL_DEBUGE("parameter [smartcard->periph] value is invalid");
 163:../firmware/gd32f3x0_hal_peripheral/Source/gd32f3x0_hal_smartcard.c ****     }
 164:../firmware/gd32f3x0_hal_peripheral/Source/gd32f3x0_hal_smartcard.c **** }
 337              		.loc 1 164 1
 338 002a 00BF     		nop
 339 002c 1037     		adds	r7, r7, #16
 340              		.cfi_def_cfa_offset 8
 341 002e BD46     		mov	sp, r7
 342              		.cfi_def_cfa_register 13
 343              		@ sp needed
 344 0030 80BD     		pop	{r7, pc}
 345              	.L14:
 346 0032 00BF     		.align	2
 347              	.L13:
 348 0034 00380140 		.word	1073821696
 349              		.cfi_endproc
 350              	.LFE120:
 352              		.section	.text.hal_smartcard_init,"ax",%progbits
 353              		.align	1
 354              		.global	hal_smartcard_init
 355              		.syntax unified
 356              		.thumb
 357              		.thumb_func
 358              		.fpu softvfp
 360              	hal_smartcard_init:
 361              	.LFB121:
 165:../firmware/gd32f3x0_hal_peripheral/Source/gd32f3x0_hal_smartcard.c **** 
 166:../firmware/gd32f3x0_hal_peripheral/Source/gd32f3x0_hal_smartcard.c **** /*!
 167:../firmware/gd32f3x0_hal_peripheral/Source/gd32f3x0_hal_smartcard.c ****     \brief      initialize smartcard
 168:../firmware/gd32f3x0_hal_peripheral/Source/gd32f3x0_hal_smartcard.c ****     \param[in]  smartcard: smartcard device information structure
 169:../firmware/gd32f3x0_hal_peripheral/Source/gd32f3x0_hal_smartcard.c ****                     the structure is not necessary to be reconfigured after structrue initializatio
 170:../firmware/gd32f3x0_hal_peripheral/Source/gd32f3x0_hal_smartcard.c ****                     the structure parameters altering is automatically configured by core
 171:../firmware/gd32f3x0_hal_peripheral/Source/gd32f3x0_hal_smartcard.c ****     \param[in]  periph: specify which SMARTCARD is initialized
 172:../firmware/gd32f3x0_hal_peripheral/Source/gd32f3x0_hal_smartcard.c ****                     this parameter can only be USART0 for gd32f3x0
 173:../firmware/gd32f3x0_hal_peripheral/Source/gd32f3x0_hal_smartcard.c ****     \param[in]  p_init: the initialization data needed to initialize smartcard
 174:../firmware/gd32f3x0_hal_peripheral/Source/gd32f3x0_hal_smartcard.c ****                   baudrate: communication baudrate
 175:../firmware/gd32f3x0_hal_peripheral/Source/gd32f3x0_hal_smartcard.c ****                   parity: SMARTCARD_PARITY_EVEN, SMARTCARD_PARITY_ODD
 176:../firmware/gd32f3x0_hal_peripheral/Source/gd32f3x0_hal_smartcard.c ****                   word_length: SMARTCARD_WORD_LENGTH_9BIT
 177:../firmware/gd32f3x0_hal_peripheral/Source/gd32f3x0_hal_smartcard.c ****                   stop_bit: SMARTCARD_STOP_BIT_0_5, SMARTCARD_STOP_BIT_1_5
 178:../firmware/gd32f3x0_hal_peripheral/Source/gd32f3x0_hal_smartcard.c ****                   direction: SMARTCARD_DIRECTION_RX_TX, SMARTCARD_DIRECTION_RX_ONLY, SMARTCARD_DIRE
 179:../firmware/gd32f3x0_hal_peripheral/Source/gd32f3x0_hal_smartcard.c ****                   clock_polarity: SMARTCARD_CLOCK_POLARITY_LOW, SMARTCARD_CLOCK_POLARITY_HIGH
 180:../firmware/gd32f3x0_hal_peripheral/Source/gd32f3x0_hal_smartcard.c ****                   clock_phase: SMARTCARD_CLOCK_PHASE_1CK, SMARTCARD_CLOCK_PHASE_2CK
 181:../firmware/gd32f3x0_hal_peripheral/Source/gd32f3x0_hal_smartcard.c ****                   clock_length_lastbit: SMARTCARD_LAST_BIT_NOT_OUTPUT, SMARTCARD_LAST_BIT_OUTPUT
 182:../firmware/gd32f3x0_hal_peripheral/Source/gd32f3x0_hal_smartcard.c ****                   prescaler: 2,4,6 - 62
 183:../firmware/gd32f3x0_hal_peripheral/Source/gd32f3x0_hal_smartcard.c ****                   guard_time: 0 - 255
 184:../firmware/gd32f3x0_hal_peripheral/Source/gd32f3x0_hal_smartcard.c ****                   nack_state: SMARTCARD_NACK_DISABLE, SMARTCARD_NACK_ENABLE
 185:../firmware/gd32f3x0_hal_peripheral/Source/gd32f3x0_hal_smartcard.c ****                   early_nack: DISABLE, ENABLE
 186:../firmware/gd32f3x0_hal_peripheral/Source/gd32f3x0_hal_smartcard.c ****                   rx_fifo_en: DISABLE, ENABLE
 187:../firmware/gd32f3x0_hal_peripheral/Source/gd32f3x0_hal_smartcard.c ****                   timeout_enable: DISABLE, ENABLE
 188:../firmware/gd32f3x0_hal_peripheral/Source/gd32f3x0_hal_smartcard.c ****                   timeout_value: 0 - (2^24-1)
 189:../firmware/gd32f3x0_hal_peripheral/Source/gd32f3x0_hal_smartcard.c ****                   sample_method: SMARTCARD_THREE_SAMPLE_BIT, SMARTCARD_ONE_SAMPLE_BIT
 190:../firmware/gd32f3x0_hal_peripheral/Source/gd32f3x0_hal_smartcard.c ****                   block_length: 0 - 255
 191:../firmware/gd32f3x0_hal_peripheral/Source/gd32f3x0_hal_smartcard.c ****                   auto_retry_count: 0 - 7
 192:../firmware/gd32f3x0_hal_peripheral/Source/gd32f3x0_hal_smartcard.c ****                   first_bit_msb: DISABLE, ENABLE
 193:../firmware/gd32f3x0_hal_peripheral/Source/gd32f3x0_hal_smartcard.c ****                   tx_rx_swap: DISABLE, ENABLE
 194:../firmware/gd32f3x0_hal_peripheral/Source/gd32f3x0_hal_smartcard.c ****                   rx_level_invert: DISABLE, ENABLE
 195:../firmware/gd32f3x0_hal_peripheral/Source/gd32f3x0_hal_smartcard.c ****                   tx_level_invert: DISABLE, ENABLE
 196:../firmware/gd32f3x0_hal_peripheral/Source/gd32f3x0_hal_smartcard.c ****                   data_bit_invert: DISABLE, ENABLE
 197:../firmware/gd32f3x0_hal_peripheral/Source/gd32f3x0_hal_smartcard.c ****                   overrun_disable: DISABLE, ENABLE
 198:../firmware/gd32f3x0_hal_peripheral/Source/gd32f3x0_hal_smartcard.c ****                   rx_error_dma_stop: DISABLE, ENABLE
 199:../firmware/gd32f3x0_hal_peripheral/Source/gd32f3x0_hal_smartcard.c ****     \param[out] none
 200:../firmware/gd32f3x0_hal_peripheral/Source/gd32f3x0_hal_smartcard.c ****     \retval     error code: HAL_ERR_NONE, HAL_ERR_ADDRESS, HAL_ERR_VAL, details refer to gd32f3x0_h
 201:../firmware/gd32f3x0_hal_peripheral/Source/gd32f3x0_hal_smartcard.c **** */
 202:../firmware/gd32f3x0_hal_peripheral/Source/gd32f3x0_hal_smartcard.c **** int32_t hal_smartcard_init(hal_smartcard_dev_struct *smartcard, uint32_t periph, hal_smartcard_init
 203:../firmware/gd32f3x0_hal_peripheral/Source/gd32f3x0_hal_smartcard.c **** {
 362              		.loc 1 203 1
 363              		.cfi_startproc
 364              		@ args = 0, pretend = 0, frame = 24
 365              		@ frame_needed = 1, uses_anonymous_args = 0
 366 0000 80B5     		push	{r7, lr}
 367              		.cfi_def_cfa_offset 8
 368              		.cfi_offset 7, -8
 369              		.cfi_offset 14, -4
 370 0002 86B0     		sub	sp, sp, #24
 371              		.cfi_def_cfa_offset 32
 372 0004 00AF     		add	r7, sp, #0
 373              		.cfi_def_cfa_register 7
 374 0006 F860     		str	r0, [r7, #12]
 375 0008 B960     		str	r1, [r7, #8]
 376 000a 7A60     		str	r2, [r7, #4]
 204:../firmware/gd32f3x0_hal_peripheral/Source/gd32f3x0_hal_smartcard.c ****     uint32_t reg_temp;
 205:../firmware/gd32f3x0_hal_peripheral/Source/gd32f3x0_hal_smartcard.c **** 
 206:../firmware/gd32f3x0_hal_peripheral/Source/gd32f3x0_hal_smartcard.c **** #if (1U == HAL_PARAMETER_CHECK)
 207:../firmware/gd32f3x0_hal_peripheral/Source/gd32f3x0_hal_smartcard.c ****     /* check smartcard pointer and p_init address */
 208:../firmware/gd32f3x0_hal_peripheral/Source/gd32f3x0_hal_smartcard.c ****     if((NULL == smartcard) || (NULL == p_init)) {
 209:../firmware/gd32f3x0_hal_peripheral/Source/gd32f3x0_hal_smartcard.c ****         HAL_DEBUGE("pointer [smartcard] or [p_init] address is invalid");
 210:../firmware/gd32f3x0_hal_peripheral/Source/gd32f3x0_hal_smartcard.c ****         return HAL_ERR_ADDRESS;
 211:../firmware/gd32f3x0_hal_peripheral/Source/gd32f3x0_hal_smartcard.c ****     }
 212:../firmware/gd32f3x0_hal_peripheral/Source/gd32f3x0_hal_smartcard.c **** 
 213:../firmware/gd32f3x0_hal_peripheral/Source/gd32f3x0_hal_smartcard.c ****     /* check periph parameter */
 214:../firmware/gd32f3x0_hal_peripheral/Source/gd32f3x0_hal_smartcard.c ****     if(USART0 != periph) {
 215:../firmware/gd32f3x0_hal_peripheral/Source/gd32f3x0_hal_smartcard.c ****         HAL_DEBUGE("parameter [periph] value is invalid");
 216:../firmware/gd32f3x0_hal_peripheral/Source/gd32f3x0_hal_smartcard.c ****         return HAL_ERR_VAL;
 217:../firmware/gd32f3x0_hal_peripheral/Source/gd32f3x0_hal_smartcard.c ****     }
 218:../firmware/gd32f3x0_hal_peripheral/Source/gd32f3x0_hal_smartcard.c **** 
 219:../firmware/gd32f3x0_hal_peripheral/Source/gd32f3x0_hal_smartcard.c ****     /* check periph value from smartcard device struct */
 220:../firmware/gd32f3x0_hal_peripheral/Source/gd32f3x0_hal_smartcard.c ****     if(0U != smartcard->periph) {
 221:../firmware/gd32f3x0_hal_peripheral/Source/gd32f3x0_hal_smartcard.c ****         HAL_DEBUGI("periph value from smartcard device struct has been rewrite");
 222:../firmware/gd32f3x0_hal_peripheral/Source/gd32f3x0_hal_smartcard.c ****     }
 223:../firmware/gd32f3x0_hal_peripheral/Source/gd32f3x0_hal_smartcard.c **** #endif /* 1U == HAL_PARAMETER_CHECK */
 224:../firmware/gd32f3x0_hal_peripheral/Source/gd32f3x0_hal_smartcard.c **** 
 225:../firmware/gd32f3x0_hal_peripheral/Source/gd32f3x0_hal_smartcard.c ****     /* lock smartcard */
 226:../firmware/gd32f3x0_hal_peripheral/Source/gd32f3x0_hal_smartcard.c ****     HAL_LOCK(smartcard);
 377              		.loc 1 226 5
 378 000c FB68     		ldr	r3, [r7, #12]
 379 000e 93F84430 		ldrb	r3, [r3, #68]	@ zero_extendqisi2
 380 0012 012B     		cmp	r3, #1
 381 0014 02D1     		bne	.L16
 382              		.loc 1 226 5 is_stmt 0 discriminator 1
 383 0016 6FF00103 		mvn	r3, #1
 384 001a 8BE1     		b	.L17
 385              	.L16:
 386              		.loc 1 226 5 discriminator 2
 387 001c FB68     		ldr	r3, [r7, #12]
 388 001e 0122     		movs	r2, #1
 389 0020 83F84420 		strb	r2, [r3, #68]
 227:../firmware/gd32f3x0_hal_peripheral/Source/gd32f3x0_hal_smartcard.c **** 
 228:../firmware/gd32f3x0_hal_peripheral/Source/gd32f3x0_hal_smartcard.c ****     smartcard->periph   = periph;
 390              		.loc 1 228 25 is_stmt 1 discriminator 2
 391 0024 FB68     		ldr	r3, [r7, #12]
 392 0026 BA68     		ldr	r2, [r7, #8]
 393 0028 1A60     		str	r2, [r3]
 229:../firmware/gd32f3x0_hal_peripheral/Source/gd32f3x0_hal_smartcard.c **** 
 230:../firmware/gd32f3x0_hal_peripheral/Source/gd32f3x0_hal_smartcard.c ****     /* disable the peripheral */
 231:../firmware/gd32f3x0_hal_peripheral/Source/gd32f3x0_hal_smartcard.c ****     hals_smartcard_disable(periph);
 394              		.loc 1 231 5 discriminator 2
 395 002a B868     		ldr	r0, [r7, #8]
 396 002c FFF7FEFF 		bl	hals_smartcard_disable
 232:../firmware/gd32f3x0_hal_peripheral/Source/gd32f3x0_hal_smartcard.c **** 
 233:../firmware/gd32f3x0_hal_peripheral/Source/gd32f3x0_hal_smartcard.c ****     /* configure CTL0 register */
 234:../firmware/gd32f3x0_hal_peripheral/Source/gd32f3x0_hal_smartcard.c ****     reg_temp = USART_CTL0(periph);
 397              		.loc 1 234 16 discriminator 2
 398 0030 BB68     		ldr	r3, [r7, #8]
 399              		.loc 1 234 14 discriminator 2
 400 0032 1B68     		ldr	r3, [r3]
 401 0034 7B61     		str	r3, [r7, #20]
 235:../firmware/gd32f3x0_hal_peripheral/Source/gd32f3x0_hal_smartcard.c ****     reg_temp &= ~(USART_CTL0_PM | USART_CTL0_PCEN | USART_CTL0_WL | USART_CTL0_OVSMOD | \
 402              		.loc 1 235 14 discriminator 2
 403 0036 7B69     		ldr	r3, [r7, #20]
 404 0038 23F41643 		bic	r3, r3, #38400
 405 003c 23F00C03 		bic	r3, r3, #12
 406 0040 7B61     		str	r3, [r7, #20]
 236:../firmware/gd32f3x0_hal_peripheral/Source/gd32f3x0_hal_smartcard.c ****                   USART_CTL0_REN | USART_CTL0_TEN);
 237:../firmware/gd32f3x0_hal_peripheral/Source/gd32f3x0_hal_smartcard.c ****     reg_temp |= (p_init->direction | p_init->parity | p_init->word_length);
 407              		.loc 1 237 24 discriminator 2
 408 0042 7B68     		ldr	r3, [r7, #4]
 409 0044 1A69     		ldr	r2, [r3, #16]
 410              		.loc 1 237 44 discriminator 2
 411 0046 7B68     		ldr	r3, [r7, #4]
 412 0048 5B68     		ldr	r3, [r3, #4]
 413              		.loc 1 237 36 discriminator 2
 414 004a 1A43     		orrs	r2, r2, r3
 415              		.loc 1 237 61 discriminator 2
 416 004c 7B68     		ldr	r3, [r7, #4]
 417 004e 9B68     		ldr	r3, [r3, #8]
 418              		.loc 1 237 53 discriminator 2
 419 0050 1343     		orrs	r3, r3, r2
 420              		.loc 1 237 14 discriminator 2
 421 0052 7A69     		ldr	r2, [r7, #20]
 422 0054 1343     		orrs	r3, r3, r2
 423 0056 7B61     		str	r3, [r7, #20]
 238:../firmware/gd32f3x0_hal_peripheral/Source/gd32f3x0_hal_smartcard.c ****     USART_CTL0(periph) = reg_temp;
 424              		.loc 1 238 5 discriminator 2
 425 0058 BB68     		ldr	r3, [r7, #8]
 426              		.loc 1 238 24 discriminator 2
 427 005a 7A69     		ldr	r2, [r7, #20]
 428 005c 1A60     		str	r2, [r3]
 239:../firmware/gd32f3x0_hal_peripheral/Source/gd32f3x0_hal_smartcard.c **** 
 240:../firmware/gd32f3x0_hal_peripheral/Source/gd32f3x0_hal_smartcard.c ****     /* configure CTL1 register */
 241:../firmware/gd32f3x0_hal_peripheral/Source/gd32f3x0_hal_smartcard.c ****     reg_temp = USART_CTL1(periph);
 429              		.loc 1 241 16 discriminator 2
 430 005e BB68     		ldr	r3, [r7, #8]
 431 0060 0433     		adds	r3, r3, #4
 432              		.loc 1 241 14 discriminator 2
 433 0062 1B68     		ldr	r3, [r3]
 434 0064 7B61     		str	r3, [r7, #20]
 242:../firmware/gd32f3x0_hal_peripheral/Source/gd32f3x0_hal_smartcard.c ****     reg_temp &= ~(USART_CTL1_RTEN | USART_CTL1_CLEN | USART_CTL1_CPH | USART_CTL1_CPL | \
 435              		.loc 1 242 14 discriminator 2
 436 0066 7B69     		ldr	r3, [r7, #20]
 437 0068 23F40003 		bic	r3, r3, #8388608
 438 006c 23F47C53 		bic	r3, r3, #16128
 439 0070 7B61     		str	r3, [r7, #20]
 243:../firmware/gd32f3x0_hal_peripheral/Source/gd32f3x0_hal_smartcard.c ****                   USART_CTL1_CKEN | USART_CTL1_STB);
 244:../firmware/gd32f3x0_hal_peripheral/Source/gd32f3x0_hal_smartcard.c ****     /* Synchronous mode is activated by default */
 245:../firmware/gd32f3x0_hal_peripheral/Source/gd32f3x0_hal_smartcard.c ****     reg_temp |= (USART_CTL1_CKEN | p_init->clock_polarity | p_init->clock_phase | \
 440              		.loc 1 245 42 discriminator 2
 441 0072 7B68     		ldr	r3, [r7, #4]
 442 0074 5A69     		ldr	r2, [r3, #20]
 443              		.loc 1 245 67 discriminator 2
 444 0076 7B68     		ldr	r3, [r7, #4]
 445 0078 9B69     		ldr	r3, [r3, #24]
 446              		.loc 1 245 59 discriminator 2
 447 007a 1A43     		orrs	r2, r2, r3
 246:../firmware/gd32f3x0_hal_peripheral/Source/gd32f3x0_hal_smartcard.c ****                  p_init->clock_length_lastbit | p_init->stop_bit);
 448              		.loc 1 246 24 discriminator 2
 449 007c 7B68     		ldr	r3, [r7, #4]
 450 007e DB69     		ldr	r3, [r3, #28]
 245:../firmware/gd32f3x0_hal_peripheral/Source/gd32f3x0_hal_smartcard.c ****                  p_init->clock_length_lastbit | p_init->stop_bit);
 451              		.loc 1 245 81 discriminator 2
 452 0080 1A43     		orrs	r2, r2, r3
 453              		.loc 1 246 55 discriminator 2
 454 0082 7B68     		ldr	r3, [r7, #4]
 455 0084 DB68     		ldr	r3, [r3, #12]
 456              		.loc 1 246 47 discriminator 2
 457 0086 1A43     		orrs	r2, r2, r3
 245:../firmware/gd32f3x0_hal_peripheral/Source/gd32f3x0_hal_smartcard.c ****                  p_init->clock_length_lastbit | p_init->stop_bit);
 458              		.loc 1 245 14 discriminator 2
 459 0088 7B69     		ldr	r3, [r7, #20]
 460 008a 1343     		orrs	r3, r3, r2
 461 008c 43F40063 		orr	r3, r3, #2048
 462 0090 7B61     		str	r3, [r7, #20]
 247:../firmware/gd32f3x0_hal_peripheral/Source/gd32f3x0_hal_smartcard.c ****     USART_CTL1(periph) = reg_temp;
 463              		.loc 1 247 5 discriminator 2
 464 0092 BB68     		ldr	r3, [r7, #8]
 465 0094 0433     		adds	r3, r3, #4
 466 0096 1A46     		mov	r2, r3
 467              		.loc 1 247 24 discriminator 2
 468 0098 7B69     		ldr	r3, [r7, #20]
 469 009a 1360     		str	r3, [r2]
 248:../firmware/gd32f3x0_hal_peripheral/Source/gd32f3x0_hal_smartcard.c **** 
 249:../firmware/gd32f3x0_hal_peripheral/Source/gd32f3x0_hal_smartcard.c ****     /* configure timeout enable */
 250:../firmware/gd32f3x0_hal_peripheral/Source/gd32f3x0_hal_smartcard.c ****     if(ENABLE == p_init->timeout_enable) {
 470              		.loc 1 250 24 discriminator 2
 471 009c 7B68     		ldr	r3, [r7, #4]
 472 009e 93F82E30 		ldrb	r3, [r3, #46]	@ zero_extendqisi2
 473              		.loc 1 250 7 discriminator 2
 474 00a2 012B     		cmp	r3, #1
 475 00a4 08D1     		bne	.L18
 251:../firmware/gd32f3x0_hal_peripheral/Source/gd32f3x0_hal_smartcard.c ****         USART_CTL1(periph) |= USART_CTL1_RTEN;
 476              		.loc 1 251 28
 477 00a6 BB68     		ldr	r3, [r7, #8]
 478 00a8 0433     		adds	r3, r3, #4
 479 00aa 1B68     		ldr	r3, [r3]
 480 00ac BA68     		ldr	r2, [r7, #8]
 481 00ae 0432     		adds	r2, r2, #4
 482 00b0 43F40003 		orr	r3, r3, #8388608
 483 00b4 1360     		str	r3, [r2]
 484 00b6 07E0     		b	.L19
 485              	.L18:
 252:../firmware/gd32f3x0_hal_peripheral/Source/gd32f3x0_hal_smartcard.c ****     } else {
 253:../firmware/gd32f3x0_hal_peripheral/Source/gd32f3x0_hal_smartcard.c ****         USART_CTL1(periph) &= ~(USART_CTL1_RTEN);
 486              		.loc 1 253 28
 487 00b8 BB68     		ldr	r3, [r7, #8]
 488 00ba 0433     		adds	r3, r3, #4
 489 00bc 1B68     		ldr	r3, [r3]
 490 00be BA68     		ldr	r2, [r7, #8]
 491 00c0 0432     		adds	r2, r2, #4
 492 00c2 23F40003 		bic	r3, r3, #8388608
 493 00c6 1360     		str	r3, [r2]
 494              	.L19:
 254:../firmware/gd32f3x0_hal_peripheral/Source/gd32f3x0_hal_smartcard.c ****     }
 255:../firmware/gd32f3x0_hal_peripheral/Source/gd32f3x0_hal_smartcard.c ****     /* configure data inversion */
 256:../firmware/gd32f3x0_hal_peripheral/Source/gd32f3x0_hal_smartcard.c ****     if(ENABLE == p_init->data_bit_invert) {
 495              		.loc 1 256 24
 496 00c8 7B68     		ldr	r3, [r7, #4]
 497 00ca 93F84430 		ldrb	r3, [r3, #68]	@ zero_extendqisi2
 498              		.loc 1 256 7
 499 00ce 012B     		cmp	r3, #1
 500 00d0 08D1     		bne	.L20
 257:../firmware/gd32f3x0_hal_peripheral/Source/gd32f3x0_hal_smartcard.c ****         USART_CTL1(periph) |= USART_CTL1_DINV;
 501              		.loc 1 257 28
 502 00d2 BB68     		ldr	r3, [r7, #8]
 503 00d4 0433     		adds	r3, r3, #4
 504 00d6 1B68     		ldr	r3, [r3]
 505 00d8 BA68     		ldr	r2, [r7, #8]
 506 00da 0432     		adds	r2, r2, #4
 507 00dc 43F48023 		orr	r3, r3, #262144
 508 00e0 1360     		str	r3, [r2]
 509 00e2 07E0     		b	.L21
 510              	.L20:
 258:../firmware/gd32f3x0_hal_peripheral/Source/gd32f3x0_hal_smartcard.c ****     } else {
 259:../firmware/gd32f3x0_hal_peripheral/Source/gd32f3x0_hal_smartcard.c ****         USART_CTL1(periph) &= ~(USART_CTL1_DINV);
 511              		.loc 1 259 28
 512 00e4 BB68     		ldr	r3, [r7, #8]
 513 00e6 0433     		adds	r3, r3, #4
 514 00e8 1B68     		ldr	r3, [r3]
 515 00ea BA68     		ldr	r2, [r7, #8]
 516 00ec 0432     		adds	r2, r2, #4
 517 00ee 23F48023 		bic	r3, r3, #262144
 518 00f2 1360     		str	r3, [r2]
 519              	.L21:
 260:../firmware/gd32f3x0_hal_peripheral/Source/gd32f3x0_hal_smartcard.c ****     }
 261:../firmware/gd32f3x0_hal_peripheral/Source/gd32f3x0_hal_smartcard.c ****     /* configure Rx pin active level inversion */
 262:../firmware/gd32f3x0_hal_peripheral/Source/gd32f3x0_hal_smartcard.c ****     if(ENABLE == p_init->rx_level_invert) {
 520              		.loc 1 262 24
 521 00f4 7B68     		ldr	r3, [r7, #4]
 522 00f6 93F84230 		ldrb	r3, [r3, #66]	@ zero_extendqisi2
 523              		.loc 1 262 7
 524 00fa 012B     		cmp	r3, #1
 525 00fc 08D1     		bne	.L22
 263:../firmware/gd32f3x0_hal_peripheral/Source/gd32f3x0_hal_smartcard.c ****         USART_CTL1(periph) |= USART_CTL1_RINV;
 526              		.loc 1 263 28
 527 00fe BB68     		ldr	r3, [r7, #8]
 528 0100 0433     		adds	r3, r3, #4
 529 0102 1B68     		ldr	r3, [r3]
 530 0104 BA68     		ldr	r2, [r7, #8]
 531 0106 0432     		adds	r2, r2, #4
 532 0108 43F48033 		orr	r3, r3, #65536
 533 010c 1360     		str	r3, [r2]
 534 010e 07E0     		b	.L23
 535              	.L22:
 264:../firmware/gd32f3x0_hal_peripheral/Source/gd32f3x0_hal_smartcard.c ****     } else {
 265:../firmware/gd32f3x0_hal_peripheral/Source/gd32f3x0_hal_smartcard.c ****         USART_CTL1(periph) &= ~(USART_CTL1_RINV);
 536              		.loc 1 265 28
 537 0110 BB68     		ldr	r3, [r7, #8]
 538 0112 0433     		adds	r3, r3, #4
 539 0114 1B68     		ldr	r3, [r3]
 540 0116 BA68     		ldr	r2, [r7, #8]
 541 0118 0432     		adds	r2, r2, #4
 542 011a 23F48033 		bic	r3, r3, #65536
 543 011e 1360     		str	r3, [r2]
 544              	.L23:
 266:../firmware/gd32f3x0_hal_peripheral/Source/gd32f3x0_hal_smartcard.c ****     }
 267:../firmware/gd32f3x0_hal_peripheral/Source/gd32f3x0_hal_smartcard.c ****     /* configure Tx pin active level inversion */
 268:../firmware/gd32f3x0_hal_peripheral/Source/gd32f3x0_hal_smartcard.c ****     if(ENABLE == p_init->tx_level_invert) {
 545              		.loc 1 268 24
 546 0120 7B68     		ldr	r3, [r7, #4]
 547 0122 93F84330 		ldrb	r3, [r3, #67]	@ zero_extendqisi2
 548              		.loc 1 268 7
 549 0126 012B     		cmp	r3, #1
 550 0128 08D1     		bne	.L24
 269:../firmware/gd32f3x0_hal_peripheral/Source/gd32f3x0_hal_smartcard.c ****         USART_CTL1(periph) |= USART_CTL1_TINV;
 551              		.loc 1 269 28
 552 012a BB68     		ldr	r3, [r7, #8]
 553 012c 0433     		adds	r3, r3, #4
 554 012e 1B68     		ldr	r3, [r3]
 555 0130 BA68     		ldr	r2, [r7, #8]
 556 0132 0432     		adds	r2, r2, #4
 557 0134 43F40033 		orr	r3, r3, #131072
 558 0138 1360     		str	r3, [r2]
 559 013a 07E0     		b	.L25
 560              	.L24:
 270:../firmware/gd32f3x0_hal_peripheral/Source/gd32f3x0_hal_smartcard.c ****     } else {
 271:../firmware/gd32f3x0_hal_peripheral/Source/gd32f3x0_hal_smartcard.c ****         USART_CTL1(periph) &= ~(USART_CTL1_TINV);
 561              		.loc 1 271 28
 562 013c BB68     		ldr	r3, [r7, #8]
 563 013e 0433     		adds	r3, r3, #4
 564 0140 1B68     		ldr	r3, [r3]
 565 0142 BA68     		ldr	r2, [r7, #8]
 566 0144 0432     		adds	r2, r2, #4
 567 0146 23F40033 		bic	r3, r3, #131072
 568 014a 1360     		str	r3, [r2]
 569              	.L25:
 272:../firmware/gd32f3x0_hal_peripheral/Source/gd32f3x0_hal_smartcard.c ****     }
 273:../firmware/gd32f3x0_hal_peripheral/Source/gd32f3x0_hal_smartcard.c ****     /* configure Rx/Tx pins swap */
 274:../firmware/gd32f3x0_hal_peripheral/Source/gd32f3x0_hal_smartcard.c ****     if(ENABLE == p_init->tx_rx_swap) {
 570              		.loc 1 274 24
 571 014c 7B68     		ldr	r3, [r7, #4]
 572 014e 93F84130 		ldrb	r3, [r3, #65]	@ zero_extendqisi2
 573              		.loc 1 274 7
 574 0152 012B     		cmp	r3, #1
 575 0154 08D1     		bne	.L26
 275:../firmware/gd32f3x0_hal_peripheral/Source/gd32f3x0_hal_smartcard.c ****         USART_CTL1(periph) |= USART_CTL1_STRP;
 576              		.loc 1 275 28
 577 0156 BB68     		ldr	r3, [r7, #8]
 578 0158 0433     		adds	r3, r3, #4
 579 015a 1B68     		ldr	r3, [r3]
 580 015c BA68     		ldr	r2, [r7, #8]
 581 015e 0432     		adds	r2, r2, #4
 582 0160 43F40043 		orr	r3, r3, #32768
 583 0164 1360     		str	r3, [r2]
 584 0166 07E0     		b	.L27
 585              	.L26:
 276:../firmware/gd32f3x0_hal_peripheral/Source/gd32f3x0_hal_smartcard.c ****     } else {
 277:../firmware/gd32f3x0_hal_peripheral/Source/gd32f3x0_hal_smartcard.c ****         USART_CTL1(periph) &= ~(USART_CTL1_STRP);
 586              		.loc 1 277 28
 587 0168 BB68     		ldr	r3, [r7, #8]
 588 016a 0433     		adds	r3, r3, #4
 589 016c 1B68     		ldr	r3, [r3]
 590 016e BA68     		ldr	r2, [r7, #8]
 591 0170 0432     		adds	r2, r2, #4
 592 0172 23F40043 		bic	r3, r3, #32768
 593 0176 1360     		str	r3, [r2]
 594              	.L27:
 278:../firmware/gd32f3x0_hal_peripheral/Source/gd32f3x0_hal_smartcard.c ****     }
 279:../firmware/gd32f3x0_hal_peripheral/Source/gd32f3x0_hal_smartcard.c ****     /* configure MSB first on communication line */
 280:../firmware/gd32f3x0_hal_peripheral/Source/gd32f3x0_hal_smartcard.c ****     if(ENABLE == p_init->first_bit_msb) {
 595              		.loc 1 280 24
 596 0178 7B68     		ldr	r3, [r7, #4]
 597 017a 93F84030 		ldrb	r3, [r3, #64]	@ zero_extendqisi2
 598              		.loc 1 280 7
 599 017e 012B     		cmp	r3, #1
 600 0180 08D1     		bne	.L28
 281:../firmware/gd32f3x0_hal_peripheral/Source/gd32f3x0_hal_smartcard.c ****         USART_CTL1(periph) |= USART_CTL1_MSBF;
 601              		.loc 1 281 28
 602 0182 BB68     		ldr	r3, [r7, #8]
 603 0184 0433     		adds	r3, r3, #4
 604 0186 1B68     		ldr	r3, [r3]
 605 0188 BA68     		ldr	r2, [r7, #8]
 606 018a 0432     		adds	r2, r2, #4
 607 018c 43F40023 		orr	r3, r3, #524288
 608 0190 1360     		str	r3, [r2]
 609 0192 07E0     		b	.L29
 610              	.L28:
 282:../firmware/gd32f3x0_hal_peripheral/Source/gd32f3x0_hal_smartcard.c ****     } else {
 283:../firmware/gd32f3x0_hal_peripheral/Source/gd32f3x0_hal_smartcard.c ****         USART_CTL1(periph) &= ~(USART_CTL1_MSBF);
 611              		.loc 1 283 28
 612 0194 BB68     		ldr	r3, [r7, #8]
 613 0196 0433     		adds	r3, r3, #4
 614 0198 1B68     		ldr	r3, [r3]
 615 019a BA68     		ldr	r2, [r7, #8]
 616 019c 0432     		adds	r2, r2, #4
 617 019e 23F40023 		bic	r3, r3, #524288
 618 01a2 1360     		str	r3, [r2]
 619              	.L29:
 284:../firmware/gd32f3x0_hal_peripheral/Source/gd32f3x0_hal_smartcard.c ****     }
 285:../firmware/gd32f3x0_hal_peripheral/Source/gd32f3x0_hal_smartcard.c **** 
 286:../firmware/gd32f3x0_hal_peripheral/Source/gd32f3x0_hal_smartcard.c ****     /* configure CTL2 register */
 287:../firmware/gd32f3x0_hal_peripheral/Source/gd32f3x0_hal_smartcard.c ****     reg_temp = USART_CTL2(periph);
 620              		.loc 1 287 16
 621 01a4 BB68     		ldr	r3, [r7, #8]
 622 01a6 0833     		adds	r3, r3, #8
 623              		.loc 1 287 14
 624 01a8 1B68     		ldr	r3, [r3]
 625 01aa 7B61     		str	r3, [r7, #20]
 288:../firmware/gd32f3x0_hal_peripheral/Source/gd32f3x0_hal_smartcard.c ****     reg_temp &= ~(USART_CTL2_OSB | USART_CTL2_NKEN | USART_CTL2_SCRTNUM);
 626              		.loc 1 288 14
 627 01ac 7B69     		ldr	r3, [r7, #20]
 628 01ae 23F46023 		bic	r3, r3, #917504
 629 01b2 23F40163 		bic	r3, r3, #2064
 630 01b6 7B61     		str	r3, [r7, #20]
 289:../firmware/gd32f3x0_hal_peripheral/Source/gd32f3x0_hal_smartcard.c ****     reg_temp |= (p_init->sample_method | p_init->nack_state | (p_init->auto_retry_count << 17U));
 631              		.loc 1 289 24
 632 01b8 7B68     		ldr	r3, [r7, #4]
 633 01ba 5A6B     		ldr	r2, [r3, #52]
 634              		.loc 1 289 48
 635 01bc 7B68     		ldr	r3, [r7, #4]
 636 01be 9B6A     		ldr	r3, [r3, #40]
 637              		.loc 1 289 40
 638 01c0 1A43     		orrs	r2, r2, r3
 639              		.loc 1 289 70
 640 01c2 7B68     		ldr	r3, [r7, #4]
 641 01c4 DB6B     		ldr	r3, [r3, #60]
 642              		.loc 1 289 89
 643 01c6 5B04     		lsls	r3, r3, #17
 644              		.loc 1 289 61
 645 01c8 1343     		orrs	r3, r3, r2
 646              		.loc 1 289 14
 647 01ca 7A69     		ldr	r2, [r7, #20]
 648 01cc 1343     		orrs	r3, r3, r2
 649 01ce 7B61     		str	r3, [r7, #20]
 290:../firmware/gd32f3x0_hal_peripheral/Source/gd32f3x0_hal_smartcard.c ****     USART_CTL2(periph) = reg_temp;
 650              		.loc 1 290 5
 651 01d0 BB68     		ldr	r3, [r7, #8]
 652 01d2 0833     		adds	r3, r3, #8
 653 01d4 1A46     		mov	r2, r3
 654              		.loc 1 290 24
 655 01d6 7B69     		ldr	r3, [r7, #20]
 656 01d8 1360     		str	r3, [r2]
 291:../firmware/gd32f3x0_hal_peripheral/Source/gd32f3x0_hal_smartcard.c ****     /* configure Rx overrun detection disabling */
 292:../firmware/gd32f3x0_hal_peripheral/Source/gd32f3x0_hal_smartcard.c ****     if(ENABLE == p_init->overrun_disable) {
 657              		.loc 1 292 24
 658 01da 7B68     		ldr	r3, [r7, #4]
 659 01dc 93F84530 		ldrb	r3, [r3, #69]	@ zero_extendqisi2
 660              		.loc 1 292 7
 661 01e0 012B     		cmp	r3, #1
 662 01e2 08D1     		bne	.L30
 293:../firmware/gd32f3x0_hal_peripheral/Source/gd32f3x0_hal_smartcard.c ****         USART_CTL2(periph) |= USART_CTL2_OVRD;
 663              		.loc 1 293 28
 664 01e4 BB68     		ldr	r3, [r7, #8]
 665 01e6 0833     		adds	r3, r3, #8
 666 01e8 1B68     		ldr	r3, [r3]
 667 01ea BA68     		ldr	r2, [r7, #8]
 668 01ec 0832     		adds	r2, r2, #8
 669 01ee 43F48053 		orr	r3, r3, #4096
 670 01f2 1360     		str	r3, [r2]
 671 01f4 07E0     		b	.L31
 672              	.L30:
 294:../firmware/gd32f3x0_hal_peripheral/Source/gd32f3x0_hal_smartcard.c ****     } else {
 295:../firmware/gd32f3x0_hal_peripheral/Source/gd32f3x0_hal_smartcard.c ****         USART_CTL2(periph) &= ~(USART_CTL2_OVRD);
 673              		.loc 1 295 28
 674 01f6 BB68     		ldr	r3, [r7, #8]
 675 01f8 0833     		adds	r3, r3, #8
 676 01fa 1B68     		ldr	r3, [r3]
 677 01fc BA68     		ldr	r2, [r7, #8]
 678 01fe 0832     		adds	r2, r2, #8
 679 0200 23F48053 		bic	r3, r3, #4096
 680 0204 1360     		str	r3, [r2]
 681              	.L31:
 296:../firmware/gd32f3x0_hal_peripheral/Source/gd32f3x0_hal_smartcard.c ****     }
 297:../firmware/gd32f3x0_hal_peripheral/Source/gd32f3x0_hal_smartcard.c **** 
 298:../firmware/gd32f3x0_hal_peripheral/Source/gd32f3x0_hal_smartcard.c ****     /* configure DMA disabling on reception error */
 299:../firmware/gd32f3x0_hal_peripheral/Source/gd32f3x0_hal_smartcard.c ****     if(ENABLE == p_init->rx_error_dma_stop) {
 682              		.loc 1 299 24
 683 0206 7B68     		ldr	r3, [r7, #4]
 684 0208 93F84630 		ldrb	r3, [r3, #70]	@ zero_extendqisi2
 685              		.loc 1 299 7
 686 020c 012B     		cmp	r3, #1
 687 020e 08D1     		bne	.L32
 300:../firmware/gd32f3x0_hal_peripheral/Source/gd32f3x0_hal_smartcard.c ****         USART_CTL2(periph) |= USART_CTL2_DDRE;
 688              		.loc 1 300 28
 689 0210 BB68     		ldr	r3, [r7, #8]
 690 0212 0833     		adds	r3, r3, #8
 691 0214 1B68     		ldr	r3, [r3]
 692 0216 BA68     		ldr	r2, [r7, #8]
 693 0218 0832     		adds	r2, r2, #8
 694 021a 43F40053 		orr	r3, r3, #8192
 695 021e 1360     		str	r3, [r2]
 696 0220 07E0     		b	.L33
 697              	.L32:
 301:../firmware/gd32f3x0_hal_peripheral/Source/gd32f3x0_hal_smartcard.c ****     } else {
 302:../firmware/gd32f3x0_hal_peripheral/Source/gd32f3x0_hal_smartcard.c ****         USART_CTL2(periph) &= ~(USART_CTL2_DDRE);
 698              		.loc 1 302 28
 699 0222 BB68     		ldr	r3, [r7, #8]
 700 0224 0833     		adds	r3, r3, #8
 701 0226 1B68     		ldr	r3, [r3]
 702 0228 BA68     		ldr	r2, [r7, #8]
 703 022a 0832     		adds	r2, r2, #8
 704 022c 23F40053 		bic	r3, r3, #8192
 705 0230 1360     		str	r3, [r2]
 706              	.L33:
 303:../firmware/gd32f3x0_hal_peripheral/Source/gd32f3x0_hal_smartcard.c ****     }
 304:../firmware/gd32f3x0_hal_peripheral/Source/gd32f3x0_hal_smartcard.c **** 
 305:../firmware/gd32f3x0_hal_peripheral/Source/gd32f3x0_hal_smartcard.c ****     /* configure GP register */
 306:../firmware/gd32f3x0_hal_peripheral/Source/gd32f3x0_hal_smartcard.c ****     reg_temp = USART_GP(periph);
 707              		.loc 1 306 16
 708 0232 BB68     		ldr	r3, [r7, #8]
 709 0234 1033     		adds	r3, r3, #16
 710              		.loc 1 306 14
 711 0236 1B68     		ldr	r3, [r3]
 712 0238 7B61     		str	r3, [r7, #20]
 307:../firmware/gd32f3x0_hal_peripheral/Source/gd32f3x0_hal_smartcard.c ****     reg_temp &= ~(USART_GP_PSC | USART_GP_GUAT);
 713              		.loc 1 307 14
 714 023a 7B69     		ldr	r3, [r7, #20]
 715 023c 1B0C     		lsrs	r3, r3, #16
 716 023e 1B04     		lsls	r3, r3, #16
 717 0240 7B61     		str	r3, [r7, #20]
 308:../firmware/gd32f3x0_hal_peripheral/Source/gd32f3x0_hal_smartcard.c ****     reg_temp |= ((p_init->guard_time << 8U) | (p_init->prescaler));
 718              		.loc 1 308 25
 719 0242 7B68     		ldr	r3, [r7, #4]
 720 0244 5B6A     		ldr	r3, [r3, #36]
 721              		.loc 1 308 38
 722 0246 1A02     		lsls	r2, r3, #8
 723              		.loc 1 308 54
 724 0248 7B68     		ldr	r3, [r7, #4]
 725 024a 1B6A     		ldr	r3, [r3, #32]
 726              		.loc 1 308 45
 727 024c 1343     		orrs	r3, r3, r2
 728              		.loc 1 308 14
 729 024e 7A69     		ldr	r2, [r7, #20]
 730 0250 1343     		orrs	r3, r3, r2
 731 0252 7B61     		str	r3, [r7, #20]
 309:../firmware/gd32f3x0_hal_peripheral/Source/gd32f3x0_hal_smartcard.c ****     USART_GP(periph) = reg_temp;
 732              		.loc 1 309 5
 733 0254 BB68     		ldr	r3, [r7, #8]
 734 0256 1033     		adds	r3, r3, #16
 735 0258 1A46     		mov	r2, r3
 736              		.loc 1 309 22
 737 025a 7B69     		ldr	r3, [r7, #20]
 738 025c 1360     		str	r3, [r2]
 310:../firmware/gd32f3x0_hal_peripheral/Source/gd32f3x0_hal_smartcard.c **** 
 311:../firmware/gd32f3x0_hal_peripheral/Source/gd32f3x0_hal_smartcard.c ****     /* configure RT register */
 312:../firmware/gd32f3x0_hal_peripheral/Source/gd32f3x0_hal_smartcard.c ****     reg_temp = USART_RT(periph);
 739              		.loc 1 312 16
 740 025e BB68     		ldr	r3, [r7, #8]
 741 0260 1433     		adds	r3, r3, #20
 742              		.loc 1 312 14
 743 0262 1B68     		ldr	r3, [r3]
 744 0264 7B61     		str	r3, [r7, #20]
 313:../firmware/gd32f3x0_hal_peripheral/Source/gd32f3x0_hal_smartcard.c ****     reg_temp &= ~(USART_RT_RT | USART_RT_BL);
 745              		.loc 1 313 14
 746 0266 0023     		movs	r3, #0
 747 0268 7B61     		str	r3, [r7, #20]
 314:../firmware/gd32f3x0_hal_peripheral/Source/gd32f3x0_hal_smartcard.c ****     reg_temp |= ((p_init->block_length << 24U));
 748              		.loc 1 314 25
 749 026a 7B68     		ldr	r3, [r7, #4]
 750 026c 9B6B     		ldr	r3, [r3, #56]
 751              		.loc 1 314 40
 752 026e 1B06     		lsls	r3, r3, #24
 753              		.loc 1 314 14
 754 0270 7A69     		ldr	r2, [r7, #20]
 755 0272 1343     		orrs	r3, r3, r2
 756 0274 7B61     		str	r3, [r7, #20]
 315:../firmware/gd32f3x0_hal_peripheral/Source/gd32f3x0_hal_smartcard.c ****     if(ENABLE == p_init->timeout_enable) {
 757              		.loc 1 315 24
 758 0276 7B68     		ldr	r3, [r7, #4]
 759 0278 93F82E30 		ldrb	r3, [r3, #46]	@ zero_extendqisi2
 760              		.loc 1 315 7
 761 027c 012B     		cmp	r3, #1
 762 027e 04D1     		bne	.L34
 316:../firmware/gd32f3x0_hal_peripheral/Source/gd32f3x0_hal_smartcard.c ****         reg_temp |= p_init->timeout_value;
 763              		.loc 1 316 27
 764 0280 7B68     		ldr	r3, [r7, #4]
 765 0282 1B6B     		ldr	r3, [r3, #48]
 766              		.loc 1 316 18
 767 0284 7A69     		ldr	r2, [r7, #20]
 768 0286 1343     		orrs	r3, r3, r2
 769 0288 7B61     		str	r3, [r7, #20]
 770              	.L34:
 317:../firmware/gd32f3x0_hal_peripheral/Source/gd32f3x0_hal_smartcard.c ****     }
 318:../firmware/gd32f3x0_hal_peripheral/Source/gd32f3x0_hal_smartcard.c ****     USART_RT(periph) = reg_temp;
 771              		.loc 1 318 5
 772 028a BB68     		ldr	r3, [r7, #8]
 773 028c 1433     		adds	r3, r3, #20
 774 028e 1A46     		mov	r2, r3
 775              		.loc 1 318 22
 776 0290 7B69     		ldr	r3, [r7, #20]
 777 0292 1360     		str	r3, [r2]
 319:../firmware/gd32f3x0_hal_peripheral/Source/gd32f3x0_hal_smartcard.c **** 
 320:../firmware/gd32f3x0_hal_peripheral/Source/gd32f3x0_hal_smartcard.c ****     /* configure RFCS register */
 321:../firmware/gd32f3x0_hal_peripheral/Source/gd32f3x0_hal_smartcard.c ****     if(ENABLE == p_init->early_nack) {
 778              		.loc 1 321 24
 779 0294 7B68     		ldr	r3, [r7, #4]
 780 0296 93F82C30 		ldrb	r3, [r3, #44]	@ zero_extendqisi2
 781              		.loc 1 321 7
 782 029a 012B     		cmp	r3, #1
 783 029c 08D1     		bne	.L35
 322:../firmware/gd32f3x0_hal_peripheral/Source/gd32f3x0_hal_smartcard.c ****         USART_RFCS(periph) |= USART_RFCS_ELNACK;
 784              		.loc 1 322 28
 785 029e BB68     		ldr	r3, [r7, #8]
 786 02a0 D033     		adds	r3, r3, #208
 787 02a2 1B68     		ldr	r3, [r3]
 788 02a4 BA68     		ldr	r2, [r7, #8]
 789 02a6 D032     		adds	r2, r2, #208
 790 02a8 43F00103 		orr	r3, r3, #1
 791 02ac 1360     		str	r3, [r2]
 792 02ae 07E0     		b	.L36
 793              	.L35:
 323:../firmware/gd32f3x0_hal_peripheral/Source/gd32f3x0_hal_smartcard.c ****     } else {
 324:../firmware/gd32f3x0_hal_peripheral/Source/gd32f3x0_hal_smartcard.c ****         USART_RFCS(periph) &= ~USART_RFCS_ELNACK;
 794              		.loc 1 324 28
 795 02b0 BB68     		ldr	r3, [r7, #8]
 796 02b2 D033     		adds	r3, r3, #208
 797 02b4 1B68     		ldr	r3, [r3]
 798 02b6 BA68     		ldr	r2, [r7, #8]
 799 02b8 D032     		adds	r2, r2, #208
 800 02ba 23F00103 		bic	r3, r3, #1
 801 02be 1360     		str	r3, [r2]
 802              	.L36:
 325:../firmware/gd32f3x0_hal_peripheral/Source/gd32f3x0_hal_smartcard.c ****     }
 326:../firmware/gd32f3x0_hal_peripheral/Source/gd32f3x0_hal_smartcard.c ****     if(ENABLE == p_init->rx_fifo_en) {
 803              		.loc 1 326 24
 804 02c0 7B68     		ldr	r3, [r7, #4]
 805 02c2 93F82D30 		ldrb	r3, [r3, #45]	@ zero_extendqisi2
 806              		.loc 1 326 7
 807 02c6 012B     		cmp	r3, #1
 808 02c8 08D1     		bne	.L37
 327:../firmware/gd32f3x0_hal_peripheral/Source/gd32f3x0_hal_smartcard.c ****         USART_RFCS(periph) |= USART_RFCS_RFEN;
 809              		.loc 1 327 28
 810 02ca BB68     		ldr	r3, [r7, #8]
 811 02cc D033     		adds	r3, r3, #208
 812 02ce 1B68     		ldr	r3, [r3]
 813 02d0 BA68     		ldr	r2, [r7, #8]
 814 02d2 D032     		adds	r2, r2, #208
 815 02d4 43F48073 		orr	r3, r3, #256
 816 02d8 1360     		str	r3, [r2]
 817 02da 07E0     		b	.L38
 818              	.L37:
 328:../firmware/gd32f3x0_hal_peripheral/Source/gd32f3x0_hal_smartcard.c ****     } else {
 329:../firmware/gd32f3x0_hal_peripheral/Source/gd32f3x0_hal_smartcard.c ****         USART_RFCS(periph) &= ~USART_RFCS_RFEN;
 819              		.loc 1 329 28
 820 02dc BB68     		ldr	r3, [r7, #8]
 821 02de D033     		adds	r3, r3, #208
 822 02e0 1B68     		ldr	r3, [r3]
 823 02e2 BA68     		ldr	r2, [r7, #8]
 824 02e4 D032     		adds	r2, r2, #208
 825 02e6 23F48073 		bic	r3, r3, #256
 826 02ea 1360     		str	r3, [r2]
 827              	.L38:
 330:../firmware/gd32f3x0_hal_peripheral/Source/gd32f3x0_hal_smartcard.c ****     }
 331:../firmware/gd32f3x0_hal_peripheral/Source/gd32f3x0_hal_smartcard.c **** 
 332:../firmware/gd32f3x0_hal_peripheral/Source/gd32f3x0_hal_smartcard.c ****     /* configure baud rate */
 333:../firmware/gd32f3x0_hal_peripheral/Source/gd32f3x0_hal_smartcard.c ****     hals_smartcard_baudrate_set(periph, p_init->baudrate);
 828              		.loc 1 333 5
 829 02ec 7B68     		ldr	r3, [r7, #4]
 830 02ee 1B68     		ldr	r3, [r3]
 831 02f0 1946     		mov	r1, r3
 832 02f2 B868     		ldr	r0, [r7, #8]
 833 02f4 FFF7FEFF 		bl	hals_smartcard_baudrate_set
 334:../firmware/gd32f3x0_hal_peripheral/Source/gd32f3x0_hal_smartcard.c **** 
 335:../firmware/gd32f3x0_hal_peripheral/Source/gd32f3x0_hal_smartcard.c ****     /* clear LMEN, HDEN, IREN */
 336:../firmware/gd32f3x0_hal_peripheral/Source/gd32f3x0_hal_smartcard.c ****     hals_uart_halfduplex_disable(periph);
 834              		.loc 1 336 5
 835 02f8 B868     		ldr	r0, [r7, #8]
 836 02fa FFF7FEFF 		bl	hals_uart_halfduplex_disable
 337:../firmware/gd32f3x0_hal_peripheral/Source/gd32f3x0_hal_smartcard.c ****     hals_irda_mode_disable(periph);
 837              		.loc 1 337 5
 838 02fe B868     		ldr	r0, [r7, #8]
 839 0300 FFF7FEFF 		bl	hals_irda_mode_disable
 338:../firmware/gd32f3x0_hal_peripheral/Source/gd32f3x0_hal_smartcard.c ****     hals_uart_lin_mode_disable(periph);
 840              		.loc 1 338 5
 841 0304 B868     		ldr	r0, [r7, #8]
 842 0306 FFF7FEFF 		bl	hals_uart_lin_mode_disable
 339:../firmware/gd32f3x0_hal_peripheral/Source/gd32f3x0_hal_smartcard.c **** 
 340:../firmware/gd32f3x0_hal_peripheral/Source/gd32f3x0_hal_smartcard.c ****     /* enable smartcard */
 341:../firmware/gd32f3x0_hal_peripheral/Source/gd32f3x0_hal_smartcard.c ****     hals_smartcard_mode_enable(periph);
 843              		.loc 1 341 5
 844 030a B868     		ldr	r0, [r7, #8]
 845 030c FFF7FEFF 		bl	hals_smartcard_mode_enable
 342:../firmware/gd32f3x0_hal_peripheral/Source/gd32f3x0_hal_smartcard.c **** 
 343:../firmware/gd32f3x0_hal_peripheral/Source/gd32f3x0_hal_smartcard.c ****     /* initialize Tx and Rx state */
 344:../firmware/gd32f3x0_hal_peripheral/Source/gd32f3x0_hal_smartcard.c ****     smartcard->tx_state = SMARTCARD_STATE_FREE;
 846              		.loc 1 344 25
 847 0310 FB68     		ldr	r3, [r7, #12]
 848 0312 0022     		movs	r2, #0
 849 0314 83F83820 		strb	r2, [r3, #56]
 345:../firmware/gd32f3x0_hal_peripheral/Source/gd32f3x0_hal_smartcard.c ****     smartcard->rx_state = SMARTCARD_STATE_FREE;
 850              		.loc 1 345 25
 851 0318 FB68     		ldr	r3, [r7, #12]
 852 031a 0022     		movs	r2, #0
 853 031c 83F83920 		strb	r2, [r3, #57]
 346:../firmware/gd32f3x0_hal_peripheral/Source/gd32f3x0_hal_smartcard.c **** 
 347:../firmware/gd32f3x0_hal_peripheral/Source/gd32f3x0_hal_smartcard.c ****     /* enable usart */
 348:../firmware/gd32f3x0_hal_peripheral/Source/gd32f3x0_hal_smartcard.c ****     hals_smartcard_enable(smartcard->periph);
 854              		.loc 1 348 5
 855 0320 FB68     		ldr	r3, [r7, #12]
 856 0322 1B68     		ldr	r3, [r3]
 857 0324 1846     		mov	r0, r3
 858 0326 FFF7FEFF 		bl	hals_smartcard_enable
 349:../firmware/gd32f3x0_hal_peripheral/Source/gd32f3x0_hal_smartcard.c **** 
 350:../firmware/gd32f3x0_hal_peripheral/Source/gd32f3x0_hal_smartcard.c ****     /* unlock smartcard */
 351:../firmware/gd32f3x0_hal_peripheral/Source/gd32f3x0_hal_smartcard.c ****     HAL_UNLOCK(smartcard);
 859              		.loc 1 351 5
 860 032a FB68     		ldr	r3, [r7, #12]
 861 032c 0022     		movs	r2, #0
 862 032e 83F84420 		strb	r2, [r3, #68]
 352:../firmware/gd32f3x0_hal_peripheral/Source/gd32f3x0_hal_smartcard.c **** 
 353:../firmware/gd32f3x0_hal_peripheral/Source/gd32f3x0_hal_smartcard.c ****     return HAL_ERR_NONE;
 863              		.loc 1 353 12
 864 0332 0023     		movs	r3, #0
 865              	.L17:
 354:../firmware/gd32f3x0_hal_peripheral/Source/gd32f3x0_hal_smartcard.c **** }
 866              		.loc 1 354 1
 867 0334 1846     		mov	r0, r3
 868 0336 1837     		adds	r7, r7, #24
 869              		.cfi_def_cfa_offset 8
 870 0338 BD46     		mov	sp, r7
 871              		.cfi_def_cfa_register 13
 872              		@ sp needed
 873 033a 80BD     		pop	{r7, pc}
 874              		.cfi_endproc
 875              	.LFE121:
 877              		.section	.text.hal_smartcard_irq,"ax",%progbits
 878              		.align	1
 879              		.global	hal_smartcard_irq
 880              		.syntax unified
 881              		.thumb
 882              		.thumb_func
 883              		.fpu softvfp
 885              	hal_smartcard_irq:
 886              	.LFB122:
 355:../firmware/gd32f3x0_hal_peripheral/Source/gd32f3x0_hal_smartcard.c **** 
 356:../firmware/gd32f3x0_hal_peripheral/Source/gd32f3x0_hal_smartcard.c **** /*!
 357:../firmware/gd32f3x0_hal_peripheral/Source/gd32f3x0_hal_smartcard.c ****     \brief      smartcard interrupt handler content function,which is merely used in smartcard_hand
 358:../firmware/gd32f3x0_hal_peripheral/Source/gd32f3x0_hal_smartcard.c ****     \param[in]  smartcard: smartcard device information structure
 359:../firmware/gd32f3x0_hal_peripheral/Source/gd32f3x0_hal_smartcard.c ****                     the structure is not necessary to be reconfigured after structrue initializatio
 360:../firmware/gd32f3x0_hal_peripheral/Source/gd32f3x0_hal_smartcard.c ****                     the structure parameters altering is automatically configured by core
 361:../firmware/gd32f3x0_hal_peripheral/Source/gd32f3x0_hal_smartcard.c ****     \param[out] none
 362:../firmware/gd32f3x0_hal_peripheral/Source/gd32f3x0_hal_smartcard.c ****     \retval     none
 363:../firmware/gd32f3x0_hal_peripheral/Source/gd32f3x0_hal_smartcard.c **** */
 364:../firmware/gd32f3x0_hal_peripheral/Source/gd32f3x0_hal_smartcard.c **** void hal_smartcard_irq(hal_smartcard_dev_struct *smartcard)
 365:../firmware/gd32f3x0_hal_peripheral/Source/gd32f3x0_hal_smartcard.c **** {
 887              		.loc 1 365 1
 888              		.cfi_startproc
 889              		@ args = 0, pretend = 0, frame = 8
 890              		@ frame_needed = 1, uses_anonymous_args = 0
 891 0000 80B5     		push	{r7, lr}
 892              		.cfi_def_cfa_offset 8
 893              		.cfi_offset 7, -8
 894              		.cfi_offset 14, -4
 895 0002 82B0     		sub	sp, sp, #8
 896              		.cfi_def_cfa_offset 16
 897 0004 00AF     		add	r7, sp, #0
 898              		.cfi_def_cfa_register 7
 899 0006 7860     		str	r0, [r7, #4]
 366:../firmware/gd32f3x0_hal_peripheral/Source/gd32f3x0_hal_smartcard.c ****     /* if no error occurs */
 367:../firmware/gd32f3x0_hal_peripheral/Source/gd32f3x0_hal_smartcard.c ****     if(RESET == _smartcard_error_flag_get(smartcard)) {
 900              		.loc 1 367 17
 901 0008 7868     		ldr	r0, [r7, #4]
 902 000a FFF7FEFF 		bl	_smartcard_error_flag_get
 903 000e 0346     		mov	r3, r0
 904              		.loc 1 367 7
 905 0010 002B     		cmp	r3, #0
 906 0012 13D1     		bne	.L40
 368:../firmware/gd32f3x0_hal_peripheral/Source/gd32f3x0_hal_smartcard.c ****         /* if SMARTCARD is in receiver mode */
 369:../firmware/gd32f3x0_hal_peripheral/Source/gd32f3x0_hal_smartcard.c ****         if(RESET != hals_smartcard_interrupt_flag_get(smartcard->periph, USART_INT_FLAG_RBNE)) {
 907              		.loc 1 369 21
 908 0014 7B68     		ldr	r3, [r7, #4]
 909 0016 1B68     		ldr	r3, [r3]
 910 0018 7949     		ldr	r1, .L58
 911 001a 1846     		mov	r0, r3
 912 001c FFF7FEFF 		bl	hals_smartcard_interrupt_flag_get
 913 0020 0346     		mov	r3, r0
 914              		.loc 1 369 11
 915 0022 002B     		cmp	r3, #0
 916 0024 00F0B880 		beq	.L41
 370:../firmware/gd32f3x0_hal_peripheral/Source/gd32f3x0_hal_smartcard.c ****             if(NULL != smartcard->smartcard_irq.receive_complete_handle) {
 917              		.loc 1 370 48
 918 0028 7B68     		ldr	r3, [r7, #4]
 919 002a 5B68     		ldr	r3, [r3, #4]
 920              		.loc 1 370 15
 921 002c 002B     		cmp	r3, #0
 922 002e 00F0DD80 		beq	.L54
 371:../firmware/gd32f3x0_hal_peripheral/Source/gd32f3x0_hal_smartcard.c ****                 smartcard->smartcard_irq.receive_complete_handle(smartcard);
 923              		.loc 1 371 41
 924 0032 7B68     		ldr	r3, [r7, #4]
 925 0034 5B68     		ldr	r3, [r3, #4]
 926              		.loc 1 371 17
 927 0036 7868     		ldr	r0, [r7, #4]
 928 0038 9847     		blx	r3
 929              	.LVL0:
 372:../firmware/gd32f3x0_hal_peripheral/Source/gd32f3x0_hal_smartcard.c ****             }
 373:../firmware/gd32f3x0_hal_peripheral/Source/gd32f3x0_hal_smartcard.c ****             return;
 930              		.loc 1 373 13
 931 003a D7E0     		b	.L54
 932              	.L40:
 374:../firmware/gd32f3x0_hal_peripheral/Source/gd32f3x0_hal_smartcard.c ****         }
 375:../firmware/gd32f3x0_hal_peripheral/Source/gd32f3x0_hal_smartcard.c **** 
 376:../firmware/gd32f3x0_hal_peripheral/Source/gd32f3x0_hal_smartcard.c ****         /* if some errors occur */
 377:../firmware/gd32f3x0_hal_peripheral/Source/gd32f3x0_hal_smartcard.c ****     } else {
 378:../firmware/gd32f3x0_hal_peripheral/Source/gd32f3x0_hal_smartcard.c ****         /* smartcard parity error interrupt occurred */
 379:../firmware/gd32f3x0_hal_peripheral/Source/gd32f3x0_hal_smartcard.c ****         if(RESET != hals_smartcard_interrupt_flag_get(smartcard->periph, USART_INT_FLAG_PERR)) {
 933              		.loc 1 379 21
 934 003c 7B68     		ldr	r3, [r7, #4]
 935 003e 1B68     		ldr	r3, [r3]
 936 0040 7049     		ldr	r1, .L58+4
 937 0042 1846     		mov	r0, r3
 938 0044 FFF7FEFF 		bl	hals_smartcard_interrupt_flag_get
 939 0048 0346     		mov	r3, r0
 940              		.loc 1 379 11
 941 004a 002B     		cmp	r3, #0
 942 004c 10D0     		beq	.L44
 380:../firmware/gd32f3x0_hal_peripheral/Source/gd32f3x0_hal_smartcard.c ****             hals_smartcard_interrupt_flag_clear(smartcard->periph, USART_INT_FLAG_PERR);
 943              		.loc 1 380 13
 944 004e 7B68     		ldr	r3, [r7, #4]
 945 0050 1B68     		ldr	r3, [r3]
 946 0052 6C49     		ldr	r1, .L58+4
 947 0054 1846     		mov	r0, r3
 948 0056 FFF7FEFF 		bl	hals_smartcard_interrupt_flag_clear
 381:../firmware/gd32f3x0_hal_peripheral/Source/gd32f3x0_hal_smartcard.c ****             smartcard->error_state |= HAL_SMARTCARD_ERROR_PERR;
 949              		.loc 1 381 36
 950 005a 7B68     		ldr	r3, [r7, #4]
 951 005c DB8E     		ldrh	r3, [r3, #54]	@ movhi
 952 005e 9BB2     		uxth	r3, r3
 953 0060 43F00103 		orr	r3, r3, #1
 954 0064 9AB2     		uxth	r2, r3
 955 0066 7B68     		ldr	r3, [r7, #4]
 956 0068 DA86     		strh	r2, [r3, #54]	@ movhi
 382:../firmware/gd32f3x0_hal_peripheral/Source/gd32f3x0_hal_smartcard.c ****             smartcard->last_error = HAL_SMARTCARD_ERROR_PERR;
 957              		.loc 1 382 35
 958 006a 7B68     		ldr	r3, [r7, #4]
 959 006c 0122     		movs	r2, #1
 960 006e 9A86     		strh	r2, [r3, #52]	@ movhi
 961              	.L44:
 383:../firmware/gd32f3x0_hal_peripheral/Source/gd32f3x0_hal_smartcard.c ****         }
 384:../firmware/gd32f3x0_hal_peripheral/Source/gd32f3x0_hal_smartcard.c **** 
 385:../firmware/gd32f3x0_hal_peripheral/Source/gd32f3x0_hal_smartcard.c ****         /* smartcard noise error interrupt occurred */
 386:../firmware/gd32f3x0_hal_peripheral/Source/gd32f3x0_hal_smartcard.c ****         if(RESET != hals_smartcard_interrupt_flag_get(smartcard->periph, USART_INT_FLAG_ERR_NERR)) 
 962              		.loc 1 386 21
 963 0070 7B68     		ldr	r3, [r7, #4]
 964 0072 1B68     		ldr	r3, [r3]
 965 0074 6449     		ldr	r1, .L58+8
 966 0076 1846     		mov	r0, r3
 967 0078 FFF7FEFF 		bl	hals_smartcard_interrupt_flag_get
 968 007c 0346     		mov	r3, r0
 969              		.loc 1 386 11
 970 007e 002B     		cmp	r3, #0
 971 0080 10D0     		beq	.L45
 387:../firmware/gd32f3x0_hal_peripheral/Source/gd32f3x0_hal_smartcard.c ****             hals_smartcard_interrupt_flag_clear(smartcard->periph, USART_INT_FLAG_ERR_NERR);
 972              		.loc 1 387 13
 973 0082 7B68     		ldr	r3, [r7, #4]
 974 0084 1B68     		ldr	r3, [r3]
 975 0086 6049     		ldr	r1, .L58+8
 976 0088 1846     		mov	r0, r3
 977 008a FFF7FEFF 		bl	hals_smartcard_interrupt_flag_clear
 388:../firmware/gd32f3x0_hal_peripheral/Source/gd32f3x0_hal_smartcard.c ****             smartcard->error_state |= HAL_SMARTCARD_ERROR_NERR;
 978              		.loc 1 388 36
 979 008e 7B68     		ldr	r3, [r7, #4]
 980 0090 DB8E     		ldrh	r3, [r3, #54]	@ movhi
 981 0092 9BB2     		uxth	r3, r3
 982 0094 43F00203 		orr	r3, r3, #2
 983 0098 9AB2     		uxth	r2, r3
 984 009a 7B68     		ldr	r3, [r7, #4]
 985 009c DA86     		strh	r2, [r3, #54]	@ movhi
 389:../firmware/gd32f3x0_hal_peripheral/Source/gd32f3x0_hal_smartcard.c ****             smartcard->last_error = HAL_SMARTCARD_ERROR_NERR;
 986              		.loc 1 389 35
 987 009e 7B68     		ldr	r3, [r7, #4]
 988 00a0 0222     		movs	r2, #2
 989 00a2 9A86     		strh	r2, [r3, #52]	@ movhi
 990              	.L45:
 390:../firmware/gd32f3x0_hal_peripheral/Source/gd32f3x0_hal_smartcard.c ****         }
 391:../firmware/gd32f3x0_hal_peripheral/Source/gd32f3x0_hal_smartcard.c **** 
 392:../firmware/gd32f3x0_hal_peripheral/Source/gd32f3x0_hal_smartcard.c ****         /* smartcard frame error interrupt occurred */
 393:../firmware/gd32f3x0_hal_peripheral/Source/gd32f3x0_hal_smartcard.c ****         if(RESET != hals_smartcard_interrupt_flag_get(smartcard->periph, USART_INT_FLAG_ERR_FERR)) 
 991              		.loc 1 393 21
 992 00a4 7B68     		ldr	r3, [r7, #4]
 993 00a6 1B68     		ldr	r3, [r3]
 994 00a8 5849     		ldr	r1, .L58+12
 995 00aa 1846     		mov	r0, r3
 996 00ac FFF7FEFF 		bl	hals_smartcard_interrupt_flag_get
 997 00b0 0346     		mov	r3, r0
 998              		.loc 1 393 11
 999 00b2 002B     		cmp	r3, #0
 1000 00b4 10D0     		beq	.L46
 394:../firmware/gd32f3x0_hal_peripheral/Source/gd32f3x0_hal_smartcard.c ****             hals_smartcard_interrupt_flag_clear(smartcard->periph, USART_INT_FLAG_ERR_FERR);
 1001              		.loc 1 394 13
 1002 00b6 7B68     		ldr	r3, [r7, #4]
 1003 00b8 1B68     		ldr	r3, [r3]
 1004 00ba 5449     		ldr	r1, .L58+12
 1005 00bc 1846     		mov	r0, r3
 1006 00be FFF7FEFF 		bl	hals_smartcard_interrupt_flag_clear
 395:../firmware/gd32f3x0_hal_peripheral/Source/gd32f3x0_hal_smartcard.c ****             smartcard->error_state |= HAL_SMARTCARD_ERROR_FERR;
 1007              		.loc 1 395 36
 1008 00c2 7B68     		ldr	r3, [r7, #4]
 1009 00c4 DB8E     		ldrh	r3, [r3, #54]	@ movhi
 1010 00c6 9BB2     		uxth	r3, r3
 1011 00c8 43F00403 		orr	r3, r3, #4
 1012 00cc 9AB2     		uxth	r2, r3
 1013 00ce 7B68     		ldr	r3, [r7, #4]
 1014 00d0 DA86     		strh	r2, [r3, #54]	@ movhi
 396:../firmware/gd32f3x0_hal_peripheral/Source/gd32f3x0_hal_smartcard.c ****             smartcard->last_error = HAL_SMARTCARD_ERROR_FERR;
 1015              		.loc 1 396 35
 1016 00d2 7B68     		ldr	r3, [r7, #4]
 1017 00d4 0422     		movs	r2, #4
 1018 00d6 9A86     		strh	r2, [r3, #52]	@ movhi
 1019              	.L46:
 397:../firmware/gd32f3x0_hal_peripheral/Source/gd32f3x0_hal_smartcard.c ****         }
 398:../firmware/gd32f3x0_hal_peripheral/Source/gd32f3x0_hal_smartcard.c **** 
 399:../firmware/gd32f3x0_hal_peripheral/Source/gd32f3x0_hal_smartcard.c ****         /* smartcard overrun interrupt occurred */
 400:../firmware/gd32f3x0_hal_peripheral/Source/gd32f3x0_hal_smartcard.c ****         if(RESET != hals_smartcard_interrupt_flag_get(smartcard->periph, USART_INT_FLAG_ERR_ORERR))
 1020              		.loc 1 400 21
 1021 00d8 7B68     		ldr	r3, [r7, #4]
 1022 00da 1B68     		ldr	r3, [r3]
 1023 00dc 4C49     		ldr	r1, .L58+16
 1024 00de 1846     		mov	r0, r3
 1025 00e0 FFF7FEFF 		bl	hals_smartcard_interrupt_flag_get
 1026 00e4 0346     		mov	r3, r0
 1027              		.loc 1 400 11
 1028 00e6 002B     		cmp	r3, #0
 1029 00e8 10D0     		beq	.L47
 401:../firmware/gd32f3x0_hal_peripheral/Source/gd32f3x0_hal_smartcard.c ****             hals_smartcard_interrupt_flag_clear(smartcard->periph, USART_INT_FLAG_ERR_ORERR);
 1030              		.loc 1 401 13
 1031 00ea 7B68     		ldr	r3, [r7, #4]
 1032 00ec 1B68     		ldr	r3, [r3]
 1033 00ee 4849     		ldr	r1, .L58+16
 1034 00f0 1846     		mov	r0, r3
 1035 00f2 FFF7FEFF 		bl	hals_smartcard_interrupt_flag_clear
 402:../firmware/gd32f3x0_hal_peripheral/Source/gd32f3x0_hal_smartcard.c ****             smartcard->error_state |= HAL_SMARTCARD_ERROR_ORERR;
 1036              		.loc 1 402 36
 1037 00f6 7B68     		ldr	r3, [r7, #4]
 1038 00f8 DB8E     		ldrh	r3, [r3, #54]	@ movhi
 1039 00fa 9BB2     		uxth	r3, r3
 1040 00fc 43F00803 		orr	r3, r3, #8
 1041 0100 9AB2     		uxth	r2, r3
 1042 0102 7B68     		ldr	r3, [r7, #4]
 1043 0104 DA86     		strh	r2, [r3, #54]	@ movhi
 403:../firmware/gd32f3x0_hal_peripheral/Source/gd32f3x0_hal_smartcard.c ****             smartcard->last_error = HAL_SMARTCARD_ERROR_ORERR;
 1044              		.loc 1 403 35
 1045 0106 7B68     		ldr	r3, [r7, #4]
 1046 0108 0822     		movs	r2, #8
 1047 010a 9A86     		strh	r2, [r3, #52]	@ movhi
 1048              	.L47:
 404:../firmware/gd32f3x0_hal_peripheral/Source/gd32f3x0_hal_smartcard.c ****         }
 405:../firmware/gd32f3x0_hal_peripheral/Source/gd32f3x0_hal_smartcard.c **** 
 406:../firmware/gd32f3x0_hal_peripheral/Source/gd32f3x0_hal_smartcard.c ****         /* smartcard read data buffer not empty and overrun error overrun interrupt occurred */
 407:../firmware/gd32f3x0_hal_peripheral/Source/gd32f3x0_hal_smartcard.c ****         if(RESET != hals_smartcard_interrupt_flag_get(smartcard->periph, USART_INT_FLAG_RBNE_ORERR)
 1049              		.loc 1 407 21
 1050 010c 7B68     		ldr	r3, [r7, #4]
 1051 010e 1B68     		ldr	r3, [r3]
 1052 0110 4049     		ldr	r1, .L58+20
 1053 0112 1846     		mov	r0, r3
 1054 0114 FFF7FEFF 		bl	hals_smartcard_interrupt_flag_get
 1055 0118 0346     		mov	r3, r0
 1056              		.loc 1 407 11
 1057 011a 002B     		cmp	r3, #0
 1058 011c 10D0     		beq	.L48
 408:../firmware/gd32f3x0_hal_peripheral/Source/gd32f3x0_hal_smartcard.c ****             hals_smartcard_interrupt_flag_clear(smartcard->periph, USART_INT_FLAG_RBNE_ORERR);
 1059              		.loc 1 408 13
 1060 011e 7B68     		ldr	r3, [r7, #4]
 1061 0120 1B68     		ldr	r3, [r3]
 1062 0122 3C49     		ldr	r1, .L58+20
 1063 0124 1846     		mov	r0, r3
 1064 0126 FFF7FEFF 		bl	hals_smartcard_interrupt_flag_clear
 409:../firmware/gd32f3x0_hal_peripheral/Source/gd32f3x0_hal_smartcard.c ****             smartcard->error_state |= HAL_SMARTCARD_ERROR_ORERR;
 1065              		.loc 1 409 36
 1066 012a 7B68     		ldr	r3, [r7, #4]
 1067 012c DB8E     		ldrh	r3, [r3, #54]	@ movhi
 1068 012e 9BB2     		uxth	r3, r3
 1069 0130 43F00803 		orr	r3, r3, #8
 1070 0134 9AB2     		uxth	r2, r3
 1071 0136 7B68     		ldr	r3, [r7, #4]
 1072 0138 DA86     		strh	r2, [r3, #54]	@ movhi
 410:../firmware/gd32f3x0_hal_peripheral/Source/gd32f3x0_hal_smartcard.c ****             smartcard->last_error = HAL_SMARTCARD_ERROR_ORERR;
 1073              		.loc 1 410 35
 1074 013a 7B68     		ldr	r3, [r7, #4]
 1075 013c 0822     		movs	r2, #8
 1076 013e 9A86     		strh	r2, [r3, #52]	@ movhi
 1077              	.L48:
 411:../firmware/gd32f3x0_hal_peripheral/Source/gd32f3x0_hal_smartcard.c ****         }
 412:../firmware/gd32f3x0_hal_peripheral/Source/gd32f3x0_hal_smartcard.c **** 
 413:../firmware/gd32f3x0_hal_peripheral/Source/gd32f3x0_hal_smartcard.c ****         /* smartcard receiver timeout interrupt occurred */
 414:../firmware/gd32f3x0_hal_peripheral/Source/gd32f3x0_hal_smartcard.c ****         if(RESET != hals_smartcard_interrupt_flag_get(smartcard->periph, USART_INT_FLAG_RT)) {
 1078              		.loc 1 414 21
 1079 0140 7B68     		ldr	r3, [r7, #4]
 1080 0142 1B68     		ldr	r3, [r3]
 1081 0144 3449     		ldr	r1, .L58+24
 1082 0146 1846     		mov	r0, r3
 1083 0148 FFF7FEFF 		bl	hals_smartcard_interrupt_flag_get
 1084 014c 0346     		mov	r3, r0
 1085              		.loc 1 414 11
 1086 014e 002B     		cmp	r3, #0
 1087 0150 11D0     		beq	.L49
 415:../firmware/gd32f3x0_hal_peripheral/Source/gd32f3x0_hal_smartcard.c ****             hals_smartcard_interrupt_flag_clear(smartcard->periph, USART_INT_FLAG_RT);
 1088              		.loc 1 415 13
 1089 0152 7B68     		ldr	r3, [r7, #4]
 1090 0154 1B68     		ldr	r3, [r3]
 1091 0156 3049     		ldr	r1, .L58+24
 1092 0158 1846     		mov	r0, r3
 1093 015a FFF7FEFF 		bl	hals_smartcard_interrupt_flag_clear
 416:../firmware/gd32f3x0_hal_peripheral/Source/gd32f3x0_hal_smartcard.c ****             smartcard->error_state |= HAL_SMARTCARD_ERROR_RTF;
 1094              		.loc 1 416 36
 1095 015e 7B68     		ldr	r3, [r7, #4]
 1096 0160 DB8E     		ldrh	r3, [r3, #54]	@ movhi
 1097 0162 9BB2     		uxth	r3, r3
 1098 0164 43F40063 		orr	r3, r3, #2048
 1099 0168 9AB2     		uxth	r2, r3
 1100 016a 7B68     		ldr	r3, [r7, #4]
 1101 016c DA86     		strh	r2, [r3, #54]	@ movhi
 417:../firmware/gd32f3x0_hal_peripheral/Source/gd32f3x0_hal_smartcard.c ****             smartcard->last_error = HAL_SMARTCARD_ERROR_RTF;
 1102              		.loc 1 417 35
 1103 016e 7B68     		ldr	r3, [r7, #4]
 1104 0170 4FF40062 		mov	r2, #2048
 1105 0174 9A86     		strh	r2, [r3, #52]	@ movhi
 1106              	.L49:
 418:../firmware/gd32f3x0_hal_peripheral/Source/gd32f3x0_hal_smartcard.c ****         }
 419:../firmware/gd32f3x0_hal_peripheral/Source/gd32f3x0_hal_smartcard.c **** 
 420:../firmware/gd32f3x0_hal_peripheral/Source/gd32f3x0_hal_smartcard.c ****         if(HAL_SMARTCARD_ERROR_NONE != smartcard->error_state) {
 1107              		.loc 1 420 49
 1108 0176 7B68     		ldr	r3, [r7, #4]
 1109 0178 DB8E     		ldrh	r3, [r3, #54]	@ movhi
 1110 017a 9BB2     		uxth	r3, r3
 1111              		.loc 1 420 11
 1112 017c 002B     		cmp	r3, #0
 1113 017e 0BD0     		beq	.L41
 421:../firmware/gd32f3x0_hal_peripheral/Source/gd32f3x0_hal_smartcard.c ****             /* call error callback  */
 422:../firmware/gd32f3x0_hal_peripheral/Source/gd32f3x0_hal_smartcard.c ****             if(NULL != smartcard->smartcard_irq.error_handle) {
 1114              		.loc 1 422 48
 1115 0180 7B68     		ldr	r3, [r7, #4]
 1116 0182 1B69     		ldr	r3, [r3, #16]
 1117              		.loc 1 422 15
 1118 0184 002B     		cmp	r3, #0
 1119 0186 33D0     		beq	.L55
 423:../firmware/gd32f3x0_hal_peripheral/Source/gd32f3x0_hal_smartcard.c ****                 smartcard->smartcard_irq.error_handle(smartcard);
 1120              		.loc 1 423 41
 1121 0188 7B68     		ldr	r3, [r7, #4]
 1122 018a 1B69     		ldr	r3, [r3, #16]
 1123              		.loc 1 423 17
 1124 018c 7868     		ldr	r0, [r7, #4]
 1125 018e 9847     		blx	r3
 1126              	.LVL1:
 424:../firmware/gd32f3x0_hal_peripheral/Source/gd32f3x0_hal_smartcard.c ****                 smartcard->error_state = HAL_SMARTCARD_ERROR_NONE;
 1127              		.loc 1 424 40
 1128 0190 7B68     		ldr	r3, [r7, #4]
 1129 0192 0022     		movs	r2, #0
 1130 0194 DA86     		strh	r2, [r3, #54]	@ movhi
 425:../firmware/gd32f3x0_hal_peripheral/Source/gd32f3x0_hal_smartcard.c ****             }
 426:../firmware/gd32f3x0_hal_peripheral/Source/gd32f3x0_hal_smartcard.c ****             return;
 1131              		.loc 1 426 13
 1132 0196 2BE0     		b	.L55
 1133              	.L41:
 427:../firmware/gd32f3x0_hal_peripheral/Source/gd32f3x0_hal_smartcard.c ****         }
 428:../firmware/gd32f3x0_hal_peripheral/Source/gd32f3x0_hal_smartcard.c ****     }
 429:../firmware/gd32f3x0_hal_peripheral/Source/gd32f3x0_hal_smartcard.c **** 
 430:../firmware/gd32f3x0_hal_peripheral/Source/gd32f3x0_hal_smartcard.c ****     /* transmitter buffer empty interrupt handle */
 431:../firmware/gd32f3x0_hal_peripheral/Source/gd32f3x0_hal_smartcard.c ****     if(RESET != hals_smartcard_interrupt_flag_get(smartcard->periph, USART_INT_FLAG_TBE)) {
 1134              		.loc 1 431 17
 1135 0198 7B68     		ldr	r3, [r7, #4]
 1136 019a 1B68     		ldr	r3, [r3]
 1137 019c 1F49     		ldr	r1, .L58+28
 1138 019e 1846     		mov	r0, r3
 1139 01a0 FFF7FEFF 		bl	hals_smartcard_interrupt_flag_get
 1140 01a4 0346     		mov	r3, r0
 1141              		.loc 1 431 7
 1142 01a6 002B     		cmp	r3, #0
 1143 01a8 08D0     		beq	.L51
 432:../firmware/gd32f3x0_hal_peripheral/Source/gd32f3x0_hal_smartcard.c ****         if(smartcard->smartcard_irq.transmit_ready_handle != NULL) {
 1144              		.loc 1 432 36
 1145 01aa 7B68     		ldr	r3, [r7, #4]
 1146 01ac 9B68     		ldr	r3, [r3, #8]
 1147              		.loc 1 432 11
 1148 01ae 002B     		cmp	r3, #0
 1149 01b0 20D0     		beq	.L56
 433:../firmware/gd32f3x0_hal_peripheral/Source/gd32f3x0_hal_smartcard.c ****             smartcard->smartcard_irq.transmit_ready_handle(smartcard);
 1150              		.loc 1 433 37
 1151 01b2 7B68     		ldr	r3, [r7, #4]
 1152 01b4 9B68     		ldr	r3, [r3, #8]
 1153              		.loc 1 433 13
 1154 01b6 7868     		ldr	r0, [r7, #4]
 1155 01b8 9847     		blx	r3
 1156              	.LVL2:
 434:../firmware/gd32f3x0_hal_peripheral/Source/gd32f3x0_hal_smartcard.c ****         }
 435:../firmware/gd32f3x0_hal_peripheral/Source/gd32f3x0_hal_smartcard.c **** 
 436:../firmware/gd32f3x0_hal_peripheral/Source/gd32f3x0_hal_smartcard.c ****         return;
 1157              		.loc 1 436 9
 1158 01ba 1BE0     		b	.L56
 1159              	.L51:
 437:../firmware/gd32f3x0_hal_peripheral/Source/gd32f3x0_hal_smartcard.c ****     }
 438:../firmware/gd32f3x0_hal_peripheral/Source/gd32f3x0_hal_smartcard.c **** 
 439:../firmware/gd32f3x0_hal_peripheral/Source/gd32f3x0_hal_smartcard.c ****     /* transmission complete interrupt handle */
 440:../firmware/gd32f3x0_hal_peripheral/Source/gd32f3x0_hal_smartcard.c ****     if(RESET != hals_smartcard_interrupt_flag_get(smartcard->periph, USART_INT_FLAG_TC)) {
 1160              		.loc 1 440 17
 1161 01bc 7B68     		ldr	r3, [r7, #4]
 1162 01be 1B68     		ldr	r3, [r3]
 1163 01c0 1749     		ldr	r1, .L58+32
 1164 01c2 1846     		mov	r0, r3
 1165 01c4 FFF7FEFF 		bl	hals_smartcard_interrupt_flag_get
 1166 01c8 0346     		mov	r3, r0
 1167              		.loc 1 440 7
 1168 01ca 002B     		cmp	r3, #0
 1169 01cc 15D0     		beq	.L39
 441:../firmware/gd32f3x0_hal_peripheral/Source/gd32f3x0_hal_smartcard.c ****         hals_smartcard_interrupt_flag_clear(smartcard->periph, USART_INT_FLAG_TC);
 1170              		.loc 1 441 9
 1171 01ce 7B68     		ldr	r3, [r7, #4]
 1172 01d0 1B68     		ldr	r3, [r3]
 1173 01d2 1349     		ldr	r1, .L58+32
 1174 01d4 1846     		mov	r0, r3
 1175 01d6 FFF7FEFF 		bl	hals_smartcard_interrupt_flag_clear
 442:../firmware/gd32f3x0_hal_peripheral/Source/gd32f3x0_hal_smartcard.c **** 
 443:../firmware/gd32f3x0_hal_peripheral/Source/gd32f3x0_hal_smartcard.c ****         if(NULL != smartcard->smartcard_irq.transmit_complete_handle) {
 1176              		.loc 1 443 44
 1177 01da 7B68     		ldr	r3, [r7, #4]
 1178 01dc DB68     		ldr	r3, [r3, #12]
 1179              		.loc 1 443 11
 1180 01de 002B     		cmp	r3, #0
 1181 01e0 0AD0     		beq	.L57
 444:../firmware/gd32f3x0_hal_peripheral/Source/gd32f3x0_hal_smartcard.c ****             smartcard->smartcard_irq.transmit_complete_handle(smartcard);
 1182              		.loc 1 444 37
 1183 01e2 7B68     		ldr	r3, [r7, #4]
 1184 01e4 DB68     		ldr	r3, [r3, #12]
 1185              		.loc 1 444 13
 1186 01e6 7868     		ldr	r0, [r7, #4]
 1187 01e8 9847     		blx	r3
 1188              	.LVL3:
 445:../firmware/gd32f3x0_hal_peripheral/Source/gd32f3x0_hal_smartcard.c ****         }
 446:../firmware/gd32f3x0_hal_peripheral/Source/gd32f3x0_hal_smartcard.c **** 
 447:../firmware/gd32f3x0_hal_peripheral/Source/gd32f3x0_hal_smartcard.c ****         return;
 1189              		.loc 1 447 9
 1190 01ea 05E0     		b	.L57
 1191              	.L54:
 373:../firmware/gd32f3x0_hal_peripheral/Source/gd32f3x0_hal_smartcard.c ****         }
 1192              		.loc 1 373 13
 1193 01ec 00BF     		nop
 1194 01ee 04E0     		b	.L39
 1195              	.L55:
 426:../firmware/gd32f3x0_hal_peripheral/Source/gd32f3x0_hal_smartcard.c ****         }
 1196              		.loc 1 426 13
 1197 01f0 00BF     		nop
 1198 01f2 02E0     		b	.L39
 1199              	.L56:
 436:../firmware/gd32f3x0_hal_peripheral/Source/gd32f3x0_hal_smartcard.c ****     }
 1200              		.loc 1 436 9
 1201 01f4 00BF     		nop
 1202 01f6 00E0     		b	.L39
 1203              	.L57:
 1204              		.loc 1 447 9
 1205 01f8 00BF     		nop
 1206              	.L39:
 448:../firmware/gd32f3x0_hal_peripheral/Source/gd32f3x0_hal_smartcard.c ****     }
 449:../firmware/gd32f3x0_hal_peripheral/Source/gd32f3x0_hal_smartcard.c **** }
 1207              		.loc 1 449 1
 1208 01fa 0837     		adds	r7, r7, #8
 1209              		.cfi_def_cfa_offset 8
 1210 01fc BD46     		mov	sp, r7
 1211              		.cfi_def_cfa_register 13
 1212              		@ sp needed
 1213 01fe 80BD     		pop	{r7, pc}
 1214              	.L59:
 1215              		.align	2
 1216              	.L58:
 1217 0200 05000507 		.word	117768197
 1218 0204 08000007 		.word	117440520
 1219 0208 00020207 		.word	117572096
 1220 020c 00020107 		.word	117506560
 1221 0210 00020307 		.word	117637632
 1222 0214 05000307 		.word	117637125
 1223 0218 1A000B07 		.word	118161434
 1224 021c 07000707 		.word	117899271
 1225 0220 06000607 		.word	117833734
 1226              		.cfi_endproc
 1227              	.LFE122:
 1229              		.section	.text.hal_smartcard_irq_handle_set,"ax",%progbits
 1230              		.align	1
 1231              		.global	hal_smartcard_irq_handle_set
 1232              		.syntax unified
 1233              		.thumb
 1234              		.thumb_func
 1235              		.fpu softvfp
 1237              	hal_smartcard_irq_handle_set:
 1238              	.LFB123:
 450:../firmware/gd32f3x0_hal_peripheral/Source/gd32f3x0_hal_smartcard.c **** 
 451:../firmware/gd32f3x0_hal_peripheral/Source/gd32f3x0_hal_smartcard.c **** /*!
 452:../firmware/gd32f3x0_hal_peripheral/Source/gd32f3x0_hal_smartcard.c ****     \brief      set user-defined interrupt callback function
 453:../firmware/gd32f3x0_hal_peripheral/Source/gd32f3x0_hal_smartcard.c ****     \param[in]  smartcard: smartcard device information structure
 454:../firmware/gd32f3x0_hal_peripheral/Source/gd32f3x0_hal_smartcard.c ****                     the structure is not necessary to be reconfigured after structrue initializatio
 455:../firmware/gd32f3x0_hal_peripheral/Source/gd32f3x0_hal_smartcard.c ****                     the structure parameters altering is automatically configured by core
 456:../firmware/gd32f3x0_hal_peripheral/Source/gd32f3x0_hal_smartcard.c ****     \param[in]  p_irq: smartcard interrupt callback function pointer
 457:../firmware/gd32f3x0_hal_peripheral/Source/gd32f3x0_hal_smartcard.c ****     \param[out] none
 458:../firmware/gd32f3x0_hal_peripheral/Source/gd32f3x0_hal_smartcard.c ****     \retval     none
 459:../firmware/gd32f3x0_hal_peripheral/Source/gd32f3x0_hal_smartcard.c **** */
 460:../firmware/gd32f3x0_hal_peripheral/Source/gd32f3x0_hal_smartcard.c **** void hal_smartcard_irq_handle_set(hal_smartcard_dev_struct *smartcard, hal_smartcard_irq_struct *p_
 461:../firmware/gd32f3x0_hal_peripheral/Source/gd32f3x0_hal_smartcard.c **** {
 1239              		.loc 1 461 1
 1240              		.cfi_startproc
 1241              		@ args = 0, pretend = 0, frame = 8
 1242              		@ frame_needed = 1, uses_anonymous_args = 0
 1243 0000 80B5     		push	{r7, lr}
 1244              		.cfi_def_cfa_offset 8
 1245              		.cfi_offset 7, -8
 1246              		.cfi_offset 14, -4
 1247 0002 82B0     		sub	sp, sp, #8
 1248              		.cfi_def_cfa_offset 16
 1249 0004 00AF     		add	r7, sp, #0
 1250              		.cfi_def_cfa_register 7
 1251 0006 7860     		str	r0, [r7, #4]
 1252 0008 3960     		str	r1, [r7]
 462:../firmware/gd32f3x0_hal_peripheral/Source/gd32f3x0_hal_smartcard.c ****     /* initialize smartcard error callback */
 463:../firmware/gd32f3x0_hal_peripheral/Source/gd32f3x0_hal_smartcard.c ****     if(NULL != p_irq->error_handle) {
 1253              		.loc 1 463 21
 1254 000a 3B68     		ldr	r3, [r7]
 1255 000c DB68     		ldr	r3, [r3, #12]
 1256              		.loc 1 463 7
 1257 000e 002B     		cmp	r3, #0
 1258 0010 11D0     		beq	.L61
 464:../firmware/gd32f3x0_hal_peripheral/Source/gd32f3x0_hal_smartcard.c ****         smartcard->smartcard_irq.error_handle = p_irq->error_handle;
 1259              		.loc 1 464 54
 1260 0012 3B68     		ldr	r3, [r7]
 1261 0014 DA68     		ldr	r2, [r3, #12]
 1262              		.loc 1 464 47
 1263 0016 7B68     		ldr	r3, [r7, #4]
 1264 0018 1A61     		str	r2, [r3, #16]
 465:../firmware/gd32f3x0_hal_peripheral/Source/gd32f3x0_hal_smartcard.c ****         hals_smartcard_interrupt_enable(smartcard->periph, USART_INT_ERR);
 1265              		.loc 1 465 9
 1266 001a 7B68     		ldr	r3, [r7, #4]
 1267 001c 1B68     		ldr	r3, [r3]
 1268 001e 4FF40071 		mov	r1, #512
 1269 0022 1846     		mov	r0, r3
 1270 0024 FFF7FEFF 		bl	hals_smartcard_interrupt_enable
 466:../firmware/gd32f3x0_hal_peripheral/Source/gd32f3x0_hal_smartcard.c ****         hals_smartcard_interrupt_enable(smartcard->periph, USART_INT_PERR);
 1271              		.loc 1 466 9
 1272 0028 7B68     		ldr	r3, [r7, #4]
 1273 002a 1B68     		ldr	r3, [r3]
 1274 002c 0821     		movs	r1, #8
 1275 002e 1846     		mov	r0, r3
 1276 0030 FFF7FEFF 		bl	hals_smartcard_interrupt_enable
 1277 0034 0FE0     		b	.L62
 1278              	.L61:
 467:../firmware/gd32f3x0_hal_peripheral/Source/gd32f3x0_hal_smartcard.c ****     } else {
 468:../firmware/gd32f3x0_hal_peripheral/Source/gd32f3x0_hal_smartcard.c ****         smartcard->smartcard_irq.error_handle = NULL;
 1279              		.loc 1 468 47
 1280 0036 7B68     		ldr	r3, [r7, #4]
 1281 0038 0022     		movs	r2, #0
 1282 003a 1A61     		str	r2, [r3, #16]
 469:../firmware/gd32f3x0_hal_peripheral/Source/gd32f3x0_hal_smartcard.c ****         hals_smartcard_interrupt_disable(smartcard->periph, USART_INT_ERR);
 1283              		.loc 1 469 9
 1284 003c 7B68     		ldr	r3, [r7, #4]
 1285 003e 1B68     		ldr	r3, [r3]
 1286 0040 4FF40071 		mov	r1, #512
 1287 0044 1846     		mov	r0, r3
 1288 0046 FFF7FEFF 		bl	hals_smartcard_interrupt_disable
 470:../firmware/gd32f3x0_hal_peripheral/Source/gd32f3x0_hal_smartcard.c ****         hals_smartcard_interrupt_disable(smartcard->periph, USART_INT_PERR);
 1289              		.loc 1 470 9
 1290 004a 7B68     		ldr	r3, [r7, #4]
 1291 004c 1B68     		ldr	r3, [r3]
 1292 004e 0821     		movs	r1, #8
 1293 0050 1846     		mov	r0, r3
 1294 0052 FFF7FEFF 		bl	hals_smartcard_interrupt_disable
 1295              	.L62:
 471:../firmware/gd32f3x0_hal_peripheral/Source/gd32f3x0_hal_smartcard.c ****     }
 472:../firmware/gd32f3x0_hal_peripheral/Source/gd32f3x0_hal_smartcard.c **** 
 473:../firmware/gd32f3x0_hal_peripheral/Source/gd32f3x0_hal_smartcard.c ****     /* initialize smartcard receive completed callback */
 474:../firmware/gd32f3x0_hal_peripheral/Source/gd32f3x0_hal_smartcard.c ****     if(NULL != p_irq->receive_complete_handle) {
 1296              		.loc 1 474 21
 1297 0056 3B68     		ldr	r3, [r7]
 1298 0058 1B68     		ldr	r3, [r3]
 1299              		.loc 1 474 7
 1300 005a 002B     		cmp	r3, #0
 1301 005c 0AD0     		beq	.L63
 475:../firmware/gd32f3x0_hal_peripheral/Source/gd32f3x0_hal_smartcard.c ****         smartcard->smartcard_irq.receive_complete_handle = p_irq->receive_complete_handle;
 1302              		.loc 1 475 65
 1303 005e 3B68     		ldr	r3, [r7]
 1304 0060 1A68     		ldr	r2, [r3]
 1305              		.loc 1 475 58
 1306 0062 7B68     		ldr	r3, [r7, #4]
 1307 0064 5A60     		str	r2, [r3, #4]
 476:../firmware/gd32f3x0_hal_peripheral/Source/gd32f3x0_hal_smartcard.c ****         hals_smartcard_interrupt_enable(smartcard->periph, USART_INT_RBNE);
 1308              		.loc 1 476 9
 1309 0066 7B68     		ldr	r3, [r7, #4]
 1310 0068 1B68     		ldr	r3, [r3]
 1311 006a 0521     		movs	r1, #5
 1312 006c 1846     		mov	r0, r3
 1313 006e FFF7FEFF 		bl	hals_smartcard_interrupt_enable
 1314 0072 08E0     		b	.L64
 1315              	.L63:
 477:../firmware/gd32f3x0_hal_peripheral/Source/gd32f3x0_hal_smartcard.c ****     } else {
 478:../firmware/gd32f3x0_hal_peripheral/Source/gd32f3x0_hal_smartcard.c ****         smartcard->smartcard_irq.receive_complete_handle = NULL;
 1316              		.loc 1 478 58
 1317 0074 7B68     		ldr	r3, [r7, #4]
 1318 0076 0022     		movs	r2, #0
 1319 0078 5A60     		str	r2, [r3, #4]
 479:../firmware/gd32f3x0_hal_peripheral/Source/gd32f3x0_hal_smartcard.c ****         hals_smartcard_interrupt_disable(smartcard->periph, USART_INT_RBNE);
 1320              		.loc 1 479 9
 1321 007a 7B68     		ldr	r3, [r7, #4]
 1322 007c 1B68     		ldr	r3, [r3]
 1323 007e 0521     		movs	r1, #5
 1324 0080 1846     		mov	r0, r3
 1325 0082 FFF7FEFF 		bl	hals_smartcard_interrupt_disable
 1326              	.L64:
 480:../firmware/gd32f3x0_hal_peripheral/Source/gd32f3x0_hal_smartcard.c ****     }
 481:../firmware/gd32f3x0_hal_peripheral/Source/gd32f3x0_hal_smartcard.c **** 
 482:../firmware/gd32f3x0_hal_peripheral/Source/gd32f3x0_hal_smartcard.c ****     /* initialize smartcard transmit completed callback */
 483:../firmware/gd32f3x0_hal_peripheral/Source/gd32f3x0_hal_smartcard.c ****     if(NULL != p_irq->transmit_complete_handle) {
 1327              		.loc 1 483 21
 1328 0086 3B68     		ldr	r3, [r7]
 1329 0088 9B68     		ldr	r3, [r3, #8]
 1330              		.loc 1 483 7
 1331 008a 002B     		cmp	r3, #0
 1332 008c 0AD0     		beq	.L65
 484:../firmware/gd32f3x0_hal_peripheral/Source/gd32f3x0_hal_smartcard.c ****         smartcard->smartcard_irq.transmit_complete_handle = p_irq->transmit_complete_handle;
 1333              		.loc 1 484 66
 1334 008e 3B68     		ldr	r3, [r7]
 1335 0090 9A68     		ldr	r2, [r3, #8]
 1336              		.loc 1 484 59
 1337 0092 7B68     		ldr	r3, [r7, #4]
 1338 0094 DA60     		str	r2, [r3, #12]
 485:../firmware/gd32f3x0_hal_peripheral/Source/gd32f3x0_hal_smartcard.c ****         hals_smartcard_interrupt_enable(smartcard->periph, USART_INT_TC);
 1339              		.loc 1 485 9
 1340 0096 7B68     		ldr	r3, [r7, #4]
 1341 0098 1B68     		ldr	r3, [r3]
 1342 009a 0621     		movs	r1, #6
 1343 009c 1846     		mov	r0, r3
 1344 009e FFF7FEFF 		bl	hals_smartcard_interrupt_enable
 1345 00a2 08E0     		b	.L66
 1346              	.L65:
 486:../firmware/gd32f3x0_hal_peripheral/Source/gd32f3x0_hal_smartcard.c ****     } else {
 487:../firmware/gd32f3x0_hal_peripheral/Source/gd32f3x0_hal_smartcard.c ****         smartcard->smartcard_irq.transmit_complete_handle = NULL;
 1347              		.loc 1 487 59
 1348 00a4 7B68     		ldr	r3, [r7, #4]
 1349 00a6 0022     		movs	r2, #0
 1350 00a8 DA60     		str	r2, [r3, #12]
 488:../firmware/gd32f3x0_hal_peripheral/Source/gd32f3x0_hal_smartcard.c ****         hals_smartcard_interrupt_disable(smartcard->periph, USART_INT_TC);
 1351              		.loc 1 488 9
 1352 00aa 7B68     		ldr	r3, [r7, #4]
 1353 00ac 1B68     		ldr	r3, [r3]
 1354 00ae 0621     		movs	r1, #6
 1355 00b0 1846     		mov	r0, r3
 1356 00b2 FFF7FEFF 		bl	hals_smartcard_interrupt_disable
 1357              	.L66:
 489:../firmware/gd32f3x0_hal_peripheral/Source/gd32f3x0_hal_smartcard.c ****     }
 490:../firmware/gd32f3x0_hal_peripheral/Source/gd32f3x0_hal_smartcard.c **** 
 491:../firmware/gd32f3x0_hal_peripheral/Source/gd32f3x0_hal_smartcard.c ****     /* initialize smartcard transmit ready callback */
 492:../firmware/gd32f3x0_hal_peripheral/Source/gd32f3x0_hal_smartcard.c ****     if(NULL != p_irq->transmit_ready_handle) {
 1358              		.loc 1 492 21
 1359 00b6 3B68     		ldr	r3, [r7]
 1360 00b8 5B68     		ldr	r3, [r3, #4]
 1361              		.loc 1 492 7
 1362 00ba 002B     		cmp	r3, #0
 1363 00bc 0AD0     		beq	.L67
 493:../firmware/gd32f3x0_hal_peripheral/Source/gd32f3x0_hal_smartcard.c ****         smartcard->smartcard_irq.transmit_ready_handle = p_irq->transmit_ready_handle;
 1364              		.loc 1 493 63
 1365 00be 3B68     		ldr	r3, [r7]
 1366 00c0 5A68     		ldr	r2, [r3, #4]
 1367              		.loc 1 493 56
 1368 00c2 7B68     		ldr	r3, [r7, #4]
 1369 00c4 9A60     		str	r2, [r3, #8]
 494:../firmware/gd32f3x0_hal_peripheral/Source/gd32f3x0_hal_smartcard.c ****         hals_smartcard_interrupt_enable(smartcard->periph, USART_INT_TBE);
 1370              		.loc 1 494 9
 1371 00c6 7B68     		ldr	r3, [r7, #4]
 1372 00c8 1B68     		ldr	r3, [r3]
 1373 00ca 0721     		movs	r1, #7
 1374 00cc 1846     		mov	r0, r3
 1375 00ce FFF7FEFF 		bl	hals_smartcard_interrupt_enable
 495:../firmware/gd32f3x0_hal_peripheral/Source/gd32f3x0_hal_smartcard.c ****     } else {
 496:../firmware/gd32f3x0_hal_peripheral/Source/gd32f3x0_hal_smartcard.c ****         smartcard->smartcard_irq.transmit_ready_handle = NULL;
 497:../firmware/gd32f3x0_hal_peripheral/Source/gd32f3x0_hal_smartcard.c ****         hals_smartcard_interrupt_disable(smartcard->periph, USART_INT_TBE);
 498:../firmware/gd32f3x0_hal_peripheral/Source/gd32f3x0_hal_smartcard.c ****     }
 499:../firmware/gd32f3x0_hal_peripheral/Source/gd32f3x0_hal_smartcard.c **** }
 1376              		.loc 1 499 1
 1377 00d2 08E0     		b	.L69
 1378              	.L67:
 496:../firmware/gd32f3x0_hal_peripheral/Source/gd32f3x0_hal_smartcard.c ****         hals_smartcard_interrupt_disable(smartcard->periph, USART_INT_TBE);
 1379              		.loc 1 496 56
 1380 00d4 7B68     		ldr	r3, [r7, #4]
 1381 00d6 0022     		movs	r2, #0
 1382 00d8 9A60     		str	r2, [r3, #8]
 497:../firmware/gd32f3x0_hal_peripheral/Source/gd32f3x0_hal_smartcard.c ****     }
 1383              		.loc 1 497 9
 1384 00da 7B68     		ldr	r3, [r7, #4]
 1385 00dc 1B68     		ldr	r3, [r3]
 1386 00de 0721     		movs	r1, #7
 1387 00e0 1846     		mov	r0, r3
 1388 00e2 FFF7FEFF 		bl	hals_smartcard_interrupt_disable
 1389              	.L69:
 1390              		.loc 1 499 1
 1391 00e6 00BF     		nop
 1392 00e8 0837     		adds	r7, r7, #8
 1393              		.cfi_def_cfa_offset 8
 1394 00ea BD46     		mov	sp, r7
 1395              		.cfi_def_cfa_register 13
 1396              		@ sp needed
 1397 00ec 80BD     		pop	{r7, pc}
 1398              		.cfi_endproc
 1399              	.LFE123:
 1401              		.section	.text.hal_smartcard_irq_handle_all_reset,"ax",%progbits
 1402              		.align	1
 1403              		.global	hal_smartcard_irq_handle_all_reset
 1404              		.syntax unified
 1405              		.thumb
 1406              		.thumb_func
 1407              		.fpu softvfp
 1409              	hal_smartcard_irq_handle_all_reset:
 1410              	.LFB124:
 500:../firmware/gd32f3x0_hal_peripheral/Source/gd32f3x0_hal_smartcard.c **** 
 501:../firmware/gd32f3x0_hal_peripheral/Source/gd32f3x0_hal_smartcard.c **** /*!
 502:../firmware/gd32f3x0_hal_peripheral/Source/gd32f3x0_hal_smartcard.c ****     \brief      reset all user-defined interrupt callback function
 503:../firmware/gd32f3x0_hal_peripheral/Source/gd32f3x0_hal_smartcard.c ****     \param[in]  smartcard: smartcard device information structure
 504:../firmware/gd32f3x0_hal_peripheral/Source/gd32f3x0_hal_smartcard.c ****                     the structure is not necessary to be reconfigured after structrue initializatio
 505:../firmware/gd32f3x0_hal_peripheral/Source/gd32f3x0_hal_smartcard.c ****                     the structure parameters altering is automatically configured by core
 506:../firmware/gd32f3x0_hal_peripheral/Source/gd32f3x0_hal_smartcard.c ****     \param[out] none
 507:../firmware/gd32f3x0_hal_peripheral/Source/gd32f3x0_hal_smartcard.c ****     \retval     none
 508:../firmware/gd32f3x0_hal_peripheral/Source/gd32f3x0_hal_smartcard.c **** */
 509:../firmware/gd32f3x0_hal_peripheral/Source/gd32f3x0_hal_smartcard.c **** void hal_smartcard_irq_handle_all_reset(hal_smartcard_dev_struct *smartcard)
 510:../firmware/gd32f3x0_hal_peripheral/Source/gd32f3x0_hal_smartcard.c **** {
 1411              		.loc 1 510 1
 1412              		.cfi_startproc
 1413              		@ args = 0, pretend = 0, frame = 8
 1414              		@ frame_needed = 1, uses_anonymous_args = 0
 1415              		@ link register save eliminated.
 1416 0000 80B4     		push	{r7}
 1417              		.cfi_def_cfa_offset 4
 1418              		.cfi_offset 7, -4
 1419 0002 83B0     		sub	sp, sp, #12
 1420              		.cfi_def_cfa_offset 16
 1421 0004 00AF     		add	r7, sp, #0
 1422              		.cfi_def_cfa_register 7
 1423 0006 7860     		str	r0, [r7, #4]
 511:../firmware/gd32f3x0_hal_peripheral/Source/gd32f3x0_hal_smartcard.c ****     /* configure interrupt callback function to NULL */
 512:../firmware/gd32f3x0_hal_peripheral/Source/gd32f3x0_hal_smartcard.c ****     smartcard->smartcard_irq.error_handle = NULL;
 1424              		.loc 1 512 43
 1425 0008 7B68     		ldr	r3, [r7, #4]
 1426 000a 0022     		movs	r2, #0
 1427 000c 1A61     		str	r2, [r3, #16]
 513:../firmware/gd32f3x0_hal_peripheral/Source/gd32f3x0_hal_smartcard.c ****     smartcard->smartcard_irq.receive_complete_handle = NULL;
 1428              		.loc 1 513 54
 1429 000e 7B68     		ldr	r3, [r7, #4]
 1430 0010 0022     		movs	r2, #0
 1431 0012 5A60     		str	r2, [r3, #4]
 514:../firmware/gd32f3x0_hal_peripheral/Source/gd32f3x0_hal_smartcard.c ****     smartcard->smartcard_irq.transmit_complete_handle = NULL;
 1432              		.loc 1 514 55
 1433 0014 7B68     		ldr	r3, [r7, #4]
 1434 0016 0022     		movs	r2, #0
 1435 0018 DA60     		str	r2, [r3, #12]
 515:../firmware/gd32f3x0_hal_peripheral/Source/gd32f3x0_hal_smartcard.c ****     smartcard->smartcard_irq.transmit_ready_handle = NULL;
 1436              		.loc 1 515 52
 1437 001a 7B68     		ldr	r3, [r7, #4]
 1438 001c 0022     		movs	r2, #0
 1439 001e 9A60     		str	r2, [r3, #8]
 516:../firmware/gd32f3x0_hal_peripheral/Source/gd32f3x0_hal_smartcard.c **** }
 1440              		.loc 1 516 1
 1441 0020 00BF     		nop
 1442 0022 0C37     		adds	r7, r7, #12
 1443              		.cfi_def_cfa_offset 4
 1444 0024 BD46     		mov	sp, r7
 1445              		.cfi_def_cfa_register 13
 1446              		@ sp needed
 1447 0026 80BC     		pop	{r7}
 1448              		.cfi_restore 7
 1449              		.cfi_def_cfa_offset 0
 1450 0028 7047     		bx	lr
 1451              		.cfi_endproc
 1452              	.LFE124:
 1454              		.section	.text.hal_smartcard_transmit_poll,"ax",%progbits
 1455              		.align	1
 1456              		.global	hal_smartcard_transmit_poll
 1457              		.syntax unified
 1458              		.thumb
 1459              		.thumb_func
 1460              		.fpu softvfp
 1462              	hal_smartcard_transmit_poll:
 1463              	.LFB125:
 517:../firmware/gd32f3x0_hal_peripheral/Source/gd32f3x0_hal_smartcard.c **** 
 518:../firmware/gd32f3x0_hal_peripheral/Source/gd32f3x0_hal_smartcard.c **** /*!
 519:../firmware/gd32f3x0_hal_peripheral/Source/gd32f3x0_hal_smartcard.c ****     \brief      transmit amounts of data by poll method
 520:../firmware/gd32f3x0_hal_peripheral/Source/gd32f3x0_hal_smartcard.c ****     \param[in]  smartcard: smartcard device information structure
 521:../firmware/gd32f3x0_hal_peripheral/Source/gd32f3x0_hal_smartcard.c ****                     the structure is not necessary to be reconfigured after structrue initializatio
 522:../firmware/gd32f3x0_hal_peripheral/Source/gd32f3x0_hal_smartcard.c ****                     the structure parameters altering is automatically configured by core
 523:../firmware/gd32f3x0_hal_peripheral/Source/gd32f3x0_hal_smartcard.c ****     \param[in]  p_buffer: pointer to data buffer
 524:../firmware/gd32f3x0_hal_peripheral/Source/gd32f3x0_hal_smartcard.c ****     \param[in]  length: number of data to be transmitted
 525:../firmware/gd32f3x0_hal_peripheral/Source/gd32f3x0_hal_smartcard.c ****     \param[in]  timeout_ms: timeout duration
 526:../firmware/gd32f3x0_hal_peripheral/Source/gd32f3x0_hal_smartcard.c ****     \param[out] none
 527:../firmware/gd32f3x0_hal_peripheral/Source/gd32f3x0_hal_smartcard.c ****     \retval     error code: HAL_ERR_NONE, HAL_ERR_ADDRESS, HAL_ERR_VAL, HAL_ERR_BUSY, HAL_ERR_TIMEO
 528:../firmware/gd32f3x0_hal_peripheral/Source/gd32f3x0_hal_smartcard.c **** */
 529:../firmware/gd32f3x0_hal_peripheral/Source/gd32f3x0_hal_smartcard.c **** int32_t hal_smartcard_transmit_poll(hal_smartcard_dev_struct *smartcard, uint8_t *p_buffer, uint32_
 530:../firmware/gd32f3x0_hal_peripheral/Source/gd32f3x0_hal_smartcard.c **** {
 1464              		.loc 1 530 1
 1465              		.cfi_startproc
 1466              		@ args = 0, pretend = 0, frame = 24
 1467              		@ frame_needed = 1, uses_anonymous_args = 0
 1468 0000 80B5     		push	{r7, lr}
 1469              		.cfi_def_cfa_offset 8
 1470              		.cfi_offset 7, -8
 1471              		.cfi_offset 14, -4
 1472 0002 86B0     		sub	sp, sp, #24
 1473              		.cfi_def_cfa_offset 32
 1474 0004 00AF     		add	r7, sp, #0
 1475              		.cfi_def_cfa_register 7
 1476 0006 F860     		str	r0, [r7, #12]
 1477 0008 B960     		str	r1, [r7, #8]
 1478 000a 7A60     		str	r2, [r7, #4]
 1479 000c 3B60     		str	r3, [r7]
 531:../firmware/gd32f3x0_hal_peripheral/Source/gd32f3x0_hal_smartcard.c ****     uint32_t tick_start;
 532:../firmware/gd32f3x0_hal_peripheral/Source/gd32f3x0_hal_smartcard.c **** 
 533:../firmware/gd32f3x0_hal_peripheral/Source/gd32f3x0_hal_smartcard.c **** #if (1U == HAL_PARAMETER_CHECK)
 534:../firmware/gd32f3x0_hal_peripheral/Source/gd32f3x0_hal_smartcard.c ****     /* check smartcard pointer, p_buffer address and length */
 535:../firmware/gd32f3x0_hal_peripheral/Source/gd32f3x0_hal_smartcard.c ****     if((NULL == smartcard) || (NULL == p_buffer) || (0U == length)) {
 536:../firmware/gd32f3x0_hal_peripheral/Source/gd32f3x0_hal_smartcard.c ****         HAL_DEBUGE("parameter [usart] or [p_buffer] or [length] value is invalid");
 537:../firmware/gd32f3x0_hal_peripheral/Source/gd32f3x0_hal_smartcard.c ****         return HAL_ERR_ADDRESS;
 538:../firmware/gd32f3x0_hal_peripheral/Source/gd32f3x0_hal_smartcard.c ****     }
 539:../firmware/gd32f3x0_hal_peripheral/Source/gd32f3x0_hal_smartcard.c **** #endif /* 1U == HAL_PARAMETER_CHECK */
 540:../firmware/gd32f3x0_hal_peripheral/Source/gd32f3x0_hal_smartcard.c **** 
 541:../firmware/gd32f3x0_hal_peripheral/Source/gd32f3x0_hal_smartcard.c ****     /* check whether the Tx state is in ready */
 542:../firmware/gd32f3x0_hal_peripheral/Source/gd32f3x0_hal_smartcard.c ****     if(SMARTCARD_STATE_BUSY == smartcard->tx_state) {
 1480              		.loc 1 542 41
 1481 000e FB68     		ldr	r3, [r7, #12]
 1482 0010 93F83830 		ldrb	r3, [r3, #56]
 1483 0014 DBB2     		uxtb	r3, r3
 1484              		.loc 1 542 7
 1485 0016 012B     		cmp	r3, #1
 1486 0018 02D1     		bne	.L72
 543:../firmware/gd32f3x0_hal_peripheral/Source/gd32f3x0_hal_smartcard.c ****         HAL_DEBUGE("usart tx has already been used, please wait until run_state change to free ");
 544:../firmware/gd32f3x0_hal_peripheral/Source/gd32f3x0_hal_smartcard.c ****         return HAL_ERR_BUSY;
 1487              		.loc 1 544 16
 1488 001a 6FF00203 		mvn	r3, #2
 1489 001e 9CE0     		b	.L73
 1490              	.L72:
 545:../firmware/gd32f3x0_hal_peripheral/Source/gd32f3x0_hal_smartcard.c ****     }
 546:../firmware/gd32f3x0_hal_peripheral/Source/gd32f3x0_hal_smartcard.c **** 
 547:../firmware/gd32f3x0_hal_peripheral/Source/gd32f3x0_hal_smartcard.c ****     /* lock smartcard */
 548:../firmware/gd32f3x0_hal_peripheral/Source/gd32f3x0_hal_smartcard.c ****     HAL_LOCK(smartcard);
 1491              		.loc 1 548 5
 1492 0020 FB68     		ldr	r3, [r7, #12]
 1493 0022 93F84430 		ldrb	r3, [r3, #68]	@ zero_extendqisi2
 1494 0026 012B     		cmp	r3, #1
 1495 0028 02D1     		bne	.L74
 1496              		.loc 1 548 5 is_stmt 0 discriminator 1
 1497 002a 6FF00103 		mvn	r3, #1
 1498 002e 94E0     		b	.L73
 1499              	.L74:
 1500              		.loc 1 548 5 discriminator 2
 1501 0030 FB68     		ldr	r3, [r7, #12]
 1502 0032 0122     		movs	r2, #1
 1503 0034 83F84420 		strb	r2, [r3, #68]
 549:../firmware/gd32f3x0_hal_peripheral/Source/gd32f3x0_hal_smartcard.c **** 
 550:../firmware/gd32f3x0_hal_peripheral/Source/gd32f3x0_hal_smartcard.c ****     /* disable receive and enable transmit */
 551:../firmware/gd32f3x0_hal_peripheral/Source/gd32f3x0_hal_smartcard.c ****     hals_smartcard_receive_config(smartcard->periph, USART_RECEIVE_DISABLE);
 1504              		.loc 1 551 5 is_stmt 1 discriminator 2
 1505 0038 FB68     		ldr	r3, [r7, #12]
 1506 003a 1B68     		ldr	r3, [r3]
 1507 003c 0021     		movs	r1, #0
 1508 003e 1846     		mov	r0, r3
 1509 0040 FFF7FEFF 		bl	hals_smartcard_receive_config
 552:../firmware/gd32f3x0_hal_peripheral/Source/gd32f3x0_hal_smartcard.c ****     hals_smartcard_command_enable(smartcard->periph, USART_CMD_RXFCMD);
 1510              		.loc 1 552 5 discriminator 2
 1511 0044 FB68     		ldr	r3, [r7, #12]
 1512 0046 1B68     		ldr	r3, [r3]
 1513 0048 0821     		movs	r1, #8
 1514 004a 1846     		mov	r0, r3
 1515 004c FFF7FEFF 		bl	hals_smartcard_command_enable
 553:../firmware/gd32f3x0_hal_peripheral/Source/gd32f3x0_hal_smartcard.c ****     hals_smartcard_transmit_config(smartcard->periph, USART_TRANSMIT_ENABLE);
 1516              		.loc 1 553 5 discriminator 2
 1517 0050 FB68     		ldr	r3, [r7, #12]
 1518 0052 1B68     		ldr	r3, [r3]
 1519 0054 0821     		movs	r1, #8
 1520 0056 1846     		mov	r0, r3
 1521 0058 FFF7FEFF 		bl	hals_smartcard_transmit_config
 554:../firmware/gd32f3x0_hal_peripheral/Source/gd32f3x0_hal_smartcard.c **** 
 555:../firmware/gd32f3x0_hal_peripheral/Source/gd32f3x0_hal_smartcard.c ****     /* initialize transmit parameter */
 556:../firmware/gd32f3x0_hal_peripheral/Source/gd32f3x0_hal_smartcard.c ****     smartcard->error_state = HAL_SMARTCARD_ERROR_NONE;
 1522              		.loc 1 556 28 discriminator 2
 1523 005c FB68     		ldr	r3, [r7, #12]
 1524 005e 0022     		movs	r2, #0
 1525 0060 DA86     		strh	r2, [r3, #54]	@ movhi
 557:../firmware/gd32f3x0_hal_peripheral/Source/gd32f3x0_hal_smartcard.c ****     smartcard->tx_state = SMARTCARD_STATE_BUSY;
 1526              		.loc 1 557 25 discriminator 2
 1527 0062 FB68     		ldr	r3, [r7, #12]
 1528 0064 0122     		movs	r2, #1
 1529 0066 83F83820 		strb	r2, [r3, #56]
 558:../firmware/gd32f3x0_hal_peripheral/Source/gd32f3x0_hal_smartcard.c ****     smartcard->txbuffer.buffer  = (uint8_t *)p_buffer;
 1530              		.loc 1 558 33 discriminator 2
 1531 006a FB68     		ldr	r3, [r7, #12]
 1532 006c BA68     		ldr	r2, [r7, #8]
 1533 006e DA61     		str	r2, [r3, #28]
 559:../firmware/gd32f3x0_hal_peripheral/Source/gd32f3x0_hal_smartcard.c ****     smartcard->txbuffer.length  = length;
 1534              		.loc 1 559 33 discriminator 2
 1535 0070 FB68     		ldr	r3, [r7, #12]
 1536 0072 7A68     		ldr	r2, [r7, #4]
 1537 0074 1A62     		str	r2, [r3, #32]
 560:../firmware/gd32f3x0_hal_peripheral/Source/gd32f3x0_hal_smartcard.c ****     smartcard->txbuffer.pos     = 0U;
 1538              		.loc 1 560 33 discriminator 2
 1539 0076 FB68     		ldr	r3, [r7, #12]
 1540 0078 0022     		movs	r2, #0
 1541 007a 5A62     		str	r2, [r3, #36]
 561:../firmware/gd32f3x0_hal_peripheral/Source/gd32f3x0_hal_smartcard.c **** 
 562:../firmware/gd32f3x0_hal_peripheral/Source/gd32f3x0_hal_smartcard.c ****     /* configure timeout */
 563:../firmware/gd32f3x0_hal_peripheral/Source/gd32f3x0_hal_smartcard.c ****     tick_start = hal_sys_basetick_count_get();
 1542              		.loc 1 563 18 discriminator 2
 1543 007c FFF7FEFF 		bl	hal_sys_basetick_count_get
 1544 0080 7861     		str	r0, [r7, #20]
 564:../firmware/gd32f3x0_hal_peripheral/Source/gd32f3x0_hal_smartcard.c **** 
 565:../firmware/gd32f3x0_hal_peripheral/Source/gd32f3x0_hal_smartcard.c ****     while(smartcard->txbuffer.pos < smartcard->txbuffer.length) {
 1545              		.loc 1 565 10 discriminator 2
 1546 0082 34E0     		b	.L75
 1547              	.L77:
 566:../firmware/gd32f3x0_hal_peripheral/Source/gd32f3x0_hal_smartcard.c ****         /* wait for transmit buffer empty */
 567:../firmware/gd32f3x0_hal_peripheral/Source/gd32f3x0_hal_smartcard.c ****         while(RESET == hals_smartcard_flag_get(smartcard->periph, USART_FLAG_TBE)) {
 568:../firmware/gd32f3x0_hal_peripheral/Source/gd32f3x0_hal_smartcard.c ****             if(HAL_TIMEOUT_FOREVER != timeout_ms) {
 1548              		.loc 1 568 15
 1549 0084 3B68     		ldr	r3, [r7]
 1550 0086 B3F1FF3F 		cmp	r3, #-1
 1551 008a 11D0     		beq	.L76
 569:../firmware/gd32f3x0_hal_peripheral/Source/gd32f3x0_hal_smartcard.c ****                 if(SET == hal_sys_basetick_timeout_check(tick_start, timeout_ms)) {
 1552              		.loc 1 569 27
 1553 008c 3968     		ldr	r1, [r7]
 1554 008e 7869     		ldr	r0, [r7, #20]
 1555 0090 FFF7FEFF 		bl	hal_sys_basetick_timeout_check
 1556 0094 0346     		mov	r3, r0
 1557              		.loc 1 569 19
 1558 0096 012B     		cmp	r3, #1
 1559 0098 0AD1     		bne	.L76
 570:../firmware/gd32f3x0_hal_peripheral/Source/gd32f3x0_hal_smartcard.c ****                     HAL_DEBUGW("smartcard transmit timeout");
 571:../firmware/gd32f3x0_hal_peripheral/Source/gd32f3x0_hal_smartcard.c ****                     smartcard->tx_state = SMARTCARD_STATE_FREE;
 1560              		.loc 1 571 41
 1561 009a FB68     		ldr	r3, [r7, #12]
 1562 009c 0022     		movs	r2, #0
 1563 009e 83F83820 		strb	r2, [r3, #56]
 572:../firmware/gd32f3x0_hal_peripheral/Source/gd32f3x0_hal_smartcard.c ****                     /* unlock smartcard */
 573:../firmware/gd32f3x0_hal_peripheral/Source/gd32f3x0_hal_smartcard.c ****                     HAL_UNLOCK(smartcard);
 1564              		.loc 1 573 21
 1565 00a2 FB68     		ldr	r3, [r7, #12]
 1566 00a4 0022     		movs	r2, #0
 1567 00a6 83F84420 		strb	r2, [r3, #68]
 574:../firmware/gd32f3x0_hal_peripheral/Source/gd32f3x0_hal_smartcard.c **** 
 575:../firmware/gd32f3x0_hal_peripheral/Source/gd32f3x0_hal_smartcard.c ****                     return HAL_ERR_TIMEOUT;
 1568              		.loc 1 575 28
 1569 00aa 6FF00403 		mvn	r3, #4
 1570 00ae 54E0     		b	.L73
 1571              	.L76:
 567:../firmware/gd32f3x0_hal_peripheral/Source/gd32f3x0_hal_smartcard.c ****             if(HAL_TIMEOUT_FOREVER != timeout_ms) {
 1572              		.loc 1 567 24
 1573 00b0 FB68     		ldr	r3, [r7, #12]
 1574 00b2 1B68     		ldr	r3, [r3]
 1575 00b4 40F20771 		movw	r1, #1799
 1576 00b8 1846     		mov	r0, r3
 1577 00ba FFF7FEFF 		bl	hals_smartcard_flag_get
 1578 00be 0346     		mov	r3, r0
 567:../firmware/gd32f3x0_hal_peripheral/Source/gd32f3x0_hal_smartcard.c ****             if(HAL_TIMEOUT_FOREVER != timeout_ms) {
 1579              		.loc 1 567 14
 1580 00c0 002B     		cmp	r3, #0
 1581 00c2 DFD0     		beq	.L77
 576:../firmware/gd32f3x0_hal_peripheral/Source/gd32f3x0_hal_smartcard.c ****                 }
 577:../firmware/gd32f3x0_hal_peripheral/Source/gd32f3x0_hal_smartcard.c ****             }
 578:../firmware/gd32f3x0_hal_peripheral/Source/gd32f3x0_hal_smartcard.c ****         }
 579:../firmware/gd32f3x0_hal_peripheral/Source/gd32f3x0_hal_smartcard.c **** 
 580:../firmware/gd32f3x0_hal_peripheral/Source/gd32f3x0_hal_smartcard.c ****         /* write the data to be transmitted */
 581:../firmware/gd32f3x0_hal_peripheral/Source/gd32f3x0_hal_smartcard.c ****         hals_smartcard_data_transmit(smartcard->periph, (*smartcard->txbuffer.buffer & (uint8_t)0xF
 1582              		.loc 1 581 9
 1583 00c4 FB68     		ldr	r3, [r7, #12]
 1584 00c6 1A68     		ldr	r2, [r3]
 1585              		.loc 1 581 78
 1586 00c8 FB68     		ldr	r3, [r7, #12]
 1587 00ca DB69     		ldr	r3, [r3, #28]
 1588              		.loc 1 581 58
 1589 00cc 1B78     		ldrb	r3, [r3]
 1590 00ce DBB2     		uxtb	r3, r3
 1591              		.loc 1 581 9
 1592 00d0 9BB2     		uxth	r3, r3
 1593 00d2 1946     		mov	r1, r3
 1594 00d4 1046     		mov	r0, r2
 1595 00d6 FFF7FEFF 		bl	hals_smartcard_data_transmit
 582:../firmware/gd32f3x0_hal_peripheral/Source/gd32f3x0_hal_smartcard.c ****         smartcard->txbuffer.buffer++;
 1596              		.loc 1 582 28
 1597 00da FB68     		ldr	r3, [r7, #12]
 1598 00dc DB69     		ldr	r3, [r3, #28]
 1599              		.loc 1 582 35
 1600 00de 5A1C     		adds	r2, r3, #1
 1601 00e0 FB68     		ldr	r3, [r7, #12]
 1602 00e2 DA61     		str	r2, [r3, #28]
 583:../firmware/gd32f3x0_hal_peripheral/Source/gd32f3x0_hal_smartcard.c ****         /* change the transmit pointer */
 584:../firmware/gd32f3x0_hal_peripheral/Source/gd32f3x0_hal_smartcard.c ****         smartcard->txbuffer.pos++;
 1603              		.loc 1 584 28
 1604 00e4 FB68     		ldr	r3, [r7, #12]
 1605 00e6 5B6A     		ldr	r3, [r3, #36]
 1606              		.loc 1 584 32
 1607 00e8 5A1C     		adds	r2, r3, #1
 1608 00ea FB68     		ldr	r3, [r7, #12]
 1609 00ec 5A62     		str	r2, [r3, #36]
 1610              	.L75:
 565:../firmware/gd32f3x0_hal_peripheral/Source/gd32f3x0_hal_smartcard.c ****         /* wait for transmit buffer empty */
 1611              		.loc 1 565 30
 1612 00ee FB68     		ldr	r3, [r7, #12]
 1613 00f0 5A6A     		ldr	r2, [r3, #36]
 565:../firmware/gd32f3x0_hal_peripheral/Source/gd32f3x0_hal_smartcard.c ****         /* wait for transmit buffer empty */
 1614              		.loc 1 565 56
 1615 00f2 FB68     		ldr	r3, [r7, #12]
 1616 00f4 1B6A     		ldr	r3, [r3, #32]
 565:../firmware/gd32f3x0_hal_peripheral/Source/gd32f3x0_hal_smartcard.c ****         /* wait for transmit buffer empty */
 1617              		.loc 1 565 10
 1618 00f6 9A42     		cmp	r2, r3
 1619 00f8 DAD3     		bcc	.L76
 585:../firmware/gd32f3x0_hal_peripheral/Source/gd32f3x0_hal_smartcard.c ****     }
 586:../firmware/gd32f3x0_hal_peripheral/Source/gd32f3x0_hal_smartcard.c **** 
 587:../firmware/gd32f3x0_hal_peripheral/Source/gd32f3x0_hal_smartcard.c ****     /* wait for transmit complete */
 588:../firmware/gd32f3x0_hal_peripheral/Source/gd32f3x0_hal_smartcard.c ****     while(RESET == hals_smartcard_flag_get(smartcard->periph, USART_FLAG_TC)) {
 1620              		.loc 1 588 10
 1621 00fa 15E0     		b	.L79
 1622              	.L80:
 589:../firmware/gd32f3x0_hal_peripheral/Source/gd32f3x0_hal_smartcard.c ****         if(HAL_TIMEOUT_FOREVER != timeout_ms) {
 1623              		.loc 1 589 11
 1624 00fc 3B68     		ldr	r3, [r7]
 1625 00fe B3F1FF3F 		cmp	r3, #-1
 1626 0102 11D0     		beq	.L79
 590:../firmware/gd32f3x0_hal_peripheral/Source/gd32f3x0_hal_smartcard.c ****             if(SET == hal_sys_basetick_timeout_check(tick_start, timeout_ms)) {
 1627              		.loc 1 590 23
 1628 0104 3968     		ldr	r1, [r7]
 1629 0106 7869     		ldr	r0, [r7, #20]
 1630 0108 FFF7FEFF 		bl	hal_sys_basetick_timeout_check
 1631 010c 0346     		mov	r3, r0
 1632              		.loc 1 590 15
 1633 010e 012B     		cmp	r3, #1
 1634 0110 0AD1     		bne	.L79
 591:../firmware/gd32f3x0_hal_peripheral/Source/gd32f3x0_hal_smartcard.c ****                 HAL_DEBUGW("smartcard transmit timeout");
 592:../firmware/gd32f3x0_hal_peripheral/Source/gd32f3x0_hal_smartcard.c ****                 smartcard->tx_state = SMARTCARD_STATE_FREE;
 1635              		.loc 1 592 37
 1636 0112 FB68     		ldr	r3, [r7, #12]
 1637 0114 0022     		movs	r2, #0
 1638 0116 83F83820 		strb	r2, [r3, #56]
 593:../firmware/gd32f3x0_hal_peripheral/Source/gd32f3x0_hal_smartcard.c ****                 /* unlock smartcard */
 594:../firmware/gd32f3x0_hal_peripheral/Source/gd32f3x0_hal_smartcard.c ****                 HAL_UNLOCK(smartcard);
 1639              		.loc 1 594 17
 1640 011a FB68     		ldr	r3, [r7, #12]
 1641 011c 0022     		movs	r2, #0
 1642 011e 83F84420 		strb	r2, [r3, #68]
 595:../firmware/gd32f3x0_hal_peripheral/Source/gd32f3x0_hal_smartcard.c ****                 return HAL_ERR_TIMEOUT;
 1643              		.loc 1 595 24
 1644 0122 6FF00403 		mvn	r3, #4
 1645 0126 18E0     		b	.L73
 1646              	.L79:
 588:../firmware/gd32f3x0_hal_peripheral/Source/gd32f3x0_hal_smartcard.c ****         if(HAL_TIMEOUT_FOREVER != timeout_ms) {
 1647              		.loc 1 588 20
 1648 0128 FB68     		ldr	r3, [r7, #12]
 1649 012a 1B68     		ldr	r3, [r3]
 1650 012c 40F20671 		movw	r1, #1798
 1651 0130 1846     		mov	r0, r3
 1652 0132 FFF7FEFF 		bl	hals_smartcard_flag_get
 1653 0136 0346     		mov	r3, r0
 588:../firmware/gd32f3x0_hal_peripheral/Source/gd32f3x0_hal_smartcard.c ****         if(HAL_TIMEOUT_FOREVER != timeout_ms) {
 1654              		.loc 1 588 10
 1655 0138 002B     		cmp	r3, #0
 1656 013a DFD0     		beq	.L80
 596:../firmware/gd32f3x0_hal_peripheral/Source/gd32f3x0_hal_smartcard.c ****             }
 597:../firmware/gd32f3x0_hal_peripheral/Source/gd32f3x0_hal_smartcard.c ****         }
 598:../firmware/gd32f3x0_hal_peripheral/Source/gd32f3x0_hal_smartcard.c ****     }
 599:../firmware/gd32f3x0_hal_peripheral/Source/gd32f3x0_hal_smartcard.c **** 
 600:../firmware/gd32f3x0_hal_peripheral/Source/gd32f3x0_hal_smartcard.c ****     /* re-enable receive */
 601:../firmware/gd32f3x0_hal_peripheral/Source/gd32f3x0_hal_smartcard.c ****     hals_smartcard_receive_config(smartcard->periph, USART_RECEIVE_ENABLE);
 1657              		.loc 1 601 5
 1658 013c FB68     		ldr	r3, [r7, #12]
 1659 013e 1B68     		ldr	r3, [r3]
 1660 0140 0421     		movs	r1, #4
 1661 0142 1846     		mov	r0, r3
 1662 0144 FFF7FEFF 		bl	hals_smartcard_receive_config
 602:../firmware/gd32f3x0_hal_peripheral/Source/gd32f3x0_hal_smartcard.c **** 
 603:../firmware/gd32f3x0_hal_peripheral/Source/gd32f3x0_hal_smartcard.c ****     /* change the Tx state to free */
 604:../firmware/gd32f3x0_hal_peripheral/Source/gd32f3x0_hal_smartcard.c ****     smartcard->tx_state = SMARTCARD_STATE_FREE;
 1663              		.loc 1 604 25
 1664 0148 FB68     		ldr	r3, [r7, #12]
 1665 014a 0022     		movs	r2, #0
 1666 014c 83F83820 		strb	r2, [r3, #56]
 605:../firmware/gd32f3x0_hal_peripheral/Source/gd32f3x0_hal_smartcard.c **** 
 606:../firmware/gd32f3x0_hal_peripheral/Source/gd32f3x0_hal_smartcard.c ****     /* unlock smartcard */
 607:../firmware/gd32f3x0_hal_peripheral/Source/gd32f3x0_hal_smartcard.c ****     HAL_UNLOCK(smartcard);
 1667              		.loc 1 607 5
 1668 0150 FB68     		ldr	r3, [r7, #12]
 1669 0152 0022     		movs	r2, #0
 1670 0154 83F84420 		strb	r2, [r3, #68]
 608:../firmware/gd32f3x0_hal_peripheral/Source/gd32f3x0_hal_smartcard.c **** 
 609:../firmware/gd32f3x0_hal_peripheral/Source/gd32f3x0_hal_smartcard.c ****     return HAL_ERR_NONE;
 1671              		.loc 1 609 12
 1672 0158 0023     		movs	r3, #0
 1673              	.L73:
 610:../firmware/gd32f3x0_hal_peripheral/Source/gd32f3x0_hal_smartcard.c **** }
 1674              		.loc 1 610 1
 1675 015a 1846     		mov	r0, r3
 1676 015c 1837     		adds	r7, r7, #24
 1677              		.cfi_def_cfa_offset 8
 1678 015e BD46     		mov	sp, r7
 1679              		.cfi_def_cfa_register 13
 1680              		@ sp needed
 1681 0160 80BD     		pop	{r7, pc}
 1682              		.cfi_endproc
 1683              	.LFE125:
 1685              		.section	.text.hal_smartcard_receive_poll,"ax",%progbits
 1686              		.align	1
 1687              		.global	hal_smartcard_receive_poll
 1688              		.syntax unified
 1689              		.thumb
 1690              		.thumb_func
 1691              		.fpu softvfp
 1693              	hal_smartcard_receive_poll:
 1694              	.LFB126:
 611:../firmware/gd32f3x0_hal_peripheral/Source/gd32f3x0_hal_smartcard.c **** 
 612:../firmware/gd32f3x0_hal_peripheral/Source/gd32f3x0_hal_smartcard.c **** /*!
 613:../firmware/gd32f3x0_hal_peripheral/Source/gd32f3x0_hal_smartcard.c ****     \brief      receive amounts of data by poll method
 614:../firmware/gd32f3x0_hal_peripheral/Source/gd32f3x0_hal_smartcard.c ****     \param[in]  smartcard: smartcard device information structure
 615:../firmware/gd32f3x0_hal_peripheral/Source/gd32f3x0_hal_smartcard.c ****                     the structure is not necessary to be reconfigured after structrue initializatio
 616:../firmware/gd32f3x0_hal_peripheral/Source/gd32f3x0_hal_smartcard.c ****                     the structure parameters altering is automatically configured by core
 617:../firmware/gd32f3x0_hal_peripheral/Source/gd32f3x0_hal_smartcard.c ****     \param[in]  p_buffer: pointer to data buffer
 618:../firmware/gd32f3x0_hal_peripheral/Source/gd32f3x0_hal_smartcard.c ****     \param[in]  length: number of data to be received
 619:../firmware/gd32f3x0_hal_peripheral/Source/gd32f3x0_hal_smartcard.c ****     \param[in]  timeout_ms: timeout duration
 620:../firmware/gd32f3x0_hal_peripheral/Source/gd32f3x0_hal_smartcard.c ****     \param[out] none
 621:../firmware/gd32f3x0_hal_peripheral/Source/gd32f3x0_hal_smartcard.c ****     \retval     error code: HAL_ERR_NONE, HAL_ERR_ADDRESS, HAL_ERR_VAL, HAL_ERR_BUSY, HAL_ERR_TIMEO
 622:../firmware/gd32f3x0_hal_peripheral/Source/gd32f3x0_hal_smartcard.c **** */
 623:../firmware/gd32f3x0_hal_peripheral/Source/gd32f3x0_hal_smartcard.c **** int32_t hal_smartcard_receive_poll(hal_smartcard_dev_struct *smartcard, uint8_t *p_buffer, uint32_t
 624:../firmware/gd32f3x0_hal_peripheral/Source/gd32f3x0_hal_smartcard.c **** {
 1695              		.loc 1 624 1
 1696              		.cfi_startproc
 1697              		@ args = 0, pretend = 0, frame = 24
 1698              		@ frame_needed = 1, uses_anonymous_args = 0
 1699 0000 80B5     		push	{r7, lr}
 1700              		.cfi_def_cfa_offset 8
 1701              		.cfi_offset 7, -8
 1702              		.cfi_offset 14, -4
 1703 0002 86B0     		sub	sp, sp, #24
 1704              		.cfi_def_cfa_offset 32
 1705 0004 00AF     		add	r7, sp, #0
 1706              		.cfi_def_cfa_register 7
 1707 0006 F860     		str	r0, [r7, #12]
 1708 0008 B960     		str	r1, [r7, #8]
 1709 000a 7A60     		str	r2, [r7, #4]
 1710 000c 3B60     		str	r3, [r7]
 625:../firmware/gd32f3x0_hal_peripheral/Source/gd32f3x0_hal_smartcard.c ****     uint32_t tick_start;
 626:../firmware/gd32f3x0_hal_peripheral/Source/gd32f3x0_hal_smartcard.c **** 
 627:../firmware/gd32f3x0_hal_peripheral/Source/gd32f3x0_hal_smartcard.c **** #if (1U == HAL_PARAMETER_CHECK)
 628:../firmware/gd32f3x0_hal_peripheral/Source/gd32f3x0_hal_smartcard.c ****     /* check smartcard pointer, p_buffer address and length */
 629:../firmware/gd32f3x0_hal_peripheral/Source/gd32f3x0_hal_smartcard.c ****     if((NULL == smartcard) || (NULL == p_buffer) || (0U == length)) {
 630:../firmware/gd32f3x0_hal_peripheral/Source/gd32f3x0_hal_smartcard.c ****         HAL_DEBUGE("parameter [usart] or [p_buffer] or [length] value is invalid");
 631:../firmware/gd32f3x0_hal_peripheral/Source/gd32f3x0_hal_smartcard.c ****         return HAL_ERR_ADDRESS;
 632:../firmware/gd32f3x0_hal_peripheral/Source/gd32f3x0_hal_smartcard.c ****     }
 633:../firmware/gd32f3x0_hal_peripheral/Source/gd32f3x0_hal_smartcard.c **** #endif /* 1U == HAL_PARAMETER_CHECK */
 634:../firmware/gd32f3x0_hal_peripheral/Source/gd32f3x0_hal_smartcard.c **** 
 635:../firmware/gd32f3x0_hal_peripheral/Source/gd32f3x0_hal_smartcard.c ****     /* check whether the Rx state is in ready */
 636:../firmware/gd32f3x0_hal_peripheral/Source/gd32f3x0_hal_smartcard.c ****     if(SMARTCARD_STATE_BUSY == smartcard->rx_state) {
 1711              		.loc 1 636 41
 1712 000e FB68     		ldr	r3, [r7, #12]
 1713 0010 93F83930 		ldrb	r3, [r3, #57]
 1714 0014 DBB2     		uxtb	r3, r3
 1715              		.loc 1 636 7
 1716 0016 012B     		cmp	r3, #1
 1717 0018 02D1     		bne	.L82
 637:../firmware/gd32f3x0_hal_peripheral/Source/gd32f3x0_hal_smartcard.c ****         HAL_DEBUGE("usart rx has already been used, please wait until run_state change to free ");
 638:../firmware/gd32f3x0_hal_peripheral/Source/gd32f3x0_hal_smartcard.c ****         return HAL_ERR_BUSY;
 1718              		.loc 1 638 16
 1719 001a 6FF00203 		mvn	r3, #2
 1720 001e 63E0     		b	.L83
 1721              	.L82:
 639:../firmware/gd32f3x0_hal_peripheral/Source/gd32f3x0_hal_smartcard.c ****     }
 640:../firmware/gd32f3x0_hal_peripheral/Source/gd32f3x0_hal_smartcard.c **** 
 641:../firmware/gd32f3x0_hal_peripheral/Source/gd32f3x0_hal_smartcard.c ****     /* lock smartcard */
 642:../firmware/gd32f3x0_hal_peripheral/Source/gd32f3x0_hal_smartcard.c ****     HAL_LOCK(smartcard);
 1722              		.loc 1 642 5
 1723 0020 FB68     		ldr	r3, [r7, #12]
 1724 0022 93F84430 		ldrb	r3, [r3, #68]	@ zero_extendqisi2
 1725 0026 012B     		cmp	r3, #1
 1726 0028 02D1     		bne	.L84
 1727              		.loc 1 642 5 is_stmt 0 discriminator 1
 1728 002a 6FF00103 		mvn	r3, #1
 1729 002e 5BE0     		b	.L83
 1730              	.L84:
 1731              		.loc 1 642 5 discriminator 2
 1732 0030 FB68     		ldr	r3, [r7, #12]
 1733 0032 0122     		movs	r2, #1
 1734 0034 83F84420 		strb	r2, [r3, #68]
 643:../firmware/gd32f3x0_hal_peripheral/Source/gd32f3x0_hal_smartcard.c **** 
 644:../firmware/gd32f3x0_hal_peripheral/Source/gd32f3x0_hal_smartcard.c ****     smartcard->error_state = HAL_SMARTCARD_ERROR_NONE;
 1735              		.loc 1 644 28 is_stmt 1 discriminator 2
 1736 0038 FB68     		ldr	r3, [r7, #12]
 1737 003a 0022     		movs	r2, #0
 1738 003c DA86     		strh	r2, [r3, #54]	@ movhi
 645:../firmware/gd32f3x0_hal_peripheral/Source/gd32f3x0_hal_smartcard.c ****     smartcard->rx_state = SMARTCARD_STATE_BUSY;
 1739              		.loc 1 645 25 discriminator 2
 1740 003e FB68     		ldr	r3, [r7, #12]
 1741 0040 0122     		movs	r2, #1
 1742 0042 83F83920 		strb	r2, [r3, #57]
 646:../firmware/gd32f3x0_hal_peripheral/Source/gd32f3x0_hal_smartcard.c **** 
 647:../firmware/gd32f3x0_hal_peripheral/Source/gd32f3x0_hal_smartcard.c ****     /* initialize receive parameter */
 648:../firmware/gd32f3x0_hal_peripheral/Source/gd32f3x0_hal_smartcard.c ****     smartcard->rxbuffer.buffer  = (uint8_t *)p_buffer;
 1743              		.loc 1 648 33 discriminator 2
 1744 0046 FB68     		ldr	r3, [r7, #12]
 1745 0048 BA68     		ldr	r2, [r7, #8]
 1746 004a 9A62     		str	r2, [r3, #40]
 649:../firmware/gd32f3x0_hal_peripheral/Source/gd32f3x0_hal_smartcard.c ****     smartcard->rxbuffer.length  = length;
 1747              		.loc 1 649 33 discriminator 2
 1748 004c FB68     		ldr	r3, [r7, #12]
 1749 004e 7A68     		ldr	r2, [r7, #4]
 1750 0050 DA62     		str	r2, [r3, #44]
 650:../firmware/gd32f3x0_hal_peripheral/Source/gd32f3x0_hal_smartcard.c ****     smartcard->rxbuffer.pos     = 0U;
 1751              		.loc 1 650 33 discriminator 2
 1752 0052 FB68     		ldr	r3, [r7, #12]
 1753 0054 0022     		movs	r2, #0
 1754 0056 1A63     		str	r2, [r3, #48]
 651:../firmware/gd32f3x0_hal_peripheral/Source/gd32f3x0_hal_smartcard.c **** 
 652:../firmware/gd32f3x0_hal_peripheral/Source/gd32f3x0_hal_smartcard.c ****     /* configure timeout */
 653:../firmware/gd32f3x0_hal_peripheral/Source/gd32f3x0_hal_smartcard.c ****     tick_start = hal_sys_basetick_count_get();
 1755              		.loc 1 653 18 discriminator 2
 1756 0058 FFF7FEFF 		bl	hal_sys_basetick_count_get
 1757 005c 7861     		str	r0, [r7, #20]
 654:../firmware/gd32f3x0_hal_peripheral/Source/gd32f3x0_hal_smartcard.c **** 
 655:../firmware/gd32f3x0_hal_peripheral/Source/gd32f3x0_hal_smartcard.c ****     while(smartcard->rxbuffer.pos < smartcard->rxbuffer.length) {
 1758              		.loc 1 655 10 discriminator 2
 1759 005e 34E0     		b	.L85
 1760              	.L87:
 656:../firmware/gd32f3x0_hal_peripheral/Source/gd32f3x0_hal_smartcard.c ****         /* wait for read data buffer not empty */
 657:../firmware/gd32f3x0_hal_peripheral/Source/gd32f3x0_hal_smartcard.c ****         while(RESET == hals_smartcard_flag_get(smartcard->periph, USART_FLAG_RBNE)) {
 658:../firmware/gd32f3x0_hal_peripheral/Source/gd32f3x0_hal_smartcard.c ****             if(HAL_TIMEOUT_FOREVER != timeout_ms) {
 1761              		.loc 1 658 15
 1762 0060 3B68     		ldr	r3, [r7]
 1763 0062 B3F1FF3F 		cmp	r3, #-1
 1764 0066 11D0     		beq	.L86
 659:../firmware/gd32f3x0_hal_peripheral/Source/gd32f3x0_hal_smartcard.c ****                 if(SET == hal_sys_basetick_timeout_check(tick_start, timeout_ms)) {
 1765              		.loc 1 659 27
 1766 0068 3968     		ldr	r1, [r7]
 1767 006a 7869     		ldr	r0, [r7, #20]
 1768 006c FFF7FEFF 		bl	hal_sys_basetick_timeout_check
 1769 0070 0346     		mov	r3, r0
 1770              		.loc 1 659 19
 1771 0072 012B     		cmp	r3, #1
 1772 0074 0AD1     		bne	.L86
 660:../firmware/gd32f3x0_hal_peripheral/Source/gd32f3x0_hal_smartcard.c ****                     HAL_DEBUGW("usart receive timeout");
 661:../firmware/gd32f3x0_hal_peripheral/Source/gd32f3x0_hal_smartcard.c ****                     smartcard->rx_state = SMARTCARD_STATE_FREE;
 1773              		.loc 1 661 41
 1774 0076 FB68     		ldr	r3, [r7, #12]
 1775 0078 0022     		movs	r2, #0
 1776 007a 83F83920 		strb	r2, [r3, #57]
 662:../firmware/gd32f3x0_hal_peripheral/Source/gd32f3x0_hal_smartcard.c ****                     /* unlock smartcard */
 663:../firmware/gd32f3x0_hal_peripheral/Source/gd32f3x0_hal_smartcard.c ****                     HAL_UNLOCK(smartcard);
 1777              		.loc 1 663 21
 1778 007e FB68     		ldr	r3, [r7, #12]
 1779 0080 0022     		movs	r2, #0
 1780 0082 83F84420 		strb	r2, [r3, #68]
 664:../firmware/gd32f3x0_hal_peripheral/Source/gd32f3x0_hal_smartcard.c **** 
 665:../firmware/gd32f3x0_hal_peripheral/Source/gd32f3x0_hal_smartcard.c ****                     return HAL_ERR_TIMEOUT;
 1781              		.loc 1 665 28
 1782 0086 6FF00403 		mvn	r3, #4
 1783 008a 2DE0     		b	.L83
 1784              	.L86:
 657:../firmware/gd32f3x0_hal_peripheral/Source/gd32f3x0_hal_smartcard.c ****             if(HAL_TIMEOUT_FOREVER != timeout_ms) {
 1785              		.loc 1 657 24
 1786 008c FB68     		ldr	r3, [r7, #12]
 1787 008e 1B68     		ldr	r3, [r3]
 1788 0090 40F20571 		movw	r1, #1797
 1789 0094 1846     		mov	r0, r3
 1790 0096 FFF7FEFF 		bl	hals_smartcard_flag_get
 1791 009a 0346     		mov	r3, r0
 657:../firmware/gd32f3x0_hal_peripheral/Source/gd32f3x0_hal_smartcard.c ****             if(HAL_TIMEOUT_FOREVER != timeout_ms) {
 1792              		.loc 1 657 14
 1793 009c 002B     		cmp	r3, #0
 1794 009e DFD0     		beq	.L87
 666:../firmware/gd32f3x0_hal_peripheral/Source/gd32f3x0_hal_smartcard.c ****                 }
 667:../firmware/gd32f3x0_hal_peripheral/Source/gd32f3x0_hal_smartcard.c ****             }
 668:../firmware/gd32f3x0_hal_peripheral/Source/gd32f3x0_hal_smartcard.c ****         }
 669:../firmware/gd32f3x0_hal_peripheral/Source/gd32f3x0_hal_smartcard.c **** 
 670:../firmware/gd32f3x0_hal_peripheral/Source/gd32f3x0_hal_smartcard.c ****         /* read data from data register */
 671:../firmware/gd32f3x0_hal_peripheral/Source/gd32f3x0_hal_smartcard.c ****         *smartcard->rxbuffer.buffer = (uint8_t)(hals_smartcard_data_receive(smartcard->periph) & 0x
 1795              		.loc 1 671 49
 1796 00a0 FB68     		ldr	r3, [r7, #12]
 1797 00a2 1B68     		ldr	r3, [r3]
 1798 00a4 1846     		mov	r0, r3
 1799 00a6 FFF7FEFF 		bl	hals_smartcard_data_receive
 1800 00aa 0346     		mov	r3, r0
 1801 00ac 1A46     		mov	r2, r3
 1802              		.loc 1 671 29
 1803 00ae FB68     		ldr	r3, [r7, #12]
 1804 00b0 9B6A     		ldr	r3, [r3, #40]
 1805              		.loc 1 671 39
 1806 00b2 D2B2     		uxtb	r2, r2
 1807              		.loc 1 671 37
 1808 00b4 1A70     		strb	r2, [r3]
 672:../firmware/gd32f3x0_hal_peripheral/Source/gd32f3x0_hal_smartcard.c ****         smartcard->rxbuffer.buffer++;
 1809              		.loc 1 672 28
 1810 00b6 FB68     		ldr	r3, [r7, #12]
 1811 00b8 9B6A     		ldr	r3, [r3, #40]
 1812              		.loc 1 672 35
 1813 00ba 5A1C     		adds	r2, r3, #1
 1814 00bc FB68     		ldr	r3, [r7, #12]
 1815 00be 9A62     		str	r2, [r3, #40]
 673:../firmware/gd32f3x0_hal_peripheral/Source/gd32f3x0_hal_smartcard.c **** 
 674:../firmware/gd32f3x0_hal_peripheral/Source/gd32f3x0_hal_smartcard.c ****         /* change the receive pointer */
 675:../firmware/gd32f3x0_hal_peripheral/Source/gd32f3x0_hal_smartcard.c ****         smartcard->rxbuffer.pos++;
 1816              		.loc 1 675 28
 1817 00c0 FB68     		ldr	r3, [r7, #12]
 1818 00c2 1B6B     		ldr	r3, [r3, #48]
 1819              		.loc 1 675 32
 1820 00c4 5A1C     		adds	r2, r3, #1
 1821 00c6 FB68     		ldr	r3, [r7, #12]
 1822 00c8 1A63     		str	r2, [r3, #48]
 1823              	.L85:
 655:../firmware/gd32f3x0_hal_peripheral/Source/gd32f3x0_hal_smartcard.c ****         /* wait for read data buffer not empty */
 1824              		.loc 1 655 30
 1825 00ca FB68     		ldr	r3, [r7, #12]
 1826 00cc 1A6B     		ldr	r2, [r3, #48]
 655:../firmware/gd32f3x0_hal_peripheral/Source/gd32f3x0_hal_smartcard.c ****         /* wait for read data buffer not empty */
 1827              		.loc 1 655 56
 1828 00ce FB68     		ldr	r3, [r7, #12]
 1829 00d0 DB6A     		ldr	r3, [r3, #44]
 655:../firmware/gd32f3x0_hal_peripheral/Source/gd32f3x0_hal_smartcard.c ****         /* wait for read data buffer not empty */
 1830              		.loc 1 655 10
 1831 00d2 9A42     		cmp	r2, r3
 1832 00d4 DAD3     		bcc	.L86
 676:../firmware/gd32f3x0_hal_peripheral/Source/gd32f3x0_hal_smartcard.c ****     }
 677:../firmware/gd32f3x0_hal_peripheral/Source/gd32f3x0_hal_smartcard.c **** 
 678:../firmware/gd32f3x0_hal_peripheral/Source/gd32f3x0_hal_smartcard.c ****     /* change the Rx state to free */
 679:../firmware/gd32f3x0_hal_peripheral/Source/gd32f3x0_hal_smartcard.c ****     smartcard->rx_state = SMARTCARD_STATE_FREE;
 1833              		.loc 1 679 25
 1834 00d6 FB68     		ldr	r3, [r7, #12]
 1835 00d8 0022     		movs	r2, #0
 1836 00da 83F83920 		strb	r2, [r3, #57]
 680:../firmware/gd32f3x0_hal_peripheral/Source/gd32f3x0_hal_smartcard.c **** 
 681:../firmware/gd32f3x0_hal_peripheral/Source/gd32f3x0_hal_smartcard.c ****     /* unlock smartcard */
 682:../firmware/gd32f3x0_hal_peripheral/Source/gd32f3x0_hal_smartcard.c ****     HAL_UNLOCK(smartcard);
 1837              		.loc 1 682 5
 1838 00de FB68     		ldr	r3, [r7, #12]
 1839 00e0 0022     		movs	r2, #0
 1840 00e2 83F84420 		strb	r2, [r3, #68]
 683:../firmware/gd32f3x0_hal_peripheral/Source/gd32f3x0_hal_smartcard.c **** 
 684:../firmware/gd32f3x0_hal_peripheral/Source/gd32f3x0_hal_smartcard.c ****     return HAL_ERR_NONE;
 1841              		.loc 1 684 12
 1842 00e6 0023     		movs	r3, #0
 1843              	.L83:
 685:../firmware/gd32f3x0_hal_peripheral/Source/gd32f3x0_hal_smartcard.c **** }
 1844              		.loc 1 685 1
 1845 00e8 1846     		mov	r0, r3
 1846 00ea 1837     		adds	r7, r7, #24
 1847              		.cfi_def_cfa_offset 8
 1848 00ec BD46     		mov	sp, r7
 1849              		.cfi_def_cfa_register 13
 1850              		@ sp needed
 1851 00ee 80BD     		pop	{r7, pc}
 1852              		.cfi_endproc
 1853              	.LFE126:
 1855              		.section	.text.hal_smartcard_transmit_interrupt,"ax",%progbits
 1856              		.align	1
 1857              		.global	hal_smartcard_transmit_interrupt
 1858              		.syntax unified
 1859              		.thumb
 1860              		.thumb_func
 1861              		.fpu softvfp
 1863              	hal_smartcard_transmit_interrupt:
 1864              	.LFB127:
 686:../firmware/gd32f3x0_hal_peripheral/Source/gd32f3x0_hal_smartcard.c **** 
 687:../firmware/gd32f3x0_hal_peripheral/Source/gd32f3x0_hal_smartcard.c **** /*!
 688:../firmware/gd32f3x0_hal_peripheral/Source/gd32f3x0_hal_smartcard.c ****     \brief      transmit amounts of data by interrupt method
 689:../firmware/gd32f3x0_hal_peripheral/Source/gd32f3x0_hal_smartcard.c ****     \param[in]  smartcard: smartcard device information structure
 690:../firmware/gd32f3x0_hal_peripheral/Source/gd32f3x0_hal_smartcard.c ****                     the structure is not necessary to be reconfigured after structrue initializatio
 691:../firmware/gd32f3x0_hal_peripheral/Source/gd32f3x0_hal_smartcard.c ****                     the structure parameters altering is automatically configured by core
 692:../firmware/gd32f3x0_hal_peripheral/Source/gd32f3x0_hal_smartcard.c ****     \param[in]  p_buffer: pointer to data buffer
 693:../firmware/gd32f3x0_hal_peripheral/Source/gd32f3x0_hal_smartcard.c ****     \param[in]  length: number of data to be transmitted
 694:../firmware/gd32f3x0_hal_peripheral/Source/gd32f3x0_hal_smartcard.c ****     \param[in]  p_user_func: user callback function
 695:../firmware/gd32f3x0_hal_peripheral/Source/gd32f3x0_hal_smartcard.c ****     \param[out] none
 696:../firmware/gd32f3x0_hal_peripheral/Source/gd32f3x0_hal_smartcard.c ****     \retval     error code: HAL_ERR_NONE, HAL_ERR_ADDRESS, HAL_ERR_BUSY, details refer to gd32f3x0_
 697:../firmware/gd32f3x0_hal_peripheral/Source/gd32f3x0_hal_smartcard.c **** */
 698:../firmware/gd32f3x0_hal_peripheral/Source/gd32f3x0_hal_smartcard.c **** int32_t hal_smartcard_transmit_interrupt(hal_smartcard_dev_struct *smartcard, uint8_t *p_buffer, ui
 699:../firmware/gd32f3x0_hal_peripheral/Source/gd32f3x0_hal_smartcard.c **** {
 1865              		.loc 1 699 1
 1866              		.cfi_startproc
 1867              		@ args = 0, pretend = 0, frame = 16
 1868              		@ frame_needed = 1, uses_anonymous_args = 0
 1869 0000 80B5     		push	{r7, lr}
 1870              		.cfi_def_cfa_offset 8
 1871              		.cfi_offset 7, -8
 1872              		.cfi_offset 14, -4
 1873 0002 84B0     		sub	sp, sp, #16
 1874              		.cfi_def_cfa_offset 24
 1875 0004 00AF     		add	r7, sp, #0
 1876              		.cfi_def_cfa_register 7
 1877 0006 F860     		str	r0, [r7, #12]
 1878 0008 B960     		str	r1, [r7, #8]
 1879 000a 7A60     		str	r2, [r7, #4]
 1880 000c 3B60     		str	r3, [r7]
 700:../firmware/gd32f3x0_hal_peripheral/Source/gd32f3x0_hal_smartcard.c **** #if (1U == HAL_PARAMETER_CHECK)
 701:../firmware/gd32f3x0_hal_peripheral/Source/gd32f3x0_hal_smartcard.c ****     /* check smartcard pointer, p_buffer address and length */
 702:../firmware/gd32f3x0_hal_peripheral/Source/gd32f3x0_hal_smartcard.c ****     if((NULL == smartcard) || (NULL == p_buffer) || (0U == length)) {
 703:../firmware/gd32f3x0_hal_peripheral/Source/gd32f3x0_hal_smartcard.c ****         HAL_DEBUGE("parameter [usart] or [p_buffer] or [length] value is invalid");
 704:../firmware/gd32f3x0_hal_peripheral/Source/gd32f3x0_hal_smartcard.c ****         return HAL_ERR_ADDRESS;
 705:../firmware/gd32f3x0_hal_peripheral/Source/gd32f3x0_hal_smartcard.c ****     }
 706:../firmware/gd32f3x0_hal_peripheral/Source/gd32f3x0_hal_smartcard.c **** #endif /* 1U == HAL_PARAMETER_CHECK */
 707:../firmware/gd32f3x0_hal_peripheral/Source/gd32f3x0_hal_smartcard.c **** 
 708:../firmware/gd32f3x0_hal_peripheral/Source/gd32f3x0_hal_smartcard.c ****     /* check whether the Tx state is in ready */
 709:../firmware/gd32f3x0_hal_peripheral/Source/gd32f3x0_hal_smartcard.c ****     if(SMARTCARD_STATE_BUSY == smartcard->tx_state) {
 1881              		.loc 1 709 41
 1882 000e FB68     		ldr	r3, [r7, #12]
 1883 0010 93F83830 		ldrb	r3, [r3, #56]
 1884 0014 DBB2     		uxtb	r3, r3
 1885              		.loc 1 709 7
 1886 0016 012B     		cmp	r3, #1
 1887 0018 02D1     		bne	.L90
 710:../firmware/gd32f3x0_hal_peripheral/Source/gd32f3x0_hal_smartcard.c ****         HAL_DEBUGE("usart tx has already been used, please wait until run_state change to free ");
 711:../firmware/gd32f3x0_hal_peripheral/Source/gd32f3x0_hal_smartcard.c ****         return HAL_ERR_BUSY;
 1888              		.loc 1 711 16
 1889 001a 6FF00203 		mvn	r3, #2
 1890 001e 4EE0     		b	.L91
 1891              	.L90:
 712:../firmware/gd32f3x0_hal_peripheral/Source/gd32f3x0_hal_smartcard.c ****     }
 713:../firmware/gd32f3x0_hal_peripheral/Source/gd32f3x0_hal_smartcard.c **** 
 714:../firmware/gd32f3x0_hal_peripheral/Source/gd32f3x0_hal_smartcard.c ****     /* lock smartcard */
 715:../firmware/gd32f3x0_hal_peripheral/Source/gd32f3x0_hal_smartcard.c ****     HAL_LOCK(smartcard);
 1892              		.loc 1 715 5
 1893 0020 FB68     		ldr	r3, [r7, #12]
 1894 0022 93F84430 		ldrb	r3, [r3, #68]	@ zero_extendqisi2
 1895 0026 012B     		cmp	r3, #1
 1896 0028 02D1     		bne	.L92
 1897              		.loc 1 715 5 is_stmt 0 discriminator 1
 1898 002a 6FF00103 		mvn	r3, #1
 1899 002e 46E0     		b	.L91
 1900              	.L92:
 1901              		.loc 1 715 5 discriminator 2
 1902 0030 FB68     		ldr	r3, [r7, #12]
 1903 0032 0122     		movs	r2, #1
 1904 0034 83F84420 		strb	r2, [r3, #68]
 716:../firmware/gd32f3x0_hal_peripheral/Source/gd32f3x0_hal_smartcard.c **** 
 717:../firmware/gd32f3x0_hal_peripheral/Source/gd32f3x0_hal_smartcard.c ****     smartcard->tx_state = SMARTCARD_STATE_BUSY;
 1905              		.loc 1 717 25 is_stmt 1 discriminator 2
 1906 0038 FB68     		ldr	r3, [r7, #12]
 1907 003a 0122     		movs	r2, #1
 1908 003c 83F83820 		strb	r2, [r3, #56]
 718:../firmware/gd32f3x0_hal_peripheral/Source/gd32f3x0_hal_smartcard.c ****     smartcard->error_state = HAL_SMARTCARD_ERROR_NONE;
 1909              		.loc 1 718 28 discriminator 2
 1910 0040 FB68     		ldr	r3, [r7, #12]
 1911 0042 0022     		movs	r2, #0
 1912 0044 DA86     		strh	r2, [r3, #54]	@ movhi
 719:../firmware/gd32f3x0_hal_peripheral/Source/gd32f3x0_hal_smartcard.c **** 
 720:../firmware/gd32f3x0_hal_peripheral/Source/gd32f3x0_hal_smartcard.c ****     /* disable receive and enable transmit */
 721:../firmware/gd32f3x0_hal_peripheral/Source/gd32f3x0_hal_smartcard.c ****     hals_smartcard_receive_config(smartcard->periph, USART_RECEIVE_DISABLE);
 1913              		.loc 1 721 5 discriminator 2
 1914 0046 FB68     		ldr	r3, [r7, #12]
 1915 0048 1B68     		ldr	r3, [r3]
 1916 004a 0021     		movs	r1, #0
 1917 004c 1846     		mov	r0, r3
 1918 004e FFF7FEFF 		bl	hals_smartcard_receive_config
 722:../firmware/gd32f3x0_hal_peripheral/Source/gd32f3x0_hal_smartcard.c ****     hals_smartcard_command_enable(smartcard->periph, USART_CMD_RXFCMD);
 1919              		.loc 1 722 5 discriminator 2
 1920 0052 FB68     		ldr	r3, [r7, #12]
 1921 0054 1B68     		ldr	r3, [r3]
 1922 0056 0821     		movs	r1, #8
 1923 0058 1846     		mov	r0, r3
 1924 005a FFF7FEFF 		bl	hals_smartcard_command_enable
 723:../firmware/gd32f3x0_hal_peripheral/Source/gd32f3x0_hal_smartcard.c ****     hals_smartcard_transmit_config(smartcard->periph, USART_TRANSMIT_ENABLE);
 1925              		.loc 1 723 5 discriminator 2
 1926 005e FB68     		ldr	r3, [r7, #12]
 1927 0060 1B68     		ldr	r3, [r3]
 1928 0062 0821     		movs	r1, #8
 1929 0064 1846     		mov	r0, r3
 1930 0066 FFF7FEFF 		bl	hals_smartcard_transmit_config
 724:../firmware/gd32f3x0_hal_peripheral/Source/gd32f3x0_hal_smartcard.c **** 
 725:../firmware/gd32f3x0_hal_peripheral/Source/gd32f3x0_hal_smartcard.c ****     /* initialize transmit parameter */
 726:../firmware/gd32f3x0_hal_peripheral/Source/gd32f3x0_hal_smartcard.c ****     smartcard->txbuffer.buffer  = (uint8_t *)p_buffer;
 1931              		.loc 1 726 33 discriminator 2
 1932 006a FB68     		ldr	r3, [r7, #12]
 1933 006c BA68     		ldr	r2, [r7, #8]
 1934 006e DA61     		str	r2, [r3, #28]
 727:../firmware/gd32f3x0_hal_peripheral/Source/gd32f3x0_hal_smartcard.c ****     smartcard->txbuffer.length  = length;
 1935              		.loc 1 727 33 discriminator 2
 1936 0070 FB68     		ldr	r3, [r7, #12]
 1937 0072 7A68     		ldr	r2, [r7, #4]
 1938 0074 1A62     		str	r2, [r3, #32]
 728:../firmware/gd32f3x0_hal_peripheral/Source/gd32f3x0_hal_smartcard.c ****     smartcard->txbuffer.pos     = 0U;
 1939              		.loc 1 728 33 discriminator 2
 1940 0076 FB68     		ldr	r3, [r7, #12]
 1941 0078 0022     		movs	r2, #0
 1942 007a 5A62     		str	r2, [r3, #36]
 729:../firmware/gd32f3x0_hal_peripheral/Source/gd32f3x0_hal_smartcard.c ****     smartcard->tx_callback      = (void *)p_user_func;
 1943              		.loc 1 729 33 discriminator 2
 1944 007c FB68     		ldr	r3, [r7, #12]
 1945 007e 3A68     		ldr	r2, [r7]
 1946 0080 1A64     		str	r2, [r3, #64]
 730:../firmware/gd32f3x0_hal_peripheral/Source/gd32f3x0_hal_smartcard.c ****     smartcard->smartcard_irq.transmit_ready_handle = _smartcard_transmit_interrupt;
 1947              		.loc 1 730 52 discriminator 2
 1948 0082 FB68     		ldr	r3, [r7, #12]
 1949 0084 104A     		ldr	r2, .L93
 1950 0086 9A60     		str	r2, [r3, #8]
 731:../firmware/gd32f3x0_hal_peripheral/Source/gd32f3x0_hal_smartcard.c ****     smartcard->smartcard_irq.transmit_complete_handle = _smartcard_transmit_complete_interrupt;
 1951              		.loc 1 731 55 discriminator 2
 1952 0088 FB68     		ldr	r3, [r7, #12]
 1953 008a 104A     		ldr	r2, .L93+4
 1954 008c DA60     		str	r2, [r3, #12]
 732:../firmware/gd32f3x0_hal_peripheral/Source/gd32f3x0_hal_smartcard.c **** 
 733:../firmware/gd32f3x0_hal_peripheral/Source/gd32f3x0_hal_smartcard.c ****     /* clear SMARTCARD TC interrupt flag */
 734:../firmware/gd32f3x0_hal_peripheral/Source/gd32f3x0_hal_smartcard.c ****     hals_smartcard_interrupt_flag_clear(smartcard->periph, USART_INT_FLAG_TC);
 1955              		.loc 1 734 5 discriminator 2
 1956 008e FB68     		ldr	r3, [r7, #12]
 1957 0090 1B68     		ldr	r3, [r3]
 1958 0092 0F49     		ldr	r1, .L93+8
 1959 0094 1846     		mov	r0, r3
 1960 0096 FFF7FEFF 		bl	hals_smartcard_interrupt_flag_clear
 735:../firmware/gd32f3x0_hal_peripheral/Source/gd32f3x0_hal_smartcard.c **** 
 736:../firmware/gd32f3x0_hal_peripheral/Source/gd32f3x0_hal_smartcard.c ****     /* enable ERR(frame error) and TBE interrupt */
 737:../firmware/gd32f3x0_hal_peripheral/Source/gd32f3x0_hal_smartcard.c ****     hals_smartcard_interrupt_enable(smartcard->periph, USART_INT_ERR);
 1961              		.loc 1 737 5 discriminator 2
 1962 009a FB68     		ldr	r3, [r7, #12]
 1963 009c 1B68     		ldr	r3, [r3]
 1964 009e 4FF40071 		mov	r1, #512
 1965 00a2 1846     		mov	r0, r3
 1966 00a4 FFF7FEFF 		bl	hals_smartcard_interrupt_enable
 738:../firmware/gd32f3x0_hal_peripheral/Source/gd32f3x0_hal_smartcard.c ****     hals_smartcard_interrupt_enable(smartcard->periph, USART_INT_TBE);
 1967              		.loc 1 738 5 discriminator 2
 1968 00a8 FB68     		ldr	r3, [r7, #12]
 1969 00aa 1B68     		ldr	r3, [r3]
 1970 00ac 0721     		movs	r1, #7
 1971 00ae 1846     		mov	r0, r3
 1972 00b0 FFF7FEFF 		bl	hals_smartcard_interrupt_enable
 739:../firmware/gd32f3x0_hal_peripheral/Source/gd32f3x0_hal_smartcard.c **** 
 740:../firmware/gd32f3x0_hal_peripheral/Source/gd32f3x0_hal_smartcard.c ****     /* unlock smartcard */
 741:../firmware/gd32f3x0_hal_peripheral/Source/gd32f3x0_hal_smartcard.c ****     HAL_UNLOCK(smartcard);
 1973              		.loc 1 741 5 discriminator 2
 1974 00b4 FB68     		ldr	r3, [r7, #12]
 1975 00b6 0022     		movs	r2, #0
 1976 00b8 83F84420 		strb	r2, [r3, #68]
 742:../firmware/gd32f3x0_hal_peripheral/Source/gd32f3x0_hal_smartcard.c **** 
 743:../firmware/gd32f3x0_hal_peripheral/Source/gd32f3x0_hal_smartcard.c ****     return HAL_ERR_NONE;
 1977              		.loc 1 743 12 discriminator 2
 1978 00bc 0023     		movs	r3, #0
 1979              	.L91:
 744:../firmware/gd32f3x0_hal_peripheral/Source/gd32f3x0_hal_smartcard.c **** }
 1980              		.loc 1 744 1
 1981 00be 1846     		mov	r0, r3
 1982 00c0 1037     		adds	r7, r7, #16
 1983              		.cfi_def_cfa_offset 8
 1984 00c2 BD46     		mov	sp, r7
 1985              		.cfi_def_cfa_register 13
 1986              		@ sp needed
 1987 00c4 80BD     		pop	{r7, pc}
 1988              	.L94:
 1989 00c6 00BF     		.align	2
 1990              	.L93:
 1991 00c8 00000000 		.word	_smartcard_transmit_interrupt
 1992 00cc 00000000 		.word	_smartcard_transmit_complete_interrupt
 1993 00d0 06000607 		.word	117833734
 1994              		.cfi_endproc
 1995              	.LFE127:
 1997              		.section	.text.hal_smartcard_receive_interrupt,"ax",%progbits
 1998              		.align	1
 1999              		.global	hal_smartcard_receive_interrupt
 2000              		.syntax unified
 2001              		.thumb
 2002              		.thumb_func
 2003              		.fpu softvfp
 2005              	hal_smartcard_receive_interrupt:
 2006              	.LFB128:
 745:../firmware/gd32f3x0_hal_peripheral/Source/gd32f3x0_hal_smartcard.c **** 
 746:../firmware/gd32f3x0_hal_peripheral/Source/gd32f3x0_hal_smartcard.c **** /*!
 747:../firmware/gd32f3x0_hal_peripheral/Source/gd32f3x0_hal_smartcard.c ****     \brief      receive amounts of data by interrupt method
 748:../firmware/gd32f3x0_hal_peripheral/Source/gd32f3x0_hal_smartcard.c ****     \param[in]  smartcard: smartcard device information structure
 749:../firmware/gd32f3x0_hal_peripheral/Source/gd32f3x0_hal_smartcard.c ****                     the structure is not necessary to be reconfigured after structrue initializatio
 750:../firmware/gd32f3x0_hal_peripheral/Source/gd32f3x0_hal_smartcard.c ****                     the structure parameters altering is automatically configured by core
 751:../firmware/gd32f3x0_hal_peripheral/Source/gd32f3x0_hal_smartcard.c ****     \param[in]  p_buffer: pointer to data buffer
 752:../firmware/gd32f3x0_hal_peripheral/Source/gd32f3x0_hal_smartcard.c ****     \param[in]  length: number of data to be sent received
 753:../firmware/gd32f3x0_hal_peripheral/Source/gd32f3x0_hal_smartcard.c ****     \param[in]  p_user_func: user callback function
 754:../firmware/gd32f3x0_hal_peripheral/Source/gd32f3x0_hal_smartcard.c ****     \param[out] none
 755:../firmware/gd32f3x0_hal_peripheral/Source/gd32f3x0_hal_smartcard.c ****     \retval     error code: HAL_ERR_NONE, HAL_ERR_ADDRESS, HAL_ERR_BUSY, details refer to gd32f3x0_
 756:../firmware/gd32f3x0_hal_peripheral/Source/gd32f3x0_hal_smartcard.c **** */
 757:../firmware/gd32f3x0_hal_peripheral/Source/gd32f3x0_hal_smartcard.c **** int32_t hal_smartcard_receive_interrupt(hal_smartcard_dev_struct *smartcard, uint8_t *p_buffer, uin
 758:../firmware/gd32f3x0_hal_peripheral/Source/gd32f3x0_hal_smartcard.c **** {
 2007              		.loc 1 758 1
 2008              		.cfi_startproc
 2009              		@ args = 0, pretend = 0, frame = 16
 2010              		@ frame_needed = 1, uses_anonymous_args = 0
 2011 0000 80B5     		push	{r7, lr}
 2012              		.cfi_def_cfa_offset 8
 2013              		.cfi_offset 7, -8
 2014              		.cfi_offset 14, -4
 2015 0002 84B0     		sub	sp, sp, #16
 2016              		.cfi_def_cfa_offset 24
 2017 0004 00AF     		add	r7, sp, #0
 2018              		.cfi_def_cfa_register 7
 2019 0006 F860     		str	r0, [r7, #12]
 2020 0008 B960     		str	r1, [r7, #8]
 2021 000a 7A60     		str	r2, [r7, #4]
 2022 000c 3B60     		str	r3, [r7]
 759:../firmware/gd32f3x0_hal_peripheral/Source/gd32f3x0_hal_smartcard.c **** #if (1U == HAL_PARAMETER_CHECK)
 760:../firmware/gd32f3x0_hal_peripheral/Source/gd32f3x0_hal_smartcard.c ****     /* check smartcard pointer, p_buffer address and length */
 761:../firmware/gd32f3x0_hal_peripheral/Source/gd32f3x0_hal_smartcard.c ****     if((NULL == smartcard) || (NULL == p_buffer) || (0U == length)) {
 762:../firmware/gd32f3x0_hal_peripheral/Source/gd32f3x0_hal_smartcard.c ****         HAL_DEBUGE("parameter [usart] or [p_buffer] or [length] value is invalid");
 763:../firmware/gd32f3x0_hal_peripheral/Source/gd32f3x0_hal_smartcard.c ****         return HAL_ERR_ADDRESS;
 764:../firmware/gd32f3x0_hal_peripheral/Source/gd32f3x0_hal_smartcard.c ****     }
 765:../firmware/gd32f3x0_hal_peripheral/Source/gd32f3x0_hal_smartcard.c **** #endif /* 1U == HAL_PARAMETER_CHECK */
 766:../firmware/gd32f3x0_hal_peripheral/Source/gd32f3x0_hal_smartcard.c **** 
 767:../firmware/gd32f3x0_hal_peripheral/Source/gd32f3x0_hal_smartcard.c ****     /* check whether the Rx state is in ready */
 768:../firmware/gd32f3x0_hal_peripheral/Source/gd32f3x0_hal_smartcard.c ****     if(SMARTCARD_STATE_BUSY == smartcard->rx_state) {
 2023              		.loc 1 768 41
 2024 000e FB68     		ldr	r3, [r7, #12]
 2025 0010 93F83930 		ldrb	r3, [r3, #57]
 2026 0014 DBB2     		uxtb	r3, r3
 2027              		.loc 1 768 7
 2028 0016 012B     		cmp	r3, #1
 2029 0018 02D1     		bne	.L96
 769:../firmware/gd32f3x0_hal_peripheral/Source/gd32f3x0_hal_smartcard.c ****         HAL_DEBUGE("usart tx has already been used, please wait until run_state change to free ");
 770:../firmware/gd32f3x0_hal_peripheral/Source/gd32f3x0_hal_smartcard.c ****         return HAL_ERR_BUSY;
 2030              		.loc 1 770 16
 2031 001a 6FF00203 		mvn	r3, #2
 2032 001e 39E0     		b	.L97
 2033              	.L96:
 771:../firmware/gd32f3x0_hal_peripheral/Source/gd32f3x0_hal_smartcard.c ****     }
 772:../firmware/gd32f3x0_hal_peripheral/Source/gd32f3x0_hal_smartcard.c **** 
 773:../firmware/gd32f3x0_hal_peripheral/Source/gd32f3x0_hal_smartcard.c ****     /* lock smartcard */
 774:../firmware/gd32f3x0_hal_peripheral/Source/gd32f3x0_hal_smartcard.c ****     HAL_LOCK(smartcard);
 2034              		.loc 1 774 5
 2035 0020 FB68     		ldr	r3, [r7, #12]
 2036 0022 93F84430 		ldrb	r3, [r3, #68]	@ zero_extendqisi2
 2037 0026 012B     		cmp	r3, #1
 2038 0028 02D1     		bne	.L98
 2039              		.loc 1 774 5 is_stmt 0 discriminator 1
 2040 002a 6FF00103 		mvn	r3, #1
 2041 002e 31E0     		b	.L97
 2042              	.L98:
 2043              		.loc 1 774 5 discriminator 2
 2044 0030 FB68     		ldr	r3, [r7, #12]
 2045 0032 0122     		movs	r2, #1
 2046 0034 83F84420 		strb	r2, [r3, #68]
 775:../firmware/gd32f3x0_hal_peripheral/Source/gd32f3x0_hal_smartcard.c **** 
 776:../firmware/gd32f3x0_hal_peripheral/Source/gd32f3x0_hal_smartcard.c ****     smartcard->rx_state = SMARTCARD_STATE_BUSY;
 2047              		.loc 1 776 25 is_stmt 1 discriminator 2
 2048 0038 FB68     		ldr	r3, [r7, #12]
 2049 003a 0122     		movs	r2, #1
 2050 003c 83F83920 		strb	r2, [r3, #57]
 777:../firmware/gd32f3x0_hal_peripheral/Source/gd32f3x0_hal_smartcard.c ****     smartcard->error_state = HAL_SMARTCARD_ERROR_NONE;
 2051              		.loc 1 777 28 discriminator 2
 2052 0040 FB68     		ldr	r3, [r7, #12]
 2053 0042 0022     		movs	r2, #0
 2054 0044 DA86     		strh	r2, [r3, #54]	@ movhi
 778:../firmware/gd32f3x0_hal_peripheral/Source/gd32f3x0_hal_smartcard.c **** 
 779:../firmware/gd32f3x0_hal_peripheral/Source/gd32f3x0_hal_smartcard.c ****     /* initialize receive parameter */
 780:../firmware/gd32f3x0_hal_peripheral/Source/gd32f3x0_hal_smartcard.c ****     smartcard->rxbuffer.buffer  = (uint8_t *)p_buffer;
 2055              		.loc 1 780 33 discriminator 2
 2056 0046 FB68     		ldr	r3, [r7, #12]
 2057 0048 BA68     		ldr	r2, [r7, #8]
 2058 004a 9A62     		str	r2, [r3, #40]
 781:../firmware/gd32f3x0_hal_peripheral/Source/gd32f3x0_hal_smartcard.c ****     smartcard->rxbuffer.length  = length;
 2059              		.loc 1 781 33 discriminator 2
 2060 004c FB68     		ldr	r3, [r7, #12]
 2061 004e 7A68     		ldr	r2, [r7, #4]
 2062 0050 DA62     		str	r2, [r3, #44]
 782:../firmware/gd32f3x0_hal_peripheral/Source/gd32f3x0_hal_smartcard.c ****     smartcard->rxbuffer.pos     = 0U;
 2063              		.loc 1 782 33 discriminator 2
 2064 0052 FB68     		ldr	r3, [r7, #12]
 2065 0054 0022     		movs	r2, #0
 2066 0056 1A63     		str	r2, [r3, #48]
 783:../firmware/gd32f3x0_hal_peripheral/Source/gd32f3x0_hal_smartcard.c ****     smartcard->rx_callback      = (void *)p_user_func;
 2067              		.loc 1 783 33 discriminator 2
 2068 0058 FB68     		ldr	r3, [r7, #12]
 2069 005a 3A68     		ldr	r2, [r7]
 2070 005c DA63     		str	r2, [r3, #60]
 784:../firmware/gd32f3x0_hal_peripheral/Source/gd32f3x0_hal_smartcard.c ****     smartcard->smartcard_irq.receive_complete_handle = _smartcard_receive_interrupt;
 2071              		.loc 1 784 54 discriminator 2
 2072 005e FB68     		ldr	r3, [r7, #12]
 2073 0060 0E4A     		ldr	r2, .L99
 2074 0062 5A60     		str	r2, [r3, #4]
 785:../firmware/gd32f3x0_hal_peripheral/Source/gd32f3x0_hal_smartcard.c **** 
 786:../firmware/gd32f3x0_hal_peripheral/Source/gd32f3x0_hal_smartcard.c ****     /* enable interrupt */
 787:../firmware/gd32f3x0_hal_peripheral/Source/gd32f3x0_hal_smartcard.c ****     hals_smartcard_interrupt_enable(smartcard->periph, USART_INT_PERR);
 2075              		.loc 1 787 5 discriminator 2
 2076 0064 FB68     		ldr	r3, [r7, #12]
 2077 0066 1B68     		ldr	r3, [r3]
 2078 0068 0821     		movs	r1, #8
 2079 006a 1846     		mov	r0, r3
 2080 006c FFF7FEFF 		bl	hals_smartcard_interrupt_enable
 788:../firmware/gd32f3x0_hal_peripheral/Source/gd32f3x0_hal_smartcard.c ****     hals_smartcard_interrupt_enable(smartcard->periph, USART_INT_ERR);
 2081              		.loc 1 788 5 discriminator 2
 2082 0070 FB68     		ldr	r3, [r7, #12]
 2083 0072 1B68     		ldr	r3, [r3]
 2084 0074 4FF40071 		mov	r1, #512
 2085 0078 1846     		mov	r0, r3
 2086 007a FFF7FEFF 		bl	hals_smartcard_interrupt_enable
 789:../firmware/gd32f3x0_hal_peripheral/Source/gd32f3x0_hal_smartcard.c ****     hals_smartcard_interrupt_enable(smartcard->periph, USART_INT_RBNE);
 2087              		.loc 1 789 5 discriminator 2
 2088 007e FB68     		ldr	r3, [r7, #12]
 2089 0080 1B68     		ldr	r3, [r3]
 2090 0082 0521     		movs	r1, #5
 2091 0084 1846     		mov	r0, r3
 2092 0086 FFF7FEFF 		bl	hals_smartcard_interrupt_enable
 790:../firmware/gd32f3x0_hal_peripheral/Source/gd32f3x0_hal_smartcard.c **** 
 791:../firmware/gd32f3x0_hal_peripheral/Source/gd32f3x0_hal_smartcard.c ****     /* unlock smartcard */
 792:../firmware/gd32f3x0_hal_peripheral/Source/gd32f3x0_hal_smartcard.c ****     HAL_UNLOCK(smartcard);
 2093              		.loc 1 792 5 discriminator 2
 2094 008a FB68     		ldr	r3, [r7, #12]
 2095 008c 0022     		movs	r2, #0
 2096 008e 83F84420 		strb	r2, [r3, #68]
 793:../firmware/gd32f3x0_hal_peripheral/Source/gd32f3x0_hal_smartcard.c **** 
 794:../firmware/gd32f3x0_hal_peripheral/Source/gd32f3x0_hal_smartcard.c ****     return HAL_ERR_NONE;
 2097              		.loc 1 794 12 discriminator 2
 2098 0092 0023     		movs	r3, #0
 2099              	.L97:
 795:../firmware/gd32f3x0_hal_peripheral/Source/gd32f3x0_hal_smartcard.c **** }
 2100              		.loc 1 795 1
 2101 0094 1846     		mov	r0, r3
 2102 0096 1037     		adds	r7, r7, #16
 2103              		.cfi_def_cfa_offset 8
 2104 0098 BD46     		mov	sp, r7
 2105              		.cfi_def_cfa_register 13
 2106              		@ sp needed
 2107 009a 80BD     		pop	{r7, pc}
 2108              	.L100:
 2109              		.align	2
 2110              	.L99:
 2111 009c 00000000 		.word	_smartcard_receive_interrupt
 2112              		.cfi_endproc
 2113              	.LFE128:
 2115              		.section	.text.hal_smartcard_transmit_dma,"ax",%progbits
 2116              		.align	1
 2117              		.global	hal_smartcard_transmit_dma
 2118              		.syntax unified
 2119              		.thumb
 2120              		.thumb_func
 2121              		.fpu softvfp
 2123              	hal_smartcard_transmit_dma:
 2124              	.LFB129:
 796:../firmware/gd32f3x0_hal_peripheral/Source/gd32f3x0_hal_smartcard.c **** 
 797:../firmware/gd32f3x0_hal_peripheral/Source/gd32f3x0_hal_smartcard.c **** /*!
 798:../firmware/gd32f3x0_hal_peripheral/Source/gd32f3x0_hal_smartcard.c ****     \brief      transmit amounts of data by dma method
 799:../firmware/gd32f3x0_hal_peripheral/Source/gd32f3x0_hal_smartcard.c ****     \param[in]  smartcard: smartcard device information structure
 800:../firmware/gd32f3x0_hal_peripheral/Source/gd32f3x0_hal_smartcard.c ****                     the structure is not necessary to be reconfigured after structrue initializatio
 801:../firmware/gd32f3x0_hal_peripheral/Source/gd32f3x0_hal_smartcard.c ****                     the structure parameters altering is automatically configured by core
 802:../firmware/gd32f3x0_hal_peripheral/Source/gd32f3x0_hal_smartcard.c ****     \param[in]  p_buffer: pointer to data buffer
 803:../firmware/gd32f3x0_hal_peripheral/Source/gd32f3x0_hal_smartcard.c ****     \param[in]  length: number of data to be transmitted
 804:../firmware/gd32f3x0_hal_peripheral/Source/gd32f3x0_hal_smartcard.c ****     \param[in]  p_user_func: user callback function
 805:../firmware/gd32f3x0_hal_peripheral/Source/gd32f3x0_hal_smartcard.c ****     \param[out] none
 806:../firmware/gd32f3x0_hal_peripheral/Source/gd32f3x0_hal_smartcard.c ****     \retval     error code: HAL_ERR_NONE, HAL_ERR_ADDRESS, HAL_ERR_BUSY, details refer to gd32f3x0_
 807:../firmware/gd32f3x0_hal_peripheral/Source/gd32f3x0_hal_smartcard.c **** */
 808:../firmware/gd32f3x0_hal_peripheral/Source/gd32f3x0_hal_smartcard.c **** int32_t hal_smartcard_transmit_dma(hal_smartcard_dev_struct *smartcard, uint8_t *p_buffer, uint16_t
 809:../firmware/gd32f3x0_hal_peripheral/Source/gd32f3x0_hal_smartcard.c **** {
 2125              		.loc 1 809 1
 2126              		.cfi_startproc
 2127              		@ args = 0, pretend = 0, frame = 32
 2128              		@ frame_needed = 1, uses_anonymous_args = 0
 2129 0000 90B5     		push	{r4, r7, lr}
 2130              		.cfi_def_cfa_offset 12
 2131              		.cfi_offset 4, -12
 2132              		.cfi_offset 7, -8
 2133              		.cfi_offset 14, -4
 2134 0002 8BB0     		sub	sp, sp, #44
 2135              		.cfi_def_cfa_offset 56
 2136 0004 02AF     		add	r7, sp, #8
 2137              		.cfi_def_cfa 7, 48
 2138 0006 F860     		str	r0, [r7, #12]
 2139 0008 B960     		str	r1, [r7, #8]
 2140 000a 3B60     		str	r3, [r7]
 2141 000c 1346     		mov	r3, r2	@ movhi
 2142 000e FB80     		strh	r3, [r7, #6]	@ movhi
 810:../firmware/gd32f3x0_hal_peripheral/Source/gd32f3x0_hal_smartcard.c ****     hal_dma_irq_struct dma_irq;
 811:../firmware/gd32f3x0_hal_peripheral/Source/gd32f3x0_hal_smartcard.c **** 
 812:../firmware/gd32f3x0_hal_peripheral/Source/gd32f3x0_hal_smartcard.c **** #if (1U == HAL_PARAMETER_CHECK)
 813:../firmware/gd32f3x0_hal_peripheral/Source/gd32f3x0_hal_smartcard.c ****     /* check smartcard pointer, p_buffer address and length */
 814:../firmware/gd32f3x0_hal_peripheral/Source/gd32f3x0_hal_smartcard.c ****     if((NULL == smartcard) || (NULL == p_buffer) || (0U == length)) {
 815:../firmware/gd32f3x0_hal_peripheral/Source/gd32f3x0_hal_smartcard.c ****         HAL_DEBUGE("parameter [usart] or [p_buffer] or [length] value is invalid");
 816:../firmware/gd32f3x0_hal_peripheral/Source/gd32f3x0_hal_smartcard.c ****         return HAL_ERR_ADDRESS;
 817:../firmware/gd32f3x0_hal_peripheral/Source/gd32f3x0_hal_smartcard.c ****     }
 818:../firmware/gd32f3x0_hal_peripheral/Source/gd32f3x0_hal_smartcard.c **** #endif /* 1U == HAL_PARAMETER_CHECK */
 819:../firmware/gd32f3x0_hal_peripheral/Source/gd32f3x0_hal_smartcard.c **** 
 820:../firmware/gd32f3x0_hal_peripheral/Source/gd32f3x0_hal_smartcard.c ****     /* check whether the Tx state is in ready */
 821:../firmware/gd32f3x0_hal_peripheral/Source/gd32f3x0_hal_smartcard.c ****     if(SMARTCARD_STATE_BUSY == smartcard->tx_state) {
 2143              		.loc 1 821 41
 2144 0010 FB68     		ldr	r3, [r7, #12]
 2145 0012 93F83830 		ldrb	r3, [r3, #56]
 2146 0016 DBB2     		uxtb	r3, r3
 2147              		.loc 1 821 7
 2148 0018 012B     		cmp	r3, #1
 2149 001a 02D1     		bne	.L102
 822:../firmware/gd32f3x0_hal_peripheral/Source/gd32f3x0_hal_smartcard.c ****         HAL_DEBUGE("usart tx has already been used, please wait until run_state change to free ");
 823:../firmware/gd32f3x0_hal_peripheral/Source/gd32f3x0_hal_smartcard.c ****         return HAL_ERR_BUSY;
 2150              		.loc 1 823 16
 2151 001c 6FF00203 		mvn	r3, #2
 2152 0020 92E0     		b	.L111
 2153              	.L102:
 824:../firmware/gd32f3x0_hal_peripheral/Source/gd32f3x0_hal_smartcard.c ****     }
 825:../firmware/gd32f3x0_hal_peripheral/Source/gd32f3x0_hal_smartcard.c **** 
 826:../firmware/gd32f3x0_hal_peripheral/Source/gd32f3x0_hal_smartcard.c ****     /* check whether the pointer of DMA Tx is NULL */
 827:../firmware/gd32f3x0_hal_peripheral/Source/gd32f3x0_hal_smartcard.c ****     if(NULL == smartcard->p_dma_tx) {
 2154              		.loc 1 827 25
 2155 0022 FB68     		ldr	r3, [r7, #12]
 2156 0024 9B69     		ldr	r3, [r3, #24]
 2157              		.loc 1 827 7
 2158 0026 002B     		cmp	r3, #0
 2159 0028 02D1     		bne	.L104
 828:../firmware/gd32f3x0_hal_peripheral/Source/gd32f3x0_hal_smartcard.c ****         HAL_DEBUGE("parameter [smartcard->p_dma_tx] value is invalid");
 829:../firmware/gd32f3x0_hal_peripheral/Source/gd32f3x0_hal_smartcard.c ****         return HAL_ERR_ADDRESS;
 2160              		.loc 1 829 16
 2161 002a 6FF00603 		mvn	r3, #6
 2162 002e 8BE0     		b	.L111
 2163              	.L104:
 830:../firmware/gd32f3x0_hal_peripheral/Source/gd32f3x0_hal_smartcard.c ****     }
 831:../firmware/gd32f3x0_hal_peripheral/Source/gd32f3x0_hal_smartcard.c **** 
 832:../firmware/gd32f3x0_hal_peripheral/Source/gd32f3x0_hal_smartcard.c ****     /* lock smartcard */
 833:../firmware/gd32f3x0_hal_peripheral/Source/gd32f3x0_hal_smartcard.c ****     HAL_LOCK(smartcard);
 2164              		.loc 1 833 5
 2165 0030 FB68     		ldr	r3, [r7, #12]
 2166 0032 93F84430 		ldrb	r3, [r3, #68]	@ zero_extendqisi2
 2167 0036 012B     		cmp	r3, #1
 2168 0038 02D1     		bne	.L105
 2169              		.loc 1 833 5 is_stmt 0 discriminator 1
 2170 003a 6FF00103 		mvn	r3, #1
 2171 003e 83E0     		b	.L111
 2172              	.L105:
 2173              		.loc 1 833 5 discriminator 2
 2174 0040 FB68     		ldr	r3, [r7, #12]
 2175 0042 0122     		movs	r2, #1
 2176 0044 83F84420 		strb	r2, [r3, #68]
 834:../firmware/gd32f3x0_hal_peripheral/Source/gd32f3x0_hal_smartcard.c **** 
 835:../firmware/gd32f3x0_hal_peripheral/Source/gd32f3x0_hal_smartcard.c ****     smartcard->tx_state = SMARTCARD_STATE_BUSY;
 2177              		.loc 1 835 25 is_stmt 1 discriminator 2
 2178 0048 FB68     		ldr	r3, [r7, #12]
 2179 004a 0122     		movs	r2, #1
 2180 004c 83F83820 		strb	r2, [r3, #56]
 836:../firmware/gd32f3x0_hal_peripheral/Source/gd32f3x0_hal_smartcard.c ****     smartcard->error_state = HAL_SMARTCARD_ERROR_NONE;
 2181              		.loc 1 836 28 discriminator 2
 2182 0050 FB68     		ldr	r3, [r7, #12]
 2183 0052 0022     		movs	r2, #0
 2184 0054 DA86     		strh	r2, [r3, #54]	@ movhi
 837:../firmware/gd32f3x0_hal_peripheral/Source/gd32f3x0_hal_smartcard.c **** 
 838:../firmware/gd32f3x0_hal_peripheral/Source/gd32f3x0_hal_smartcard.c ****     /* disable receive and enable transmit */
 839:../firmware/gd32f3x0_hal_peripheral/Source/gd32f3x0_hal_smartcard.c ****     hals_smartcard_receive_config(smartcard->periph, USART_RECEIVE_DISABLE);
 2185              		.loc 1 839 5 discriminator 2
 2186 0056 FB68     		ldr	r3, [r7, #12]
 2187 0058 1B68     		ldr	r3, [r3]
 2188 005a 0021     		movs	r1, #0
 2189 005c 1846     		mov	r0, r3
 2190 005e FFF7FEFF 		bl	hals_smartcard_receive_config
 840:../firmware/gd32f3x0_hal_peripheral/Source/gd32f3x0_hal_smartcard.c ****     hals_smartcard_command_enable(smartcard->periph, USART_CMD_RXFCMD);
 2191              		.loc 1 840 5 discriminator 2
 2192 0062 FB68     		ldr	r3, [r7, #12]
 2193 0064 1B68     		ldr	r3, [r3]
 2194 0066 0821     		movs	r1, #8
 2195 0068 1846     		mov	r0, r3
 2196 006a FFF7FEFF 		bl	hals_smartcard_command_enable
 841:../firmware/gd32f3x0_hal_peripheral/Source/gd32f3x0_hal_smartcard.c ****     hals_smartcard_transmit_config(smartcard->periph, USART_TRANSMIT_ENABLE);
 2197              		.loc 1 841 5 discriminator 2
 2198 006e FB68     		ldr	r3, [r7, #12]
 2199 0070 1B68     		ldr	r3, [r3]
 2200 0072 0821     		movs	r1, #8
 2201 0074 1846     		mov	r0, r3
 2202 0076 FFF7FEFF 		bl	hals_smartcard_transmit_config
 842:../firmware/gd32f3x0_hal_peripheral/Source/gd32f3x0_hal_smartcard.c **** 
 843:../firmware/gd32f3x0_hal_peripheral/Source/gd32f3x0_hal_smartcard.c ****     /* initialize transmit parameter */
 844:../firmware/gd32f3x0_hal_peripheral/Source/gd32f3x0_hal_smartcard.c ****     smartcard->txbuffer.buffer  = (uint8_t *)p_buffer;
 2203              		.loc 1 844 33 discriminator 2
 2204 007a FB68     		ldr	r3, [r7, #12]
 2205 007c BA68     		ldr	r2, [r7, #8]
 2206 007e DA61     		str	r2, [r3, #28]
 845:../firmware/gd32f3x0_hal_peripheral/Source/gd32f3x0_hal_smartcard.c ****     smartcard->txbuffer.length  = length;
 2207              		.loc 1 845 33 discriminator 2
 2208 0080 FA88     		ldrh	r2, [r7, #6]
 2209 0082 FB68     		ldr	r3, [r7, #12]
 2210 0084 1A62     		str	r2, [r3, #32]
 846:../firmware/gd32f3x0_hal_peripheral/Source/gd32f3x0_hal_smartcard.c ****     smartcard->txbuffer.pos     = 0U;
 2211              		.loc 1 846 33 discriminator 2
 2212 0086 FB68     		ldr	r3, [r7, #12]
 2213 0088 0022     		movs	r2, #0
 2214 008a 5A62     		str	r2, [r3, #36]
 847:../firmware/gd32f3x0_hal_peripheral/Source/gd32f3x0_hal_smartcard.c **** 
 848:../firmware/gd32f3x0_hal_peripheral/Source/gd32f3x0_hal_smartcard.c ****     if(NULL != p_user_func) {
 2215              		.loc 1 848 7 discriminator 2
 2216 008c 3B68     		ldr	r3, [r7]
 2217 008e 002B     		cmp	r3, #0
 2218 0090 08D0     		beq	.L106
 849:../firmware/gd32f3x0_hal_peripheral/Source/gd32f3x0_hal_smartcard.c ****         smartcard->tx_callback = (void *)p_user_func->complete_func;
 2219              		.loc 1 849 53
 2220 0092 3B68     		ldr	r3, [r7]
 2221 0094 1A68     		ldr	r2, [r3]
 2222              		.loc 1 849 32
 2223 0096 FB68     		ldr	r3, [r7, #12]
 2224 0098 1A64     		str	r2, [r3, #64]
 850:../firmware/gd32f3x0_hal_peripheral/Source/gd32f3x0_hal_smartcard.c ****         smartcard->smartcard_irq.error_handle = (hal_irq_handle_cb)p_user_func->error_func;
 2225              		.loc 1 850 79
 2226 009a 3B68     		ldr	r3, [r7]
 2227 009c 5A68     		ldr	r2, [r3, #4]
 2228              		.loc 1 850 47
 2229 009e FB68     		ldr	r3, [r7, #12]
 2230 00a0 1A61     		str	r2, [r3, #16]
 2231 00a2 05E0     		b	.L107
 2232              	.L106:
 851:../firmware/gd32f3x0_hal_peripheral/Source/gd32f3x0_hal_smartcard.c ****     } else {
 852:../firmware/gd32f3x0_hal_peripheral/Source/gd32f3x0_hal_smartcard.c ****         smartcard->tx_callback = NULL;
 2233              		.loc 1 852 32
 2234 00a4 FB68     		ldr	r3, [r7, #12]
 2235 00a6 0022     		movs	r2, #0
 2236 00a8 1A64     		str	r2, [r3, #64]
 853:../firmware/gd32f3x0_hal_peripheral/Source/gd32f3x0_hal_smartcard.c ****         smartcard->smartcard_irq.error_handle = NULL;
 2237              		.loc 1 853 47
 2238 00aa FB68     		ldr	r3, [r7, #12]
 2239 00ac 0022     		movs	r2, #0
 2240 00ae 1A61     		str	r2, [r3, #16]
 2241              	.L107:
 854:../firmware/gd32f3x0_hal_peripheral/Source/gd32f3x0_hal_smartcard.c ****     }
 855:../firmware/gd32f3x0_hal_peripheral/Source/gd32f3x0_hal_smartcard.c ****     smartcard->smartcard_irq.transmit_complete_handle = _smartcard_transmit_complete_interrupt;
 2242              		.loc 1 855 55
 2243 00b0 FB68     		ldr	r3, [r7, #12]
 2244 00b2 274A     		ldr	r2, .L112
 2245 00b4 DA60     		str	r2, [r3, #12]
 856:../firmware/gd32f3x0_hal_peripheral/Source/gd32f3x0_hal_smartcard.c **** 
 857:../firmware/gd32f3x0_hal_peripheral/Source/gd32f3x0_hal_smartcard.c ****     /* configure DMA interrupt callback function */
 858:../firmware/gd32f3x0_hal_peripheral/Source/gd32f3x0_hal_smartcard.c ****     dma_irq.full_finish_handle = _smartcard_transmit_dma;
 2246              		.loc 1 858 32
 2247 00b6 274B     		ldr	r3, .L112+4
 2248 00b8 FB61     		str	r3, [r7, #28]
 859:../firmware/gd32f3x0_hal_peripheral/Source/gd32f3x0_hal_smartcard.c ****     dma_irq.error_handle = _smartcard_dma_error;
 2249              		.loc 1 859 26
 2250 00ba 274B     		ldr	r3, .L112+8
 2251 00bc 7B61     		str	r3, [r7, #20]
 860:../firmware/gd32f3x0_hal_peripheral/Source/gd32f3x0_hal_smartcard.c ****     if(NULL != smartcard->p_dma_tx->dma_irq.half_finish_handle) {
 2252              		.loc 1 860 25
 2253 00be FB68     		ldr	r3, [r7, #12]
 2254 00c0 9B69     		ldr	r3, [r3, #24]
 2255              		.loc 1 860 44
 2256 00c2 9B68     		ldr	r3, [r3, #8]
 2257              		.loc 1 860 7
 2258 00c4 002B     		cmp	r3, #0
 2259 00c6 04D0     		beq	.L108
 861:../firmware/gd32f3x0_hal_peripheral/Source/gd32f3x0_hal_smartcard.c ****         dma_irq.half_finish_handle = smartcard->p_dma_tx->dma_irq.half_finish_handle;
 2260              		.loc 1 861 47
 2261 00c8 FB68     		ldr	r3, [r7, #12]
 2262 00ca 9B69     		ldr	r3, [r3, #24]
 2263              		.loc 1 861 66
 2264 00cc 9B68     		ldr	r3, [r3, #8]
 2265              		.loc 1 861 36
 2266 00ce BB61     		str	r3, [r7, #24]
 2267 00d0 01E0     		b	.L109
 2268              	.L108:
 862:../firmware/gd32f3x0_hal_peripheral/Source/gd32f3x0_hal_smartcard.c ****     } else {
 863:../firmware/gd32f3x0_hal_peripheral/Source/gd32f3x0_hal_smartcard.c ****         dma_irq.half_finish_handle = NULL;
 2269              		.loc 1 863 36
 2270 00d2 0023     		movs	r3, #0
 2271 00d4 BB61     		str	r3, [r7, #24]
 2272              	.L109:
 864:../firmware/gd32f3x0_hal_peripheral/Source/gd32f3x0_hal_smartcard.c ****     }
 865:../firmware/gd32f3x0_hal_peripheral/Source/gd32f3x0_hal_smartcard.c **** 
 866:../firmware/gd32f3x0_hal_peripheral/Source/gd32f3x0_hal_smartcard.c ****     /* start DMA interrupt mode transfer */
 867:../firmware/gd32f3x0_hal_peripheral/Source/gd32f3x0_hal_smartcard.c ****     if(HAL_ERR_NONE != hal_dma_start_interrupt(smartcard->p_dma_tx,
 2273              		.loc 1 867 24
 2274 00d6 FB68     		ldr	r3, [r7, #12]
 2275 00d8 9869     		ldr	r0, [r3, #24]
 868:../firmware/gd32f3x0_hal_peripheral/Source/gd32f3x0_hal_smartcard.c ****             (uint32_t)smartcard->txbuffer.buffer, (uint32_t)&USART_TDATA(smartcard->periph),
 2276              		.loc 1 868 42
 2277 00da FB68     		ldr	r3, [r7, #12]
 2278 00dc DB69     		ldr	r3, [r3, #28]
 867:../firmware/gd32f3x0_hal_peripheral/Source/gd32f3x0_hal_smartcard.c ****             (uint32_t)smartcard->txbuffer.buffer, (uint32_t)&USART_TDATA(smartcard->periph),
 2279              		.loc 1 867 24
 2280 00de 1C46     		mov	r4, r3
 2281              		.loc 1 868 62
 2282 00e0 FB68     		ldr	r3, [r7, #12]
 2283 00e2 1B68     		ldr	r3, [r3]
 867:../firmware/gd32f3x0_hal_peripheral/Source/gd32f3x0_hal_smartcard.c ****             (uint32_t)smartcard->txbuffer.buffer, (uint32_t)&USART_TDATA(smartcard->periph),
 2284              		.loc 1 867 24
 2285 00e4 03F12802 		add	r2, r3, #40
 869:../firmware/gd32f3x0_hal_peripheral/Source/gd32f3x0_hal_smartcard.c ****             smartcard->txbuffer.length, &dma_irq)) {
 2286              		.loc 1 869 32
 2287 00e8 FB68     		ldr	r3, [r7, #12]
 2288 00ea 1B6A     		ldr	r3, [r3, #32]
 867:../firmware/gd32f3x0_hal_peripheral/Source/gd32f3x0_hal_smartcard.c ****             (uint32_t)smartcard->txbuffer.buffer, (uint32_t)&USART_TDATA(smartcard->periph),
 2289              		.loc 1 867 24
 2290 00ec 99B2     		uxth	r1, r3
 2291 00ee 07F11403 		add	r3, r7, #20
 2292 00f2 0093     		str	r3, [sp]
 2293 00f4 0B46     		mov	r3, r1
 2294 00f6 2146     		mov	r1, r4
 2295 00f8 FFF7FEFF 		bl	hal_dma_start_interrupt
 2296 00fc 0346     		mov	r3, r0
 867:../firmware/gd32f3x0_hal_peripheral/Source/gd32f3x0_hal_smartcard.c ****             (uint32_t)smartcard->txbuffer.buffer, (uint32_t)&USART_TDATA(smartcard->periph),
 2297              		.loc 1 867 7
 2298 00fe 002B     		cmp	r3, #0
 2299 0100 0AD0     		beq	.L110
 870:../firmware/gd32f3x0_hal_peripheral/Source/gd32f3x0_hal_smartcard.c ****         smartcard->tx_state = SMARTCARD_STATE_FREE;
 2300              		.loc 1 870 29
 2301 0102 FB68     		ldr	r3, [r7, #12]
 2302 0104 0022     		movs	r2, #0
 2303 0106 83F83820 		strb	r2, [r3, #56]
 871:../firmware/gd32f3x0_hal_peripheral/Source/gd32f3x0_hal_smartcard.c ****         smartcard->error_state = HAL_SMARTCARD_ERROR_DMATX;
 2304              		.loc 1 871 32
 2305 010a FB68     		ldr	r3, [r7, #12]
 2306 010c 1022     		movs	r2, #16
 2307 010e DA86     		strh	r2, [r3, #54]	@ movhi
 872:../firmware/gd32f3x0_hal_peripheral/Source/gd32f3x0_hal_smartcard.c ****         /* unlock uart */
 873:../firmware/gd32f3x0_hal_peripheral/Source/gd32f3x0_hal_smartcard.c ****         HAL_UNLOCK(smartcard);
 2308              		.loc 1 873 9
 2309 0110 FB68     		ldr	r3, [r7, #12]
 2310 0112 0022     		movs	r2, #0
 2311 0114 83F84420 		strb	r2, [r3, #68]
 2312              	.L110:
 874:../firmware/gd32f3x0_hal_peripheral/Source/gd32f3x0_hal_smartcard.c ****     }
 875:../firmware/gd32f3x0_hal_peripheral/Source/gd32f3x0_hal_smartcard.c **** 
 876:../firmware/gd32f3x0_hal_peripheral/Source/gd32f3x0_hal_smartcard.c ****     /* clear SMARTCARD TC interrupt flag */
 877:../firmware/gd32f3x0_hal_peripheral/Source/gd32f3x0_hal_smartcard.c ****     hals_smartcard_interrupt_flag_clear(smartcard->periph, USART_INT_FLAG_TC);
 2313              		.loc 1 877 5
 2314 0118 FB68     		ldr	r3, [r7, #12]
 2315 011a 1B68     		ldr	r3, [r3]
 2316 011c 0F49     		ldr	r1, .L112+12
 2317 011e 1846     		mov	r0, r3
 2318 0120 FFF7FEFF 		bl	hals_smartcard_interrupt_flag_clear
 878:../firmware/gd32f3x0_hal_peripheral/Source/gd32f3x0_hal_smartcard.c **** 
 879:../firmware/gd32f3x0_hal_peripheral/Source/gd32f3x0_hal_smartcard.c ****     /* enable ERR interrupt(frame error) */
 880:../firmware/gd32f3x0_hal_peripheral/Source/gd32f3x0_hal_smartcard.c ****     hals_smartcard_interrupt_enable(smartcard->periph, USART_INT_ERR);
 2319              		.loc 1 880 5
 2320 0124 FB68     		ldr	r3, [r7, #12]
 2321 0126 1B68     		ldr	r3, [r3]
 2322 0128 4FF40071 		mov	r1, #512
 2323 012c 1846     		mov	r0, r3
 2324 012e FFF7FEFF 		bl	hals_smartcard_interrupt_enable
 881:../firmware/gd32f3x0_hal_peripheral/Source/gd32f3x0_hal_smartcard.c **** 
 882:../firmware/gd32f3x0_hal_peripheral/Source/gd32f3x0_hal_smartcard.c ****     /* DMA enable for smartcard transmission */
 883:../firmware/gd32f3x0_hal_peripheral/Source/gd32f3x0_hal_smartcard.c ****     hals_smartcard_dma_transmit_config(smartcard->periph, USART_TRANSMIT_DMA_ENABLE);
 2325              		.loc 1 883 5
 2326 0132 FB68     		ldr	r3, [r7, #12]
 2327 0134 1B68     		ldr	r3, [r3]
 2328 0136 8021     		movs	r1, #128
 2329 0138 1846     		mov	r0, r3
 2330 013a FFF7FEFF 		bl	hals_smartcard_dma_transmit_config
 884:../firmware/gd32f3x0_hal_peripheral/Source/gd32f3x0_hal_smartcard.c **** 
 885:../firmware/gd32f3x0_hal_peripheral/Source/gd32f3x0_hal_smartcard.c ****     /* unlock smartcard */
 886:../firmware/gd32f3x0_hal_peripheral/Source/gd32f3x0_hal_smartcard.c ****     HAL_UNLOCK(smartcard);
 2331              		.loc 1 886 5
 2332 013e FB68     		ldr	r3, [r7, #12]
 2333 0140 0022     		movs	r2, #0
 2334 0142 83F84420 		strb	r2, [r3, #68]
 887:../firmware/gd32f3x0_hal_peripheral/Source/gd32f3x0_hal_smartcard.c **** 
 888:../firmware/gd32f3x0_hal_peripheral/Source/gd32f3x0_hal_smartcard.c ****     return HAL_ERR_NONE;
 2335              		.loc 1 888 12
 2336 0146 0023     		movs	r3, #0
 2337              	.L111:
 889:../firmware/gd32f3x0_hal_peripheral/Source/gd32f3x0_hal_smartcard.c **** }
 2338              		.loc 1 889 1 discriminator 1
 2339 0148 1846     		mov	r0, r3
 2340 014a 2437     		adds	r7, r7, #36
 2341              		.cfi_def_cfa_offset 12
 2342 014c BD46     		mov	sp, r7
 2343              		.cfi_def_cfa_register 13
 2344              		@ sp needed
 2345 014e 90BD     		pop	{r4, r7, pc}
 2346              	.L113:
 2347              		.align	2
 2348              	.L112:
 2349 0150 00000000 		.word	_smartcard_transmit_complete_interrupt
 2350 0154 00000000 		.word	_smartcard_transmit_dma
 2351 0158 00000000 		.word	_smartcard_dma_error
 2352 015c 06000607 		.word	117833734
 2353              		.cfi_endproc
 2354              	.LFE129:
 2356              		.section	.text.hal_smartcard_receive_dma,"ax",%progbits
 2357              		.align	1
 2358              		.global	hal_smartcard_receive_dma
 2359              		.syntax unified
 2360              		.thumb
 2361              		.thumb_func
 2362              		.fpu softvfp
 2364              	hal_smartcard_receive_dma:
 2365              	.LFB130:
 890:../firmware/gd32f3x0_hal_peripheral/Source/gd32f3x0_hal_smartcard.c **** 
 891:../firmware/gd32f3x0_hal_peripheral/Source/gd32f3x0_hal_smartcard.c **** /*!
 892:../firmware/gd32f3x0_hal_peripheral/Source/gd32f3x0_hal_smartcard.c ****     \brief      receive amounts of data by dma method
 893:../firmware/gd32f3x0_hal_peripheral/Source/gd32f3x0_hal_smartcard.c ****     \param[in]  smartcard: smartcard device information structure
 894:../firmware/gd32f3x0_hal_peripheral/Source/gd32f3x0_hal_smartcard.c ****                     the structure is not necessary to be reconfigured after structrue initializatio
 895:../firmware/gd32f3x0_hal_peripheral/Source/gd32f3x0_hal_smartcard.c ****                     the structure parameters altering is automatically configured by core
 896:../firmware/gd32f3x0_hal_peripheral/Source/gd32f3x0_hal_smartcard.c ****     \param[in]  p_buffer: pointer to data buffer
 897:../firmware/gd32f3x0_hal_peripheral/Source/gd32f3x0_hal_smartcard.c ****     \param[in]  length: number of data to be sent received
 898:../firmware/gd32f3x0_hal_peripheral/Source/gd32f3x0_hal_smartcard.c ****     \param[in]  p_user_func: user callback function
 899:../firmware/gd32f3x0_hal_peripheral/Source/gd32f3x0_hal_smartcard.c ****     \param[out] none
 900:../firmware/gd32f3x0_hal_peripheral/Source/gd32f3x0_hal_smartcard.c ****     \retval     error code: HAL_ERR_NONE, HAL_ERR_ADDRESS, HAL_ERR_BUSY, details refer to gd32f3x0_
 901:../firmware/gd32f3x0_hal_peripheral/Source/gd32f3x0_hal_smartcard.c **** */
 902:../firmware/gd32f3x0_hal_peripheral/Source/gd32f3x0_hal_smartcard.c **** int32_t hal_smartcard_receive_dma(hal_smartcard_dev_struct *smartcard, uint8_t *p_buffer, uint16_t 
 903:../firmware/gd32f3x0_hal_peripheral/Source/gd32f3x0_hal_smartcard.c **** {
 2366              		.loc 1 903 1
 2367              		.cfi_startproc
 2368              		@ args = 0, pretend = 0, frame = 32
 2369              		@ frame_needed = 1, uses_anonymous_args = 0
 2370 0000 90B5     		push	{r4, r7, lr}
 2371              		.cfi_def_cfa_offset 12
 2372              		.cfi_offset 4, -12
 2373              		.cfi_offset 7, -8
 2374              		.cfi_offset 14, -4
 2375 0002 8BB0     		sub	sp, sp, #44
 2376              		.cfi_def_cfa_offset 56
 2377 0004 02AF     		add	r7, sp, #8
 2378              		.cfi_def_cfa 7, 48
 2379 0006 F860     		str	r0, [r7, #12]
 2380 0008 B960     		str	r1, [r7, #8]
 2381 000a 3B60     		str	r3, [r7]
 2382 000c 1346     		mov	r3, r2	@ movhi
 2383 000e FB80     		strh	r3, [r7, #6]	@ movhi
 904:../firmware/gd32f3x0_hal_peripheral/Source/gd32f3x0_hal_smartcard.c ****     hal_dma_irq_struct dma_irq;
 905:../firmware/gd32f3x0_hal_peripheral/Source/gd32f3x0_hal_smartcard.c **** 
 906:../firmware/gd32f3x0_hal_peripheral/Source/gd32f3x0_hal_smartcard.c **** #if (1U == HAL_PARAMETER_CHECK)
 907:../firmware/gd32f3x0_hal_peripheral/Source/gd32f3x0_hal_smartcard.c ****     /* check smartcard pointer, p_buffer address and length */
 908:../firmware/gd32f3x0_hal_peripheral/Source/gd32f3x0_hal_smartcard.c ****     if((NULL == smartcard) || (NULL == p_buffer) || (0 == length)) {
 909:../firmware/gd32f3x0_hal_peripheral/Source/gd32f3x0_hal_smartcard.c ****         HAL_DEBUGE("parameter [usart] or [p_buffer] or [length] value is invalid");
 910:../firmware/gd32f3x0_hal_peripheral/Source/gd32f3x0_hal_smartcard.c ****         return HAL_ERR_ADDRESS;
 911:../firmware/gd32f3x0_hal_peripheral/Source/gd32f3x0_hal_smartcard.c ****     }
 912:../firmware/gd32f3x0_hal_peripheral/Source/gd32f3x0_hal_smartcard.c **** #endif /* 1U == HAL_PARAMETER_CHECK */
 913:../firmware/gd32f3x0_hal_peripheral/Source/gd32f3x0_hal_smartcard.c **** 
 914:../firmware/gd32f3x0_hal_peripheral/Source/gd32f3x0_hal_smartcard.c ****     /* check whether the Rx state is in ready */
 915:../firmware/gd32f3x0_hal_peripheral/Source/gd32f3x0_hal_smartcard.c ****     if(SMARTCARD_STATE_BUSY == smartcard->rx_state) {
 2384              		.loc 1 915 41
 2385 0010 FB68     		ldr	r3, [r7, #12]
 2386 0012 93F83930 		ldrb	r3, [r3, #57]
 2387 0016 DBB2     		uxtb	r3, r3
 2388              		.loc 1 915 7
 2389 0018 012B     		cmp	r3, #1
 2390 001a 02D1     		bne	.L115
 916:../firmware/gd32f3x0_hal_peripheral/Source/gd32f3x0_hal_smartcard.c ****         HAL_DEBUGE("usart rx has already been used, please wait until run_state change to free ");
 917:../firmware/gd32f3x0_hal_peripheral/Source/gd32f3x0_hal_smartcard.c ****         return HAL_ERR_BUSY;
 2391              		.loc 1 917 16
 2392 001c 6FF00203 		mvn	r3, #2
 2393 0020 7DE0     		b	.L124
 2394              	.L115:
 918:../firmware/gd32f3x0_hal_peripheral/Source/gd32f3x0_hal_smartcard.c ****     }
 919:../firmware/gd32f3x0_hal_peripheral/Source/gd32f3x0_hal_smartcard.c **** 
 920:../firmware/gd32f3x0_hal_peripheral/Source/gd32f3x0_hal_smartcard.c ****     /* check whether the pointer of DMA Rx is NULL */
 921:../firmware/gd32f3x0_hal_peripheral/Source/gd32f3x0_hal_smartcard.c ****     if(NULL == smartcard->p_dma_rx) {
 2395              		.loc 1 921 25
 2396 0022 FB68     		ldr	r3, [r7, #12]
 2397 0024 5B69     		ldr	r3, [r3, #20]
 2398              		.loc 1 921 7
 2399 0026 002B     		cmp	r3, #0
 2400 0028 02D1     		bne	.L117
 922:../firmware/gd32f3x0_hal_peripheral/Source/gd32f3x0_hal_smartcard.c ****         HAL_DEBUGE("parameter [smartcard->p_dma_rx] value is invalid");
 923:../firmware/gd32f3x0_hal_peripheral/Source/gd32f3x0_hal_smartcard.c ****         return HAL_ERR_ADDRESS;
 2401              		.loc 1 923 16
 2402 002a 6FF00603 		mvn	r3, #6
 2403 002e 76E0     		b	.L124
 2404              	.L117:
 924:../firmware/gd32f3x0_hal_peripheral/Source/gd32f3x0_hal_smartcard.c ****     }
 925:../firmware/gd32f3x0_hal_peripheral/Source/gd32f3x0_hal_smartcard.c **** 
 926:../firmware/gd32f3x0_hal_peripheral/Source/gd32f3x0_hal_smartcard.c ****     /* lock smartcard */
 927:../firmware/gd32f3x0_hal_peripheral/Source/gd32f3x0_hal_smartcard.c ****     HAL_LOCK(smartcard);
 2405              		.loc 1 927 5
 2406 0030 FB68     		ldr	r3, [r7, #12]
 2407 0032 93F84430 		ldrb	r3, [r3, #68]	@ zero_extendqisi2
 2408 0036 012B     		cmp	r3, #1
 2409 0038 02D1     		bne	.L118
 2410              		.loc 1 927 5 is_stmt 0 discriminator 1
 2411 003a 6FF00103 		mvn	r3, #1
 2412 003e 6EE0     		b	.L124
 2413              	.L118:
 2414              		.loc 1 927 5 discriminator 2
 2415 0040 FB68     		ldr	r3, [r7, #12]
 2416 0042 0122     		movs	r2, #1
 2417 0044 83F84420 		strb	r2, [r3, #68]
 928:../firmware/gd32f3x0_hal_peripheral/Source/gd32f3x0_hal_smartcard.c **** 
 929:../firmware/gd32f3x0_hal_peripheral/Source/gd32f3x0_hal_smartcard.c ****     smartcard->rx_state = SMARTCARD_STATE_BUSY;
 2418              		.loc 1 929 25 is_stmt 1 discriminator 2
 2419 0048 FB68     		ldr	r3, [r7, #12]
 2420 004a 0122     		movs	r2, #1
 2421 004c 83F83920 		strb	r2, [r3, #57]
 930:../firmware/gd32f3x0_hal_peripheral/Source/gd32f3x0_hal_smartcard.c ****     smartcard->error_state = HAL_SMARTCARD_ERROR_NONE;
 2422              		.loc 1 930 28 discriminator 2
 2423 0050 FB68     		ldr	r3, [r7, #12]
 2424 0052 0022     		movs	r2, #0
 2425 0054 DA86     		strh	r2, [r3, #54]	@ movhi
 931:../firmware/gd32f3x0_hal_peripheral/Source/gd32f3x0_hal_smartcard.c **** 
 932:../firmware/gd32f3x0_hal_peripheral/Source/gd32f3x0_hal_smartcard.c ****     /* initialize receive parameter */
 933:../firmware/gd32f3x0_hal_peripheral/Source/gd32f3x0_hal_smartcard.c ****     smartcard->rxbuffer.buffer  = (uint8_t *)p_buffer;
 2426              		.loc 1 933 33 discriminator 2
 2427 0056 FB68     		ldr	r3, [r7, #12]
 2428 0058 BA68     		ldr	r2, [r7, #8]
 2429 005a 9A62     		str	r2, [r3, #40]
 934:../firmware/gd32f3x0_hal_peripheral/Source/gd32f3x0_hal_smartcard.c ****     smartcard->rxbuffer.length  = length;
 2430              		.loc 1 934 33 discriminator 2
 2431 005c FA88     		ldrh	r2, [r7, #6]
 2432 005e FB68     		ldr	r3, [r7, #12]
 2433 0060 DA62     		str	r2, [r3, #44]
 935:../firmware/gd32f3x0_hal_peripheral/Source/gd32f3x0_hal_smartcard.c ****     smartcard->rxbuffer.pos     = 0U;
 2434              		.loc 1 935 33 discriminator 2
 2435 0062 FB68     		ldr	r3, [r7, #12]
 2436 0064 0022     		movs	r2, #0
 2437 0066 1A63     		str	r2, [r3, #48]
 936:../firmware/gd32f3x0_hal_peripheral/Source/gd32f3x0_hal_smartcard.c **** 
 937:../firmware/gd32f3x0_hal_peripheral/Source/gd32f3x0_hal_smartcard.c ****     if(NULL != p_user_func) {
 2438              		.loc 1 937 7 discriminator 2
 2439 0068 3B68     		ldr	r3, [r7]
 2440 006a 002B     		cmp	r3, #0
 2441 006c 08D0     		beq	.L119
 938:../firmware/gd32f3x0_hal_peripheral/Source/gd32f3x0_hal_smartcard.c ****         smartcard->rx_callback = (void *)p_user_func->complete_func;
 2442              		.loc 1 938 53
 2443 006e 3B68     		ldr	r3, [r7]
 2444 0070 1A68     		ldr	r2, [r3]
 2445              		.loc 1 938 32
 2446 0072 FB68     		ldr	r3, [r7, #12]
 2447 0074 DA63     		str	r2, [r3, #60]
 939:../firmware/gd32f3x0_hal_peripheral/Source/gd32f3x0_hal_smartcard.c ****         smartcard->smartcard_irq.error_handle = (hal_irq_handle_cb)p_user_func->error_func;
 2448              		.loc 1 939 79
 2449 0076 3B68     		ldr	r3, [r7]
 2450 0078 5A68     		ldr	r2, [r3, #4]
 2451              		.loc 1 939 47
 2452 007a FB68     		ldr	r3, [r7, #12]
 2453 007c 1A61     		str	r2, [r3, #16]
 2454 007e 05E0     		b	.L120
 2455              	.L119:
 940:../firmware/gd32f3x0_hal_peripheral/Source/gd32f3x0_hal_smartcard.c ****     } else {
 941:../firmware/gd32f3x0_hal_peripheral/Source/gd32f3x0_hal_smartcard.c ****         smartcard->rx_callback = NULL;
 2456              		.loc 1 941 32
 2457 0080 FB68     		ldr	r3, [r7, #12]
 2458 0082 0022     		movs	r2, #0
 2459 0084 DA63     		str	r2, [r3, #60]
 942:../firmware/gd32f3x0_hal_peripheral/Source/gd32f3x0_hal_smartcard.c ****         smartcard->smartcard_irq.error_handle = NULL;
 2460              		.loc 1 942 47
 2461 0086 FB68     		ldr	r3, [r7, #12]
 2462 0088 0022     		movs	r2, #0
 2463 008a 1A61     		str	r2, [r3, #16]
 2464              	.L120:
 943:../firmware/gd32f3x0_hal_peripheral/Source/gd32f3x0_hal_smartcard.c ****     }
 944:../firmware/gd32f3x0_hal_peripheral/Source/gd32f3x0_hal_smartcard.c **** 
 945:../firmware/gd32f3x0_hal_peripheral/Source/gd32f3x0_hal_smartcard.c ****     /* configure DMA interrupt interrupt callback function */
 946:../firmware/gd32f3x0_hal_peripheral/Source/gd32f3x0_hal_smartcard.c ****     dma_irq.full_finish_handle = _smartcard_receive_dma;
 2465              		.loc 1 946 32
 2466 008c 264B     		ldr	r3, .L125
 2467 008e FB61     		str	r3, [r7, #28]
 947:../firmware/gd32f3x0_hal_peripheral/Source/gd32f3x0_hal_smartcard.c ****     dma_irq.error_handle = _smartcard_dma_error;
 2468              		.loc 1 947 26
 2469 0090 264B     		ldr	r3, .L125+4
 2470 0092 7B61     		str	r3, [r7, #20]
 948:../firmware/gd32f3x0_hal_peripheral/Source/gd32f3x0_hal_smartcard.c ****     if(NULL != smartcard->p_dma_rx->dma_irq.half_finish_handle) {
 2471              		.loc 1 948 25
 2472 0094 FB68     		ldr	r3, [r7, #12]
 2473 0096 5B69     		ldr	r3, [r3, #20]
 2474              		.loc 1 948 44
 2475 0098 9B68     		ldr	r3, [r3, #8]
 2476              		.loc 1 948 7
 2477 009a 002B     		cmp	r3, #0
 2478 009c 04D0     		beq	.L121
 949:../firmware/gd32f3x0_hal_peripheral/Source/gd32f3x0_hal_smartcard.c ****         dma_irq.half_finish_handle = smartcard->p_dma_rx->dma_irq.half_finish_handle;
 2479              		.loc 1 949 47
 2480 009e FB68     		ldr	r3, [r7, #12]
 2481 00a0 5B69     		ldr	r3, [r3, #20]
 2482              		.loc 1 949 66
 2483 00a2 9B68     		ldr	r3, [r3, #8]
 2484              		.loc 1 949 36
 2485 00a4 BB61     		str	r3, [r7, #24]
 2486 00a6 01E0     		b	.L122
 2487              	.L121:
 950:../firmware/gd32f3x0_hal_peripheral/Source/gd32f3x0_hal_smartcard.c ****     } else {
 951:../firmware/gd32f3x0_hal_peripheral/Source/gd32f3x0_hal_smartcard.c ****         dma_irq.half_finish_handle = NULL;
 2488              		.loc 1 951 36
 2489 00a8 0023     		movs	r3, #0
 2490 00aa BB61     		str	r3, [r7, #24]
 2491              	.L122:
 952:../firmware/gd32f3x0_hal_peripheral/Source/gd32f3x0_hal_smartcard.c ****     }
 953:../firmware/gd32f3x0_hal_peripheral/Source/gd32f3x0_hal_smartcard.c **** 
 954:../firmware/gd32f3x0_hal_peripheral/Source/gd32f3x0_hal_smartcard.c ****     /* start DMA interrupt mode transfer */
 955:../firmware/gd32f3x0_hal_peripheral/Source/gd32f3x0_hal_smartcard.c ****     if(HAL_ERR_NONE != hal_dma_start_interrupt(smartcard->p_dma_rx,
 2492              		.loc 1 955 24
 2493 00ac FB68     		ldr	r3, [r7, #12]
 2494 00ae 5869     		ldr	r0, [r3, #20]
 956:../firmware/gd32f3x0_hal_peripheral/Source/gd32f3x0_hal_smartcard.c ****             (uint32_t)&USART_RDATA(smartcard->periph), (uint32_t)smartcard->rxbuffer.buffer,
 2495              		.loc 1 956 24
 2496 00b0 FB68     		ldr	r3, [r7, #12]
 2497 00b2 1B68     		ldr	r3, [r3]
 955:../firmware/gd32f3x0_hal_peripheral/Source/gd32f3x0_hal_smartcard.c ****             (uint32_t)&USART_RDATA(smartcard->periph), (uint32_t)smartcard->rxbuffer.buffer,
 2498              		.loc 1 955 24
 2499 00b4 03F12401 		add	r1, r3, #36
 2500              		.loc 1 956 85
 2501 00b8 FB68     		ldr	r3, [r7, #12]
 2502 00ba 9B6A     		ldr	r3, [r3, #40]
 955:../firmware/gd32f3x0_hal_peripheral/Source/gd32f3x0_hal_smartcard.c ****             (uint32_t)&USART_RDATA(smartcard->periph), (uint32_t)smartcard->rxbuffer.buffer,
 2503              		.loc 1 955 24
 2504 00bc 1C46     		mov	r4, r3
 957:../firmware/gd32f3x0_hal_peripheral/Source/gd32f3x0_hal_smartcard.c ****             smartcard->rxbuffer.length, &dma_irq)) {
 2505              		.loc 1 957 32
 2506 00be FB68     		ldr	r3, [r7, #12]
 2507 00c0 DB6A     		ldr	r3, [r3, #44]
 955:../firmware/gd32f3x0_hal_peripheral/Source/gd32f3x0_hal_smartcard.c ****             (uint32_t)&USART_RDATA(smartcard->periph), (uint32_t)smartcard->rxbuffer.buffer,
 2508              		.loc 1 955 24
 2509 00c2 9AB2     		uxth	r2, r3
 2510 00c4 07F11403 		add	r3, r7, #20
 2511 00c8 0093     		str	r3, [sp]
 2512 00ca 1346     		mov	r3, r2
 2513 00cc 2246     		mov	r2, r4
 2514 00ce FFF7FEFF 		bl	hal_dma_start_interrupt
 2515 00d2 0346     		mov	r3, r0
 955:../firmware/gd32f3x0_hal_peripheral/Source/gd32f3x0_hal_smartcard.c ****             (uint32_t)&USART_RDATA(smartcard->periph), (uint32_t)smartcard->rxbuffer.buffer,
 2516              		.loc 1 955 7
 2517 00d4 002B     		cmp	r3, #0
 2518 00d6 0AD0     		beq	.L123
 958:../firmware/gd32f3x0_hal_peripheral/Source/gd32f3x0_hal_smartcard.c ****         smartcard->rx_state = SMARTCARD_STATE_FREE;
 2519              		.loc 1 958 29
 2520 00d8 FB68     		ldr	r3, [r7, #12]
 2521 00da 0022     		movs	r2, #0
 2522 00dc 83F83920 		strb	r2, [r3, #57]
 959:../firmware/gd32f3x0_hal_peripheral/Source/gd32f3x0_hal_smartcard.c ****         smartcard->error_state = HAL_SMARTCARD_ERROR_DMARX;
 2523              		.loc 1 959 32
 2524 00e0 FB68     		ldr	r3, [r7, #12]
 2525 00e2 2022     		movs	r2, #32
 2526 00e4 DA86     		strh	r2, [r3, #54]	@ movhi
 960:../firmware/gd32f3x0_hal_peripheral/Source/gd32f3x0_hal_smartcard.c ****         /* unlock uart */
 961:../firmware/gd32f3x0_hal_peripheral/Source/gd32f3x0_hal_smartcard.c ****         HAL_UNLOCK(smartcard);
 2527              		.loc 1 961 9
 2528 00e6 FB68     		ldr	r3, [r7, #12]
 2529 00e8 0022     		movs	r2, #0
 2530 00ea 83F84420 		strb	r2, [r3, #68]
 2531              	.L123:
 962:../firmware/gd32f3x0_hal_peripheral/Source/gd32f3x0_hal_smartcard.c ****     }
 963:../firmware/gd32f3x0_hal_peripheral/Source/gd32f3x0_hal_smartcard.c **** 
 964:../firmware/gd32f3x0_hal_peripheral/Source/gd32f3x0_hal_smartcard.c ****     /* enable the usart parity error interrupt */
 965:../firmware/gd32f3x0_hal_peripheral/Source/gd32f3x0_hal_smartcard.c ****     hals_smartcard_interrupt_enable(smartcard->periph, USART_INT_PERR);
 2532              		.loc 1 965 5
 2533 00ee FB68     		ldr	r3, [r7, #12]
 2534 00f0 1B68     		ldr	r3, [r3]
 2535 00f2 0821     		movs	r1, #8
 2536 00f4 1846     		mov	r0, r3
 2537 00f6 FFF7FEFF 		bl	hals_smartcard_interrupt_enable
 966:../firmware/gd32f3x0_hal_peripheral/Source/gd32f3x0_hal_smartcard.c **** 
 967:../firmware/gd32f3x0_hal_peripheral/Source/gd32f3x0_hal_smartcard.c ****     /* enable the usart error interrupt: (frame error, noise error, overrun error) */
 968:../firmware/gd32f3x0_hal_peripheral/Source/gd32f3x0_hal_smartcard.c ****     hals_smartcard_interrupt_enable(smartcard->periph, USART_INT_ERR);
 2538              		.loc 1 968 5
 2539 00fa FB68     		ldr	r3, [r7, #12]
 2540 00fc 1B68     		ldr	r3, [r3]
 2541 00fe 4FF40071 		mov	r1, #512
 2542 0102 1846     		mov	r0, r3
 2543 0104 FFF7FEFF 		bl	hals_smartcard_interrupt_enable
 969:../firmware/gd32f3x0_hal_peripheral/Source/gd32f3x0_hal_smartcard.c **** 
 970:../firmware/gd32f3x0_hal_peripheral/Source/gd32f3x0_hal_smartcard.c ****     /* DMA enable for smartcard reception */
 971:../firmware/gd32f3x0_hal_peripheral/Source/gd32f3x0_hal_smartcard.c ****     hals_smartcard_dma_receive_config(smartcard->periph, USART_RECEIVE_DMA_ENABLE);
 2544              		.loc 1 971 5
 2545 0108 FB68     		ldr	r3, [r7, #12]
 2546 010a 1B68     		ldr	r3, [r3]
 2547 010c 4021     		movs	r1, #64
 2548 010e 1846     		mov	r0, r3
 2549 0110 FFF7FEFF 		bl	hals_smartcard_dma_receive_config
 972:../firmware/gd32f3x0_hal_peripheral/Source/gd32f3x0_hal_smartcard.c **** 
 973:../firmware/gd32f3x0_hal_peripheral/Source/gd32f3x0_hal_smartcard.c ****     /* unlock smartcard */
 974:../firmware/gd32f3x0_hal_peripheral/Source/gd32f3x0_hal_smartcard.c ****     HAL_UNLOCK(smartcard);
 2550              		.loc 1 974 5
 2551 0114 FB68     		ldr	r3, [r7, #12]
 2552 0116 0022     		movs	r2, #0
 2553 0118 83F84420 		strb	r2, [r3, #68]
 975:../firmware/gd32f3x0_hal_peripheral/Source/gd32f3x0_hal_smartcard.c **** 
 976:../firmware/gd32f3x0_hal_peripheral/Source/gd32f3x0_hal_smartcard.c ****     return HAL_ERR_NONE;
 2554              		.loc 1 976 12
 2555 011c 0023     		movs	r3, #0
 2556              	.L124:
 977:../firmware/gd32f3x0_hal_peripheral/Source/gd32f3x0_hal_smartcard.c **** }
 2557              		.loc 1 977 1 discriminator 1
 2558 011e 1846     		mov	r0, r3
 2559 0120 2437     		adds	r7, r7, #36
 2560              		.cfi_def_cfa_offset 12
 2561 0122 BD46     		mov	sp, r7
 2562              		.cfi_def_cfa_register 13
 2563              		@ sp needed
 2564 0124 90BD     		pop	{r4, r7, pc}
 2565              	.L126:
 2566 0126 00BF     		.align	2
 2567              	.L125:
 2568 0128 00000000 		.word	_smartcard_receive_dma
 2569 012c 00000000 		.word	_smartcard_dma_error
 2570              		.cfi_endproc
 2571              	.LFE130:
 2573              		.section	.text.hal_smartcard_transmit_stop,"ax",%progbits
 2574              		.align	1
 2575              		.global	hal_smartcard_transmit_stop
 2576              		.syntax unified
 2577              		.thumb
 2578              		.thumb_func
 2579              		.fpu softvfp
 2581              	hal_smartcard_transmit_stop:
 2582              	.LFB131:
 978:../firmware/gd32f3x0_hal_peripheral/Source/gd32f3x0_hal_smartcard.c **** 
 979:../firmware/gd32f3x0_hal_peripheral/Source/gd32f3x0_hal_smartcard.c **** /*!
 980:../firmware/gd32f3x0_hal_peripheral/Source/gd32f3x0_hal_smartcard.c ****     \brief      stop smartcard transmit transfer
 981:../firmware/gd32f3x0_hal_peripheral/Source/gd32f3x0_hal_smartcard.c ****                 the function is blocking
 982:../firmware/gd32f3x0_hal_peripheral/Source/gd32f3x0_hal_smartcard.c ****     \param[in]  smartcard: smartcard device information structure
 983:../firmware/gd32f3x0_hal_peripheral/Source/gd32f3x0_hal_smartcard.c ****                     the structure is not necessary to be reconfigured after structrue initializatio
 984:../firmware/gd32f3x0_hal_peripheral/Source/gd32f3x0_hal_smartcard.c ****                     the structure parameters altering is automatically configured by core
 985:../firmware/gd32f3x0_hal_peripheral/Source/gd32f3x0_hal_smartcard.c ****     \param[out] none
 986:../firmware/gd32f3x0_hal_peripheral/Source/gd32f3x0_hal_smartcard.c ****     \retval     error code: HAL_ERR_NONE, HAL_ERR_ADDRESS, details refer to gd32f3x0_hal.h
 987:../firmware/gd32f3x0_hal_peripheral/Source/gd32f3x0_hal_smartcard.c **** */
 988:../firmware/gd32f3x0_hal_peripheral/Source/gd32f3x0_hal_smartcard.c **** int32_t hal_smartcard_transmit_stop(hal_smartcard_dev_struct *smartcard)
 989:../firmware/gd32f3x0_hal_peripheral/Source/gd32f3x0_hal_smartcard.c **** {
 2583              		.loc 1 989 1
 2584              		.cfi_startproc
 2585              		@ args = 0, pretend = 0, frame = 8
 2586              		@ frame_needed = 1, uses_anonymous_args = 0
 2587 0000 80B5     		push	{r7, lr}
 2588              		.cfi_def_cfa_offset 8
 2589              		.cfi_offset 7, -8
 2590              		.cfi_offset 14, -4
 2591 0002 82B0     		sub	sp, sp, #8
 2592              		.cfi_def_cfa_offset 16
 2593 0004 00AF     		add	r7, sp, #0
 2594              		.cfi_def_cfa_register 7
 2595 0006 7860     		str	r0, [r7, #4]
 990:../firmware/gd32f3x0_hal_peripheral/Source/gd32f3x0_hal_smartcard.c **** #if (1U == HAL_PARAMETER_CHECK)
 991:../firmware/gd32f3x0_hal_peripheral/Source/gd32f3x0_hal_smartcard.c ****     /* check the parameter */
 992:../firmware/gd32f3x0_hal_peripheral/Source/gd32f3x0_hal_smartcard.c ****     if(NULL == smartcard) {
 993:../firmware/gd32f3x0_hal_peripheral/Source/gd32f3x0_hal_smartcard.c ****         HAL_DEBUGE("parameter [smartcard] value is invalid");
 994:../firmware/gd32f3x0_hal_peripheral/Source/gd32f3x0_hal_smartcard.c ****         return HAL_ERR_ADDRESS;
 995:../firmware/gd32f3x0_hal_peripheral/Source/gd32f3x0_hal_smartcard.c ****     }
 996:../firmware/gd32f3x0_hal_peripheral/Source/gd32f3x0_hal_smartcard.c **** #endif /* 1U == HAL_PARAMETER_CHECK */
 997:../firmware/gd32f3x0_hal_peripheral/Source/gd32f3x0_hal_smartcard.c **** 
 998:../firmware/gd32f3x0_hal_peripheral/Source/gd32f3x0_hal_smartcard.c ****     /* lock smartcard */
 999:../firmware/gd32f3x0_hal_peripheral/Source/gd32f3x0_hal_smartcard.c ****     HAL_LOCK(smartcard);
 2596              		.loc 1 999 5
 2597 0008 7B68     		ldr	r3, [r7, #4]
 2598 000a 93F84430 		ldrb	r3, [r3, #68]	@ zero_extendqisi2
 2599 000e 012B     		cmp	r3, #1
 2600 0010 02D1     		bne	.L128
 2601              		.loc 1 999 5 is_stmt 0 discriminator 1
 2602 0012 6FF00103 		mvn	r3, #1
 2603 0016 39E0     		b	.L129
 2604              	.L128:
 2605              		.loc 1 999 5 discriminator 2
 2606 0018 7B68     		ldr	r3, [r7, #4]
 2607 001a 0122     		movs	r2, #1
 2608 001c 83F84420 		strb	r2, [r3, #68]
1000:../firmware/gd32f3x0_hal_peripheral/Source/gd32f3x0_hal_smartcard.c **** 
1001:../firmware/gd32f3x0_hal_peripheral/Source/gd32f3x0_hal_smartcard.c ****     /* disable the TBE and TC interrupt */
1002:../firmware/gd32f3x0_hal_peripheral/Source/gd32f3x0_hal_smartcard.c ****     hals_smartcard_interrupt_disable(smartcard->periph, USART_INT_TBE);
 2609              		.loc 1 1002 5 is_stmt 1 discriminator 2
 2610 0020 7B68     		ldr	r3, [r7, #4]
 2611 0022 1B68     		ldr	r3, [r3]
 2612 0024 0721     		movs	r1, #7
 2613 0026 1846     		mov	r0, r3
 2614 0028 FFF7FEFF 		bl	hals_smartcard_interrupt_disable
1003:../firmware/gd32f3x0_hal_peripheral/Source/gd32f3x0_hal_smartcard.c ****     hals_smartcard_interrupt_disable(smartcard->periph, USART_INT_TC);
 2615              		.loc 1 1003 5 discriminator 2
 2616 002c 7B68     		ldr	r3, [r7, #4]
 2617 002e 1B68     		ldr	r3, [r3]
 2618 0030 0621     		movs	r1, #6
 2619 0032 1846     		mov	r0, r3
 2620 0034 FFF7FEFF 		bl	hals_smartcard_interrupt_disable
1004:../firmware/gd32f3x0_hal_peripheral/Source/gd32f3x0_hal_smartcard.c **** 
1005:../firmware/gd32f3x0_hal_peripheral/Source/gd32f3x0_hal_smartcard.c ****     /* check receive state, if free then disable ERR interrupt */
1006:../firmware/gd32f3x0_hal_peripheral/Source/gd32f3x0_hal_smartcard.c ****     if(SMARTCARD_STATE_FREE == smartcard->rx_state) {
 2621              		.loc 1 1006 41 discriminator 2
 2622 0038 7B68     		ldr	r3, [r7, #4]
 2623 003a 93F83930 		ldrb	r3, [r3, #57]
 2624 003e DBB2     		uxtb	r3, r3
 2625              		.loc 1 1006 7 discriminator 2
 2626 0040 002B     		cmp	r3, #0
 2627 0042 06D1     		bne	.L130
1007:../firmware/gd32f3x0_hal_peripheral/Source/gd32f3x0_hal_smartcard.c ****         hals_smartcard_interrupt_disable(smartcard->periph, USART_INT_ERR);
 2628              		.loc 1 1007 9
 2629 0044 7B68     		ldr	r3, [r7, #4]
 2630 0046 1B68     		ldr	r3, [r3]
 2631 0048 4FF40071 		mov	r1, #512
 2632 004c 1846     		mov	r0, r3
 2633 004e FFF7FEFF 		bl	hals_smartcard_interrupt_disable
 2634              	.L130:
1008:../firmware/gd32f3x0_hal_peripheral/Source/gd32f3x0_hal_smartcard.c ****     }
1009:../firmware/gd32f3x0_hal_peripheral/Source/gd32f3x0_hal_smartcard.c **** 
1010:../firmware/gd32f3x0_hal_peripheral/Source/gd32f3x0_hal_smartcard.c ****     /* disable DMA transimt and stop DMA */
1011:../firmware/gd32f3x0_hal_peripheral/Source/gd32f3x0_hal_smartcard.c ****     hals_smartcard_dma_transmit_config(smartcard->periph, USART_TRANSMIT_DMA_DISABLE);
 2635              		.loc 1 1011 5
 2636 0052 7B68     		ldr	r3, [r7, #4]
 2637 0054 1B68     		ldr	r3, [r3]
 2638 0056 0021     		movs	r1, #0
 2639 0058 1846     		mov	r0, r3
 2640 005a FFF7FEFF 		bl	hals_smartcard_dma_transmit_config
1012:../firmware/gd32f3x0_hal_peripheral/Source/gd32f3x0_hal_smartcard.c ****     hal_dma_stop(smartcard->p_dma_tx);
 2641              		.loc 1 1012 5
 2642 005e 7B68     		ldr	r3, [r7, #4]
 2643 0060 9B69     		ldr	r3, [r3, #24]
 2644 0062 1846     		mov	r0, r3
 2645 0064 FFF7FEFF 		bl	hal_dma_stop
1013:../firmware/gd32f3x0_hal_peripheral/Source/gd32f3x0_hal_smartcard.c **** 
1014:../firmware/gd32f3x0_hal_peripheral/Source/gd32f3x0_hal_smartcard.c ****     /* reset the position and state */
1015:../firmware/gd32f3x0_hal_peripheral/Source/gd32f3x0_hal_smartcard.c ****     smartcard->txbuffer.pos = 0U;
 2646              		.loc 1 1015 29
 2647 0068 7B68     		ldr	r3, [r7, #4]
 2648 006a 0022     		movs	r2, #0
 2649 006c 5A62     		str	r2, [r3, #36]
1016:../firmware/gd32f3x0_hal_peripheral/Source/gd32f3x0_hal_smartcard.c ****     smartcard->tx_state = SMARTCARD_STATE_FREE;
 2650              		.loc 1 1016 25
 2651 006e 7B68     		ldr	r3, [r7, #4]
 2652 0070 0022     		movs	r2, #0
 2653 0072 83F83820 		strb	r2, [r3, #56]
1017:../firmware/gd32f3x0_hal_peripheral/Source/gd32f3x0_hal_smartcard.c **** 
1018:../firmware/gd32f3x0_hal_peripheral/Source/gd32f3x0_hal_smartcard.c ****     /* clear interrupt error flags */
1019:../firmware/gd32f3x0_hal_peripheral/Source/gd32f3x0_hal_smartcard.c ****     hals_smartcard_interrupt_flag_clear(smartcard->periph, USART_INT_FLAG_ERR_FERR);
 2654              		.loc 1 1019 5
 2655 0076 7B68     		ldr	r3, [r7, #4]
 2656 0078 1B68     		ldr	r3, [r3]
 2657 007a 0649     		ldr	r1, .L131
 2658 007c 1846     		mov	r0, r3
 2659 007e FFF7FEFF 		bl	hals_smartcard_interrupt_flag_clear
1020:../firmware/gd32f3x0_hal_peripheral/Source/gd32f3x0_hal_smartcard.c **** 
1021:../firmware/gd32f3x0_hal_peripheral/Source/gd32f3x0_hal_smartcard.c ****     /* unlock smartcard */
1022:../firmware/gd32f3x0_hal_peripheral/Source/gd32f3x0_hal_smartcard.c ****     HAL_UNLOCK(smartcard);
 2660              		.loc 1 1022 5
 2661 0082 7B68     		ldr	r3, [r7, #4]
 2662 0084 0022     		movs	r2, #0
 2663 0086 83F84420 		strb	r2, [r3, #68]
1023:../firmware/gd32f3x0_hal_peripheral/Source/gd32f3x0_hal_smartcard.c **** 
1024:../firmware/gd32f3x0_hal_peripheral/Source/gd32f3x0_hal_smartcard.c ****     return HAL_ERR_NONE;
 2664              		.loc 1 1024 12
 2665 008a 0023     		movs	r3, #0
 2666              	.L129:
1025:../firmware/gd32f3x0_hal_peripheral/Source/gd32f3x0_hal_smartcard.c **** }
 2667              		.loc 1 1025 1
 2668 008c 1846     		mov	r0, r3
 2669 008e 0837     		adds	r7, r7, #8
 2670              		.cfi_def_cfa_offset 8
 2671 0090 BD46     		mov	sp, r7
 2672              		.cfi_def_cfa_register 13
 2673              		@ sp needed
 2674 0092 80BD     		pop	{r7, pc}
 2675              	.L132:
 2676              		.align	2
 2677              	.L131:
 2678 0094 00020107 		.word	117506560
 2679              		.cfi_endproc
 2680              	.LFE131:
 2682              		.section	.text.hal_smartcard_receive_stop,"ax",%progbits
 2683              		.align	1
 2684              		.global	hal_smartcard_receive_stop
 2685              		.syntax unified
 2686              		.thumb
 2687              		.thumb_func
 2688              		.fpu softvfp
 2690              	hal_smartcard_receive_stop:
 2691              	.LFB132:
1026:../firmware/gd32f3x0_hal_peripheral/Source/gd32f3x0_hal_smartcard.c **** 
1027:../firmware/gd32f3x0_hal_peripheral/Source/gd32f3x0_hal_smartcard.c **** /*!
1028:../firmware/gd32f3x0_hal_peripheral/Source/gd32f3x0_hal_smartcard.c ****     \brief      stop smartcard receive transfer
1029:../firmware/gd32f3x0_hal_peripheral/Source/gd32f3x0_hal_smartcard.c ****                 the function is blocking
1030:../firmware/gd32f3x0_hal_peripheral/Source/gd32f3x0_hal_smartcard.c ****     \param[in]  smartcard: smartcard device information structure
1031:../firmware/gd32f3x0_hal_peripheral/Source/gd32f3x0_hal_smartcard.c ****                     the structure is not necessary to be reconfigured after structrue initializatio
1032:../firmware/gd32f3x0_hal_peripheral/Source/gd32f3x0_hal_smartcard.c ****                     the structure parameters altering is automatically configured by core
1033:../firmware/gd32f3x0_hal_peripheral/Source/gd32f3x0_hal_smartcard.c ****     \param[out] none
1034:../firmware/gd32f3x0_hal_peripheral/Source/gd32f3x0_hal_smartcard.c ****     \retval     error code: HAL_ERR_NONE, HAL_ERR_ADDRESS, details refer to gd32f3x0_hal.h
1035:../firmware/gd32f3x0_hal_peripheral/Source/gd32f3x0_hal_smartcard.c **** */
1036:../firmware/gd32f3x0_hal_peripheral/Source/gd32f3x0_hal_smartcard.c **** int32_t hal_smartcard_receive_stop(hal_smartcard_dev_struct *smartcard)
1037:../firmware/gd32f3x0_hal_peripheral/Source/gd32f3x0_hal_smartcard.c **** {
 2692              		.loc 1 1037 1
 2693              		.cfi_startproc
 2694              		@ args = 0, pretend = 0, frame = 8
 2695              		@ frame_needed = 1, uses_anonymous_args = 0
 2696 0000 80B5     		push	{r7, lr}
 2697              		.cfi_def_cfa_offset 8
 2698              		.cfi_offset 7, -8
 2699              		.cfi_offset 14, -4
 2700 0002 82B0     		sub	sp, sp, #8
 2701              		.cfi_def_cfa_offset 16
 2702 0004 00AF     		add	r7, sp, #0
 2703              		.cfi_def_cfa_register 7
 2704 0006 7860     		str	r0, [r7, #4]
1038:../firmware/gd32f3x0_hal_peripheral/Source/gd32f3x0_hal_smartcard.c **** #if (1U == HAL_PARAMETER_CHECK)
1039:../firmware/gd32f3x0_hal_peripheral/Source/gd32f3x0_hal_smartcard.c ****     /* check the parameter */
1040:../firmware/gd32f3x0_hal_peripheral/Source/gd32f3x0_hal_smartcard.c ****     if(NULL == smartcard) {
1041:../firmware/gd32f3x0_hal_peripheral/Source/gd32f3x0_hal_smartcard.c ****         HAL_DEBUGE("parameter [smartcard] value is invalid");
1042:../firmware/gd32f3x0_hal_peripheral/Source/gd32f3x0_hal_smartcard.c ****         return HAL_ERR_ADDRESS;
1043:../firmware/gd32f3x0_hal_peripheral/Source/gd32f3x0_hal_smartcard.c ****     }
1044:../firmware/gd32f3x0_hal_peripheral/Source/gd32f3x0_hal_smartcard.c **** #endif /* 1U == HAL_PARAMETER_CHECK */
1045:../firmware/gd32f3x0_hal_peripheral/Source/gd32f3x0_hal_smartcard.c **** 
1046:../firmware/gd32f3x0_hal_peripheral/Source/gd32f3x0_hal_smartcard.c ****     /* lock smartcard */
1047:../firmware/gd32f3x0_hal_peripheral/Source/gd32f3x0_hal_smartcard.c ****     HAL_LOCK(smartcard);
 2705              		.loc 1 1047 5
 2706 0008 7B68     		ldr	r3, [r7, #4]
 2707 000a 93F84430 		ldrb	r3, [r3, #68]	@ zero_extendqisi2
 2708 000e 012B     		cmp	r3, #1
 2709 0010 02D1     		bne	.L134
 2710              		.loc 1 1047 5 is_stmt 0 discriminator 1
 2711 0012 6FF00103 		mvn	r3, #1
 2712 0016 63E0     		b	.L135
 2713              	.L134:
 2714              		.loc 1 1047 5 discriminator 2
 2715 0018 7B68     		ldr	r3, [r7, #4]
 2716 001a 0122     		movs	r2, #1
 2717 001c 83F84420 		strb	r2, [r3, #68]
1048:../firmware/gd32f3x0_hal_peripheral/Source/gd32f3x0_hal_smartcard.c **** 
1049:../firmware/gd32f3x0_hal_peripheral/Source/gd32f3x0_hal_smartcard.c ****     /* disable the RBNE, PERR, ERR, EB and RT interrupt */
1050:../firmware/gd32f3x0_hal_peripheral/Source/gd32f3x0_hal_smartcard.c ****     hals_smartcard_interrupt_disable(smartcard->periph, USART_INT_RBNE);
 2718              		.loc 1 1050 5 is_stmt 1 discriminator 2
 2719 0020 7B68     		ldr	r3, [r7, #4]
 2720 0022 1B68     		ldr	r3, [r3]
 2721 0024 0521     		movs	r1, #5
 2722 0026 1846     		mov	r0, r3
 2723 0028 FFF7FEFF 		bl	hals_smartcard_interrupt_disable
1051:../firmware/gd32f3x0_hal_peripheral/Source/gd32f3x0_hal_smartcard.c ****     hals_smartcard_interrupt_disable(smartcard->periph, USART_INT_PERR);
 2724              		.loc 1 1051 5 discriminator 2
 2725 002c 7B68     		ldr	r3, [r7, #4]
 2726 002e 1B68     		ldr	r3, [r3]
 2727 0030 0821     		movs	r1, #8
 2728 0032 1846     		mov	r0, r3
 2729 0034 FFF7FEFF 		bl	hals_smartcard_interrupt_disable
1052:../firmware/gd32f3x0_hal_peripheral/Source/gd32f3x0_hal_smartcard.c ****     hals_smartcard_interrupt_disable(smartcard->periph, USART_INT_EB);
 2730              		.loc 1 1052 5 discriminator 2
 2731 0038 7B68     		ldr	r3, [r7, #4]
 2732 003a 1B68     		ldr	r3, [r3]
 2733 003c 1B21     		movs	r1, #27
 2734 003e 1846     		mov	r0, r3
 2735 0040 FFF7FEFF 		bl	hals_smartcard_interrupt_disable
1053:../firmware/gd32f3x0_hal_peripheral/Source/gd32f3x0_hal_smartcard.c ****     hals_smartcard_interrupt_disable(smartcard->periph, USART_INT_RT);
 2736              		.loc 1 1053 5 discriminator 2
 2737 0044 7B68     		ldr	r3, [r7, #4]
 2738 0046 1B68     		ldr	r3, [r3]
 2739 0048 1A21     		movs	r1, #26
 2740 004a 1846     		mov	r0, r3
 2741 004c FFF7FEFF 		bl	hals_smartcard_interrupt_disable
1054:../firmware/gd32f3x0_hal_peripheral/Source/gd32f3x0_hal_smartcard.c **** 
1055:../firmware/gd32f3x0_hal_peripheral/Source/gd32f3x0_hal_smartcard.c ****     /* check transmit state, if free then disable ERR interrupt */
1056:../firmware/gd32f3x0_hal_peripheral/Source/gd32f3x0_hal_smartcard.c ****     if(SMARTCARD_STATE_FREE == smartcard->tx_state) {
 2742              		.loc 1 1056 41 discriminator 2
 2743 0050 7B68     		ldr	r3, [r7, #4]
 2744 0052 93F83830 		ldrb	r3, [r3, #56]
 2745 0056 DBB2     		uxtb	r3, r3
 2746              		.loc 1 1056 7 discriminator 2
 2747 0058 002B     		cmp	r3, #0
 2748 005a 06D1     		bne	.L136
1057:../firmware/gd32f3x0_hal_peripheral/Source/gd32f3x0_hal_smartcard.c ****         hals_smartcard_interrupt_disable(smartcard->periph, USART_INT_ERR);
 2749              		.loc 1 1057 9
 2750 005c 7B68     		ldr	r3, [r7, #4]
 2751 005e 1B68     		ldr	r3, [r3]
 2752 0060 4FF40071 		mov	r1, #512
 2753 0064 1846     		mov	r0, r3
 2754 0066 FFF7FEFF 		bl	hals_smartcard_interrupt_disable
 2755              	.L136:
1058:../firmware/gd32f3x0_hal_peripheral/Source/gd32f3x0_hal_smartcard.c ****     }
1059:../firmware/gd32f3x0_hal_peripheral/Source/gd32f3x0_hal_smartcard.c **** 
1060:../firmware/gd32f3x0_hal_peripheral/Source/gd32f3x0_hal_smartcard.c ****     /* disable DMA receive and stop DMA */
1061:../firmware/gd32f3x0_hal_peripheral/Source/gd32f3x0_hal_smartcard.c ****     hals_smartcard_dma_receive_config(smartcard->periph, USART_RECEIVE_DMA_DISABLE);
 2756              		.loc 1 1061 5
 2757 006a 7B68     		ldr	r3, [r7, #4]
 2758 006c 1B68     		ldr	r3, [r3]
 2759 006e 0021     		movs	r1, #0
 2760 0070 1846     		mov	r0, r3
 2761 0072 FFF7FEFF 		bl	hals_smartcard_dma_receive_config
1062:../firmware/gd32f3x0_hal_peripheral/Source/gd32f3x0_hal_smartcard.c ****     hal_dma_stop(smartcard->p_dma_rx);
 2762              		.loc 1 1062 5
 2763 0076 7B68     		ldr	r3, [r7, #4]
 2764 0078 5B69     		ldr	r3, [r3, #20]
 2765 007a 1846     		mov	r0, r3
 2766 007c FFF7FEFF 		bl	hal_dma_stop
1063:../firmware/gd32f3x0_hal_peripheral/Source/gd32f3x0_hal_smartcard.c **** 
1064:../firmware/gd32f3x0_hal_peripheral/Source/gd32f3x0_hal_smartcard.c ****     /* reset the position and state */
1065:../firmware/gd32f3x0_hal_peripheral/Source/gd32f3x0_hal_smartcard.c ****     smartcard->rxbuffer.pos = 0U;
 2767              		.loc 1 1065 29
 2768 0080 7B68     		ldr	r3, [r7, #4]
 2769 0082 0022     		movs	r2, #0
 2770 0084 1A63     		str	r2, [r3, #48]
1066:../firmware/gd32f3x0_hal_peripheral/Source/gd32f3x0_hal_smartcard.c ****     smartcard->rx_state = SMARTCARD_STATE_FREE;
 2771              		.loc 1 1066 25
 2772 0086 7B68     		ldr	r3, [r7, #4]
 2773 0088 0022     		movs	r2, #0
 2774 008a 83F83920 		strb	r2, [r3, #57]
1067:../firmware/gd32f3x0_hal_peripheral/Source/gd32f3x0_hal_smartcard.c **** 
1068:../firmware/gd32f3x0_hal_peripheral/Source/gd32f3x0_hal_smartcard.c ****     /* clear interrupt error flags */
1069:../firmware/gd32f3x0_hal_peripheral/Source/gd32f3x0_hal_smartcard.c ****     hals_smartcard_interrupt_flag_clear(smartcard->periph, USART_INT_FLAG_PERR);
 2775              		.loc 1 1069 5
 2776 008e 7B68     		ldr	r3, [r7, #4]
 2777 0090 1B68     		ldr	r3, [r3]
 2778 0092 1549     		ldr	r1, .L137
 2779 0094 1846     		mov	r0, r3
 2780 0096 FFF7FEFF 		bl	hals_smartcard_interrupt_flag_clear
1070:../firmware/gd32f3x0_hal_peripheral/Source/gd32f3x0_hal_smartcard.c ****     hals_smartcard_interrupt_flag_clear(smartcard->periph, USART_INT_FLAG_ERR_FERR);
 2781              		.loc 1 1070 5
 2782 009a 7B68     		ldr	r3, [r7, #4]
 2783 009c 1B68     		ldr	r3, [r3]
 2784 009e 1349     		ldr	r1, .L137+4
 2785 00a0 1846     		mov	r0, r3
 2786 00a2 FFF7FEFF 		bl	hals_smartcard_interrupt_flag_clear
1071:../firmware/gd32f3x0_hal_peripheral/Source/gd32f3x0_hal_smartcard.c ****     hals_smartcard_interrupt_flag_clear(smartcard->periph, USART_INT_FLAG_ERR_NERR);
 2787              		.loc 1 1071 5
 2788 00a6 7B68     		ldr	r3, [r7, #4]
 2789 00a8 1B68     		ldr	r3, [r3]
 2790 00aa 1149     		ldr	r1, .L137+8
 2791 00ac 1846     		mov	r0, r3
 2792 00ae FFF7FEFF 		bl	hals_smartcard_interrupt_flag_clear
1072:../firmware/gd32f3x0_hal_peripheral/Source/gd32f3x0_hal_smartcard.c ****     hals_smartcard_interrupt_flag_clear(smartcard->periph, USART_INT_FLAG_ERR_ORERR);
 2793              		.loc 1 1072 5
 2794 00b2 7B68     		ldr	r3, [r7, #4]
 2795 00b4 1B68     		ldr	r3, [r3]
 2796 00b6 0F49     		ldr	r1, .L137+12
 2797 00b8 1846     		mov	r0, r3
 2798 00ba FFF7FEFF 		bl	hals_smartcard_interrupt_flag_clear
1073:../firmware/gd32f3x0_hal_peripheral/Source/gd32f3x0_hal_smartcard.c ****     hals_smartcard_interrupt_flag_clear(smartcard->periph, USART_INT_FLAG_EB);
 2799              		.loc 1 1073 5
 2800 00be 7B68     		ldr	r3, [r7, #4]
 2801 00c0 1B68     		ldr	r3, [r3]
 2802 00c2 0D49     		ldr	r1, .L137+16
 2803 00c4 1846     		mov	r0, r3
 2804 00c6 FFF7FEFF 		bl	hals_smartcard_interrupt_flag_clear
1074:../firmware/gd32f3x0_hal_peripheral/Source/gd32f3x0_hal_smartcard.c ****     hals_smartcard_interrupt_flag_clear(smartcard->periph, USART_INT_FLAG_RT);
 2805              		.loc 1 1074 5
 2806 00ca 7B68     		ldr	r3, [r7, #4]
 2807 00cc 1B68     		ldr	r3, [r3]
 2808 00ce 0B49     		ldr	r1, .L137+20
 2809 00d0 1846     		mov	r0, r3
 2810 00d2 FFF7FEFF 		bl	hals_smartcard_interrupt_flag_clear
1075:../firmware/gd32f3x0_hal_peripheral/Source/gd32f3x0_hal_smartcard.c **** 
1076:../firmware/gd32f3x0_hal_peripheral/Source/gd32f3x0_hal_smartcard.c ****     /* unlock smartcard */
1077:../firmware/gd32f3x0_hal_peripheral/Source/gd32f3x0_hal_smartcard.c ****     HAL_UNLOCK(smartcard);
 2811              		.loc 1 1077 5
 2812 00d6 7B68     		ldr	r3, [r7, #4]
 2813 00d8 0022     		movs	r2, #0
 2814 00da 83F84420 		strb	r2, [r3, #68]
1078:../firmware/gd32f3x0_hal_peripheral/Source/gd32f3x0_hal_smartcard.c **** 
1079:../firmware/gd32f3x0_hal_peripheral/Source/gd32f3x0_hal_smartcard.c ****     return HAL_ERR_NONE;
 2815              		.loc 1 1079 12
 2816 00de 0023     		movs	r3, #0
 2817              	.L135:
1080:../firmware/gd32f3x0_hal_peripheral/Source/gd32f3x0_hal_smartcard.c **** }
 2818              		.loc 1 1080 1
 2819 00e0 1846     		mov	r0, r3
 2820 00e2 0837     		adds	r7, r7, #8
 2821              		.cfi_def_cfa_offset 8
 2822 00e4 BD46     		mov	sp, r7
 2823              		.cfi_def_cfa_register 13
 2824              		@ sp needed
 2825 00e6 80BD     		pop	{r7, pc}
 2826              	.L138:
 2827              		.align	2
 2828              	.L137:
 2829 00e8 08000007 		.word	117440520
 2830 00ec 00020107 		.word	117506560
 2831 00f0 00020207 		.word	117572096
 2832 00f4 00020307 		.word	117637632
 2833 00f8 1B000C07 		.word	118226971
 2834 00fc 1A000B07 		.word	118161434
 2835              		.cfi_endproc
 2836              	.LFE132:
 2838              		.section	.text.hals_smartcard_deinit,"ax",%progbits
 2839              		.align	1
 2840              		.global	hals_smartcard_deinit
 2841              		.syntax unified
 2842              		.thumb
 2843              		.thumb_func
 2844              		.fpu softvfp
 2846              	hals_smartcard_deinit:
 2847              	.LFB133:
1081:../firmware/gd32f3x0_hal_peripheral/Source/gd32f3x0_hal_smartcard.c **** 
1082:../firmware/gd32f3x0_hal_peripheral/Source/gd32f3x0_hal_smartcard.c **** /*!
1083:../firmware/gd32f3x0_hal_peripheral/Source/gd32f3x0_hal_smartcard.c ****     \brief      reset SMARTCARD
1084:../firmware/gd32f3x0_hal_peripheral/Source/gd32f3x0_hal_smartcard.c ****     \param[in]  smartcard_periph: USARTx(x=0,1)
1085:../firmware/gd32f3x0_hal_peripheral/Source/gd32f3x0_hal_smartcard.c ****     \param[out] none
1086:../firmware/gd32f3x0_hal_peripheral/Source/gd32f3x0_hal_smartcard.c ****     \retval     none
1087:../firmware/gd32f3x0_hal_peripheral/Source/gd32f3x0_hal_smartcard.c **** */
1088:../firmware/gd32f3x0_hal_peripheral/Source/gd32f3x0_hal_smartcard.c **** void hals_smartcard_deinit(uint32_t smartcard_periph)
1089:../firmware/gd32f3x0_hal_peripheral/Source/gd32f3x0_hal_smartcard.c **** {
 2848              		.loc 1 1089 1
 2849              		.cfi_startproc
 2850              		@ args = 0, pretend = 0, frame = 8
 2851              		@ frame_needed = 1, uses_anonymous_args = 0
 2852 0000 80B5     		push	{r7, lr}
 2853              		.cfi_def_cfa_offset 8
 2854              		.cfi_offset 7, -8
 2855              		.cfi_offset 14, -4
 2856 0002 82B0     		sub	sp, sp, #8
 2857              		.cfi_def_cfa_offset 16
 2858 0004 00AF     		add	r7, sp, #0
 2859              		.cfi_def_cfa_register 7
 2860 0006 7860     		str	r0, [r7, #4]
1090:../firmware/gd32f3x0_hal_peripheral/Source/gd32f3x0_hal_smartcard.c ****     switch(smartcard_periph) {
 2861              		.loc 1 1090 5
 2862 0008 7B68     		ldr	r3, [r7, #4]
 2863 000a 0F4A     		ldr	r2, .L144
 2864 000c 9342     		cmp	r3, r2
 2865 000e 0CD0     		beq	.L140
 2866 0010 7B68     		ldr	r3, [r7, #4]
 2867 0012 0E4A     		ldr	r2, .L144+4
 2868 0014 9342     		cmp	r3, r2
 2869 0016 11D1     		bne	.L143
1091:../firmware/gd32f3x0_hal_peripheral/Source/gd32f3x0_hal_smartcard.c ****     case USART0:
1092:../firmware/gd32f3x0_hal_peripheral/Source/gd32f3x0_hal_smartcard.c ****         /* reset USART0 */
1093:../firmware/gd32f3x0_hal_peripheral/Source/gd32f3x0_hal_smartcard.c ****         hal_rcu_periph_reset_enable(RCU_USART0RST);
 2870              		.loc 1 1093 9
 2871 0018 40F20E30 		movw	r0, #782
 2872 001c FFF7FEFF 		bl	hal_rcu_periph_reset_enable
1094:../firmware/gd32f3x0_hal_peripheral/Source/gd32f3x0_hal_smartcard.c ****         hal_rcu_periph_reset_disable(RCU_USART0RST);
 2873              		.loc 1 1094 9
 2874 0020 40F20E30 		movw	r0, #782
 2875 0024 FFF7FEFF 		bl	hal_rcu_periph_reset_disable
1095:../firmware/gd32f3x0_hal_peripheral/Source/gd32f3x0_hal_smartcard.c ****         break;
 2876              		.loc 1 1095 9
 2877 0028 09E0     		b	.L142
 2878              	.L140:
1096:../firmware/gd32f3x0_hal_peripheral/Source/gd32f3x0_hal_smartcard.c ****     case USART1:
1097:../firmware/gd32f3x0_hal_peripheral/Source/gd32f3x0_hal_smartcard.c ****         /* reset USART1 */
1098:../firmware/gd32f3x0_hal_peripheral/Source/gd32f3x0_hal_smartcard.c ****         hal_rcu_periph_reset_enable(RCU_USART1RST);
 2879              		.loc 1 1098 9
 2880 002a 40F21140 		movw	r0, #1041
 2881 002e FFF7FEFF 		bl	hal_rcu_periph_reset_enable
1099:../firmware/gd32f3x0_hal_peripheral/Source/gd32f3x0_hal_smartcard.c ****         hal_rcu_periph_reset_disable(RCU_USART1RST);
 2882              		.loc 1 1099 9
 2883 0032 40F21140 		movw	r0, #1041
 2884 0036 FFF7FEFF 		bl	hal_rcu_periph_reset_disable
1100:../firmware/gd32f3x0_hal_peripheral/Source/gd32f3x0_hal_smartcard.c ****         break;
 2885              		.loc 1 1100 9
 2886 003a 00E0     		b	.L142
 2887              	.L143:
1101:../firmware/gd32f3x0_hal_peripheral/Source/gd32f3x0_hal_smartcard.c ****     default:
1102:../firmware/gd32f3x0_hal_peripheral/Source/gd32f3x0_hal_smartcard.c ****         break;
 2888              		.loc 1 1102 9
 2889 003c 00BF     		nop
 2890              	.L142:
1103:../firmware/gd32f3x0_hal_peripheral/Source/gd32f3x0_hal_smartcard.c ****     }
1104:../firmware/gd32f3x0_hal_peripheral/Source/gd32f3x0_hal_smartcard.c **** }
 2891              		.loc 1 1104 1
 2892 003e 00BF     		nop
 2893 0040 0837     		adds	r7, r7, #8
 2894              		.cfi_def_cfa_offset 8
 2895 0042 BD46     		mov	sp, r7
 2896              		.cfi_def_cfa_register 13
 2897              		@ sp needed
 2898 0044 80BD     		pop	{r7, pc}
 2899              	.L145:
 2900 0046 00BF     		.align	2
 2901              	.L144:
 2902 0048 00440040 		.word	1073759232
 2903 004c 00380140 		.word	1073821696
 2904              		.cfi_endproc
 2905              	.LFE133:
 2907              		.section	.text.hals_smartcard_baudrate_set,"ax",%progbits
 2908              		.align	1
 2909              		.global	hals_smartcard_baudrate_set
 2910              		.syntax unified
 2911              		.thumb
 2912              		.thumb_func
 2913              		.fpu softvfp
 2915              	hals_smartcard_baudrate_set:
 2916              	.LFB134:
1105:../firmware/gd32f3x0_hal_peripheral/Source/gd32f3x0_hal_smartcard.c **** 
1106:../firmware/gd32f3x0_hal_peripheral/Source/gd32f3x0_hal_smartcard.c **** /*!
1107:../firmware/gd32f3x0_hal_peripheral/Source/gd32f3x0_hal_smartcard.c ****     \brief      configure SMARTCARD baud rate value
1108:../firmware/gd32f3x0_hal_peripheral/Source/gd32f3x0_hal_smartcard.c ****     \param[in]  smartcard_periph: USARTx(x=0,1)
1109:../firmware/gd32f3x0_hal_peripheral/Source/gd32f3x0_hal_smartcard.c ****     \param[in]  baudval: baud rate value
1110:../firmware/gd32f3x0_hal_peripheral/Source/gd32f3x0_hal_smartcard.c ****     \param[out] none
1111:../firmware/gd32f3x0_hal_peripheral/Source/gd32f3x0_hal_smartcard.c ****     \retval     none
1112:../firmware/gd32f3x0_hal_peripheral/Source/gd32f3x0_hal_smartcard.c **** */
1113:../firmware/gd32f3x0_hal_peripheral/Source/gd32f3x0_hal_smartcard.c **** void hals_smartcard_baudrate_set(uint32_t smartcard_periph, uint32_t baudval)
1114:../firmware/gd32f3x0_hal_peripheral/Source/gd32f3x0_hal_smartcard.c **** {
 2917              		.loc 1 1114 1
 2918              		.cfi_startproc
 2919              		@ args = 0, pretend = 0, frame = 24
 2920              		@ frame_needed = 1, uses_anonymous_args = 0
 2921 0000 80B5     		push	{r7, lr}
 2922              		.cfi_def_cfa_offset 8
 2923              		.cfi_offset 7, -8
 2924              		.cfi_offset 14, -4
 2925 0002 86B0     		sub	sp, sp, #24
 2926              		.cfi_def_cfa_offset 32
 2927 0004 00AF     		add	r7, sp, #0
 2928              		.cfi_def_cfa_register 7
 2929 0006 7860     		str	r0, [r7, #4]
 2930 0008 3960     		str	r1, [r7]
1115:../firmware/gd32f3x0_hal_peripheral/Source/gd32f3x0_hal_smartcard.c ****     uint32_t uclk = 0U, intdiv = 0U, fradiv = 0U, udiv = 0U;
 2931              		.loc 1 1115 14
 2932 000a 0023     		movs	r3, #0
 2933 000c 7B61     		str	r3, [r7, #20]
 2934              		.loc 1 1115 25
 2935 000e 0023     		movs	r3, #0
 2936 0010 3B61     		str	r3, [r7, #16]
 2937              		.loc 1 1115 38
 2938 0012 0023     		movs	r3, #0
 2939 0014 FB60     		str	r3, [r7, #12]
 2940              		.loc 1 1115 51
 2941 0016 0023     		movs	r3, #0
 2942 0018 BB60     		str	r3, [r7, #8]
1116:../firmware/gd32f3x0_hal_peripheral/Source/gd32f3x0_hal_smartcard.c ****     switch(smartcard_periph) {
 2943              		.loc 1 1116 5
 2944 001a 7B68     		ldr	r3, [r7, #4]
 2945 001c 294A     		ldr	r2, .L154
 2946 001e 9342     		cmp	r3, r2
 2947 0020 08D0     		beq	.L147
 2948 0022 7B68     		ldr	r3, [r7, #4]
 2949 0024 284A     		ldr	r2, .L154+4
 2950 0026 9342     		cmp	r3, r2
 2951 0028 09D1     		bne	.L152
1117:../firmware/gd32f3x0_hal_peripheral/Source/gd32f3x0_hal_smartcard.c ****     /* get clock frequency */
1118:../firmware/gd32f3x0_hal_peripheral/Source/gd32f3x0_hal_smartcard.c ****     case USART0:
1119:../firmware/gd32f3x0_hal_peripheral/Source/gd32f3x0_hal_smartcard.c ****         /* get USART0 clock */
1120:../firmware/gd32f3x0_hal_peripheral/Source/gd32f3x0_hal_smartcard.c ****         uclk = hals_rcu_clock_freq_get(CK_USART);
 2952              		.loc 1 1120 16
 2953 002a 0620     		movs	r0, #6
 2954 002c FFF7FEFF 		bl	hals_rcu_clock_freq_get
 2955 0030 7861     		str	r0, [r7, #20]
1121:../firmware/gd32f3x0_hal_peripheral/Source/gd32f3x0_hal_smartcard.c ****         break;
 2956              		.loc 1 1121 9
 2957 0032 05E0     		b	.L149
 2958              	.L147:
1122:../firmware/gd32f3x0_hal_peripheral/Source/gd32f3x0_hal_smartcard.c ****     case USART1:
1123:../firmware/gd32f3x0_hal_peripheral/Source/gd32f3x0_hal_smartcard.c ****         /* get USART1 clock */
1124:../firmware/gd32f3x0_hal_peripheral/Source/gd32f3x0_hal_smartcard.c ****         uclk = hals_rcu_clock_freq_get(CK_APB1);
 2959              		.loc 1 1124 16
 2960 0034 0220     		movs	r0, #2
 2961 0036 FFF7FEFF 		bl	hals_rcu_clock_freq_get
 2962 003a 7861     		str	r0, [r7, #20]
1125:../firmware/gd32f3x0_hal_peripheral/Source/gd32f3x0_hal_smartcard.c ****         break;
 2963              		.loc 1 1125 9
 2964 003c 00E0     		b	.L149
 2965              	.L152:
1126:../firmware/gd32f3x0_hal_peripheral/Source/gd32f3x0_hal_smartcard.c ****     default:
1127:../firmware/gd32f3x0_hal_peripheral/Source/gd32f3x0_hal_smartcard.c ****         break;
 2966              		.loc 1 1127 9
 2967 003e 00BF     		nop
 2968              	.L149:
1128:../firmware/gd32f3x0_hal_peripheral/Source/gd32f3x0_hal_smartcard.c ****     }
1129:../firmware/gd32f3x0_hal_peripheral/Source/gd32f3x0_hal_smartcard.c ****     if(USART_CTL0(smartcard_periph) & USART_CTL0_OVSMOD) {
 2969              		.loc 1 1129 8
 2970 0040 7B68     		ldr	r3, [r7, #4]
