   1              		.cpu cortex-m4
   2              		.eabi_attribute 20, 1
   3              		.eabi_attribute 21, 1
   4              		.eabi_attribute 23, 3
   5              		.eabi_attribute 24, 1
   6              		.eabi_attribute 25, 1
   7              		.eabi_attribute 26, 1
   8              		.eabi_attribute 30, 6
   9              		.eabi_attribute 34, 1
  10              		.eabi_attribute 18, 4
  11              		.file	"gd32f3x0_hal_adc.c"
  12              		.text
  13              	.Ltext0:
  14              		.cfi_sections	.debug_frame
  15              		.section	.text.hal_adc_struct_init,"ax",%progbits
  16              		.align	1
  17              		.global	hal_adc_struct_init
  18              		.arch armv7e-m
  19              		.syntax unified
  20              		.thumb
  21              		.thumb_func
  22              		.fpu softvfp
  24              	hal_adc_struct_init:
  25              	.LFB119:
  26              		.file 1 "../firmware/gd32f3x0_hal_peripheral/Source/gd32f3x0_hal_adc.c"
   1:../firmware/gd32f3x0_hal_peripheral/Source/gd32f3x0_hal_adc.c **** /*!
   2:../firmware/gd32f3x0_hal_peripheral/Source/gd32f3x0_hal_adc.c ****     \file    gd32f3x0_hal_adc.c
   3:../firmware/gd32f3x0_hal_peripheral/Source/gd32f3x0_hal_adc.c ****     \brief   ADC driver
   4:../firmware/gd32f3x0_hal_peripheral/Source/gd32f3x0_hal_adc.c **** 
   5:../firmware/gd32f3x0_hal_peripheral/Source/gd32f3x0_hal_adc.c ****     \version 2023-08-01, V1.0.0, HAL firmware for GD32F3x0
   6:../firmware/gd32f3x0_hal_peripheral/Source/gd32f3x0_hal_adc.c **** */
   7:../firmware/gd32f3x0_hal_peripheral/Source/gd32f3x0_hal_adc.c **** 
   8:../firmware/gd32f3x0_hal_peripheral/Source/gd32f3x0_hal_adc.c **** /*
   9:../firmware/gd32f3x0_hal_peripheral/Source/gd32f3x0_hal_adc.c ****     Copyright (c) 2023, GigaDevice Semiconductor Inc.
  10:../firmware/gd32f3x0_hal_peripheral/Source/gd32f3x0_hal_adc.c **** 
  11:../firmware/gd32f3x0_hal_peripheral/Source/gd32f3x0_hal_adc.c ****     Redistribution and use in source and binary forms, with or without modification,
  12:../firmware/gd32f3x0_hal_peripheral/Source/gd32f3x0_hal_adc.c **** are permitted provided that the following conditions are met:
  13:../firmware/gd32f3x0_hal_peripheral/Source/gd32f3x0_hal_adc.c **** 
  14:../firmware/gd32f3x0_hal_peripheral/Source/gd32f3x0_hal_adc.c ****     1. Redistributions of source code must retain the above copyright notice, this
  15:../firmware/gd32f3x0_hal_peripheral/Source/gd32f3x0_hal_adc.c ****        list of conditions and the following disclaimer.
  16:../firmware/gd32f3x0_hal_peripheral/Source/gd32f3x0_hal_adc.c ****     2. Redistributions in binary form must reproduce the above copyright notice,
  17:../firmware/gd32f3x0_hal_peripheral/Source/gd32f3x0_hal_adc.c ****        this list of conditions and the following disclaimer in the documentation
  18:../firmware/gd32f3x0_hal_peripheral/Source/gd32f3x0_hal_adc.c ****        and/or other materials provided with the distribution.
  19:../firmware/gd32f3x0_hal_peripheral/Source/gd32f3x0_hal_adc.c ****     3. Neither the name of the copyright holder nor the names of its contributors
  20:../firmware/gd32f3x0_hal_peripheral/Source/gd32f3x0_hal_adc.c ****        may be used to endorse or promote products derived from this software without
  21:../firmware/gd32f3x0_hal_peripheral/Source/gd32f3x0_hal_adc.c ****        specific prior written permission.
  22:../firmware/gd32f3x0_hal_peripheral/Source/gd32f3x0_hal_adc.c **** 
  23:../firmware/gd32f3x0_hal_peripheral/Source/gd32f3x0_hal_adc.c ****     THIS SOFTWARE IS PROVIDED BY THE COPYRIGHT HOLDERS AND CONTRIBUTORS "AS IS"
  24:../firmware/gd32f3x0_hal_peripheral/Source/gd32f3x0_hal_adc.c **** AND ANY EXPRESS OR IMPLIED WARRANTIES, INCLUDING, BUT NOT LIMITED TO, THE IMPLIED
  25:../firmware/gd32f3x0_hal_peripheral/Source/gd32f3x0_hal_adc.c **** WARRANTIES OF MERCHANTABILITY AND FITNESS FOR A PARTICULAR PURPOSE ARE DISCLAIMED.
  26:../firmware/gd32f3x0_hal_peripheral/Source/gd32f3x0_hal_adc.c **** IN NO EVENT SHALL THE COPYRIGHT HOLDER OR CONTRIBUTORS BE LIABLE FOR ANY DIRECT,
  27:../firmware/gd32f3x0_hal_peripheral/Source/gd32f3x0_hal_adc.c **** INDIRECT, INCIDENTAL, SPECIAL, EXEMPLARY, OR CONSEQUENTIAL DAMAGES (INCLUDING, BUT
  28:../firmware/gd32f3x0_hal_peripheral/Source/gd32f3x0_hal_adc.c **** NOT LIMITED TO, PROCUREMENT OF SUBSTITUTE GOODS OR SERVICES; LOSS OF USE, DATA, OR
  29:../firmware/gd32f3x0_hal_peripheral/Source/gd32f3x0_hal_adc.c **** PROFITS; OR BUSINESS INTERRUPTION) HOWEVER CAUSED AND ON ANY THEORY OF LIABILITY,
  30:../firmware/gd32f3x0_hal_peripheral/Source/gd32f3x0_hal_adc.c **** WHETHER IN CONTRACT, STRICT LIABILITY, OR TORT (INCLUDING NEGLIGENCE OR OTHERWISE)
  31:../firmware/gd32f3x0_hal_peripheral/Source/gd32f3x0_hal_adc.c **** ARISING IN ANY WAY OUT OF THE USE OF THIS SOFTWARE, EVEN IF ADVISED OF THE POSSIBILITY
  32:../firmware/gd32f3x0_hal_peripheral/Source/gd32f3x0_hal_adc.c **** OF SUCH DAMAGE.
  33:../firmware/gd32f3x0_hal_peripheral/Source/gd32f3x0_hal_adc.c **** */
  34:../firmware/gd32f3x0_hal_peripheral/Source/gd32f3x0_hal_adc.c **** 
  35:../firmware/gd32f3x0_hal_peripheral/Source/gd32f3x0_hal_adc.c **** #include "gd32f3x0_hal.h"
  36:../firmware/gd32f3x0_hal_peripheral/Source/gd32f3x0_hal_adc.c **** 
  37:../firmware/gd32f3x0_hal_peripheral/Source/gd32f3x0_hal_adc.c **** /* delaytime for ADC enable and disable, in milliseconds */
  38:../firmware/gd32f3x0_hal_peripheral/Source/gd32f3x0_hal_adc.c **** #define ADC_ENABLE_DELAYTIME                    ((uint32_t) 2U)
  39:../firmware/gd32f3x0_hal_peripheral/Source/gd32f3x0_hal_adc.c **** #define ADC_DISABLE_DELAYTIME                   ((uint32_t) 2U)
  40:../firmware/gd32f3x0_hal_peripheral/Source/gd32f3x0_hal_adc.c **** /* delaytime for temperature sensor stabilization time, in microseconds */
  41:../firmware/gd32f3x0_hal_peripheral/Source/gd32f3x0_hal_adc.c **** #define ADC_TEMPSENSOR_DELAYTIME                ((uint32_t) 10U)
  42:../firmware/gd32f3x0_hal_peripheral/Source/gd32f3x0_hal_adc.c **** 
  43:../firmware/gd32f3x0_hal_peripheral/Source/gd32f3x0_hal_adc.c **** /* enable ADC */
  44:../firmware/gd32f3x0_hal_peripheral/Source/gd32f3x0_hal_adc.c **** /* enable the ADC */
  45:../firmware/gd32f3x0_hal_peripheral/Source/gd32f3x0_hal_adc.c **** static int32_t _adc_enable(hal_adc_dev_struct *adc_dev);
  46:../firmware/gd32f3x0_hal_peripheral/Source/gd32f3x0_hal_adc.c **** /*disable the ADC */
  47:../firmware/gd32f3x0_hal_peripheral/Source/gd32f3x0_hal_adc.c **** static int32_t _adc_disable(hal_adc_dev_struct *adc_dev);
  48:../firmware/gd32f3x0_hal_peripheral/Source/gd32f3x0_hal_adc.c **** /* get the ADC enable state */
  49:../firmware/gd32f3x0_hal_peripheral/Source/gd32f3x0_hal_adc.c **** static FlagStatus _adc_enable_state_get(void);
  50:../firmware/gd32f3x0_hal_peripheral/Source/gd32f3x0_hal_adc.c **** 
  51:../firmware/gd32f3x0_hal_peripheral/Source/gd32f3x0_hal_adc.c **** /* DMA callback function */
  52:../firmware/gd32f3x0_hal_peripheral/Source/gd32f3x0_hal_adc.c **** /* ADC DMA full transmission complete callback */
  53:../firmware/gd32f3x0_hal_peripheral/Source/gd32f3x0_hal_adc.c **** static void _adc_dma_full_transfer_complete(void *dma);
  54:../firmware/gd32f3x0_hal_peripheral/Source/gd32f3x0_hal_adc.c **** /* ADC DMA half transmission complete callback */
  55:../firmware/gd32f3x0_hal_peripheral/Source/gd32f3x0_hal_adc.c **** static void _adc_dma_half_transfer_complete(void *dma);
  56:../firmware/gd32f3x0_hal_peripheral/Source/gd32f3x0_hal_adc.c **** /* ADC DMA error callback */
  57:../firmware/gd32f3x0_hal_peripheral/Source/gd32f3x0_hal_adc.c **** static void _adc_dma_error(void *dma);
  58:../firmware/gd32f3x0_hal_peripheral/Source/gd32f3x0_hal_adc.c **** 
  59:../firmware/gd32f3x0_hal_peripheral/Source/gd32f3x0_hal_adc.c **** /* get ADC state and error */
  60:../firmware/gd32f3x0_hal_peripheral/Source/gd32f3x0_hal_adc.c **** /* set ADC state */
  61:../firmware/gd32f3x0_hal_peripheral/Source/gd32f3x0_hal_adc.c **** static void _adc_state_set(hal_adc_dev_struct *adc_dev, hal_adc_state_enum adc_state);
  62:../firmware/gd32f3x0_hal_peripheral/Source/gd32f3x0_hal_adc.c **** /* clear ADC state */
  63:../firmware/gd32f3x0_hal_peripheral/Source/gd32f3x0_hal_adc.c **** static void _adc_state_clear(hal_adc_dev_struct *adc_dev, hal_adc_state_enum adc_state);
  64:../firmware/gd32f3x0_hal_peripheral/Source/gd32f3x0_hal_adc.c **** /* set ADC error */
  65:../firmware/gd32f3x0_hal_peripheral/Source/gd32f3x0_hal_adc.c **** static void _adc_error_set(hal_adc_dev_struct *adc_dev, hal_adc_error_enum adc_error);
  66:../firmware/gd32f3x0_hal_peripheral/Source/gd32f3x0_hal_adc.c **** /* clear ADC error */
  67:../firmware/gd32f3x0_hal_peripheral/Source/gd32f3x0_hal_adc.c **** static void _adc_error_clear(hal_adc_dev_struct *adc_dev, hal_adc_error_enum adc_error);
  68:../firmware/gd32f3x0_hal_peripheral/Source/gd32f3x0_hal_adc.c **** 
  69:../firmware/gd32f3x0_hal_peripheral/Source/gd32f3x0_hal_adc.c **** /*!
  70:../firmware/gd32f3x0_hal_peripheral/Source/gd32f3x0_hal_adc.c ****     \brief      initialize the ADC structure with the default values
  71:../firmware/gd32f3x0_hal_peripheral/Source/gd32f3x0_hal_adc.c ****     \param[in]  hal_struct_type: the argument could be selected from enumeration <hal_adc_struct_ty
  72:../firmware/gd32f3x0_hal_peripheral/Source/gd32f3x0_hal_adc.c ****     \param[in]  p_struct: pointer to ADC structure that contains the configuration information
  73:../firmware/gd32f3x0_hal_peripheral/Source/gd32f3x0_hal_adc.c ****     \param[out] none
  74:../firmware/gd32f3x0_hal_peripheral/Source/gd32f3x0_hal_adc.c ****     \retval     none
  75:../firmware/gd32f3x0_hal_peripheral/Source/gd32f3x0_hal_adc.c **** */
  76:../firmware/gd32f3x0_hal_peripheral/Source/gd32f3x0_hal_adc.c **** void hal_adc_struct_init(hal_adc_struct_type_enum hal_struct_type, void *p_struct)
  77:../firmware/gd32f3x0_hal_peripheral/Source/gd32f3x0_hal_adc.c **** {
  27              		.loc 1 77 1
  28              		.cfi_startproc
  29              		@ args = 0, pretend = 0, frame = 8
  30              		@ frame_needed = 1, uses_anonymous_args = 0
  31              		@ link register save eliminated.
  32 0000 80B4     		push	{r7}
  33              		.cfi_def_cfa_offset 4
  34              		.cfi_offset 7, -4
  35 0002 83B0     		sub	sp, sp, #12
  36              		.cfi_def_cfa_offset 16
  37 0004 00AF     		add	r7, sp, #0
  38              		.cfi_def_cfa_register 7
  39 0006 0346     		mov	r3, r0
  40 0008 3960     		str	r1, [r7]
  41 000a FB71     		strb	r3, [r7, #7]
  78:../firmware/gd32f3x0_hal_peripheral/Source/gd32f3x0_hal_adc.c **** #if (1 == HAL_PARAMETER_CHECK)
  79:../firmware/gd32f3x0_hal_peripheral/Source/gd32f3x0_hal_adc.c ****     /* check the parameters */
  80:../firmware/gd32f3x0_hal_peripheral/Source/gd32f3x0_hal_adc.c ****     if(NULL == p_struct) {
  81:../firmware/gd32f3x0_hal_peripheral/Source/gd32f3x0_hal_adc.c ****         HAL_DEBUGE("pointer [*p_struct] value is invalid");
  82:../firmware/gd32f3x0_hal_peripheral/Source/gd32f3x0_hal_adc.c ****     }
  83:../firmware/gd32f3x0_hal_peripheral/Source/gd32f3x0_hal_adc.c **** #endif /* 1 = HAL_PARAMETER_CHECK */
  84:../firmware/gd32f3x0_hal_peripheral/Source/gd32f3x0_hal_adc.c **** 
  85:../firmware/gd32f3x0_hal_peripheral/Source/gd32f3x0_hal_adc.c ****     switch(hal_struct_type) {
  42              		.loc 1 85 5
  43 000c FB79     		ldrb	r3, [r7, #7]	@ zero_extendqisi2
  44 000e 082B     		cmp	r3, #8
  45 0010 00F2AB80 		bhi	.L14
  46 0014 01A2     		adr	r2, .L4
  47 0016 52F823F0 		ldr	pc, [r2, r3, lsl #2]
  48 001a 00BF     		.p2align 2
  49              	.L4:
  50 001c 41000000 		.word	.L12+1
  51 0020 95000000 		.word	.L11+1
  52 0024 6D000000 		.word	.L10+1
  53 0028 CB000000 		.word	.L9+1
  54 002c A9000000 		.word	.L8+1
  55 0030 E5000000 		.word	.L7+1
  56 0034 F9000000 		.word	.L6+1
  57 0038 0D010000 		.word	.L5+1
  58 003c 33010000 		.word	.L3+1
  59              		.p2align 1
  60              	.L12:
  86:../firmware/gd32f3x0_hal_peripheral/Source/gd32f3x0_hal_adc.c ****     case HAL_ADC_INIT_STRUCT:
  87:../firmware/gd32f3x0_hal_peripheral/Source/gd32f3x0_hal_adc.c ****         /* initialize ADC initialization structure with the default values */
  88:../firmware/gd32f3x0_hal_peripheral/Source/gd32f3x0_hal_adc.c ****         ((hal_adc_init_struct *)p_struct)->resolution                  = ADC_RESOLUTION_12B;
  61              		.loc 1 88 72
  62 0040 3B68     		ldr	r3, [r7]
  63 0042 0022     		movs	r2, #0
  64 0044 5A60     		str	r2, [r3, #4]
  89:../firmware/gd32f3x0_hal_peripheral/Source/gd32f3x0_hal_adc.c ****         ((hal_adc_init_struct *)p_struct)->data_alignment              = ADC_LSB_ALIGNMENT;
  65              		.loc 1 89 72
  66 0046 3B68     		ldr	r3, [r7]
  67 0048 0022     		movs	r2, #0
  68 004a 1A60     		str	r2, [r3]
  90:../firmware/gd32f3x0_hal_peripheral/Source/gd32f3x0_hal_adc.c ****         ((hal_adc_init_struct *)p_struct)->scan_mode                   = DISABLE;
  69              		.loc 1 90 72
  70 004c 3B68     		ldr	r3, [r7]
  71 004e 0022     		movs	r2, #0
  72 0050 1A72     		strb	r2, [r3, #8]
  91:../firmware/gd32f3x0_hal_peripheral/Source/gd32f3x0_hal_adc.c ****         ((hal_adc_init_struct *)p_struct)->hardware_oversampling       = DISABLE;
  73              		.loc 1 91 72
  74 0052 3B68     		ldr	r3, [r7]
  75 0054 0022     		movs	r2, #0
  76 0056 5A72     		strb	r2, [r3, #9]
  92:../firmware/gd32f3x0_hal_peripheral/Source/gd32f3x0_hal_adc.c ****         ((hal_adc_init_struct *)p_struct)->oversample_trigger_mode     = ADC_OVERSAMPLING_ALL_CONVE
  77              		.loc 1 92 72
  78 0058 3B68     		ldr	r3, [r7]
  79 005a 0022     		movs	r2, #0
  80 005c DA60     		str	r2, [r3, #12]
  93:../firmware/gd32f3x0_hal_peripheral/Source/gd32f3x0_hal_adc.c ****         ((hal_adc_init_struct *)p_struct)->oversampling_shift          = ADC_OVERSAMPLE_SHIFT_NONE;
  81              		.loc 1 93 72
  82 005e 3B68     		ldr	r3, [r7]
  83 0060 0022     		movs	r2, #0
  84 0062 1A82     		strh	r2, [r3, #16]	@ movhi
  94:../firmware/gd32f3x0_hal_peripheral/Source/gd32f3x0_hal_adc.c ****         ((hal_adc_init_struct *)p_struct)->oversampling_ratio          = ADC_OVERSAMPLE_RATIO_MUL2;
  85              		.loc 1 94 72
  86 0064 3B68     		ldr	r3, [r7]
  87 0066 0022     		movs	r2, #0
  88 0068 9A74     		strb	r2, [r3, #18]
  95:../firmware/gd32f3x0_hal_peripheral/Source/gd32f3x0_hal_adc.c **** 
  96:../firmware/gd32f3x0_hal_peripheral/Source/gd32f3x0_hal_adc.c ****         break;
  89              		.loc 1 96 9
  90 006a 7FE0     		b	.L13
  91              	.L10:
  97:../firmware/gd32f3x0_hal_peripheral/Source/gd32f3x0_hal_adc.c **** 
  98:../firmware/gd32f3x0_hal_peripheral/Source/gd32f3x0_hal_adc.c ****     case HAL_ADC_ROUTINE_CONFIG_STRUCT:
  99:../firmware/gd32f3x0_hal_peripheral/Source/gd32f3x0_hal_adc.c ****         /* initialize ADC routine channel initialization structure with the default values */
 100:../firmware/gd32f3x0_hal_peripheral/Source/gd32f3x0_hal_adc.c ****         ((hal_adc_routine_config_struct *)p_struct)->routine_sequence_conversions                = 
  92              		.loc 1 100 98
  93 006c 3B68     		ldr	r3, [r7]
  94 006e 0022     		movs	r2, #0
  95 0070 1A70     		strb	r2, [r3]
 101:../firmware/gd32f3x0_hal_peripheral/Source/gd32f3x0_hal_adc.c ****         ((hal_adc_routine_config_struct *)p_struct)->routine_sequence_length                     = 
  96              		.loc 1 101 98
  97 0072 3B68     		ldr	r3, [r7]
  98 0074 0022     		movs	r2, #0
  99 0076 5A60     		str	r2, [r3, #4]
 102:../firmware/gd32f3x0_hal_peripheral/Source/gd32f3x0_hal_adc.c ****         ((hal_adc_routine_config_struct *)p_struct)->routine_sequence_external_trigger_select    = 
 100              		.loc 1 102 98
 101 0078 3B68     		ldr	r3, [r7]
 102 007a 4FF46022 		mov	r2, #917504
 103 007e 9A60     		str	r2, [r3, #8]
 103:../firmware/gd32f3x0_hal_peripheral/Source/gd32f3x0_hal_adc.c ****         ((hal_adc_routine_config_struct *)p_struct)->continuous_mode                             = 
 104              		.loc 1 103 98
 105 0080 3B68     		ldr	r3, [r7]
 106 0082 0022     		movs	r2, #0
 107 0084 1A73     		strb	r2, [r3, #12]
 104:../firmware/gd32f3x0_hal_peripheral/Source/gd32f3x0_hal_adc.c ****         ((hal_adc_routine_config_struct *)p_struct)->discontinuous_mode                          = 
 108              		.loc 1 104 98
 109 0086 3B68     		ldr	r3, [r7]
 110 0088 0022     		movs	r2, #0
 111 008a 5A73     		strb	r2, [r3, #13]
 105:../firmware/gd32f3x0_hal_peripheral/Source/gd32f3x0_hal_adc.c ****         ((hal_adc_routine_config_struct *)p_struct)->number_of_conversions_in_discontinuous_mode = 
 112              		.loc 1 105 98
 113 008c 3B68     		ldr	r3, [r7]
 114 008e 0022     		movs	r2, #0
 115 0090 1A61     		str	r2, [r3, #16]
 106:../firmware/gd32f3x0_hal_peripheral/Source/gd32f3x0_hal_adc.c ****         break;
 116              		.loc 1 106 9
 117 0092 6BE0     		b	.L13
 118              	.L11:
 107:../firmware/gd32f3x0_hal_peripheral/Source/gd32f3x0_hal_adc.c **** 
 108:../firmware/gd32f3x0_hal_peripheral/Source/gd32f3x0_hal_adc.c ****     case HAL_ADC_ROUTINE_RANK_CONFIG_STRUCT:
 109:../firmware/gd32f3x0_hal_peripheral/Source/gd32f3x0_hal_adc.c ****         /* initialize ADC routine channel configuration structure with the default values */
 110:../firmware/gd32f3x0_hal_peripheral/Source/gd32f3x0_hal_adc.c ****         ((hal_adc_routine_rank_config_struct *)p_struct)->channel          = 0U;
 119              		.loc 1 110 76
 120 0094 3B68     		ldr	r3, [r7]
 121 0096 0022     		movs	r2, #0
 122 0098 1A60     		str	r2, [r3]
 111:../firmware/gd32f3x0_hal_peripheral/Source/gd32f3x0_hal_adc.c ****         ((hal_adc_routine_rank_config_struct *)p_struct)->routine_sequence = ADC_ROUTINE_SEQUENCE_0
 123              		.loc 1 111 76
 124 009a 3B68     		ldr	r3, [r7]
 125 009c 0022     		movs	r2, #0
 126 009e 1A72     		strb	r2, [r3, #8]
 112:../firmware/gd32f3x0_hal_peripheral/Source/gd32f3x0_hal_adc.c ****         ((hal_adc_routine_rank_config_struct *)p_struct)->sampling_time    = ADC_SAMPLETIME_1POINT5
 127              		.loc 1 112 76
 128 00a0 3B68     		ldr	r3, [r7]
 129 00a2 0022     		movs	r2, #0
 130 00a4 5A60     		str	r2, [r3, #4]
 113:../firmware/gd32f3x0_hal_peripheral/Source/gd32f3x0_hal_adc.c ****         break;
 131              		.loc 1 113 9
 132 00a6 61E0     		b	.L13
 133              	.L8:
 114:../firmware/gd32f3x0_hal_peripheral/Source/gd32f3x0_hal_adc.c **** 
 115:../firmware/gd32f3x0_hal_peripheral/Source/gd32f3x0_hal_adc.c ****     case HAL_ADC_INSERTED_CONFIG_STRUCT:
 116:../firmware/gd32f3x0_hal_peripheral/Source/gd32f3x0_hal_adc.c ****         /* initialize ADC inserted channel initialization structure with the default values */
 117:../firmware/gd32f3x0_hal_peripheral/Source/gd32f3x0_hal_adc.c ****         ((hal_adc_inserted_config_struct *)p_struct)->inserted_sequence_conversions             = D
 134              		.loc 1 117 97
 135 00a8 3B68     		ldr	r3, [r7]
 136 00aa 0022     		movs	r2, #0
 137 00ac 1A70     		strb	r2, [r3]
 118:../firmware/gd32f3x0_hal_peripheral/Source/gd32f3x0_hal_adc.c ****         ((hal_adc_inserted_config_struct *)p_struct)->inserted_sequence_length                  = 0
 138              		.loc 1 118 97
 139 00ae 3B68     		ldr	r3, [r7]
 140 00b0 0022     		movs	r2, #0
 141 00b2 5A60     		str	r2, [r3, #4]
 119:../firmware/gd32f3x0_hal_peripheral/Source/gd32f3x0_hal_adc.c ****         ((hal_adc_inserted_config_struct *)p_struct)->inserted_sequence_external_trigger_select = A
 142              		.loc 1 119 97
 143 00b4 3B68     		ldr	r3, [r7]
 144 00b6 4FF46022 		mov	r2, #917504
 145 00ba 9A60     		str	r2, [r3, #8]
 120:../firmware/gd32f3x0_hal_peripheral/Source/gd32f3x0_hal_adc.c ****         ((hal_adc_inserted_config_struct *)p_struct)->auto_convert                              = D
 146              		.loc 1 120 97
 147 00bc 3B68     		ldr	r3, [r7]
 148 00be 0022     		movs	r2, #0
 149 00c0 1A73     		strb	r2, [r3, #12]
 121:../firmware/gd32f3x0_hal_peripheral/Source/gd32f3x0_hal_adc.c ****         ((hal_adc_inserted_config_struct *)p_struct)->discontinuous_mode                        = D
 150              		.loc 1 121 97
 151 00c2 3B68     		ldr	r3, [r7]
 152 00c4 0022     		movs	r2, #0
 153 00c6 5A73     		strb	r2, [r3, #13]
 122:../firmware/gd32f3x0_hal_peripheral/Source/gd32f3x0_hal_adc.c ****         break;
 154              		.loc 1 122 9
 155 00c8 50E0     		b	.L13
 156              	.L9:
 123:../firmware/gd32f3x0_hal_peripheral/Source/gd32f3x0_hal_adc.c **** 
 124:../firmware/gd32f3x0_hal_peripheral/Source/gd32f3x0_hal_adc.c ****     case HAL_ADC_INSERTED_RANK_CONFIG_STRUCT:
 125:../firmware/gd32f3x0_hal_peripheral/Source/gd32f3x0_hal_adc.c ****         /* initialize ADC inserted channel configuration structure with the default values */
 126:../firmware/gd32f3x0_hal_peripheral/Source/gd32f3x0_hal_adc.c ****         ((hal_adc_inserted_rank_config_struct *)p_struct)->channel           = 0U;
 157              		.loc 1 126 78
 158 00ca 3B68     		ldr	r3, [r7]
 159 00cc 0022     		movs	r2, #0
 160 00ce 1A60     		str	r2, [r3]
 127:../firmware/gd32f3x0_hal_peripheral/Source/gd32f3x0_hal_adc.c ****         ((hal_adc_inserted_rank_config_struct *)p_struct)->inserted_sequence = ADC_INSERTED_SEQUENC
 161              		.loc 1 127 78
 162 00d0 3B68     		ldr	r3, [r7]
 163 00d2 0022     		movs	r2, #0
 164 00d4 1A73     		strb	r2, [r3, #12]
 128:../firmware/gd32f3x0_hal_peripheral/Source/gd32f3x0_hal_adc.c ****         ((hal_adc_inserted_rank_config_struct *)p_struct)->sampling_time     = ADC_SAMPLETIME_1POIN
 165              		.loc 1 128 78
 166 00d6 3B68     		ldr	r3, [r7]
 167 00d8 0022     		movs	r2, #0
 168 00da 5A60     		str	r2, [r3, #4]
 129:../firmware/gd32f3x0_hal_peripheral/Source/gd32f3x0_hal_adc.c ****         ((hal_adc_inserted_rank_config_struct *)p_struct)->data_offset       = 0U;
 169              		.loc 1 129 78
 170 00dc 3B68     		ldr	r3, [r7]
 171 00de 0022     		movs	r2, #0
 172 00e0 9A60     		str	r2, [r3, #8]
 130:../firmware/gd32f3x0_hal_peripheral/Source/gd32f3x0_hal_adc.c ****         break;
 173              		.loc 1 130 9
 174 00e2 43E0     		b	.L13
 175              	.L7:
 131:../firmware/gd32f3x0_hal_peripheral/Source/gd32f3x0_hal_adc.c **** 
 132:../firmware/gd32f3x0_hal_peripheral/Source/gd32f3x0_hal_adc.c ****     case HAL_ADC_IRQ_STRUCT:
 133:../firmware/gd32f3x0_hal_peripheral/Source/gd32f3x0_hal_adc.c ****         /* initialize ADC device interrupt callback function pointer structure with the default val
 134:../firmware/gd32f3x0_hal_peripheral/Source/gd32f3x0_hal_adc.c ****         ((hal_adc_irq_struct *)p_struct)->adc_watchdog_handle = NULL;
 176              		.loc 1 134 63
 177 00e4 3B68     		ldr	r3, [r7]
 178 00e6 0022     		movs	r2, #0
 179 00e8 9A60     		str	r2, [r3, #8]
 135:../firmware/gd32f3x0_hal_peripheral/Source/gd32f3x0_hal_adc.c ****         ((hal_adc_irq_struct *)p_struct)->adc_eoc_handle      = NULL;
 180              		.loc 1 135 63
 181 00ea 3B68     		ldr	r3, [r7]
 182 00ec 0022     		movs	r2, #0
 183 00ee 1A60     		str	r2, [r3]
 136:../firmware/gd32f3x0_hal_peripheral/Source/gd32f3x0_hal_adc.c ****         ((hal_adc_irq_struct *)p_struct)->adc_eoic_handle     = NULL;
 184              		.loc 1 136 63
 185 00f0 3B68     		ldr	r3, [r7]
 186 00f2 0022     		movs	r2, #0
 187 00f4 5A60     		str	r2, [r3, #4]
 137:../firmware/gd32f3x0_hal_peripheral/Source/gd32f3x0_hal_adc.c ****         break;
 188              		.loc 1 137 9
 189 00f6 39E0     		b	.L13
 190              	.L6:
 138:../firmware/gd32f3x0_hal_peripheral/Source/gd32f3x0_hal_adc.c **** 
 139:../firmware/gd32f3x0_hal_peripheral/Source/gd32f3x0_hal_adc.c ****     case HAL_ADC_DMA_HANDLE_CB_STRUCT:
 140:../firmware/gd32f3x0_hal_peripheral/Source/gd32f3x0_hal_adc.c ****         /* initialize ADC DMA callback function pointer structure with the default values */
 141:../firmware/gd32f3x0_hal_peripheral/Source/gd32f3x0_hal_adc.c ****         ((hal_adc_dma_handle_cb_struct *)p_struct)->full_transcom_handle = NULL;
 191              		.loc 1 141 74
 192 00f8 3B68     		ldr	r3, [r7]
 193 00fa 0022     		movs	r2, #0
 194 00fc 1A60     		str	r2, [r3]
 142:../firmware/gd32f3x0_hal_peripheral/Source/gd32f3x0_hal_adc.c ****         ((hal_adc_dma_handle_cb_struct *)p_struct)->half_transcom_handle = NULL;
 195              		.loc 1 142 74
 196 00fe 3B68     		ldr	r3, [r7]
 197 0100 0022     		movs	r2, #0
 198 0102 5A60     		str	r2, [r3, #4]
 143:../firmware/gd32f3x0_hal_peripheral/Source/gd32f3x0_hal_adc.c ****         ((hal_adc_dma_handle_cb_struct *)p_struct)->error_handle         = NULL;
 199              		.loc 1 143 74
 200 0104 3B68     		ldr	r3, [r7]
 201 0106 0022     		movs	r2, #0
 202 0108 9A60     		str	r2, [r3, #8]
 144:../firmware/gd32f3x0_hal_peripheral/Source/gd32f3x0_hal_adc.c ****         break;
 203              		.loc 1 144 9
 204 010a 2FE0     		b	.L13
 205              	.L5:
 145:../firmware/gd32f3x0_hal_peripheral/Source/gd32f3x0_hal_adc.c **** 
 146:../firmware/gd32f3x0_hal_peripheral/Source/gd32f3x0_hal_adc.c ****     case HAL_ADC_WATCHDOG_CONFIG_STRUCT:
 147:../firmware/gd32f3x0_hal_peripheral/Source/gd32f3x0_hal_adc.c ****         /* initialize ADC watchdog configuration structure with the default values */
 148:../firmware/gd32f3x0_hal_peripheral/Source/gd32f3x0_hal_adc.c ****         ((hal_adc_watchdog_config_struct *)p_struct)->routine_sequence_analog_watchdog  = DISABLE;
 206              		.loc 1 148 89
 207 010c 3B68     		ldr	r3, [r7]
 208 010e 0022     		movs	r2, #0
 209 0110 1A70     		strb	r2, [r3]
 149:../firmware/gd32f3x0_hal_peripheral/Source/gd32f3x0_hal_adc.c ****         ((hal_adc_watchdog_config_struct *)p_struct)->inserted_sequence_analog_watchdog = DISABLE;
 210              		.loc 1 149 89
 211 0112 3B68     		ldr	r3, [r7]
 212 0114 0022     		movs	r2, #0
 213 0116 5A70     		strb	r2, [r3, #1]
 150:../firmware/gd32f3x0_hal_peripheral/Source/gd32f3x0_hal_adc.c ****         ((hal_adc_watchdog_config_struct *)p_struct)->analog_watchdog_mode              = ADC_OVERS
 214              		.loc 1 150 89
 215 0118 3B68     		ldr	r3, [r7]
 216 011a 0022     		movs	r2, #0
 217 011c 5A60     		str	r2, [r3, #4]
 151:../firmware/gd32f3x0_hal_peripheral/Source/gd32f3x0_hal_adc.c ****         ((hal_adc_watchdog_config_struct *)p_struct)->analog_watchdog_channel_select    = ADC_CHANN
 218              		.loc 1 151 89
 219 011e 3B68     		ldr	r3, [r7]
 220 0120 0022     		movs	r2, #0
 221 0122 9A60     		str	r2, [r3, #8]
 152:../firmware/gd32f3x0_hal_peripheral/Source/gd32f3x0_hal_adc.c ****         ((hal_adc_watchdog_config_struct *)p_struct)->analog_watchdog_high_threshold    = 0U;
 222              		.loc 1 152 89
 223 0124 3B68     		ldr	r3, [r7]
 224 0126 0022     		movs	r2, #0
 225 0128 9A81     		strh	r2, [r3, #12]	@ movhi
 153:../firmware/gd32f3x0_hal_peripheral/Source/gd32f3x0_hal_adc.c ****         ((hal_adc_watchdog_config_struct *)p_struct)->analog_watchdog_low_threshold     = 0U;
 226              		.loc 1 153 89
 227 012a 3B68     		ldr	r3, [r7]
 228 012c 0022     		movs	r2, #0
 229 012e DA81     		strh	r2, [r3, #14]	@ movhi
 154:../firmware/gd32f3x0_hal_peripheral/Source/gd32f3x0_hal_adc.c ****         break;
 230              		.loc 1 154 9
 231 0130 1CE0     		b	.L13
 232              	.L3:
 155:../firmware/gd32f3x0_hal_peripheral/Source/gd32f3x0_hal_adc.c **** 
 156:../firmware/gd32f3x0_hal_peripheral/Source/gd32f3x0_hal_adc.c ****     case HAL_ADC_DEV_STRUCT:
 157:../firmware/gd32f3x0_hal_peripheral/Source/gd32f3x0_hal_adc.c ****         /* initialize ADC device information structure with the default values */
 158:../firmware/gd32f3x0_hal_peripheral/Source/gd32f3x0_hal_adc.c ****         ((hal_adc_dev_struct *)p_struct)->adc_irq.adc_eoc_handle       = NULL;
 233              		.loc 1 158 72
 234 0132 3B68     		ldr	r3, [r7]
 235 0134 0022     		movs	r2, #0
 236 0136 1A60     		str	r2, [r3]
 159:../firmware/gd32f3x0_hal_peripheral/Source/gd32f3x0_hal_adc.c ****         ((hal_adc_dev_struct *)p_struct)->adc_irq.adc_eoic_handle      = NULL;
 237              		.loc 1 159 72
 238 0138 3B68     		ldr	r3, [r7]
 239 013a 0022     		movs	r2, #0
 240 013c 5A60     		str	r2, [r3, #4]
 160:../firmware/gd32f3x0_hal_peripheral/Source/gd32f3x0_hal_adc.c ****         ((hal_adc_dev_struct *)p_struct)->adc_irq.adc_watchdog_handle  = NULL;
 241              		.loc 1 160 72
 242 013e 3B68     		ldr	r3, [r7]
 243 0140 0022     		movs	r2, #0
 244 0142 9A60     		str	r2, [r3, #8]
 161:../firmware/gd32f3x0_hal_peripheral/Source/gd32f3x0_hal_adc.c ****         ((hal_adc_dev_struct *)p_struct)->p_dma_adc                    = NULL;
 245              		.loc 1 161 72
 246 0144 3B68     		ldr	r3, [r7]
 247 0146 0022     		movs	r2, #0
 248 0148 DA60     		str	r2, [r3, #12]
 162:../firmware/gd32f3x0_hal_peripheral/Source/gd32f3x0_hal_adc.c ****         ((hal_adc_dev_struct *)p_struct)->adc_dma.full_transcom_handle = NULL;
 249              		.loc 1 162 72
 250 014a 3B68     		ldr	r3, [r7]
 251 014c 0022     		movs	r2, #0
 252 014e 1A61     		str	r2, [r3, #16]
 163:../firmware/gd32f3x0_hal_peripheral/Source/gd32f3x0_hal_adc.c ****         ((hal_adc_dev_struct *)p_struct)->adc_dma.half_transcom_handle = NULL;
 253              		.loc 1 163 72
 254 0150 3B68     		ldr	r3, [r7]
 255 0152 0022     		movs	r2, #0
 256 0154 5A61     		str	r2, [r3, #20]
 164:../firmware/gd32f3x0_hal_peripheral/Source/gd32f3x0_hal_adc.c ****         ((hal_adc_dev_struct *)p_struct)->adc_dma.error_handle         = NULL;
 257              		.loc 1 164 72
 258 0156 3B68     		ldr	r3, [r7]
 259 0158 0022     		movs	r2, #0
 260 015a 9A61     		str	r2, [r3, #24]
 165:../firmware/gd32f3x0_hal_peripheral/Source/gd32f3x0_hal_adc.c ****         ((hal_adc_dev_struct *)p_struct)->error_state                  = HAL_ADC_ERROR_NONE;
 261              		.loc 1 165 72
 262 015c 3B68     		ldr	r3, [r7]
 263 015e 0022     		movs	r2, #0
 264 0160 1A77     		strb	r2, [r3, #28]
 166:../firmware/gd32f3x0_hal_peripheral/Source/gd32f3x0_hal_adc.c ****         ((hal_adc_dev_struct *)p_struct)->state                        = HAL_ADC_STATE_RESET;
 265              		.loc 1 166 72
 266 0162 3B68     		ldr	r3, [r7]
 267 0164 0022     		movs	r2, #0
 268 0166 DA83     		strh	r2, [r3, #30]	@ movhi
 167:../firmware/gd32f3x0_hal_peripheral/Source/gd32f3x0_hal_adc.c ****         break;
 269              		.loc 1 167 9
 270 0168 00E0     		b	.L13
 271              	.L14:
 168:../firmware/gd32f3x0_hal_peripheral/Source/gd32f3x0_hal_adc.c **** 
 169:../firmware/gd32f3x0_hal_peripheral/Source/gd32f3x0_hal_adc.c ****     default:
 170:../firmware/gd32f3x0_hal_peripheral/Source/gd32f3x0_hal_adc.c ****         HAL_DEBUGW("parameter [hal_struct_type] value is undefine");
 171:../firmware/gd32f3x0_hal_peripheral/Source/gd32f3x0_hal_adc.c ****         break;
 272              		.loc 1 171 9
 273 016a 00BF     		nop
 274              	.L13:
 172:../firmware/gd32f3x0_hal_peripheral/Source/gd32f3x0_hal_adc.c ****     }
 173:../firmware/gd32f3x0_hal_peripheral/Source/gd32f3x0_hal_adc.c **** }
 275              		.loc 1 173 1
 276 016c 00BF     		nop
 277 016e 0C37     		adds	r7, r7, #12
 278              		.cfi_def_cfa_offset 4
 279 0170 BD46     		mov	sp, r7
 280              		.cfi_def_cfa_register 13
 281              		@ sp needed
 282 0172 80BC     		pop	{r7}
 283              		.cfi_restore 7
 284              		.cfi_def_cfa_offset 0
 285 0174 7047     		bx	lr
 286              		.cfi_endproc
 287              	.LFE119:
 289 0176 00BF     		.section	.text.hal_adc_deinit,"ax",%progbits
 290              		.align	1
 291              		.global	hal_adc_deinit
 292              		.syntax unified
 293              		.thumb
 294              		.thumb_func
 295              		.fpu softvfp
 297              	hal_adc_deinit:
 298              	.LFB120:
 174:../firmware/gd32f3x0_hal_peripheral/Source/gd32f3x0_hal_adc.c **** 
 175:../firmware/gd32f3x0_hal_peripheral/Source/gd32f3x0_hal_adc.c **** /*!
 176:../firmware/gd32f3x0_hal_peripheral/Source/gd32f3x0_hal_adc.c ****     \brief      deinitialize ADC device structure and init structure
 177:../firmware/gd32f3x0_hal_peripheral/Source/gd32f3x0_hal_adc.c ****     \param[in]  adc_dev: ADC device information structure
 178:../firmware/gd32f3x0_hal_peripheral/Source/gd32f3x0_hal_adc.c ****                   the structure is not necessary to be reconfigured after structrue initialization,
 179:../firmware/gd32f3x0_hal_peripheral/Source/gd32f3x0_hal_adc.c ****                   the structure parameters altering is automatically configured by core
 180:../firmware/gd32f3x0_hal_peripheral/Source/gd32f3x0_hal_adc.c ****     \param[out] none
 181:../firmware/gd32f3x0_hal_peripheral/Source/gd32f3x0_hal_adc.c ****     \retval     HAL_ERR_NONE, HAL_ERR_ADDRESS, HAL_ERR_HARDWARE, details refer to gd32f3x0_hal.h
 182:../firmware/gd32f3x0_hal_peripheral/Source/gd32f3x0_hal_adc.c **** */
 183:../firmware/gd32f3x0_hal_peripheral/Source/gd32f3x0_hal_adc.c **** int32_t hal_adc_deinit(hal_adc_dev_struct *adc_dev)
 184:../firmware/gd32f3x0_hal_peripheral/Source/gd32f3x0_hal_adc.c **** {
 299              		.loc 1 184 1
 300              		.cfi_startproc
 301              		@ args = 0, pretend = 0, frame = 8
 302              		@ frame_needed = 1, uses_anonymous_args = 0
 303 0000 80B5     		push	{r7, lr}
 304              		.cfi_def_cfa_offset 8
 305              		.cfi_offset 7, -8
 306              		.cfi_offset 14, -4
 307 0002 82B0     		sub	sp, sp, #8
 308              		.cfi_def_cfa_offset 16
 309 0004 00AF     		add	r7, sp, #0
 310              		.cfi_def_cfa_register 7
 311 0006 7860     		str	r0, [r7, #4]
 185:../firmware/gd32f3x0_hal_peripheral/Source/gd32f3x0_hal_adc.c **** #if (1 == HAL_PARAMETER_CHECK)
 186:../firmware/gd32f3x0_hal_peripheral/Source/gd32f3x0_hal_adc.c ****     /* check the parameters */
 187:../firmware/gd32f3x0_hal_peripheral/Source/gd32f3x0_hal_adc.c ****     if(NULL == adc_dev) {
 188:../firmware/gd32f3x0_hal_peripheral/Source/gd32f3x0_hal_adc.c ****         HAL_DEBUGE("pointer [adc_dev] address is invalid");
 189:../firmware/gd32f3x0_hal_peripheral/Source/gd32f3x0_hal_adc.c ****         return HAL_ERR_ADDRESS;
 190:../firmware/gd32f3x0_hal_peripheral/Source/gd32f3x0_hal_adc.c ****     }
 191:../firmware/gd32f3x0_hal_peripheral/Source/gd32f3x0_hal_adc.c **** #endif /* 1 = HAL_PARAMETER_CHECK */
 192:../firmware/gd32f3x0_hal_peripheral/Source/gd32f3x0_hal_adc.c **** 
 193:../firmware/gd32f3x0_hal_peripheral/Source/gd32f3x0_hal_adc.c ****     _adc_state_set(adc_dev, HAL_ADC_STATE_BUSY_SYSTEM);
 312              		.loc 1 193 5
 313 0008 0221     		movs	r1, #2
 314 000a 7868     		ldr	r0, [r7, #4]
 315 000c FFF7FEFF 		bl	_adc_state_set
 194:../firmware/gd32f3x0_hal_peripheral/Source/gd32f3x0_hal_adc.c **** 
 195:../firmware/gd32f3x0_hal_peripheral/Source/gd32f3x0_hal_adc.c ****     /* if ADC is disabled */
 196:../firmware/gd32f3x0_hal_peripheral/Source/gd32f3x0_hal_adc.c ****     if(HAL_ERR_NONE == _adc_disable(adc_dev)) {
 316              		.loc 1 196 24
 317 0010 7868     		ldr	r0, [r7, #4]
 318 0012 FFF7FEFF 		bl	_adc_disable
 319 0016 0346     		mov	r3, r0
 320              		.loc 1 196 7
 321 0018 002B     		cmp	r3, #0
 322 001a 09D1     		bne	.L16
 197:../firmware/gd32f3x0_hal_peripheral/Source/gd32f3x0_hal_adc.c ****         /* deinit ADC */
 198:../firmware/gd32f3x0_hal_peripheral/Source/gd32f3x0_hal_adc.c ****         hals_adc_deinit();
 323              		.loc 1 198 9
 324 001c FFF7FEFF 		bl	hals_adc_deinit
 199:../firmware/gd32f3x0_hal_peripheral/Source/gd32f3x0_hal_adc.c ****         adc_dev->error_state = HAL_ADC_ERROR_NONE;
 325              		.loc 1 199 30
 326 0020 7B68     		ldr	r3, [r7, #4]
 327 0022 0022     		movs	r2, #0
 328 0024 1A77     		strb	r2, [r3, #28]
 200:../firmware/gd32f3x0_hal_peripheral/Source/gd32f3x0_hal_adc.c ****         adc_dev->state = HAL_ADC_STATE_RESET;
 329              		.loc 1 200 24
 330 0026 7B68     		ldr	r3, [r7, #4]
 331 0028 0022     		movs	r2, #0
 332 002a DA83     		strh	r2, [r3, #30]	@ movhi
 201:../firmware/gd32f3x0_hal_peripheral/Source/gd32f3x0_hal_adc.c ****     } else {
 202:../firmware/gd32f3x0_hal_peripheral/Source/gd32f3x0_hal_adc.c ****         return HAL_ERR_HARDWARE;
 203:../firmware/gd32f3x0_hal_peripheral/Source/gd32f3x0_hal_adc.c ****     }
 204:../firmware/gd32f3x0_hal_peripheral/Source/gd32f3x0_hal_adc.c **** 
 205:../firmware/gd32f3x0_hal_peripheral/Source/gd32f3x0_hal_adc.c ****     return HAL_ERR_NONE;
 333              		.loc 1 205 12
 334 002c 0023     		movs	r3, #0
 335 002e 01E0     		b	.L18
 336              	.L16:
 202:../firmware/gd32f3x0_hal_peripheral/Source/gd32f3x0_hal_adc.c ****     }
 337              		.loc 1 202 16
 338 0030 6FF00703 		mvn	r3, #7
 339              	.L18:
 206:../firmware/gd32f3x0_hal_peripheral/Source/gd32f3x0_hal_adc.c **** }
 340              		.loc 1 206 1
 341 0034 1846     		mov	r0, r3
 342 0036 0837     		adds	r7, r7, #8
 343              		.cfi_def_cfa_offset 8
 344 0038 BD46     		mov	sp, r7
 345              		.cfi_def_cfa_register 13
 346              		@ sp needed
 347 003a 80BD     		pop	{r7, pc}
 348              		.cfi_endproc
 349              	.LFE120:
 351              		.section	.text.hal_adc_init,"ax",%progbits
 352              		.align	1
 353              		.global	hal_adc_init
 354              		.syntax unified
 355              		.thumb
 356              		.thumb_func
 357              		.fpu softvfp
 359              	hal_adc_init:
 360              	.LFB121:
 207:../firmware/gd32f3x0_hal_peripheral/Source/gd32f3x0_hal_adc.c **** 
 208:../firmware/gd32f3x0_hal_peripheral/Source/gd32f3x0_hal_adc.c **** /*!
 209:../firmware/gd32f3x0_hal_peripheral/Source/gd32f3x0_hal_adc.c ****     \brief      initialize ADC
 210:../firmware/gd32f3x0_hal_peripheral/Source/gd32f3x0_hal_adc.c ****     \param[in]  adc_dev: ADC device information structure
 211:../firmware/gd32f3x0_hal_peripheral/Source/gd32f3x0_hal_adc.c ****                   the structure is not necessary to be reconfigured after structrue initialization,
 212:../firmware/gd32f3x0_hal_peripheral/Source/gd32f3x0_hal_adc.c ****                   the structure parameters altering is automatically configured by core
 213:../firmware/gd32f3x0_hal_peripheral/Source/gd32f3x0_hal_adc.c ****     \param[in]  p_init: the pointer of ADC init structure
 214:../firmware/gd32f3x0_hal_peripheral/Source/gd32f3x0_hal_adc.c ****                   resolution_select:
 215:../firmware/gd32f3x0_hal_peripheral/Source/gd32f3x0_hal_adc.c ****                   only one parameter can be selected which is shown as below:
 216:../firmware/gd32f3x0_hal_peripheral/Source/gd32f3x0_hal_adc.c ****       \arg          ADC_RESOLUTION_12B: 12-bit ADC resolution
 217:../firmware/gd32f3x0_hal_peripheral/Source/gd32f3x0_hal_adc.c ****       \arg          ADC_RESOLUTION_10B: 10-bit ADC resolution
 218:../firmware/gd32f3x0_hal_peripheral/Source/gd32f3x0_hal_adc.c ****       \arg          ADC_RESOLUTION_8B : 8-bit ADC resolution
 219:../firmware/gd32f3x0_hal_peripheral/Source/gd32f3x0_hal_adc.c ****       \arg          ADC_RESOLUTION_6B : 6-bit ADC resolution
 220:../firmware/gd32f3x0_hal_peripheral/Source/gd32f3x0_hal_adc.c ****                   data_alignment:
 221:../firmware/gd32f3x0_hal_peripheral/Source/gd32f3x0_hal_adc.c ****                   only one parameter can be selected which is shown as below:
 222:../firmware/gd32f3x0_hal_peripheral/Source/gd32f3x0_hal_adc.c ****       \arg          ADC_LSB_ALIGNMENT: LSB alignment
 223:../firmware/gd32f3x0_hal_peripheral/Source/gd32f3x0_hal_adc.c ****       \arg          ADC_MSB_ALIGNMENT: MSB alignment
 224:../firmware/gd32f3x0_hal_peripheral/Source/gd32f3x0_hal_adc.c ****                   scan_mode: ENABLE, DISABLE
 225:../firmware/gd32f3x0_hal_peripheral/Source/gd32f3x0_hal_adc.c ****                   only one parameter can be selected which is shown as below:
 226:../firmware/gd32f3x0_hal_peripheral/Source/gd32f3x0_hal_adc.c ****       \arg          ENABLE: enable scan mode
 227:../firmware/gd32f3x0_hal_peripheral/Source/gd32f3x0_hal_adc.c ****       \arg          DISABLE: disable scan mode
 228:../firmware/gd32f3x0_hal_peripheral/Source/gd32f3x0_hal_adc.c ****                   oversample_config:
 229:../firmware/gd32f3x0_hal_peripheral/Source/gd32f3x0_hal_adc.c ****                     the argument could be selected from structure <hal_adc_oversample_struct>
 230:../firmware/gd32f3x0_hal_peripheral/Source/gd32f3x0_hal_adc.c ****     \param[out] none
 231:../firmware/gd32f3x0_hal_peripheral/Source/gd32f3x0_hal_adc.c ****     \retval     HAL_ERR_NONE, HAL_ERR_ADDRESS, HAL_ERR_HARDWARE, details refer to gd32f3x0_hal.h
 232:../firmware/gd32f3x0_hal_peripheral/Source/gd32f3x0_hal_adc.c **** */
 233:../firmware/gd32f3x0_hal_peripheral/Source/gd32f3x0_hal_adc.c **** int32_t hal_adc_init(hal_adc_dev_struct *adc_dev, hal_adc_init_struct *p_init)
 234:../firmware/gd32f3x0_hal_peripheral/Source/gd32f3x0_hal_adc.c **** {
 361              		.loc 1 234 1
 362              		.cfi_startproc
 363              		@ args = 0, pretend = 0, frame = 8
 364              		@ frame_needed = 1, uses_anonymous_args = 0
 365 0000 80B5     		push	{r7, lr}
 366              		.cfi_def_cfa_offset 8
 367              		.cfi_offset 7, -8
 368              		.cfi_offset 14, -4
 369 0002 82B0     		sub	sp, sp, #8
 370              		.cfi_def_cfa_offset 16
 371 0004 00AF     		add	r7, sp, #0
 372              		.cfi_def_cfa_register 7
 373 0006 7860     		str	r0, [r7, #4]
 374 0008 3960     		str	r1, [r7]
 235:../firmware/gd32f3x0_hal_peripheral/Source/gd32f3x0_hal_adc.c **** #if (1 == HAL_PARAMETER_CHECK)
 236:../firmware/gd32f3x0_hal_peripheral/Source/gd32f3x0_hal_adc.c ****     /* check the parameters */
 237:../firmware/gd32f3x0_hal_peripheral/Source/gd32f3x0_hal_adc.c ****     if((NULL == adc_dev) || (NULL == p_init)) {
 238:../firmware/gd32f3x0_hal_peripheral/Source/gd32f3x0_hal_adc.c ****         HAL_DEBUGE("pointer [adc_dev] or [p_init] address is invalid");
 239:../firmware/gd32f3x0_hal_peripheral/Source/gd32f3x0_hal_adc.c ****         return HAL_ERR_ADDRESS;
 240:../firmware/gd32f3x0_hal_peripheral/Source/gd32f3x0_hal_adc.c ****     }
 241:../firmware/gd32f3x0_hal_peripheral/Source/gd32f3x0_hal_adc.c **** #endif /* 1 = HAL_PARAMETER_CHECK */
 242:../firmware/gd32f3x0_hal_peripheral/Source/gd32f3x0_hal_adc.c **** 
 243:../firmware/gd32f3x0_hal_peripheral/Source/gd32f3x0_hal_adc.c ****     if(HAL_ADC_STATE_RESET == (hal_adc_state_get(adc_dev))) {
 375              		.loc 1 243 32
 376 000a 7868     		ldr	r0, [r7, #4]
 377 000c FFF7FEFF 		bl	hal_adc_state_get
 378 0010 0346     		mov	r3, r0
 379              		.loc 1 243 7
 380 0012 002B     		cmp	r3, #0
 381 0014 02D1     		bne	.L20
 244:../firmware/gd32f3x0_hal_peripheral/Source/gd32f3x0_hal_adc.c ****         adc_dev->error_state = HAL_ADC_ERROR_NONE;
 382              		.loc 1 244 30
 383 0016 7B68     		ldr	r3, [r7, #4]
 384 0018 0022     		movs	r2, #0
 385 001a 1A77     		strb	r2, [r3, #28]
 386              	.L20:
 245:../firmware/gd32f3x0_hal_peripheral/Source/gd32f3x0_hal_adc.c ****     }
 246:../firmware/gd32f3x0_hal_peripheral/Source/gd32f3x0_hal_adc.c **** 
 247:../firmware/gd32f3x0_hal_peripheral/Source/gd32f3x0_hal_adc.c ****     if((HAL_ERR_NONE == _adc_disable(adc_dev)) &&
 387              		.loc 1 247 25
 388 001c 7868     		ldr	r0, [r7, #4]
 389 001e FFF7FEFF 		bl	_adc_disable
 390 0022 0346     		mov	r3, r0
 391              		.loc 1 247 7
 392 0024 002B     		cmp	r3, #0
 393 0026 44D1     		bne	.L21
 248:../firmware/gd32f3x0_hal_peripheral/Source/gd32f3x0_hal_adc.c ****             (RESET == ((hal_adc_error_get(adc_dev)) & HAL_ADC_ERROR_SYSTEM))) {
 394              		.loc 1 248 25 discriminator 1
 395 0028 7868     		ldr	r0, [r7, #4]
 396 002a FFF7FEFF 		bl	hal_adc_error_get
 397 002e 0346     		mov	r3, r0
 398              		.loc 1 248 53 discriminator 1
 399 0030 03F00103 		and	r3, r3, #1
 247:../firmware/gd32f3x0_hal_peripheral/Source/gd32f3x0_hal_adc.c ****             (RESET == ((hal_adc_error_get(adc_dev)) & HAL_ADC_ERROR_SYSTEM))) {
 400              		.loc 1 247 48 discriminator 1
 401 0034 002B     		cmp	r3, #0
 402 0036 3CD1     		bne	.L21
 249:../firmware/gd32f3x0_hal_peripheral/Source/gd32f3x0_hal_adc.c ****         /* set ADC state  */
 250:../firmware/gd32f3x0_hal_peripheral/Source/gd32f3x0_hal_adc.c ****         _adc_state_clear(adc_dev, HAL_ADC_STATE_ROUTINE_BUSY);
 403              		.loc 1 250 9
 404 0038 1021     		movs	r1, #16
 405 003a 7868     		ldr	r0, [r7, #4]
 406 003c FFF7FEFF 		bl	_adc_state_clear
 251:../firmware/gd32f3x0_hal_peripheral/Source/gd32f3x0_hal_adc.c ****         _adc_state_clear(adc_dev, HAL_ADC_STATE_INSERTED_BUSY);
 407              		.loc 1 251 9
 408 0040 4FF48071 		mov	r1, #256
 409 0044 7868     		ldr	r0, [r7, #4]
 410 0046 FFF7FEFF 		bl	_adc_state_clear
 252:../firmware/gd32f3x0_hal_peripheral/Source/gd32f3x0_hal_adc.c ****         _adc_state_set(adc_dev, HAL_ADC_STATE_BUSY_SYSTEM);
 411              		.loc 1 252 9
 412 004a 0221     		movs	r1, #2
 413 004c 7868     		ldr	r0, [r7, #4]
 414 004e FFF7FEFF 		bl	_adc_state_set
 253:../firmware/gd32f3x0_hal_peripheral/Source/gd32f3x0_hal_adc.c **** 
 254:../firmware/gd32f3x0_hal_peripheral/Source/gd32f3x0_hal_adc.c ****         /* init ADC */
 255:../firmware/gd32f3x0_hal_peripheral/Source/gd32f3x0_hal_adc.c ****         /* 1.ADC data resolution select */
 256:../firmware/gd32f3x0_hal_peripheral/Source/gd32f3x0_hal_adc.c ****         /* ADC data resolution select can be updated only when ADC is disabled*/
 257:../firmware/gd32f3x0_hal_peripheral/Source/gd32f3x0_hal_adc.c ****         if(RESET == _adc_enable_state_get()) {
 415              		.loc 1 257 21
 416 0052 FFF7FEFF 		bl	_adc_enable_state_get
 417 0056 0346     		mov	r3, r0
 418              		.loc 1 257 11
 419 0058 002B     		cmp	r3, #0
 420 005a 04D1     		bne	.L22
 258:../firmware/gd32f3x0_hal_peripheral/Source/gd32f3x0_hal_adc.c ****             hals_adc_resolution_config(p_init->resolution);
 421              		.loc 1 258 13
 422 005c 3B68     		ldr	r3, [r7]
 423 005e 5B68     		ldr	r3, [r3, #4]
 424 0060 1846     		mov	r0, r3
 425 0062 FFF7FEFF 		bl	hals_adc_resolution_config
 426              	.L22:
 259:../firmware/gd32f3x0_hal_peripheral/Source/gd32f3x0_hal_adc.c ****         }
 260:../firmware/gd32f3x0_hal_peripheral/Source/gd32f3x0_hal_adc.c ****         /* 2.ADC data alignment config */
 261:../firmware/gd32f3x0_hal_peripheral/Source/gd32f3x0_hal_adc.c ****         hals_adc_data_alignment_config(p_init->data_alignment);
 427              		.loc 1 261 9
 428 0066 3B68     		ldr	r3, [r7]
 429 0068 1B68     		ldr	r3, [r3]
 430 006a 1846     		mov	r0, r3
 431 006c FFF7FEFF 		bl	hals_adc_data_alignment_config
 262:../firmware/gd32f3x0_hal_peripheral/Source/gd32f3x0_hal_adc.c **** 
 263:../firmware/gd32f3x0_hal_peripheral/Source/gd32f3x0_hal_adc.c ****         /* 3.ADC scan mode config */
 264:../firmware/gd32f3x0_hal_peripheral/Source/gd32f3x0_hal_adc.c ****         hals_adc_special_function_config(ADC_SCAN_MODE, p_init->scan_mode);
 432              		.loc 1 264 9
 433 0070 3B68     		ldr	r3, [r7]
 434 0072 1B7A     		ldrb	r3, [r3, #8]	@ zero_extendqisi2
 435 0074 1946     		mov	r1, r3
 436 0076 4FF48070 		mov	r0, #256
 437 007a FFF7FEFF 		bl	hals_adc_special_function_config
 265:../firmware/gd32f3x0_hal_peripheral/Source/gd32f3x0_hal_adc.c **** 
 266:../firmware/gd32f3x0_hal_peripheral/Source/gd32f3x0_hal_adc.c ****         /* 4.ADC oversampling mode config */
 267:../firmware/gd32f3x0_hal_peripheral/Source/gd32f3x0_hal_adc.c ****         if(ENABLE == p_init->hardware_oversampling) {
 438              		.loc 1 267 28
 439 007e 3B68     		ldr	r3, [r7]
 440 0080 5B7A     		ldrb	r3, [r3, #9]	@ zero_extendqisi2
 441              		.loc 1 267 11
 442 0082 012B     		cmp	r3, #1
 443 0084 0CD1     		bne	.L23
 268:../firmware/gd32f3x0_hal_peripheral/Source/gd32f3x0_hal_adc.c ****             hals_adc_oversample_mode_config(p_init->oversample_trigger_mode, p_init->oversampling_s
 444              		.loc 1 268 51
 445 0086 3B68     		ldr	r3, [r7]
 446 0088 DB68     		ldr	r3, [r3, #12]
 447              		.loc 1 268 13
 448 008a D8B2     		uxtb	r0, r3
 449              		.loc 1 268 84
 450 008c 3B68     		ldr	r3, [r7]
 451 008e 198A     		ldrh	r1, [r3, #16]
 269:../firmware/gd32f3x0_hal_peripheral/Source/gd32f3x0_hal_adc.c ****                                             p_init->oversampling_ratio);
 452              		.loc 1 269 51
 453 0090 3B68     		ldr	r3, [r7]
 454 0092 9B7C     		ldrb	r3, [r3, #18]	@ zero_extendqisi2
 268:../firmware/gd32f3x0_hal_peripheral/Source/gd32f3x0_hal_adc.c ****             hals_adc_oversample_mode_config(p_init->oversample_trigger_mode, p_init->oversampling_s
 455              		.loc 1 268 13
 456 0094 1A46     		mov	r2, r3
 457 0096 FFF7FEFF 		bl	hals_adc_oversample_mode_config
 270:../firmware/gd32f3x0_hal_peripheral/Source/gd32f3x0_hal_adc.c ****             /* enable ADC oversample mode */
 271:../firmware/gd32f3x0_hal_peripheral/Source/gd32f3x0_hal_adc.c ****             hals_adc_oversample_mode_enable();
 458              		.loc 1 271 13
 459 009a FFF7FEFF 		bl	hals_adc_oversample_mode_enable
 267:../firmware/gd32f3x0_hal_peripheral/Source/gd32f3x0_hal_adc.c ****             hals_adc_oversample_mode_config(p_init->oversample_trigger_mode, p_init->oversampling_s
 460              		.loc 1 267 11
 461 009e 0BE0     		b	.L27
 462              	.L23:
 272:../firmware/gd32f3x0_hal_peripheral/Source/gd32f3x0_hal_adc.c ****         } else {
 273:../firmware/gd32f3x0_hal_peripheral/Source/gd32f3x0_hal_adc.c ****             if(SET == __HAL_ADC_GET_OVERSAMPLE_ENABLE) {
 463              		.loc 1 273 23
 464 00a0 084B     		ldr	r3, .L28
 465 00a2 1B68     		ldr	r3, [r3]
 466 00a4 03F00103 		and	r3, r3, #1
 467              		.loc 1 273 15
 468 00a8 012B     		cmp	r3, #1
 469 00aa 05D1     		bne	.L27
 274:../firmware/gd32f3x0_hal_peripheral/Source/gd32f3x0_hal_adc.c ****                 /* disable ADC oversample mode */
 275:../firmware/gd32f3x0_hal_peripheral/Source/gd32f3x0_hal_adc.c ****                 hals_adc_oversample_mode_disable();
 470              		.loc 1 275 17
 471 00ac FFF7FEFF 		bl	hals_adc_oversample_mode_disable
 267:../firmware/gd32f3x0_hal_peripheral/Source/gd32f3x0_hal_adc.c ****             hals_adc_oversample_mode_config(p_init->oversample_trigger_mode, p_init->oversampling_s
 472              		.loc 1 267 11
 473 00b0 02E0     		b	.L27
 474              	.L21:
 276:../firmware/gd32f3x0_hal_peripheral/Source/gd32f3x0_hal_adc.c ****             }
 277:../firmware/gd32f3x0_hal_peripheral/Source/gd32f3x0_hal_adc.c ****         }
 278:../firmware/gd32f3x0_hal_peripheral/Source/gd32f3x0_hal_adc.c ****     } else {
 279:../firmware/gd32f3x0_hal_peripheral/Source/gd32f3x0_hal_adc.c ****         return HAL_ERR_HARDWARE;
 475              		.loc 1 279 16
 476 00b2 6FF00703 		mvn	r3, #7
 477 00b6 01E0     		b	.L26
 478              	.L27:
 267:../firmware/gd32f3x0_hal_peripheral/Source/gd32f3x0_hal_adc.c ****             hals_adc_oversample_mode_config(p_init->oversample_trigger_mode, p_init->oversampling_s
 479              		.loc 1 267 11
 480 00b8 00BF     		nop
 280:../firmware/gd32f3x0_hal_peripheral/Source/gd32f3x0_hal_adc.c ****     }
 281:../firmware/gd32f3x0_hal_peripheral/Source/gd32f3x0_hal_adc.c **** 
 282:../firmware/gd32f3x0_hal_peripheral/Source/gd32f3x0_hal_adc.c ****     return HAL_ERR_NONE;
 481              		.loc 1 282 12
 482 00ba 0023     		movs	r3, #0
 483              	.L26:
 283:../firmware/gd32f3x0_hal_peripheral/Source/gd32f3x0_hal_adc.c **** }
 484              		.loc 1 283 1
 485 00bc 1846     		mov	r0, r3
 486 00be 0837     		adds	r7, r7, #8
 487              		.cfi_def_cfa_offset 8
 488 00c0 BD46     		mov	sp, r7
 489              		.cfi_def_cfa_register 13
 490              		@ sp needed
 491 00c2 80BD     		pop	{r7, pc}
 492              	.L29:
 493              		.align	2
 494              	.L28:
 495 00c4 80240140 		.word	1073816704
 496              		.cfi_endproc
 497              	.LFE121:
 499              		.section	.text.hal_adc_calibration_start,"ax",%progbits
 500              		.align	1
 501              		.global	hal_adc_calibration_start
 502              		.syntax unified
 503              		.thumb
 504              		.thumb_func
 505              		.fpu softvfp
 507              	hal_adc_calibration_start:
 508              	.LFB122:
 284:../firmware/gd32f3x0_hal_peripheral/Source/gd32f3x0_hal_adc.c **** 
 285:../firmware/gd32f3x0_hal_peripheral/Source/gd32f3x0_hal_adc.c **** /*!
 286:../firmware/gd32f3x0_hal_peripheral/Source/gd32f3x0_hal_adc.c ****     \brief      ADC calibration
 287:../firmware/gd32f3x0_hal_peripheral/Source/gd32f3x0_hal_adc.c ****     \param[in]  adc_dev: ADC device information structure
 288:../firmware/gd32f3x0_hal_peripheral/Source/gd32f3x0_hal_adc.c ****                   the structure is not necessary to be reconfigured after structrue initialization,
 289:../firmware/gd32f3x0_hal_peripheral/Source/gd32f3x0_hal_adc.c ****                   the structure parameters altering is automatically configured by core
 290:../firmware/gd32f3x0_hal_peripheral/Source/gd32f3x0_hal_adc.c ****     \param[out] none
 291:../firmware/gd32f3x0_hal_peripheral/Source/gd32f3x0_hal_adc.c ****     \retval     HAL_ERR_NONE, HAL_ERR_ADDRESS, HAL_ERR_HARDWARE, details refer to gd32f3x0_hal.h
 292:../firmware/gd32f3x0_hal_peripheral/Source/gd32f3x0_hal_adc.c **** */
 293:../firmware/gd32f3x0_hal_peripheral/Source/gd32f3x0_hal_adc.c **** int32_t hal_adc_calibration_start(hal_adc_dev_struct *adc_dev)
 294:../firmware/gd32f3x0_hal_peripheral/Source/gd32f3x0_hal_adc.c **** {
 509              		.loc 1 294 1
 510              		.cfi_startproc
 511              		@ args = 0, pretend = 0, frame = 8
 512              		@ frame_needed = 1, uses_anonymous_args = 0
 513 0000 80B5     		push	{r7, lr}
 514              		.cfi_def_cfa_offset 8
 515              		.cfi_offset 7, -8
 516              		.cfi_offset 14, -4
 517 0002 82B0     		sub	sp, sp, #8
 518              		.cfi_def_cfa_offset 16
 519 0004 00AF     		add	r7, sp, #0
 520              		.cfi_def_cfa_register 7
 521 0006 7860     		str	r0, [r7, #4]
 295:../firmware/gd32f3x0_hal_peripheral/Source/gd32f3x0_hal_adc.c **** #if (1 == HAL_PARAMETER_CHECK)
 296:../firmware/gd32f3x0_hal_peripheral/Source/gd32f3x0_hal_adc.c ****     /* check the parameters */
 297:../firmware/gd32f3x0_hal_peripheral/Source/gd32f3x0_hal_adc.c ****     if(NULL == adc_dev) {
 298:../firmware/gd32f3x0_hal_peripheral/Source/gd32f3x0_hal_adc.c ****         HAL_DEBUGE("pointer [adc_dev] address is invalid");
 299:../firmware/gd32f3x0_hal_peripheral/Source/gd32f3x0_hal_adc.c ****         return HAL_ERR_ADDRESS;
 300:../firmware/gd32f3x0_hal_peripheral/Source/gd32f3x0_hal_adc.c ****     }
 301:../firmware/gd32f3x0_hal_peripheral/Source/gd32f3x0_hal_adc.c **** #endif /* 1 = HAL_PARAMETER_CHECK */
 302:../firmware/gd32f3x0_hal_peripheral/Source/gd32f3x0_hal_adc.c **** 
 303:../firmware/gd32f3x0_hal_peripheral/Source/gd32f3x0_hal_adc.c ****     /* if ADC is disabled */
 304:../firmware/gd32f3x0_hal_peripheral/Source/gd32f3x0_hal_adc.c ****     if(HAL_ERR_NONE == _adc_disable(adc_dev)) {
 522              		.loc 1 304 24
 523 0008 7868     		ldr	r0, [r7, #4]
 524 000a FFF7FEFF 		bl	_adc_disable
 525 000e 0346     		mov	r3, r0
 526              		.loc 1 304 7
 527 0010 002B     		cmp	r3, #0
 528 0012 1BD1     		bne	.L31
 305:../firmware/gd32f3x0_hal_peripheral/Source/gd32f3x0_hal_adc.c ****         /* set ADC state  */
 306:../firmware/gd32f3x0_hal_peripheral/Source/gd32f3x0_hal_adc.c ****         _adc_state_clear(adc_dev, HAL_ADC_STATE_ROUTINE_BUSY);
 529              		.loc 1 306 9
 530 0014 1021     		movs	r1, #16
 531 0016 7868     		ldr	r0, [r7, #4]
 532 0018 FFF7FEFF 		bl	_adc_state_clear
 307:../firmware/gd32f3x0_hal_peripheral/Source/gd32f3x0_hal_adc.c ****         _adc_state_clear(adc_dev, HAL_ADC_STATE_INSERTED_BUSY);
 533              		.loc 1 307 9
 534 001c 4FF48071 		mov	r1, #256
 535 0020 7868     		ldr	r0, [r7, #4]
 536 0022 FFF7FEFF 		bl	_adc_state_clear
 308:../firmware/gd32f3x0_hal_peripheral/Source/gd32f3x0_hal_adc.c ****         _adc_state_set(adc_dev, HAL_ADC_STATE_BUSY_SYSTEM);
 537              		.loc 1 308 9
 538 0026 0221     		movs	r1, #2
 539 0028 7868     		ldr	r0, [r7, #4]
 540 002a FFF7FEFF 		bl	_adc_state_set
 309:../firmware/gd32f3x0_hal_peripheral/Source/gd32f3x0_hal_adc.c **** 
 310:../firmware/gd32f3x0_hal_peripheral/Source/gd32f3x0_hal_adc.c ****         /* enable the ADC */
 311:../firmware/gd32f3x0_hal_peripheral/Source/gd32f3x0_hal_adc.c ****         _adc_enable(adc_dev);
 541              		.loc 1 311 9
 542 002e 7868     		ldr	r0, [r7, #4]
 543 0030 FFF7FEFF 		bl	_adc_enable
 312:../firmware/gd32f3x0_hal_peripheral/Source/gd32f3x0_hal_adc.c ****         /* ADC calibration and reset calibration */
 313:../firmware/gd32f3x0_hal_peripheral/Source/gd32f3x0_hal_adc.c ****         hals_adc_calibration_enable();
 544              		.loc 1 313 9
 545 0034 FFF7FEFF 		bl	hals_adc_calibration_enable
 314:../firmware/gd32f3x0_hal_peripheral/Source/gd32f3x0_hal_adc.c **** 
 315:../firmware/gd32f3x0_hal_peripheral/Source/gd32f3x0_hal_adc.c ****         /* set ADC state  */
 316:../firmware/gd32f3x0_hal_peripheral/Source/gd32f3x0_hal_adc.c ****         _adc_state_clear(adc_dev, HAL_ADC_STATE_BUSY_SYSTEM);
 546              		.loc 1 316 9
 547 0038 0221     		movs	r1, #2
 548 003a 7868     		ldr	r0, [r7, #4]
 549 003c FFF7FEFF 		bl	_adc_state_clear
 317:../firmware/gd32f3x0_hal_peripheral/Source/gd32f3x0_hal_adc.c ****         _adc_state_set(adc_dev, HAL_ADC_STATE_READY);
 550              		.loc 1 317 9
 551 0040 0121     		movs	r1, #1
 552 0042 7868     		ldr	r0, [r7, #4]
 553 0044 FFF7FEFF 		bl	_adc_state_set
 318:../firmware/gd32f3x0_hal_peripheral/Source/gd32f3x0_hal_adc.c ****     } else {
 319:../firmware/gd32f3x0_hal_peripheral/Source/gd32f3x0_hal_adc.c ****         return HAL_ERR_HARDWARE;
 320:../firmware/gd32f3x0_hal_peripheral/Source/gd32f3x0_hal_adc.c ****     }
 321:../firmware/gd32f3x0_hal_peripheral/Source/gd32f3x0_hal_adc.c **** 
 322:../firmware/gd32f3x0_hal_peripheral/Source/gd32f3x0_hal_adc.c ****     return HAL_ERR_NONE;
 554              		.loc 1 322 12
 555 0048 0023     		movs	r3, #0
 556 004a 01E0     		b	.L33
 557              	.L31:
 319:../firmware/gd32f3x0_hal_peripheral/Source/gd32f3x0_hal_adc.c ****     }
 558              		.loc 1 319 16
 559 004c 6FF00703 		mvn	r3, #7
 560              	.L33:
 323:../firmware/gd32f3x0_hal_peripheral/Source/gd32f3x0_hal_adc.c **** }
 561              		.loc 1 323 1
 562 0050 1846     		mov	r0, r3
 563 0052 0837     		adds	r7, r7, #8
 564              		.cfi_def_cfa_offset 8
 565 0054 BD46     		mov	sp, r7
 566              		.cfi_def_cfa_register 13
 567              		@ sp needed
 568 0056 80BD     		pop	{r7, pc}
 569              		.cfi_endproc
 570              	.LFE122:
 572              		.section	.text.hal_adc_routine_channel_config,"ax",%progbits
 573              		.align	1
 574              		.global	hal_adc_routine_channel_config
 575              		.syntax unified
 576              		.thumb
 577              		.thumb_func
 578              		.fpu softvfp
 580              	hal_adc_routine_channel_config:
 581              	.LFB123:
 324:../firmware/gd32f3x0_hal_peripheral/Source/gd32f3x0_hal_adc.c **** 
 325:../firmware/gd32f3x0_hal_peripheral/Source/gd32f3x0_hal_adc.c **** /*!
 326:../firmware/gd32f3x0_hal_peripheral/Source/gd32f3x0_hal_adc.c ****     \brief      initialize ADC routine channel
 327:../firmware/gd32f3x0_hal_peripheral/Source/gd32f3x0_hal_adc.c ****     \param[in]  adc_dev: ADC device information structure
 328:../firmware/gd32f3x0_hal_peripheral/Source/gd32f3x0_hal_adc.c ****                   the structure is not necessary to be reconfigured after structrue initialization,
 329:../firmware/gd32f3x0_hal_peripheral/Source/gd32f3x0_hal_adc.c ****                   the structure parameters altering is automatically configured by core
 330:../firmware/gd32f3x0_hal_peripheral/Source/gd32f3x0_hal_adc.c ****     \param[in]  p_rchannel: the pointer of ADC routine sequence init structure
 331:../firmware/gd32f3x0_hal_peripheral/Source/gd32f3x0_hal_adc.c ****                   routine_sequence_conversions:
 332:../firmware/gd32f3x0_hal_peripheral/Source/gd32f3x0_hal_adc.c ****                   only one parameter can be selected which is shown as below:
 333:../firmware/gd32f3x0_hal_peripheral/Source/gd32f3x0_hal_adc.c ****       \arg          ENABLE: enable external trigger
 334:../firmware/gd32f3x0_hal_peripheral/Source/gd32f3x0_hal_adc.c ****       \arg          DISABLE: disable external trigger
 335:../firmware/gd32f3x0_hal_peripheral/Source/gd32f3x0_hal_adc.c ****                   routine_sequence_length: 1-16
 336:../firmware/gd32f3x0_hal_peripheral/Source/gd32f3x0_hal_adc.c ****                   routine_sequence_external_trigger_select:
 337:../firmware/gd32f3x0_hal_peripheral/Source/gd32f3x0_hal_adc.c ****                   only one parameter can be selected which is shown as below:
 338:../firmware/gd32f3x0_hal_peripheral/Source/gd32f3x0_hal_adc.c ****       \arg          ADC_EXTTRIG_ROUTINE_T0_CH0: TIMER0 CH0 event select
 339:../firmware/gd32f3x0_hal_peripheral/Source/gd32f3x0_hal_adc.c ****       \arg          ADC_EXTTRIG_ROUTINE_T0_CH1: TIMER0 CH1 event select
 340:../firmware/gd32f3x0_hal_peripheral/Source/gd32f3x0_hal_adc.c ****       \arg          ADC_EXTTRIG_ROUTINE_T0_CH2: TIMER0 CH2 event select
 341:../firmware/gd32f3x0_hal_peripheral/Source/gd32f3x0_hal_adc.c ****       \arg          ADC_EXTTRIG_ROUTINE_T1_CH1: TIMER1 CH1 event select
 342:../firmware/gd32f3x0_hal_peripheral/Source/gd32f3x0_hal_adc.c ****       \arg          ADC_EXTTRIG_ROUTINE_T2_TRGO: TIMER2 TRGO event select
 343:../firmware/gd32f3x0_hal_peripheral/Source/gd32f3x0_hal_adc.c ****       \arg          ADC_EXTTRIG_ROUTINE_T14_CH0: TIMER14 CH0 event select
 344:../firmware/gd32f3x0_hal_peripheral/Source/gd32f3x0_hal_adc.c ****       \arg          ADC_EXTTRIG_ROUTINE_EXTI_11: external interrupt line 11
 345:../firmware/gd32f3x0_hal_peripheral/Source/gd32f3x0_hal_adc.c ****       \arg          ADC_EXTTRIG_ROUTINE_NONE: software trigger
 346:../firmware/gd32f3x0_hal_peripheral/Source/gd32f3x0_hal_adc.c ****                   continuous_mode:
 347:../firmware/gd32f3x0_hal_peripheral/Source/gd32f3x0_hal_adc.c ****                   only one parameter can be selected which is shown as below:
 348:../firmware/gd32f3x0_hal_peripheral/Source/gd32f3x0_hal_adc.c ****       \arg          ENABLE: enable continuous mode
 349:../firmware/gd32f3x0_hal_peripheral/Source/gd32f3x0_hal_adc.c ****       \arg          DISABLE: disable continuous mode
 350:../firmware/gd32f3x0_hal_peripheral/Source/gd32f3x0_hal_adc.c ****                   discontinuous_mode:
 351:../firmware/gd32f3x0_hal_peripheral/Source/gd32f3x0_hal_adc.c ****                   only one parameter can be selected which is shown as below:
 352:../firmware/gd32f3x0_hal_peripheral/Source/gd32f3x0_hal_adc.c ****       \arg          ENABLE: enable continuous
 353:../firmware/gd32f3x0_hal_peripheral/Source/gd32f3x0_hal_adc.c ****       \arg          DISABLE: disable continuous
 354:../firmware/gd32f3x0_hal_peripheral/Source/gd32f3x0_hal_adc.c ****                   number_of_conversions_in_discontinuous_mode: 1-8
 355:../firmware/gd32f3x0_hal_peripheral/Source/gd32f3x0_hal_adc.c ****     \param[out] none
 356:../firmware/gd32f3x0_hal_peripheral/Source/gd32f3x0_hal_adc.c ****     \retval     HAL_ERR_NONE, HAL_ERR_ADDRESS, HAL_ERR_HARDWARE, details refer to gd32f3x0_hal.h
 357:../firmware/gd32f3x0_hal_peripheral/Source/gd32f3x0_hal_adc.c **** */
 358:../firmware/gd32f3x0_hal_peripheral/Source/gd32f3x0_hal_adc.c **** int32_t hal_adc_routine_channel_config(hal_adc_dev_struct *adc_dev, hal_adc_routine_config_struct *
 359:../firmware/gd32f3x0_hal_peripheral/Source/gd32f3x0_hal_adc.c **** {
 582              		.loc 1 359 1
 583              		.cfi_startproc
 584              		@ args = 0, pretend = 0, frame = 16
 585              		@ frame_needed = 1, uses_anonymous_args = 0
 586 0000 80B5     		push	{r7, lr}
 587              		.cfi_def_cfa_offset 8
 588              		.cfi_offset 7, -8
 589              		.cfi_offset 14, -4
 590 0002 84B0     		sub	sp, sp, #16
 591              		.cfi_def_cfa_offset 24
 592 0004 00AF     		add	r7, sp, #0
 593              		.cfi_def_cfa_register 7
 594 0006 7860     		str	r0, [r7, #4]
 595 0008 3960     		str	r1, [r7]
 360:../firmware/gd32f3x0_hal_peripheral/Source/gd32f3x0_hal_adc.c ****     uint32_t reg_temp;
 361:../firmware/gd32f3x0_hal_peripheral/Source/gd32f3x0_hal_adc.c **** 
 362:../firmware/gd32f3x0_hal_peripheral/Source/gd32f3x0_hal_adc.c **** #if (1 == HAL_PARAMETER_CHECK)
 363:../firmware/gd32f3x0_hal_peripheral/Source/gd32f3x0_hal_adc.c ****     /* check the parameters */
 364:../firmware/gd32f3x0_hal_peripheral/Source/gd32f3x0_hal_adc.c ****     if((NULL == adc_dev) || (NULL == p_rchannel)) {
 365:../firmware/gd32f3x0_hal_peripheral/Source/gd32f3x0_hal_adc.c ****         HAL_DEBUGE("pointer [adc_dev] or [p_rinit] address is invalid");
 366:../firmware/gd32f3x0_hal_peripheral/Source/gd32f3x0_hal_adc.c ****         return HAL_ERR_ADDRESS;
 367:../firmware/gd32f3x0_hal_peripheral/Source/gd32f3x0_hal_adc.c ****     }
 368:../firmware/gd32f3x0_hal_peripheral/Source/gd32f3x0_hal_adc.c **** #endif /* 1 = HAL_PARAMETER_CHECK */
 369:../firmware/gd32f3x0_hal_peripheral/Source/gd32f3x0_hal_adc.c **** 
 370:../firmware/gd32f3x0_hal_peripheral/Source/gd32f3x0_hal_adc.c ****     if(HAL_ADC_STATE_RESET == (hal_adc_state_get(adc_dev))) {
 596              		.loc 1 370 32
 597 000a 7868     		ldr	r0, [r7, #4]
 598 000c FFF7FEFF 		bl	hal_adc_state_get
 599 0010 0346     		mov	r3, r0
 600              		.loc 1 370 7
 601 0012 002B     		cmp	r3, #0
 602 0014 02D1     		bne	.L35
 371:../firmware/gd32f3x0_hal_peripheral/Source/gd32f3x0_hal_adc.c ****         adc_dev->error_state = HAL_ADC_ERROR_NONE;
 603              		.loc 1 371 30
 604 0016 7B68     		ldr	r3, [r7, #4]
 605 0018 0022     		movs	r2, #0
 606 001a 1A77     		strb	r2, [r3, #28]
 607              	.L35:
 372:../firmware/gd32f3x0_hal_peripheral/Source/gd32f3x0_hal_adc.c ****     }
 373:../firmware/gd32f3x0_hal_peripheral/Source/gd32f3x0_hal_adc.c **** 
 374:../firmware/gd32f3x0_hal_peripheral/Source/gd32f3x0_hal_adc.c ****     if((HAL_ERR_NONE == _adc_disable(adc_dev)) &&
 608              		.loc 1 374 25
 609 001c 7868     		ldr	r0, [r7, #4]
 610 001e FFF7FEFF 		bl	_adc_disable
 611 0022 0346     		mov	r3, r0
 612              		.loc 1 374 7
 613 0024 002B     		cmp	r3, #0
 614 0026 67D1     		bne	.L36
 375:../firmware/gd32f3x0_hal_peripheral/Source/gd32f3x0_hal_adc.c ****             (RESET == ((hal_adc_error_get(adc_dev)) & HAL_ADC_ERROR_SYSTEM)) &&
 615              		.loc 1 375 25 discriminator 1
 616 0028 7868     		ldr	r0, [r7, #4]
 617 002a FFF7FEFF 		bl	hal_adc_error_get
 618 002e 0346     		mov	r3, r0
 619              		.loc 1 375 53 discriminator 1
 620 0030 03F00103 		and	r3, r3, #1
 374:../firmware/gd32f3x0_hal_peripheral/Source/gd32f3x0_hal_adc.c ****             (RESET == ((hal_adc_error_get(adc_dev)) & HAL_ADC_ERROR_SYSTEM)) &&
 621              		.loc 1 374 48 discriminator 1
 622 0034 002B     		cmp	r3, #0
 623 0036 5FD1     		bne	.L36
 376:../firmware/gd32f3x0_hal_peripheral/Source/gd32f3x0_hal_adc.c ****             (ENABLE == (p_rchannel->routine_sequence_conversions))) {
 624              		.loc 1 376 35
 625 0038 3B68     		ldr	r3, [r7]
 626 003a 1B78     		ldrb	r3, [r3]	@ zero_extendqisi2
 375:../firmware/gd32f3x0_hal_peripheral/Source/gd32f3x0_hal_adc.c ****             (RESET == ((hal_adc_error_get(adc_dev)) & HAL_ADC_ERROR_SYSTEM)) &&
 627              		.loc 1 375 78
 628 003c 012B     		cmp	r3, #1
 629 003e 5BD1     		bne	.L36
 377:../firmware/gd32f3x0_hal_peripheral/Source/gd32f3x0_hal_adc.c ****         /* set ADC state  */
 378:../firmware/gd32f3x0_hal_peripheral/Source/gd32f3x0_hal_adc.c ****         _adc_state_clear(adc_dev, HAL_ADC_STATE_ROUTINE_BUSY);
 630              		.loc 1 378 9
 631 0040 1021     		movs	r1, #16
 632 0042 7868     		ldr	r0, [r7, #4]
 633 0044 FFF7FEFF 		bl	_adc_state_clear
 379:../firmware/gd32f3x0_hal_peripheral/Source/gd32f3x0_hal_adc.c ****         _adc_state_clear(adc_dev, HAL_ADC_STATE_INSERTED_BUSY);
 634              		.loc 1 379 9
 635 0048 4FF48071 		mov	r1, #256
 636 004c 7868     		ldr	r0, [r7, #4]
 637 004e FFF7FEFF 		bl	_adc_state_clear
 380:../firmware/gd32f3x0_hal_peripheral/Source/gd32f3x0_hal_adc.c ****         _adc_state_set(adc_dev, HAL_ADC_STATE_BUSY_SYSTEM);
 638              		.loc 1 380 9
 639 0052 0221     		movs	r1, #2
 640 0054 7868     		ldr	r0, [r7, #4]
 641 0056 FFF7FEFF 		bl	_adc_state_set
 381:../firmware/gd32f3x0_hal_peripheral/Source/gd32f3x0_hal_adc.c ****         /* init ADC routine channel */
 382:../firmware/gd32f3x0_hal_peripheral/Source/gd32f3x0_hal_adc.c ****         /* 1.ADC channel length config */
 383:../firmware/gd32f3x0_hal_peripheral/Source/gd32f3x0_hal_adc.c ****         hals_adc_channel_length_config(ADC_ROUTINE_CHANNEL, p_rchannel->routine_sequence_length);
 642              		.loc 1 383 9
 643 005a 3B68     		ldr	r3, [r7]
 644 005c 5B68     		ldr	r3, [r3, #4]
 645 005e 1946     		mov	r1, r3
 646 0060 0120     		movs	r0, #1
 647 0062 FFF7FEFF 		bl	hals_adc_channel_length_config
 384:../firmware/gd32f3x0_hal_peripheral/Source/gd32f3x0_hal_adc.c ****         /* 2.ADC routine channel external trigger config */
 385:../firmware/gd32f3x0_hal_peripheral/Source/gd32f3x0_hal_adc.c ****         hals_adc_external_trigger_source_config(ADC_ROUTINE_CHANNEL,
 648              		.loc 1 385 9
 649 0066 3B68     		ldr	r3, [r7]
 650 0068 9B68     		ldr	r3, [r3, #8]
 651 006a 1946     		mov	r1, r3
 652 006c 0120     		movs	r0, #1
 653 006e FFF7FEFF 		bl	hals_adc_external_trigger_source_config
 386:../firmware/gd32f3x0_hal_peripheral/Source/gd32f3x0_hal_adc.c ****                                                 p_rchannel->routine_sequence_external_trigger_selec
 387:../firmware/gd32f3x0_hal_peripheral/Source/gd32f3x0_hal_adc.c **** 
 388:../firmware/gd32f3x0_hal_peripheral/Source/gd32f3x0_hal_adc.c ****         /* 3.ADC continuous mode config */
 389:../firmware/gd32f3x0_hal_peripheral/Source/gd32f3x0_hal_adc.c ****         hals_adc_special_function_config(ADC_CONTINUOUS_MODE, p_rchannel->continuous_mode);
 654              		.loc 1 389 9
 655 0072 3B68     		ldr	r3, [r7]
 656 0074 1B7B     		ldrb	r3, [r3, #12]	@ zero_extendqisi2
 657 0076 1946     		mov	r1, r3
 658 0078 0220     		movs	r0, #2
 659 007a FFF7FEFF 		bl	hals_adc_special_function_config
 390:../firmware/gd32f3x0_hal_peripheral/Source/gd32f3x0_hal_adc.c ****         /* 4.ADC discontinuous mode config */
 391:../firmware/gd32f3x0_hal_peripheral/Source/gd32f3x0_hal_adc.c ****         if(ENABLE == p_rchannel->discontinuous_mode) {
 660              		.loc 1 391 32
 661 007e 3B68     		ldr	r3, [r7]
 662 0080 5B7B     		ldrb	r3, [r3, #13]	@ zero_extendqisi2
 663              		.loc 1 391 11
 664 0082 012B     		cmp	r3, #1
 665 0084 2DD1     		bne	.L37
 392:../firmware/gd32f3x0_hal_peripheral/Source/gd32f3x0_hal_adc.c ****             if(DISABLE == p_rchannel->continuous_mode) {
 666              		.loc 1 392 37
 667 0086 3B68     		ldr	r3, [r7]
 668 0088 1B7B     		ldrb	r3, [r3, #12]	@ zero_extendqisi2
 669              		.loc 1 392 15
 670 008a 002B     		cmp	r3, #0
 671 008c 1AD1     		bne	.L38
 393:../firmware/gd32f3x0_hal_peripheral/Source/gd32f3x0_hal_adc.c ****                 reg_temp = ADC_CTL0;
 672              		.loc 1 393 28
 673 008e 1E4B     		ldr	r3, .L42
 674              		.loc 1 393 26
 675 0090 1B68     		ldr	r3, [r3]
 676 0092 FB60     		str	r3, [r7, #12]
 394:../firmware/gd32f3x0_hal_peripheral/Source/gd32f3x0_hal_adc.c ****                 /* clear DISRC bit and DISNUM bit */
 395:../firmware/gd32f3x0_hal_peripheral/Source/gd32f3x0_hal_adc.c ****                 reg_temp &= ~((uint32_t)ADC_CTL0_DISRC);
 677              		.loc 1 395 26
 678 0094 FB68     		ldr	r3, [r7, #12]
 679 0096 23F40063 		bic	r3, r3, #2048
 680 009a FB60     		str	r3, [r7, #12]
 396:../firmware/gd32f3x0_hal_peripheral/Source/gd32f3x0_hal_adc.c ****                 reg_temp &= ~((uint32_t)ADC_CTL0_DISNUM);
 681              		.loc 1 396 26
 682 009c FB68     		ldr	r3, [r7, #12]
 683 009e 23F46043 		bic	r3, r3, #57344
 684 00a2 FB60     		str	r3, [r7, #12]
 397:../firmware/gd32f3x0_hal_peripheral/Source/gd32f3x0_hal_adc.c ****                 reg_temp |= CTL0_DISNUM(((uint32_t)(p_rchannel->number_of_conversions_in_discontinu
 685              		.loc 1 397 29
 686 00a4 3B68     		ldr	r3, [r7]
 687 00a6 1B69     		ldr	r3, [r3, #16]
 688 00a8 013B     		subs	r3, r3, #1
 689 00aa 5B03     		lsls	r3, r3, #13
 690 00ac 9BB2     		uxth	r3, r3
 691              		.loc 1 397 26
 692 00ae FA68     		ldr	r2, [r7, #12]
 693 00b0 1343     		orrs	r3, r3, r2
 694 00b2 FB60     		str	r3, [r7, #12]
 398:../firmware/gd32f3x0_hal_peripheral/Source/gd32f3x0_hal_adc.c ****                 reg_temp |= (uint32_t)ADC_CTL0_DISRC;
 695              		.loc 1 398 26
 696 00b4 FB68     		ldr	r3, [r7, #12]
 697 00b6 43F40063 		orr	r3, r3, #2048
 698 00ba FB60     		str	r3, [r7, #12]
 399:../firmware/gd32f3x0_hal_peripheral/Source/gd32f3x0_hal_adc.c ****                 ADC_CTL0 = reg_temp;
 699              		.loc 1 399 17
 700 00bc 124A     		ldr	r2, .L42
 701              		.loc 1 399 26
 702 00be FB68     		ldr	r3, [r7, #12]
 703 00c0 1360     		str	r3, [r2]
 391:../firmware/gd32f3x0_hal_peripheral/Source/gd32f3x0_hal_adc.c ****             if(DISABLE == p_rchannel->continuous_mode) {
 704              		.loc 1 391 11
 705 00c2 1CE0     		b	.L40
 706              	.L38:
 400:../firmware/gd32f3x0_hal_peripheral/Source/gd32f3x0_hal_adc.c ****             } else {
 401:../firmware/gd32f3x0_hal_peripheral/Source/gd32f3x0_hal_adc.c ****                 ADC_CTL0 &= ~((uint32_t)ADC_CTL0_DISRC);
 707              		.loc 1 401 26
 708 00c4 104B     		ldr	r3, .L42
 709 00c6 1B68     		ldr	r3, [r3]
 710 00c8 0F4A     		ldr	r2, .L42
 711 00ca 23F40063 		bic	r3, r3, #2048
 712 00ce 1360     		str	r3, [r2]
 402:../firmware/gd32f3x0_hal_peripheral/Source/gd32f3x0_hal_adc.c ****                 _adc_error_set(adc_dev, HAL_ADC_ERROR_CONFIG);
 713              		.loc 1 402 17
 714 00d0 0421     		movs	r1, #4
 715 00d2 7868     		ldr	r0, [r7, #4]
 716 00d4 FFF7FEFF 		bl	_adc_error_set
 403:../firmware/gd32f3x0_hal_peripheral/Source/gd32f3x0_hal_adc.c ****                 _adc_error_set(adc_dev, HAL_ADC_ERROR_SYSTEM);
 717              		.loc 1 403 17
 718 00d8 0121     		movs	r1, #1
 719 00da 7868     		ldr	r0, [r7, #4]
 720 00dc FFF7FEFF 		bl	_adc_error_set
 391:../firmware/gd32f3x0_hal_peripheral/Source/gd32f3x0_hal_adc.c ****             if(DISABLE == p_rchannel->continuous_mode) {
 721              		.loc 1 391 11
 722 00e0 0DE0     		b	.L40
 723              	.L37:
 404:../firmware/gd32f3x0_hal_peripheral/Source/gd32f3x0_hal_adc.c ****             }
 405:../firmware/gd32f3x0_hal_peripheral/Source/gd32f3x0_hal_adc.c ****         } else {
 406:../firmware/gd32f3x0_hal_peripheral/Source/gd32f3x0_hal_adc.c ****             reg_temp = ADC_CTL0;
 724              		.loc 1 406 24
 725 00e2 094B     		ldr	r3, .L42
 726              		.loc 1 406 22
 727 00e4 1B68     		ldr	r3, [r3]
 728 00e6 FB60     		str	r3, [r7, #12]
 407:../firmware/gd32f3x0_hal_peripheral/Source/gd32f3x0_hal_adc.c ****             reg_temp &= ~(uint32_t)ADC_CTL0_DISRC;
 729              		.loc 1 407 22
 730 00e8 FB68     		ldr	r3, [r7, #12]
 731 00ea 23F40063 		bic	r3, r3, #2048
 732 00ee FB60     		str	r3, [r7, #12]
 408:../firmware/gd32f3x0_hal_peripheral/Source/gd32f3x0_hal_adc.c ****             ADC_CTL0 = reg_temp;
 733              		.loc 1 408 13
 734 00f0 054A     		ldr	r2, .L42
 735              		.loc 1 408 22
 736 00f2 FB68     		ldr	r3, [r7, #12]
 737 00f4 1360     		str	r3, [r2]
 391:../firmware/gd32f3x0_hal_peripheral/Source/gd32f3x0_hal_adc.c ****             if(DISABLE == p_rchannel->continuous_mode) {
 738              		.loc 1 391 11
 739 00f6 02E0     		b	.L40
 740              	.L36:
 409:../firmware/gd32f3x0_hal_peripheral/Source/gd32f3x0_hal_adc.c ****         }
 410:../firmware/gd32f3x0_hal_peripheral/Source/gd32f3x0_hal_adc.c ****     } else {
 411:../firmware/gd32f3x0_hal_peripheral/Source/gd32f3x0_hal_adc.c ****         return HAL_ERR_HARDWARE;
 741              		.loc 1 411 16
 742 00f8 6FF00703 		mvn	r3, #7
 743 00fc 00E0     		b	.L41
 744              	.L40:
 412:../firmware/gd32f3x0_hal_peripheral/Source/gd32f3x0_hal_adc.c ****     }
 413:../firmware/gd32f3x0_hal_peripheral/Source/gd32f3x0_hal_adc.c **** 
 414:../firmware/gd32f3x0_hal_peripheral/Source/gd32f3x0_hal_adc.c ****     return HAL_ERR_NONE;
 745              		.loc 1 414 12
 746 00fe 0023     		movs	r3, #0
 747              	.L41:
 415:../firmware/gd32f3x0_hal_peripheral/Source/gd32f3x0_hal_adc.c **** }
 748              		.loc 1 415 1
 749 0100 1846     		mov	r0, r3
 750 0102 1037     		adds	r7, r7, #16
 751              		.cfi_def_cfa_offset 8
 752 0104 BD46     		mov	sp, r7
 753              		.cfi_def_cfa_register 13
 754              		@ sp needed
 755 0106 80BD     		pop	{r7, pc}
 756              	.L43:
 757              		.align	2
 758              	.L42:
 759 0108 04240140 		.word	1073816580
 760              		.cfi_endproc
 761              	.LFE123:
 763              		.section	.text.hal_adc_routine_rank_config,"ax",%progbits
 764              		.align	1
 765              		.global	hal_adc_routine_rank_config
 766              		.syntax unified
 767              		.thumb
 768              		.thumb_func
 769              		.fpu softvfp
 771              	hal_adc_routine_rank_config:
 772              	.LFB124:
 416:../firmware/gd32f3x0_hal_peripheral/Source/gd32f3x0_hal_adc.c **** 
 417:../firmware/gd32f3x0_hal_peripheral/Source/gd32f3x0_hal_adc.c **** /*!
 418:../firmware/gd32f3x0_hal_peripheral/Source/gd32f3x0_hal_adc.c ****     \brief      configure ADC routine channel
 419:../firmware/gd32f3x0_hal_peripheral/Source/gd32f3x0_hal_adc.c ****     \param[in]  adc_dev: ADC device information structure
 420:../firmware/gd32f3x0_hal_peripheral/Source/gd32f3x0_hal_adc.c ****                   the structure is not necessary to be reconfigured after structrue initialization,
 421:../firmware/gd32f3x0_hal_peripheral/Source/gd32f3x0_hal_adc.c ****                   the structure parameters altering is automatically configured by core
 422:../firmware/gd32f3x0_hal_peripheral/Source/gd32f3x0_hal_adc.c ****     \param[in]  p_rrank: the pointer of ADC routine channel configuration structure
 423:../firmware/gd32f3x0_hal_peripheral/Source/gd32f3x0_hal_adc.c ****                   channel: ADC_CHANNEL_x(x=0..18)
 424:../firmware/gd32f3x0_hal_peripheral/Source/gd32f3x0_hal_adc.c ****                   routine_sequence:
 425:../firmware/gd32f3x0_hal_peripheral/Source/gd32f3x0_hal_adc.c ****                     the argument could be selected from enumeration <hal_adc_routine_sequence_enum>
 426:../firmware/gd32f3x0_hal_peripheral/Source/gd32f3x0_hal_adc.c ****                   sampling_time:
 427:../firmware/gd32f3x0_hal_peripheral/Source/gd32f3x0_hal_adc.c ****         \arg        ADC_SAMPLETIME_1POINT5: 1.5 cycles
 428:../firmware/gd32f3x0_hal_peripheral/Source/gd32f3x0_hal_adc.c ****         \arg        ADC_SAMPLETIME_7POINT5: 7.5 cycles
 429:../firmware/gd32f3x0_hal_peripheral/Source/gd32f3x0_hal_adc.c ****         \arg        ADC_SAMPLETIME_13POINT5: 13.5 cycles
 430:../firmware/gd32f3x0_hal_peripheral/Source/gd32f3x0_hal_adc.c ****         \arg        ADC_SAMPLETIME_28POINT5: 28.5 cycles
 431:../firmware/gd32f3x0_hal_peripheral/Source/gd32f3x0_hal_adc.c ****         \arg        ADC_SAMPLETIME_41POINT5: 41.5 cycles
 432:../firmware/gd32f3x0_hal_peripheral/Source/gd32f3x0_hal_adc.c ****         \arg        ADC_SAMPLETIME_55POINT5: 55.5 cycles
 433:../firmware/gd32f3x0_hal_peripheral/Source/gd32f3x0_hal_adc.c ****         \arg        ADC_SAMPLETIME_71POINT5: 71.5 cycles
 434:../firmware/gd32f3x0_hal_peripheral/Source/gd32f3x0_hal_adc.c ****         \arg        ADC_SAMPLETIME_239POINT5: 239.5 cycles
 435:../firmware/gd32f3x0_hal_peripheral/Source/gd32f3x0_hal_adc.c ****     \param[out] none
 436:../firmware/gd32f3x0_hal_peripheral/Source/gd32f3x0_hal_adc.c ****     \retval     HAL_ERR_NONE, HAL_ERR_ADDRESS, details refer to gd32f3x0_hal.h
 437:../firmware/gd32f3x0_hal_peripheral/Source/gd32f3x0_hal_adc.c **** */
 438:../firmware/gd32f3x0_hal_peripheral/Source/gd32f3x0_hal_adc.c **** int32_t hal_adc_routine_rank_config(hal_adc_dev_struct *adc_dev, hal_adc_routine_rank_config_struct
 439:../firmware/gd32f3x0_hal_peripheral/Source/gd32f3x0_hal_adc.c **** {
 773              		.loc 1 439 1
 774              		.cfi_startproc
 775              		@ args = 0, pretend = 0, frame = 16
 776              		@ frame_needed = 1, uses_anonymous_args = 0
 777 0000 80B5     		push	{r7, lr}
 778              		.cfi_def_cfa_offset 8
 779              		.cfi_offset 7, -8
 780              		.cfi_offset 14, -4
 781 0002 84B0     		sub	sp, sp, #16
 782              		.cfi_def_cfa_offset 24
 783 0004 00AF     		add	r7, sp, #0
 784              		.cfi_def_cfa_register 7
 785 0006 7860     		str	r0, [r7, #4]
 786 0008 3960     		str	r1, [r7]
 440:../firmware/gd32f3x0_hal_peripheral/Source/gd32f3x0_hal_adc.c ****     __IO uint32_t wait_loop = 0;
 787              		.loc 1 440 19
 788 000a 0023     		movs	r3, #0
 789 000c FB60     		str	r3, [r7, #12]
 441:../firmware/gd32f3x0_hal_peripheral/Source/gd32f3x0_hal_adc.c **** 
 442:../firmware/gd32f3x0_hal_peripheral/Source/gd32f3x0_hal_adc.c **** #if (1 == HAL_PARAMETER_CHECK)
 443:../firmware/gd32f3x0_hal_peripheral/Source/gd32f3x0_hal_adc.c ****     /* check the parameters */
 444:../firmware/gd32f3x0_hal_peripheral/Source/gd32f3x0_hal_adc.c ****     if((NULL == adc_dev) || (NULL == p_rrank)) {
 445:../firmware/gd32f3x0_hal_peripheral/Source/gd32f3x0_hal_adc.c ****         HAL_DEBUGE("pointer [adc_dev] or [p_rchannel] address is invalid");
 446:../firmware/gd32f3x0_hal_peripheral/Source/gd32f3x0_hal_adc.c ****         return HAL_ERR_ADDRESS;
 447:../firmware/gd32f3x0_hal_peripheral/Source/gd32f3x0_hal_adc.c ****     }
 448:../firmware/gd32f3x0_hal_peripheral/Source/gd32f3x0_hal_adc.c **** #endif /* 1 = HAL_PARAMETER_CHECK */
 449:../firmware/gd32f3x0_hal_peripheral/Source/gd32f3x0_hal_adc.c **** 
 450:../firmware/gd32f3x0_hal_peripheral/Source/gd32f3x0_hal_adc.c ****     /* configure ADC routine channel */
 451:../firmware/gd32f3x0_hal_peripheral/Source/gd32f3x0_hal_adc.c ****     hals_adc_routine_channel_config(p_rrank->routine_sequence, p_rrank->channel,
 790              		.loc 1 451 44
 791 000e 3B68     		ldr	r3, [r7]
 792 0010 187A     		ldrb	r0, [r3, #8]	@ zero_extendqisi2
 793              		.loc 1 451 71
 794 0012 3B68     		ldr	r3, [r7]
 795 0014 1B68     		ldr	r3, [r3]
 796              		.loc 1 451 5
 797 0016 D9B2     		uxtb	r1, r3
 798 0018 3B68     		ldr	r3, [r7]
 799 001a 5B68     		ldr	r3, [r3, #4]
 800 001c 1A46     		mov	r2, r3
 801 001e FFF7FEFF 		bl	hals_adc_routine_channel_config
 452:../firmware/gd32f3x0_hal_peripheral/Source/gd32f3x0_hal_adc.c ****                                     p_rrank->sampling_time);
 453:../firmware/gd32f3x0_hal_peripheral/Source/gd32f3x0_hal_adc.c **** 
 454:../firmware/gd32f3x0_hal_peripheral/Source/gd32f3x0_hal_adc.c ****     /* enable temperature sensor and VREFINT measurement */
 455:../firmware/gd32f3x0_hal_peripheral/Source/gd32f3x0_hal_adc.c ****     if((ADC_CHANNEL_TEMPSENSOR == p_rrank->channel) ||
 802              		.loc 1 455 42
 803 0022 3B68     		ldr	r3, [r7]
 804 0024 1B68     		ldr	r3, [r3]
 805              		.loc 1 455 7
 806 0026 102B     		cmp	r3, #16
 807 0028 03D0     		beq	.L45
 456:../firmware/gd32f3x0_hal_peripheral/Source/gd32f3x0_hal_adc.c ****             (ADC_CHANNEL_VREFINT == p_rrank->channel)) {
 808              		.loc 1 456 44 discriminator 1
 809 002a 3B68     		ldr	r3, [r7]
 810 002c 1B68     		ldr	r3, [r3]
 455:../firmware/gd32f3x0_hal_peripheral/Source/gd32f3x0_hal_adc.c ****             (ADC_CHANNEL_VREFINT == p_rrank->channel)) {
 811              		.loc 1 455 53 discriminator 1
 812 002e 112B     		cmp	r3, #17
 813 0030 24D1     		bne	.L46
 814              	.L45:
 457:../firmware/gd32f3x0_hal_peripheral/Source/gd32f3x0_hal_adc.c ****         if(RESET == __HAL_ADC_GET_TEMPVREF_ENABLE) {
 815              		.loc 1 457 21
 816 0032 1D4B     		ldr	r3, .L51
 817 0034 1B68     		ldr	r3, [r3]
 818 0036 03F40003 		and	r3, r3, #8388608
 819              		.loc 1 457 11
 820 003a 002B     		cmp	r3, #0
 821 003c 1ED1     		bne	.L46
 458:../firmware/gd32f3x0_hal_peripheral/Source/gd32f3x0_hal_adc.c ****             /* enable the temperature sensor and Vrefint channel */
 459:../firmware/gd32f3x0_hal_peripheral/Source/gd32f3x0_hal_adc.c ****             ADC_CTL1 |= ADC_CTL1_TSVREN;
 822              		.loc 1 459 22
 823 003e 1A4B     		ldr	r3, .L51
 824 0040 1B68     		ldr	r3, [r3]
 825 0042 194A     		ldr	r2, .L51
 826 0044 43F40003 		orr	r3, r3, #8388608
 827 0048 1360     		str	r3, [r2]
 460:../firmware/gd32f3x0_hal_peripheral/Source/gd32f3x0_hal_adc.c ****             if(ADC_CHANNEL_TEMPSENSOR == p_rrank->channel) {
 828              		.loc 1 460 49
 829 004a 3B68     		ldr	r3, [r7]
 830 004c 1B68     		ldr	r3, [r3]
 831              		.loc 1 460 15
 832 004e 102B     		cmp	r3, #16
 833 0050 14D1     		bne	.L46
 461:../firmware/gd32f3x0_hal_peripheral/Source/gd32f3x0_hal_adc.c ****                 /* compute number of CPU cycles to wait for */
 462:../firmware/gd32f3x0_hal_peripheral/Source/gd32f3x0_hal_adc.c ****                 wait_loop = (ADC_TEMPSENSOR_DELAYTIME * (g_systemcoreclock / 1000000));
 834              		.loc 1 462 76
 835 0052 164B     		ldr	r3, .L51+4
 836 0054 1B68     		ldr	r3, [r3]
 837 0056 164A     		ldr	r2, .L51+8
 838 0058 82FB0312 		smull	r1, r2, r2, r3
 839 005c 9214     		asrs	r2, r2, #18
 840 005e DB17     		asrs	r3, r3, #31
 841 0060 D31A     		subs	r3, r2, r3
 842 0062 1A46     		mov	r2, r3
 843              		.loc 1 462 55
 844 0064 1346     		mov	r3, r2
 845 0066 9B00     		lsls	r3, r3, #2
 846 0068 1344     		add	r3, r3, r2
 847 006a 5B00     		lsls	r3, r3, #1
 848              		.loc 1 462 27
 849 006c FB60     		str	r3, [r7, #12]
 463:../firmware/gd32f3x0_hal_peripheral/Source/gd32f3x0_hal_adc.c ****                 /* delay for temperature sensor stabilization time */
 464:../firmware/gd32f3x0_hal_peripheral/Source/gd32f3x0_hal_adc.c ****                 while(wait_loop != 0) {
 850              		.loc 1 464 22
 851 006e 02E0     		b	.L47
 852              	.L48:
 465:../firmware/gd32f3x0_hal_peripheral/Source/gd32f3x0_hal_adc.c ****                     wait_loop--;
 853              		.loc 1 465 30
 854 0070 FB68     		ldr	r3, [r7, #12]
 855 0072 013B     		subs	r3, r3, #1
 856 0074 FB60     		str	r3, [r7, #12]
 857              	.L47:
 464:../firmware/gd32f3x0_hal_peripheral/Source/gd32f3x0_hal_adc.c ****                     wait_loop--;
 858              		.loc 1 464 33
 859 0076 FB68     		ldr	r3, [r7, #12]
 464:../firmware/gd32f3x0_hal_peripheral/Source/gd32f3x0_hal_adc.c ****                     wait_loop--;
 860              		.loc 1 464 22
 861 0078 002B     		cmp	r3, #0
 862 007a F9D1     		bne	.L48
 863              	.L46:
 466:../firmware/gd32f3x0_hal_peripheral/Source/gd32f3x0_hal_adc.c ****                 }
 467:../firmware/gd32f3x0_hal_peripheral/Source/gd32f3x0_hal_adc.c ****             }
 468:../firmware/gd32f3x0_hal_peripheral/Source/gd32f3x0_hal_adc.c ****         }
 469:../firmware/gd32f3x0_hal_peripheral/Source/gd32f3x0_hal_adc.c ****     }
 470:../firmware/gd32f3x0_hal_peripheral/Source/gd32f3x0_hal_adc.c ****     /* enable backup battery voltage measurement */
 471:../firmware/gd32f3x0_hal_peripheral/Source/gd32f3x0_hal_adc.c ****     if(ADC_CHANNEL_BATTERY == p_rrank->channel) {
 864              		.loc 1 471 38
 865 007c 3B68     		ldr	r3, [r7]
 866 007e 1B68     		ldr	r3, [r3]
 867              		.loc 1 471 7
 868 0080 122B     		cmp	r3, #18
 869 0082 0BD1     		bne	.L49
 472:../firmware/gd32f3x0_hal_peripheral/Source/gd32f3x0_hal_adc.c ****         if(RESET == __HAL_ADC_GET_BATTERY_ENABLE) {
 870              		.loc 1 472 21
 871 0084 084B     		ldr	r3, .L51
 872 0086 1B68     		ldr	r3, [r3]
 873 0088 03F08073 		and	r3, r3, #16777216
 874              		.loc 1 472 11
 875 008c 002B     		cmp	r3, #0
 876 008e 05D1     		bne	.L49
 473:../firmware/gd32f3x0_hal_peripheral/Source/gd32f3x0_hal_adc.c ****             /* enable the temperature sensor and Vrefint channel */
 474:../firmware/gd32f3x0_hal_peripheral/Source/gd32f3x0_hal_adc.c ****             ADC_CTL1 |= ADC_CTL1_VBETEN;
 877              		.loc 1 474 22
 878 0090 054B     		ldr	r3, .L51
 879 0092 1B68     		ldr	r3, [r3]
 880 0094 044A     		ldr	r2, .L51
 881 0096 43F08073 		orr	r3, r3, #16777216
 882 009a 1360     		str	r3, [r2]
 883              	.L49:
 475:../firmware/gd32f3x0_hal_peripheral/Source/gd32f3x0_hal_adc.c ****         }
 476:../firmware/gd32f3x0_hal_peripheral/Source/gd32f3x0_hal_adc.c ****     }
 477:../firmware/gd32f3x0_hal_peripheral/Source/gd32f3x0_hal_adc.c ****     return HAL_ERR_NONE;
 884              		.loc 1 477 12
 885 009c 0023     		movs	r3, #0
 478:../firmware/gd32f3x0_hal_peripheral/Source/gd32f3x0_hal_adc.c **** }
 886              		.loc 1 478 1
 887 009e 1846     		mov	r0, r3
 888 00a0 1037     		adds	r7, r7, #16
 889              		.cfi_def_cfa_offset 8
 890 00a2 BD46     		mov	sp, r7
 891              		.cfi_def_cfa_register 13
 892              		@ sp needed
 893 00a4 80BD     		pop	{r7, pc}
 894              	.L52:
 895 00a6 00BF     		.align	2
 896              	.L51:
 897 00a8 08240140 		.word	1073816584
 898 00ac 00000000 		.word	g_systemcoreclock
 899 00b0 83DE1B43 		.word	1125899907
 900              		.cfi_endproc
 901              	.LFE124:
 903              		.section	.text.hal_adc_start,"ax",%progbits
 904              		.align	1
 905              		.global	hal_adc_start
 906              		.syntax unified
 907              		.thumb
 908              		.thumb_func
 909              		.fpu softvfp
 911              	hal_adc_start:
 912              	.LFB125:
 479:../firmware/gd32f3x0_hal_peripheral/Source/gd32f3x0_hal_adc.c **** 
 480:../firmware/gd32f3x0_hal_peripheral/Source/gd32f3x0_hal_adc.c **** /*!
 481:../firmware/gd32f3x0_hal_peripheral/Source/gd32f3x0_hal_adc.c ****     \brief      enable ADC and start the conversion of routine sequence
 482:../firmware/gd32f3x0_hal_peripheral/Source/gd32f3x0_hal_adc.c ****     \param[in]  adc_dev: ADC device information structure
 483:../firmware/gd32f3x0_hal_peripheral/Source/gd32f3x0_hal_adc.c ****                   the structure is not necessary to be reconfigured after structrue initialization,
 484:../firmware/gd32f3x0_hal_peripheral/Source/gd32f3x0_hal_adc.c ****                   the structure parameters altering is automatically configured by core
 485:../firmware/gd32f3x0_hal_peripheral/Source/gd32f3x0_hal_adc.c ****     \param[out] none
 486:../firmware/gd32f3x0_hal_peripheral/Source/gd32f3x0_hal_adc.c ****     \retval     HAL_ERR_NONE, HAL_ERR_ADDRESS, HAL_ERR_HARDWARE, details refer to gd32f3x0_hal.h
 487:../firmware/gd32f3x0_hal_peripheral/Source/gd32f3x0_hal_adc.c **** */
 488:../firmware/gd32f3x0_hal_peripheral/Source/gd32f3x0_hal_adc.c **** int32_t hal_adc_start(hal_adc_dev_struct *adc_dev)
 489:../firmware/gd32f3x0_hal_peripheral/Source/gd32f3x0_hal_adc.c **** {
 913              		.loc 1 489 1
 914              		.cfi_startproc
 915              		@ args = 0, pretend = 0, frame = 8
 916              		@ frame_needed = 1, uses_anonymous_args = 0
 917 0000 80B5     		push	{r7, lr}
 918              		.cfi_def_cfa_offset 8
 919              		.cfi_offset 7, -8
 920              		.cfi_offset 14, -4
 921 0002 82B0     		sub	sp, sp, #8
 922              		.cfi_def_cfa_offset 16
 923 0004 00AF     		add	r7, sp, #0
 924              		.cfi_def_cfa_register 7
 925 0006 7860     		str	r0, [r7, #4]
 490:../firmware/gd32f3x0_hal_peripheral/Source/gd32f3x0_hal_adc.c **** #if (1 == HAL_PARAMETER_CHECK)
 491:../firmware/gd32f3x0_hal_peripheral/Source/gd32f3x0_hal_adc.c ****     /* check the parameters */
 492:../firmware/gd32f3x0_hal_peripheral/Source/gd32f3x0_hal_adc.c ****     if(NULL == adc_dev) {
 493:../firmware/gd32f3x0_hal_peripheral/Source/gd32f3x0_hal_adc.c ****         HAL_DEBUGE("pointer [adc_dev] address is invalid");
 494:../firmware/gd32f3x0_hal_peripheral/Source/gd32f3x0_hal_adc.c ****         return HAL_ERR_ADDRESS;
 495:../firmware/gd32f3x0_hal_peripheral/Source/gd32f3x0_hal_adc.c ****     }
 496:../firmware/gd32f3x0_hal_peripheral/Source/gd32f3x0_hal_adc.c **** #endif /* 1 = HAL_PARAMETER_CHECK */
 497:../firmware/gd32f3x0_hal_peripheral/Source/gd32f3x0_hal_adc.c **** 
 498:../firmware/gd32f3x0_hal_peripheral/Source/gd32f3x0_hal_adc.c ****     /* if ADC is enabled */
 499:../firmware/gd32f3x0_hal_peripheral/Source/gd32f3x0_hal_adc.c ****     if(HAL_ERR_NONE == _adc_enable(adc_dev)) {
 926              		.loc 1 499 24
 927 0008 7868     		ldr	r0, [r7, #4]
 928 000a FFF7FEFF 		bl	_adc_enable
 929 000e 0346     		mov	r3, r0
 930              		.loc 1 499 7
 931 0010 002B     		cmp	r3, #0
 932 0012 42D1     		bne	.L54
 500:../firmware/gd32f3x0_hal_peripheral/Source/gd32f3x0_hal_adc.c ****         _adc_state_clear(adc_dev, HAL_ADC_STATE_READY);
 933              		.loc 1 500 9
 934 0014 0121     		movs	r1, #1
 935 0016 7868     		ldr	r0, [r7, #4]
 936 0018 FFF7FEFF 		bl	_adc_state_clear
 501:../firmware/gd32f3x0_hal_peripheral/Source/gd32f3x0_hal_adc.c ****         _adc_state_clear(adc_dev, HAL_ADC_STATE_ROUTINE_EOC);
 937              		.loc 1 501 9
 938 001c 2021     		movs	r1, #32
 939 001e 7868     		ldr	r0, [r7, #4]
 940 0020 FFF7FEFF 		bl	_adc_state_clear
 502:../firmware/gd32f3x0_hal_peripheral/Source/gd32f3x0_hal_adc.c ****         _adc_state_set(adc_dev, HAL_ADC_STATE_ROUTINE_BUSY);
 941              		.loc 1 502 9
 942 0024 1021     		movs	r1, #16
 943 0026 7868     		ldr	r0, [r7, #4]
 944 0028 FFF7FEFF 		bl	_adc_state_set
 503:../firmware/gd32f3x0_hal_peripheral/Source/gd32f3x0_hal_adc.c **** 
 504:../firmware/gd32f3x0_hal_peripheral/Source/gd32f3x0_hal_adc.c ****         /* if ADC configured in automatic inserted mode */
 505:../firmware/gd32f3x0_hal_peripheral/Source/gd32f3x0_hal_adc.c ****         if(SET == __HAL_ADC_GET_INSERTEDCH_AUTOCONV) {
 945              		.loc 1 505 19
 946 002c 1F4B     		ldr	r3, .L61
 947 002e 1B68     		ldr	r3, [r3]
 948 0030 03F48063 		and	r3, r3, #1024
 949              		.loc 1 505 11
 950 0034 012B     		cmp	r3, #1
 951 0036 09D1     		bne	.L55
 506:../firmware/gd32f3x0_hal_peripheral/Source/gd32f3x0_hal_adc.c ****             _adc_state_clear(adc_dev, HAL_ADC_STATE_INSERTED_EOC);
 952              		.loc 1 506 13
 953 0038 4FF40071 		mov	r1, #512
 954 003c 7868     		ldr	r0, [r7, #4]
 955 003e FFF7FEFF 		bl	_adc_state_clear
 507:../firmware/gd32f3x0_hal_peripheral/Source/gd32f3x0_hal_adc.c ****             _adc_state_set(adc_dev, HAL_ADC_STATE_INSERTED_BUSY);
 956              		.loc 1 507 13
 957 0042 4FF48071 		mov	r1, #256
 958 0046 7868     		ldr	r0, [r7, #4]
 959 0048 FFF7FEFF 		bl	_adc_state_set
 960              	.L55:
 508:../firmware/gd32f3x0_hal_peripheral/Source/gd32f3x0_hal_adc.c ****         }
 509:../firmware/gd32f3x0_hal_peripheral/Source/gd32f3x0_hal_adc.c **** 
 510:../firmware/gd32f3x0_hal_peripheral/Source/gd32f3x0_hal_adc.c ****         if(SET == ((hal_adc_state_get(adc_dev)) & HAL_ADC_STATE_INSERTED_BUSY)) {
 961              		.loc 1 510 21
 962 004c 7868     		ldr	r0, [r7, #4]
 963 004e FFF7FEFF 		bl	hal_adc_state_get
 964 0052 0346     		mov	r3, r0
 965              		.loc 1 510 49
 966 0054 03F48073 		and	r3, r3, #256
 967              		.loc 1 510 11
 968 0058 012B     		cmp	r3, #1
 969 005a 04D1     		bne	.L56
 511:../firmware/gd32f3x0_hal_peripheral/Source/gd32f3x0_hal_adc.c ****             _adc_error_clear(adc_dev, HAL_ADC_ERROR_DMA);
 970              		.loc 1 511 13
 971 005c 0221     		movs	r1, #2
 972 005e 7868     		ldr	r0, [r7, #4]
 973 0060 FFF7FEFF 		bl	_adc_error_clear
 974 0064 02E0     		b	.L57
 975              	.L56:
 512:../firmware/gd32f3x0_hal_peripheral/Source/gd32f3x0_hal_adc.c ****         } else {
 513:../firmware/gd32f3x0_hal_peripheral/Source/gd32f3x0_hal_adc.c ****             adc_dev->error_state = HAL_ADC_ERROR_NONE;
 976              		.loc 1 513 34
 977 0066 7B68     		ldr	r3, [r7, #4]
 978 0068 0022     		movs	r2, #0
 979 006a 1A77     		strb	r2, [r3, #28]
 980              	.L57:
 514:../firmware/gd32f3x0_hal_peripheral/Source/gd32f3x0_hal_adc.c ****         }
 515:../firmware/gd32f3x0_hal_peripheral/Source/gd32f3x0_hal_adc.c **** 
 516:../firmware/gd32f3x0_hal_peripheral/Source/gd32f3x0_hal_adc.c ****         /* clear ADC flag */
 517:../firmware/gd32f3x0_hal_peripheral/Source/gd32f3x0_hal_adc.c ****         hals_adc_flag_clear(ADC_FLAG_EOC);
 981              		.loc 1 517 9
 982 006c 0220     		movs	r0, #2
 983 006e FFF7FEFF 		bl	hals_adc_flag_clear
 518:../firmware/gd32f3x0_hal_peripheral/Source/gd32f3x0_hal_adc.c **** 
 519:../firmware/gd32f3x0_hal_peripheral/Source/gd32f3x0_hal_adc.c ****         /* enable conversion of routine sequence */
 520:../firmware/gd32f3x0_hal_peripheral/Source/gd32f3x0_hal_adc.c ****         if(ADC_EXTTRIG_ROUTINE_NONE == __HAL_ADC_GET_ROUTINECH_EXTTRIGGER) {
 984              		.loc 1 520 40
 985 0072 0F4B     		ldr	r3, .L61+4
 986 0074 1B68     		ldr	r3, [r3]
 987 0076 03F46023 		and	r3, r3, #917504
 988              		.loc 1 520 11
 989 007a B3F5602F 		cmp	r3, #917504
 990 007e 07D1     		bne	.L58
 521:../firmware/gd32f3x0_hal_peripheral/Source/gd32f3x0_hal_adc.c ****             /* enable software trigger */
 522:../firmware/gd32f3x0_hal_peripheral/Source/gd32f3x0_hal_adc.c ****             hals_adc_external_trigger_config(ADC_ROUTINE_CHANNEL, ENABLE);
 991              		.loc 1 522 13
 992 0080 0121     		movs	r1, #1
 993 0082 0120     		movs	r0, #1
 994 0084 FFF7FEFF 		bl	hals_adc_external_trigger_config
 523:../firmware/gd32f3x0_hal_peripheral/Source/gd32f3x0_hal_adc.c ****             hals_adc_software_trigger_enable(ADC_ROUTINE_CHANNEL);
 995              		.loc 1 523 13
 996 0088 0120     		movs	r0, #1
 997 008a FFF7FEFF 		bl	hals_adc_software_trigger_enable
 998 008e 07E0     		b	.L59
 999              	.L58:
 524:../firmware/gd32f3x0_hal_peripheral/Source/gd32f3x0_hal_adc.c ****         } else {
 525:../firmware/gd32f3x0_hal_peripheral/Source/gd32f3x0_hal_adc.c ****             /* enable external trigger */
 526:../firmware/gd32f3x0_hal_peripheral/Source/gd32f3x0_hal_adc.c ****             hals_adc_external_trigger_config(ADC_ROUTINE_CHANNEL, ENABLE);
 1000              		.loc 1 526 13
 1001 0090 0121     		movs	r1, #1
 1002 0092 0120     		movs	r0, #1
 1003 0094 FFF7FEFF 		bl	hals_adc_external_trigger_config
 1004 0098 02E0     		b	.L59
 1005              	.L54:
 527:../firmware/gd32f3x0_hal_peripheral/Source/gd32f3x0_hal_adc.c ****         }
 528:../firmware/gd32f3x0_hal_peripheral/Source/gd32f3x0_hal_adc.c ****     } else {
 529:../firmware/gd32f3x0_hal_peripheral/Source/gd32f3x0_hal_adc.c ****         return HAL_ERR_HARDWARE;
 1006              		.loc 1 529 16
 1007 009a 6FF00703 		mvn	r3, #7
 1008 009e 00E0     		b	.L60
 1009              	.L59:
 530:../firmware/gd32f3x0_hal_peripheral/Source/gd32f3x0_hal_adc.c ****     }
 531:../firmware/gd32f3x0_hal_peripheral/Source/gd32f3x0_hal_adc.c **** 
 532:../firmware/gd32f3x0_hal_peripheral/Source/gd32f3x0_hal_adc.c ****     return HAL_ERR_NONE;
 1010              		.loc 1 532 12
 1011 00a0 0023     		movs	r3, #0
 1012              	.L60:
 533:../firmware/gd32f3x0_hal_peripheral/Source/gd32f3x0_hal_adc.c **** }
 1013              		.loc 1 533 1
 1014 00a2 1846     		mov	r0, r3
 1015 00a4 0837     		adds	r7, r7, #8
 1016              		.cfi_def_cfa_offset 8
 1017 00a6 BD46     		mov	sp, r7
 1018              		.cfi_def_cfa_register 13
 1019              		@ sp needed
 1020 00a8 80BD     		pop	{r7, pc}
 1021              	.L62:
 1022 00aa 00BF     		.align	2
 1023              	.L61:
 1024 00ac 04240140 		.word	1073816580
 1025 00b0 08240140 		.word	1073816584
 1026              		.cfi_endproc
 1027              	.LFE125:
 1029              		.section	.text.hal_adc_stop,"ax",%progbits
 1030              		.align	1
 1031              		.global	hal_adc_stop
 1032              		.syntax unified
 1033              		.thumb
 1034              		.thumb_func
 1035              		.fpu softvfp
 1037              	hal_adc_stop:
 1038              	.LFB126:
 534:../firmware/gd32f3x0_hal_peripheral/Source/gd32f3x0_hal_adc.c **** 
 535:../firmware/gd32f3x0_hal_peripheral/Source/gd32f3x0_hal_adc.c **** /*!
 536:../firmware/gd32f3x0_hal_peripheral/Source/gd32f3x0_hal_adc.c ****     \brief      stop the conversion of routine sequence and disable ADC
 537:../firmware/gd32f3x0_hal_peripheral/Source/gd32f3x0_hal_adc.c ****     \param[in]  adc_dev: ADC device information structure
 538:../firmware/gd32f3x0_hal_peripheral/Source/gd32f3x0_hal_adc.c ****                   the structure is not necessary to be reconfigured after structrue initialization,
 539:../firmware/gd32f3x0_hal_peripheral/Source/gd32f3x0_hal_adc.c ****                   the structure parameters altering is automatically configured by core
 540:../firmware/gd32f3x0_hal_peripheral/Source/gd32f3x0_hal_adc.c ****     \param[out] none
 541:../firmware/gd32f3x0_hal_peripheral/Source/gd32f3x0_hal_adc.c ****     \retval     HAL_ERR_NONE, HAL_ERR_ADDRESS, HAL_ERR_HARDWARE, details refer to gd32f3x0_hal.h
 542:../firmware/gd32f3x0_hal_peripheral/Source/gd32f3x0_hal_adc.c **** */
 543:../firmware/gd32f3x0_hal_peripheral/Source/gd32f3x0_hal_adc.c **** int32_t hal_adc_stop(hal_adc_dev_struct *adc_dev)
 544:../firmware/gd32f3x0_hal_peripheral/Source/gd32f3x0_hal_adc.c **** {
 1039              		.loc 1 544 1
 1040              		.cfi_startproc
 1041              		@ args = 0, pretend = 0, frame = 8
 1042              		@ frame_needed = 1, uses_anonymous_args = 0
 1043 0000 80B5     		push	{r7, lr}
 1044              		.cfi_def_cfa_offset 8
 1045              		.cfi_offset 7, -8
 1046              		.cfi_offset 14, -4
 1047 0002 82B0     		sub	sp, sp, #8
 1048              		.cfi_def_cfa_offset 16
 1049 0004 00AF     		add	r7, sp, #0
 1050              		.cfi_def_cfa_register 7
 1051 0006 7860     		str	r0, [r7, #4]
 545:../firmware/gd32f3x0_hal_peripheral/Source/gd32f3x0_hal_adc.c **** #if (1 == HAL_PARAMETER_CHECK)
 546:../firmware/gd32f3x0_hal_peripheral/Source/gd32f3x0_hal_adc.c ****     /* check the parameters */
 547:../firmware/gd32f3x0_hal_peripheral/Source/gd32f3x0_hal_adc.c ****     if(NULL == adc_dev) {
 548:../firmware/gd32f3x0_hal_peripheral/Source/gd32f3x0_hal_adc.c ****         HAL_DEBUGE("pointer [adc_dev] address is invalid");
 549:../firmware/gd32f3x0_hal_peripheral/Source/gd32f3x0_hal_adc.c ****         return HAL_ERR_ADDRESS;
 550:../firmware/gd32f3x0_hal_peripheral/Source/gd32f3x0_hal_adc.c ****     }
 551:../firmware/gd32f3x0_hal_peripheral/Source/gd32f3x0_hal_adc.c **** #endif /* 1 = HAL_PARAMETER_CHECK */
 552:../firmware/gd32f3x0_hal_peripheral/Source/gd32f3x0_hal_adc.c **** 
 553:../firmware/gd32f3x0_hal_peripheral/Source/gd32f3x0_hal_adc.c ****     /* if ADC is disabled */
 554:../firmware/gd32f3x0_hal_peripheral/Source/gd32f3x0_hal_adc.c ****     if(HAL_ERR_NONE == _adc_disable(adc_dev)) {
 1052              		.loc 1 554 24
 1053 0008 7868     		ldr	r0, [r7, #4]
 1054 000a FFF7FEFF 		bl	_adc_disable
 1055 000e 0346     		mov	r3, r0
 1056              		.loc 1 554 7
 1057 0010 002B     		cmp	r3, #0
 1058 0012 0ED1     		bne	.L64
 555:../firmware/gd32f3x0_hal_peripheral/Source/gd32f3x0_hal_adc.c ****         _adc_state_clear(adc_dev, HAL_ADC_STATE_ROUTINE_BUSY);
 1059              		.loc 1 555 9
 1060 0014 1021     		movs	r1, #16
 1061 0016 7868     		ldr	r0, [r7, #4]
 1062 0018 FFF7FEFF 		bl	_adc_state_clear
 556:../firmware/gd32f3x0_hal_peripheral/Source/gd32f3x0_hal_adc.c ****         _adc_state_clear(adc_dev, HAL_ADC_STATE_INSERTED_BUSY);
 1063              		.loc 1 556 9
 1064 001c 4FF48071 		mov	r1, #256
 1065 0020 7868     		ldr	r0, [r7, #4]
 1066 0022 FFF7FEFF 		bl	_adc_state_clear
 557:../firmware/gd32f3x0_hal_peripheral/Source/gd32f3x0_hal_adc.c ****         _adc_state_set(adc_dev, HAL_ADC_STATE_READY);
 1067              		.loc 1 557 9
 1068 0026 0121     		movs	r1, #1
 1069 0028 7868     		ldr	r0, [r7, #4]
 1070 002a FFF7FEFF 		bl	_adc_state_set
 558:../firmware/gd32f3x0_hal_peripheral/Source/gd32f3x0_hal_adc.c ****     } else {
 559:../firmware/gd32f3x0_hal_peripheral/Source/gd32f3x0_hal_adc.c ****         return HAL_ERR_HARDWARE;
 560:../firmware/gd32f3x0_hal_peripheral/Source/gd32f3x0_hal_adc.c ****     }
 561:../firmware/gd32f3x0_hal_peripheral/Source/gd32f3x0_hal_adc.c **** 
 562:../firmware/gd32f3x0_hal_peripheral/Source/gd32f3x0_hal_adc.c ****     return HAL_ERR_NONE;
 1071              		.loc 1 562 12
 1072 002e 0023     		movs	r3, #0
 1073 0030 01E0     		b	.L66
 1074              	.L64:
 559:../firmware/gd32f3x0_hal_peripheral/Source/gd32f3x0_hal_adc.c ****     }
 1075              		.loc 1 559 16
 1076 0032 6FF00703 		mvn	r3, #7
 1077              	.L66:
 563:../firmware/gd32f3x0_hal_peripheral/Source/gd32f3x0_hal_adc.c **** }
 1078              		.loc 1 563 1
 1079 0036 1846     		mov	r0, r3
 1080 0038 0837     		adds	r7, r7, #8
 1081              		.cfi_def_cfa_offset 8
 1082 003a BD46     		mov	sp, r7
 1083              		.cfi_def_cfa_register 13
 1084              		@ sp needed
 1085 003c 80BD     		pop	{r7, pc}
 1086              		.cfi_endproc
 1087              	.LFE126:
 1089              		.section	.text.hal_adc_routine_conversion_poll,"ax",%progbits
 1090              		.align	1
 1091              		.global	hal_adc_routine_conversion_poll
 1092              		.syntax unified
 1093              		.thumb
 1094              		.thumb_func
 1095              		.fpu softvfp
 1097              	hal_adc_routine_conversion_poll:
 1098              	.LFB127:
 564:../firmware/gd32f3x0_hal_peripheral/Source/gd32f3x0_hal_adc.c **** 
 565:../firmware/gd32f3x0_hal_peripheral/Source/gd32f3x0_hal_adc.c **** /*!
 566:../firmware/gd32f3x0_hal_peripheral/Source/gd32f3x0_hal_adc.c ****     \brief      polling for ADC routine sequence conversion, this function is just for single conve
 567:../firmware/gd32f3x0_hal_peripheral/Source/gd32f3x0_hal_adc.c ****                 (scan mode disabled or scan mode enabled with the length of routine channel is 1)
 568:../firmware/gd32f3x0_hal_peripheral/Source/gd32f3x0_hal_adc.c ****     \param[in]  adc_dev: ADC device information structrue
 569:../firmware/gd32f3x0_hal_peripheral/Source/gd32f3x0_hal_adc.c ****                   the structure is not necessary to be reconfigured after structrue initialization,
 570:../firmware/gd32f3x0_hal_peripheral/Source/gd32f3x0_hal_adc.c ****                   the structure parameters altering is automatically configured by core
 571:../firmware/gd32f3x0_hal_peripheral/Source/gd32f3x0_hal_adc.c ****     \param[in]  timeout_ms: time out duration in milliscond
 572:../firmware/gd32f3x0_hal_peripheral/Source/gd32f3x0_hal_adc.c ****     \param[out] none
 573:../firmware/gd32f3x0_hal_peripheral/Source/gd32f3x0_hal_adc.c ****     \retval     HAL_ERR_NONE, HAL_ERR_ADDRESS, HAL_ERR_NO_SUPPORT, HAL_ERR_TIMEOUT, details refer t
 574:../firmware/gd32f3x0_hal_peripheral/Source/gd32f3x0_hal_adc.c **** */
 575:../firmware/gd32f3x0_hal_peripheral/Source/gd32f3x0_hal_adc.c **** int32_t hal_adc_routine_conversion_poll(hal_adc_dev_struct *adc_dev, uint32_t timeout_ms)
 576:../firmware/gd32f3x0_hal_peripheral/Source/gd32f3x0_hal_adc.c **** {
 1099              		.loc 1 576 1
 1100              		.cfi_startproc
 1101              		@ args = 0, pretend = 0, frame = 16
 1102              		@ frame_needed = 1, uses_anonymous_args = 0
 1103 0000 80B5     		push	{r7, lr}
 1104              		.cfi_def_cfa_offset 8
 1105              		.cfi_offset 7, -8
 1106              		.cfi_offset 14, -4
 1107 0002 84B0     		sub	sp, sp, #16
 1108              		.cfi_def_cfa_offset 24
 1109 0004 00AF     		add	r7, sp, #0
 1110              		.cfi_def_cfa_register 7
 1111 0006 7860     		str	r0, [r7, #4]
 1112 0008 3960     		str	r1, [r7]
 577:../firmware/gd32f3x0_hal_peripheral/Source/gd32f3x0_hal_adc.c ****     uint32_t tick_start = 0;
 1113              		.loc 1 577 14
 1114 000a 0023     		movs	r3, #0
 1115 000c FB60     		str	r3, [r7, #12]
 578:../firmware/gd32f3x0_hal_peripheral/Source/gd32f3x0_hal_adc.c **** 
 579:../firmware/gd32f3x0_hal_peripheral/Source/gd32f3x0_hal_adc.c **** #if (1 == HAL_PARAMETER_CHECK)
 580:../firmware/gd32f3x0_hal_peripheral/Source/gd32f3x0_hal_adc.c ****     /* check the parameters */
 581:../firmware/gd32f3x0_hal_peripheral/Source/gd32f3x0_hal_adc.c ****     if(NULL == adc_dev) {
 582:../firmware/gd32f3x0_hal_peripheral/Source/gd32f3x0_hal_adc.c ****         HAL_DEBUGE("pointer [adc_dev] address is invalid");
 583:../firmware/gd32f3x0_hal_peripheral/Source/gd32f3x0_hal_adc.c ****         return HAL_ERR_ADDRESS;
 584:../firmware/gd32f3x0_hal_peripheral/Source/gd32f3x0_hal_adc.c ****     }
 585:../firmware/gd32f3x0_hal_peripheral/Source/gd32f3x0_hal_adc.c **** #endif /* 1 = HAL_PARAMETER_CHECK */
 586:../firmware/gd32f3x0_hal_peripheral/Source/gd32f3x0_hal_adc.c ****     /* lock ADC */
 587:../firmware/gd32f3x0_hal_peripheral/Source/gd32f3x0_hal_adc.c ****     HAL_LOCK(adc_dev);
 1116              		.loc 1 587 5
 1117 000e 7B68     		ldr	r3, [r7, #4]
 1118 0010 5B7F     		ldrb	r3, [r3, #29]	@ zero_extendqisi2
 1119 0012 012B     		cmp	r3, #1
 1120 0014 02D1     		bne	.L68
 1121              		.loc 1 587 5 is_stmt 0 discriminator 1
 1122 0016 6FF00103 		mvn	r3, #1
 1123 001a 66E0     		b	.L69
 1124              	.L68:
 1125              		.loc 1 587 5 discriminator 2
 1126 001c 7B68     		ldr	r3, [r7, #4]
 1127 001e 0122     		movs	r2, #1
 1128 0020 5A77     		strb	r2, [r3, #29]
 588:../firmware/gd32f3x0_hal_peripheral/Source/gd32f3x0_hal_adc.c **** 
 589:../firmware/gd32f3x0_hal_peripheral/Source/gd32f3x0_hal_adc.c ****     /* if ADC configured in DMA mode */
 590:../firmware/gd32f3x0_hal_peripheral/Source/gd32f3x0_hal_adc.c ****     if(SET == __HAL_ADC_GET_DMA_MODE) {
 1129              		.loc 1 590 15 is_stmt 1 discriminator 2
 1130 0022 344B     		ldr	r3, .L77
 1131 0024 1B68     		ldr	r3, [r3]
 1132 0026 03F48073 		and	r3, r3, #256
 1133              		.loc 1 590 7 discriminator 2
 1134 002a 012B     		cmp	r3, #1
 1135 002c 06D1     		bne	.L70
 591:../firmware/gd32f3x0_hal_peripheral/Source/gd32f3x0_hal_adc.c ****         _adc_error_set(adc_dev, HAL_ADC_ERROR_CONFIG);
 1136              		.loc 1 591 9
 1137 002e 0421     		movs	r1, #4
 1138 0030 7868     		ldr	r0, [r7, #4]
 1139 0032 FFF7FEFF 		bl	_adc_error_set
 592:../firmware/gd32f3x0_hal_peripheral/Source/gd32f3x0_hal_adc.c ****         return HAL_ERR_NO_SUPPORT;
 1140              		.loc 1 592 16
 1141 0036 6FF00303 		mvn	r3, #3
 1142 003a 56E0     		b	.L69
 1143              	.L70:
 593:../firmware/gd32f3x0_hal_peripheral/Source/gd32f3x0_hal_adc.c ****     }
 594:../firmware/gd32f3x0_hal_peripheral/Source/gd32f3x0_hal_adc.c **** 
 595:../firmware/gd32f3x0_hal_peripheral/Source/gd32f3x0_hal_adc.c ****     /* set timeout */
 596:../firmware/gd32f3x0_hal_peripheral/Source/gd32f3x0_hal_adc.c ****     tick_start = hal_sys_basetick_count_get();
 1144              		.loc 1 596 18
 1145 003c FFF7FEFF 		bl	hal_sys_basetick_count_get
 1146 0040 F860     		str	r0, [r7, #12]
 597:../firmware/gd32f3x0_hal_peripheral/Source/gd32f3x0_hal_adc.c **** 
 598:../firmware/gd32f3x0_hal_peripheral/Source/gd32f3x0_hal_adc.c ****     /* if single conversion: scan mode disabled or enabled with length = 1 */
 599:../firmware/gd32f3x0_hal_peripheral/Source/gd32f3x0_hal_adc.c ****     if((RESET == __HAL_ADC_GET_SCAN_MODE) && (RESET == __HAL_ADC_GET_ROUTINECH_LENGTH)) {
 1147              		.loc 1 599 18
 1148 0042 2D4B     		ldr	r3, .L77+4
 1149 0044 1B68     		ldr	r3, [r3]
 1150 0046 03F48073 		and	r3, r3, #256
 1151              		.loc 1 599 7
 1152 004a 002B     		cmp	r3, #0
 1153 004c 1FD1     		bne	.L71
 1154              		.loc 1 599 56 discriminator 1
 1155 004e 2B4B     		ldr	r3, .L77+8
 1156 0050 1B68     		ldr	r3, [r3]
 1157 0052 03F47003 		and	r3, r3, #15728640
 1158              		.loc 1 599 43 discriminator 1
 1159 0056 002B     		cmp	r3, #0
 1160 0058 19D1     		bne	.L71
 600:../firmware/gd32f3x0_hal_peripheral/Source/gd32f3x0_hal_adc.c ****         /* wait until end of conversion flag is raised */
 601:../firmware/gd32f3x0_hal_peripheral/Source/gd32f3x0_hal_adc.c ****         while(RESET == hals_adc_flag_get(ADC_FLAG_EOC)) {
 1161              		.loc 1 601 14
 1162 005a 11E0     		b	.L72
 1163              	.L73:
 602:../firmware/gd32f3x0_hal_peripheral/Source/gd32f3x0_hal_adc.c ****             /* check for the timeout */
 603:../firmware/gd32f3x0_hal_peripheral/Source/gd32f3x0_hal_adc.c ****             if(HAL_TIMEOUT_FOREVER != timeout_ms) {
 1164              		.loc 1 603 15
 1165 005c 3B68     		ldr	r3, [r7]
 1166 005e B3F1FF3F 		cmp	r3, #-1
 1167 0062 0DD0     		beq	.L72
 604:../firmware/gd32f3x0_hal_peripheral/Source/gd32f3x0_hal_adc.c ****                 if(SET == hal_sys_basetick_timeout_check(tick_start, timeout_ms)) {
 1168              		.loc 1 604 27
 1169 0064 3968     		ldr	r1, [r7]
 1170 0066 F868     		ldr	r0, [r7, #12]
 1171 0068 FFF7FEFF 		bl	hal_sys_basetick_timeout_check
 1172 006c 0346     		mov	r3, r0
 1173              		.loc 1 604 19
 1174 006e 012B     		cmp	r3, #1
 1175 0070 06D1     		bne	.L72
 605:../firmware/gd32f3x0_hal_peripheral/Source/gd32f3x0_hal_adc.c ****                     _adc_state_set(adc_dev, HAL_ADC_STATE_TIMEOUT);
 1176              		.loc 1 605 21
 1177 0072 0421     		movs	r1, #4
 1178 0074 7868     		ldr	r0, [r7, #4]
 1179 0076 FFF7FEFF 		bl	_adc_state_set
 606:../firmware/gd32f3x0_hal_peripheral/Source/gd32f3x0_hal_adc.c ****                     /* when timeout occurs, output timeout warning message */
 607:../firmware/gd32f3x0_hal_peripheral/Source/gd32f3x0_hal_adc.c ****                     HAL_DEBUGW("adc_dev routine conversion poll timeout");
 608:../firmware/gd32f3x0_hal_peripheral/Source/gd32f3x0_hal_adc.c ****                     return HAL_ERR_TIMEOUT;
 1180              		.loc 1 608 28
 1181 007a 6FF00403 		mvn	r3, #4
 1182 007e 34E0     		b	.L69
 1183              	.L72:
 601:../firmware/gd32f3x0_hal_peripheral/Source/gd32f3x0_hal_adc.c ****             /* check for the timeout */
 1184              		.loc 1 601 24
 1185 0080 0220     		movs	r0, #2
 1186 0082 FFF7FEFF 		bl	hals_adc_flag_get
 1187 0086 0346     		mov	r3, r0
 601:../firmware/gd32f3x0_hal_peripheral/Source/gd32f3x0_hal_adc.c ****             /* check for the timeout */
 1188              		.loc 1 601 14
 1189 0088 002B     		cmp	r3, #0
 1190 008a E7D0     		beq	.L73
 599:../firmware/gd32f3x0_hal_peripheral/Source/gd32f3x0_hal_adc.c ****         /* wait until end of conversion flag is raised */
 1191              		.loc 1 599 7
 1192 008c 02E0     		b	.L76
 1193              	.L71:
 609:../firmware/gd32f3x0_hal_peripheral/Source/gd32f3x0_hal_adc.c ****                 }
 610:../firmware/gd32f3x0_hal_peripheral/Source/gd32f3x0_hal_adc.c ****             }
 611:../firmware/gd32f3x0_hal_peripheral/Source/gd32f3x0_hal_adc.c ****         }
 612:../firmware/gd32f3x0_hal_peripheral/Source/gd32f3x0_hal_adc.c ****     } else {
 613:../firmware/gd32f3x0_hal_peripheral/Source/gd32f3x0_hal_adc.c ****         return HAL_ERR_NO_SUPPORT;
 1194              		.loc 1 613 16
 1195 008e 6FF00303 		mvn	r3, #3
 1196 0092 2AE0     		b	.L69
 1197              	.L76:
 614:../firmware/gd32f3x0_hal_peripheral/Source/gd32f3x0_hal_adc.c ****     }
 615:../firmware/gd32f3x0_hal_peripheral/Source/gd32f3x0_hal_adc.c **** 
 616:../firmware/gd32f3x0_hal_peripheral/Source/gd32f3x0_hal_adc.c ****     /* clear ADC EOC flag and STRC flag */
 617:../firmware/gd32f3x0_hal_peripheral/Source/gd32f3x0_hal_adc.c ****     hals_adc_flag_clear(ADC_FLAG_EOC);
 1198              		.loc 1 617 5
 1199 0094 0220     		movs	r0, #2
 1200 0096 FFF7FEFF 		bl	hals_adc_flag_clear
 618:../firmware/gd32f3x0_hal_peripheral/Source/gd32f3x0_hal_adc.c ****     hals_adc_flag_clear(ADC_FLAG_STRC);
 1201              		.loc 1 618 5
 1202 009a 1020     		movs	r0, #16
 1203 009c FFF7FEFF 		bl	hals_adc_flag_clear
 619:../firmware/gd32f3x0_hal_peripheral/Source/gd32f3x0_hal_adc.c **** 
 620:../firmware/gd32f3x0_hal_peripheral/Source/gd32f3x0_hal_adc.c ****     /* set ADC states */
 621:../firmware/gd32f3x0_hal_peripheral/Source/gd32f3x0_hal_adc.c ****     _adc_state_set(adc_dev, HAL_ADC_STATE_ROUTINE_EOC);
 1204              		.loc 1 621 5
 1205 00a0 2021     		movs	r1, #32
 1206 00a2 7868     		ldr	r0, [r7, #4]
 1207 00a4 FFF7FEFF 		bl	_adc_state_set
 622:../firmware/gd32f3x0_hal_peripheral/Source/gd32f3x0_hal_adc.c ****     if((ADC_EXTTRIG_ROUTINE_NONE == __HAL_ADC_GET_ROUTINECH_EXTTRIGGER) &&
 1208              		.loc 1 622 37
 1209 00a8 124B     		ldr	r3, .L77
 1210 00aa 1B68     		ldr	r3, [r3]
 1211 00ac 03F46023 		and	r3, r3, #917504
 1212              		.loc 1 622 7
 1213 00b0 B3F5602F 		cmp	r3, #917504
 1214 00b4 15D1     		bne	.L75
 623:../firmware/gd32f3x0_hal_peripheral/Source/gd32f3x0_hal_adc.c ****             (DISABLE == __HAL_ADC_GET_CONTINUOUS_MODE)) {
 1215              		.loc 1 623 25 discriminator 1
 1216 00b6 0F4B     		ldr	r3, .L77
 1217 00b8 1B68     		ldr	r3, [r3]
 1218 00ba 03F00203 		and	r3, r3, #2
 622:../firmware/gd32f3x0_hal_peripheral/Source/gd32f3x0_hal_adc.c ****     if((ADC_EXTTRIG_ROUTINE_NONE == __HAL_ADC_GET_ROUTINECH_EXTTRIGGER) &&
 1219              		.loc 1 622 73 discriminator 1
 1220 00be 002B     		cmp	r3, #0
 1221 00c0 0FD1     		bne	.L75
 624:../firmware/gd32f3x0_hal_peripheral/Source/gd32f3x0_hal_adc.c ****         _adc_state_clear(adc_dev, HAL_ADC_STATE_ROUTINE_BUSY);
 1222              		.loc 1 624 9
 1223 00c2 1021     		movs	r1, #16
 1224 00c4 7868     		ldr	r0, [r7, #4]
 1225 00c6 FFF7FEFF 		bl	_adc_state_clear
 625:../firmware/gd32f3x0_hal_peripheral/Source/gd32f3x0_hal_adc.c ****         if(RESET == ((hal_adc_state_get(adc_dev)) & HAL_ADC_STATE_INSERTED_BUSY)) {
 1226              		.loc 1 625 23
 1227 00ca 7868     		ldr	r0, [r7, #4]
 1228 00cc FFF7FEFF 		bl	hal_adc_state_get
 1229 00d0 0346     		mov	r3, r0
 1230              		.loc 1 625 51
 1231 00d2 03F48073 		and	r3, r3, #256
 1232              		.loc 1 625 11
 1233 00d6 002B     		cmp	r3, #0
 1234 00d8 03D1     		bne	.L75
 626:../firmware/gd32f3x0_hal_peripheral/Source/gd32f3x0_hal_adc.c ****             _adc_state_set(adc_dev, HAL_ADC_STATE_READY);
 1235              		.loc 1 626 13
 1236 00da 0121     		movs	r1, #1
 1237 00dc 7868     		ldr	r0, [r7, #4]
 1238 00de FFF7FEFF 		bl	_adc_state_set
 1239              	.L75:
 627:../firmware/gd32f3x0_hal_peripheral/Source/gd32f3x0_hal_adc.c ****         }
 628:../firmware/gd32f3x0_hal_peripheral/Source/gd32f3x0_hal_adc.c ****     }
 629:../firmware/gd32f3x0_hal_peripheral/Source/gd32f3x0_hal_adc.c **** 
 630:../firmware/gd32f3x0_hal_peripheral/Source/gd32f3x0_hal_adc.c ****     /* unlock ADC */
 631:../firmware/gd32f3x0_hal_peripheral/Source/gd32f3x0_hal_adc.c ****     HAL_UNLOCK(adc_dev);
 1240              		.loc 1 631 5
 1241 00e2 7B68     		ldr	r3, [r7, #4]
 1242 00e4 0022     		movs	r2, #0
 1243 00e6 5A77     		strb	r2, [r3, #29]
 632:../firmware/gd32f3x0_hal_peripheral/Source/gd32f3x0_hal_adc.c **** 
 633:../firmware/gd32f3x0_hal_peripheral/Source/gd32f3x0_hal_adc.c ****     return HAL_ERR_NONE;
 1244              		.loc 1 633 12
 1245 00e8 0023     		movs	r3, #0
 1246              	.L69:
 634:../firmware/gd32f3x0_hal_peripheral/Source/gd32f3x0_hal_adc.c **** }
 1247              		.loc 1 634 1
 1248 00ea 1846     		mov	r0, r3
 1249 00ec 1037     		adds	r7, r7, #16
 1250              		.cfi_def_cfa_offset 8
 1251 00ee BD46     		mov	sp, r7
 1252              		.cfi_def_cfa_register 13
 1253              		@ sp needed
 1254 00f0 80BD     		pop	{r7, pc}
 1255              	.L78:
 1256 00f2 00BF     		.align	2
 1257              	.L77:
 1258 00f4 08240140 		.word	1073816584
 1259 00f8 04240140 		.word	1073816580
 1260 00fc 2C240140 		.word	1073816620
 1261              		.cfi_endproc
 1262              	.LFE127:
 1264              		.section	.text.hal_adc_routine_software_trigger_enable,"ax",%progbits
 1265              		.align	1
 1266              		.global	hal_adc_routine_software_trigger_enable
 1267              		.syntax unified
 1268              		.thumb
 1269              		.thumb_func
 1270              		.fpu softvfp
 1272              	hal_adc_routine_software_trigger_enable:
 1273              	.LFB128:
 635:../firmware/gd32f3x0_hal_peripheral/Source/gd32f3x0_hal_adc.c **** 
 636:../firmware/gd32f3x0_hal_peripheral/Source/gd32f3x0_hal_adc.c **** /*!
 637:../firmware/gd32f3x0_hal_peripheral/Source/gd32f3x0_hal_adc.c ****     \brief      enable ADC routine sequence software trigger
 638:../firmware/gd32f3x0_hal_peripheral/Source/gd32f3x0_hal_adc.c ****     \param[in]  adc_dev: ADC device information structure
 639:../firmware/gd32f3x0_hal_peripheral/Source/gd32f3x0_hal_adc.c ****                   the structure is not necessary to be reconfigured after structrue initialization,
 640:../firmware/gd32f3x0_hal_peripheral/Source/gd32f3x0_hal_adc.c ****                   the structure parameters altering is automatically configured by core
 641:../firmware/gd32f3x0_hal_peripheral/Source/gd32f3x0_hal_adc.c ****     \param[out] none
 642:../firmware/gd32f3x0_hal_peripheral/Source/gd32f3x0_hal_adc.c ****     \retval     none
 643:../firmware/gd32f3x0_hal_peripheral/Source/gd32f3x0_hal_adc.c **** */
 644:../firmware/gd32f3x0_hal_peripheral/Source/gd32f3x0_hal_adc.c **** void hal_adc_routine_software_trigger_enable(hal_adc_dev_struct *adc_dev)
 645:../firmware/gd32f3x0_hal_peripheral/Source/gd32f3x0_hal_adc.c **** {
 1274              		.loc 1 645 1
 1275              		.cfi_startproc
 1276              		@ args = 0, pretend = 0, frame = 8
 1277              		@ frame_needed = 1, uses_anonymous_args = 0
 1278 0000 80B5     		push	{r7, lr}
 1279              		.cfi_def_cfa_offset 8
 1280              		.cfi_offset 7, -8
 1281              		.cfi_offset 14, -4
 1282 0002 82B0     		sub	sp, sp, #8
 1283              		.cfi_def_cfa_offset 16
 1284 0004 00AF     		add	r7, sp, #0
 1285              		.cfi_def_cfa_register 7
 1286 0006 7860     		str	r0, [r7, #4]
 646:../firmware/gd32f3x0_hal_peripheral/Source/gd32f3x0_hal_adc.c ****     hals_adc_software_trigger_enable(ADC_ROUTINE_CHANNEL);
 1287              		.loc 1 646 5
 1288 0008 0120     		movs	r0, #1
 1289 000a FFF7FEFF 		bl	hals_adc_software_trigger_enable
 647:../firmware/gd32f3x0_hal_peripheral/Source/gd32f3x0_hal_adc.c **** }
 1290              		.loc 1 647 1
 1291 000e 00BF     		nop
 1292 0010 0837     		adds	r7, r7, #8
 1293              		.cfi_def_cfa_offset 8
 1294 0012 BD46     		mov	sp, r7
 1295              		.cfi_def_cfa_register 13
 1296              		@ sp needed
 1297 0014 80BD     		pop	{r7, pc}
 1298              		.cfi_endproc
 1299              	.LFE128:
 1301              		.section	.text.hal_adc_start_interrupt,"ax",%progbits
 1302              		.align	1
 1303              		.global	hal_adc_start_interrupt
 1304              		.syntax unified
 1305              		.thumb
 1306              		.thumb_func
 1307              		.fpu softvfp
 1309              	hal_adc_start_interrupt:
 1310              	.LFB129:
 648:../firmware/gd32f3x0_hal_peripheral/Source/gd32f3x0_hal_adc.c **** 
 649:../firmware/gd32f3x0_hal_peripheral/Source/gd32f3x0_hal_adc.c **** /*!
 650:../firmware/gd32f3x0_hal_peripheral/Source/gd32f3x0_hal_adc.c ****     \brief      start ADC EOC interrupt
 651:../firmware/gd32f3x0_hal_peripheral/Source/gd32f3x0_hal_adc.c ****     \param[in]  adc_dev: ADC device information structure
 652:../firmware/gd32f3x0_hal_peripheral/Source/gd32f3x0_hal_adc.c ****                   the structure is not necessary to be reconfigured after structrue initialization,
 653:../firmware/gd32f3x0_hal_peripheral/Source/gd32f3x0_hal_adc.c ****                   the structure parameters altering is automatically configured by core
 654:../firmware/gd32f3x0_hal_peripheral/Source/gd32f3x0_hal_adc.c ****     \param[in]  p_irq: EOC interrupt callback function structure
 655:../firmware/gd32f3x0_hal_peripheral/Source/gd32f3x0_hal_adc.c ****     \param[out] none
 656:../firmware/gd32f3x0_hal_peripheral/Source/gd32f3x0_hal_adc.c ****     \retval     HAL_ERR_NONE, HAL_ERR_ADDRESS, HAL_ERR_HARDWARE, details refer to gd32f3x0_hal.h
 657:../firmware/gd32f3x0_hal_peripheral/Source/gd32f3x0_hal_adc.c **** */
 658:../firmware/gd32f3x0_hal_peripheral/Source/gd32f3x0_hal_adc.c **** int32_t hal_adc_start_interrupt(hal_adc_dev_struct *adc_dev, hal_adc_irq_struct *p_irq)
 659:../firmware/gd32f3x0_hal_peripheral/Source/gd32f3x0_hal_adc.c **** {
 1311              		.loc 1 659 1
 1312              		.cfi_startproc
 1313              		@ args = 0, pretend = 0, frame = 8
 1314              		@ frame_needed = 1, uses_anonymous_args = 0
 1315 0000 80B5     		push	{r7, lr}
 1316              		.cfi_def_cfa_offset 8
 1317              		.cfi_offset 7, -8
 1318              		.cfi_offset 14, -4
 1319 0002 82B0     		sub	sp, sp, #8
 1320              		.cfi_def_cfa_offset 16
 1321 0004 00AF     		add	r7, sp, #0
 1322              		.cfi_def_cfa_register 7
 1323 0006 7860     		str	r0, [r7, #4]
 1324 0008 3960     		str	r1, [r7]
 660:../firmware/gd32f3x0_hal_peripheral/Source/gd32f3x0_hal_adc.c **** #if (1 == HAL_PARAMETER_CHECK)
 661:../firmware/gd32f3x0_hal_peripheral/Source/gd32f3x0_hal_adc.c ****     /* check the parameters */
 662:../firmware/gd32f3x0_hal_peripheral/Source/gd32f3x0_hal_adc.c ****     if((NULL == adc_dev) || (NULL == p_irq)) {
 663:../firmware/gd32f3x0_hal_peripheral/Source/gd32f3x0_hal_adc.c ****         HAL_DEBUGE("pointer [adc_dev] or [p_irq] address is invalid");
 664:../firmware/gd32f3x0_hal_peripheral/Source/gd32f3x0_hal_adc.c ****         return HAL_ERR_ADDRESS;
 665:../firmware/gd32f3x0_hal_peripheral/Source/gd32f3x0_hal_adc.c ****     }
 666:../firmware/gd32f3x0_hal_peripheral/Source/gd32f3x0_hal_adc.c **** #endif /* 1 = HAL_PARAMETER_CHECK */
 667:../firmware/gd32f3x0_hal_peripheral/Source/gd32f3x0_hal_adc.c **** 
 668:../firmware/gd32f3x0_hal_peripheral/Source/gd32f3x0_hal_adc.c ****     /* lock ADC */
 669:../firmware/gd32f3x0_hal_peripheral/Source/gd32f3x0_hal_adc.c ****     HAL_LOCK(adc_dev);
 1325              		.loc 1 669 5
 1326 000a 7B68     		ldr	r3, [r7, #4]
 1327 000c 5B7F     		ldrb	r3, [r3, #29]	@ zero_extendqisi2
 1328 000e 012B     		cmp	r3, #1
 1329 0010 02D1     		bne	.L81
 1330              		.loc 1 669 5 is_stmt 0 discriminator 1
 1331 0012 6FF00103 		mvn	r3, #1
 1332 0016 59E0     		b	.L82
 1333              	.L81:
 1334              		.loc 1 669 5 discriminator 2
 1335 0018 7B68     		ldr	r3, [r7, #4]
 1336 001a 0122     		movs	r2, #1
 1337 001c 5A77     		strb	r2, [r3, #29]
 670:../firmware/gd32f3x0_hal_peripheral/Source/gd32f3x0_hal_adc.c **** 
 671:../firmware/gd32f3x0_hal_peripheral/Source/gd32f3x0_hal_adc.c ****     /* if ADC is enabled */
 672:../firmware/gd32f3x0_hal_peripheral/Source/gd32f3x0_hal_adc.c ****     if(HAL_ERR_NONE == _adc_enable(adc_dev)) {
 1338              		.loc 1 672 24 is_stmt 1 discriminator 2
 1339 001e 7868     		ldr	r0, [r7, #4]
 1340 0020 FFF7FEFF 		bl	_adc_enable
 1341 0024 0346     		mov	r3, r0
 1342              		.loc 1 672 7 discriminator 2
 1343 0026 002B     		cmp	r3, #0
 1344 0028 49D1     		bne	.L83
 673:../firmware/gd32f3x0_hal_peripheral/Source/gd32f3x0_hal_adc.c ****         /* set ADC state */
 674:../firmware/gd32f3x0_hal_peripheral/Source/gd32f3x0_hal_adc.c ****         _adc_state_clear(adc_dev, HAL_ADC_STATE_READY);
 1345              		.loc 1 674 9
 1346 002a 0121     		movs	r1, #1
 1347 002c 7868     		ldr	r0, [r7, #4]
 1348 002e FFF7FEFF 		bl	_adc_state_clear
 675:../firmware/gd32f3x0_hal_peripheral/Source/gd32f3x0_hal_adc.c ****         _adc_state_clear(adc_dev, HAL_ADC_STATE_ROUTINE_EOC);
 1349              		.loc 1 675 9
 1350 0032 2021     		movs	r1, #32
 1351 0034 7868     		ldr	r0, [r7, #4]
 1352 0036 FFF7FEFF 		bl	_adc_state_clear
 676:../firmware/gd32f3x0_hal_peripheral/Source/gd32f3x0_hal_adc.c ****         _adc_state_set(adc_dev, HAL_ADC_STATE_ROUTINE_BUSY);
 1353              		.loc 1 676 9
 1354 003a 1021     		movs	r1, #16
 1355 003c 7868     		ldr	r0, [r7, #4]
 1356 003e FFF7FEFF 		bl	_adc_state_set
 677:../firmware/gd32f3x0_hal_peripheral/Source/gd32f3x0_hal_adc.c **** 
 678:../firmware/gd32f3x0_hal_peripheral/Source/gd32f3x0_hal_adc.c ****         /* if ADC configured in automatic inserted mode */
 679:../firmware/gd32f3x0_hal_peripheral/Source/gd32f3x0_hal_adc.c ****         if(SET == __HAL_ADC_GET_INSERTEDCH_AUTOCONV) {
 1357              		.loc 1 679 19
 1358 0042 244B     		ldr	r3, .L89
 1359 0044 1B68     		ldr	r3, [r3]
 1360 0046 03F48063 		and	r3, r3, #1024
 1361              		.loc 1 679 11
 1362 004a 012B     		cmp	r3, #1
 1363 004c 09D1     		bne	.L84
 680:../firmware/gd32f3x0_hal_peripheral/Source/gd32f3x0_hal_adc.c ****             _adc_state_clear(adc_dev, HAL_ADC_STATE_INSERTED_EOC);
 1364              		.loc 1 680 13
 1365 004e 4FF40071 		mov	r1, #512
 1366 0052 7868     		ldr	r0, [r7, #4]
 1367 0054 FFF7FEFF 		bl	_adc_state_clear
 681:../firmware/gd32f3x0_hal_peripheral/Source/gd32f3x0_hal_adc.c ****             _adc_state_set(adc_dev, HAL_ADC_STATE_INSERTED_BUSY);
 1368              		.loc 1 681 13
 1369 0058 4FF48071 		mov	r1, #256
 1370 005c 7868     		ldr	r0, [r7, #4]
 1371 005e FFF7FEFF 		bl	_adc_state_set
 1372              	.L84:
 682:../firmware/gd32f3x0_hal_peripheral/Source/gd32f3x0_hal_adc.c ****         }
 683:../firmware/gd32f3x0_hal_peripheral/Source/gd32f3x0_hal_adc.c ****         /* check if an inserted conversion is ongoing */
 684:../firmware/gd32f3x0_hal_peripheral/Source/gd32f3x0_hal_adc.c ****         if(SET == ((hal_adc_state_get(adc_dev)) & HAL_ADC_STATE_INSERTED_BUSY)) {
 1373              		.loc 1 684 21
 1374 0062 7868     		ldr	r0, [r7, #4]
 1375 0064 FFF7FEFF 		bl	hal_adc_state_get
 1376 0068 0346     		mov	r3, r0
 1377              		.loc 1 684 49
 1378 006a 03F48073 		and	r3, r3, #256
 1379              		.loc 1 684 11
 1380 006e 012B     		cmp	r3, #1
 1381 0070 04D1     		bne	.L85
 685:../firmware/gd32f3x0_hal_peripheral/Source/gd32f3x0_hal_adc.c ****             _adc_error_clear(adc_dev, HAL_ADC_ERROR_DMA);
 1382              		.loc 1 685 13
 1383 0072 0221     		movs	r1, #2
 1384 0074 7868     		ldr	r0, [r7, #4]
 1385 0076 FFF7FEFF 		bl	_adc_error_clear
 1386 007a 02E0     		b	.L86
 1387              	.L85:
 686:../firmware/gd32f3x0_hal_peripheral/Source/gd32f3x0_hal_adc.c ****         } else {
 687:../firmware/gd32f3x0_hal_peripheral/Source/gd32f3x0_hal_adc.c ****             adc_dev->error_state = HAL_ADC_ERROR_NONE;
 1388              		.loc 1 687 34
 1389 007c 7B68     		ldr	r3, [r7, #4]
 1390 007e 0022     		movs	r2, #0
 1391 0080 1A77     		strb	r2, [r3, #28]
 1392              	.L86:
 688:../firmware/gd32f3x0_hal_peripheral/Source/gd32f3x0_hal_adc.c ****         }
 689:../firmware/gd32f3x0_hal_peripheral/Source/gd32f3x0_hal_adc.c **** 
 690:../firmware/gd32f3x0_hal_peripheral/Source/gd32f3x0_hal_adc.c ****         adc_dev->adc_irq.adc_eoc_handle = p_irq->adc_eoc_handle;
 1393              		.loc 1 690 48
 1394 0082 3B68     		ldr	r3, [r7]
 1395 0084 1A68     		ldr	r2, [r3]
 1396              		.loc 1 690 41
 1397 0086 7B68     		ldr	r3, [r7, #4]
 1398 0088 1A60     		str	r2, [r3]
 691:../firmware/gd32f3x0_hal_peripheral/Source/gd32f3x0_hal_adc.c **** 
 692:../firmware/gd32f3x0_hal_peripheral/Source/gd32f3x0_hal_adc.c ****         /* clear ADC interrupt flag */
 693:../firmware/gd32f3x0_hal_peripheral/Source/gd32f3x0_hal_adc.c ****         hals_adc_interrupt_flag_clear(ADC_INT_FLAG_EOC);
 1399              		.loc 1 693 9
 1400 008a 0220     		movs	r0, #2
 1401 008c FFF7FEFF 		bl	hals_adc_interrupt_flag_clear
 694:../firmware/gd32f3x0_hal_peripheral/Source/gd32f3x0_hal_adc.c ****         /* enable ADC end of sequence conversion flag */
 695:../firmware/gd32f3x0_hal_peripheral/Source/gd32f3x0_hal_adc.c ****         hals_adc_interrupt_enable(ADC_INT_EOC);
 1402              		.loc 1 695 9
 1403 0090 0220     		movs	r0, #2
 1404 0092 FFF7FEFF 		bl	hals_adc_interrupt_enable
 696:../firmware/gd32f3x0_hal_peripheral/Source/gd32f3x0_hal_adc.c ****         /* enable the conversion of routine sequence */
 697:../firmware/gd32f3x0_hal_peripheral/Source/gd32f3x0_hal_adc.c ****         if(ADC_EXTTRIG_ROUTINE_NONE == __HAL_ADC_GET_ROUTINECH_EXTTRIGGER) {
 1405              		.loc 1 697 40
 1406 0096 104B     		ldr	r3, .L89+4
 1407 0098 1B68     		ldr	r3, [r3]
 1408 009a 03F46023 		and	r3, r3, #917504
 1409              		.loc 1 697 11
 1410 009e B3F5602F 		cmp	r3, #917504
 1411 00a2 07D1     		bne	.L87
 698:../firmware/gd32f3x0_hal_peripheral/Source/gd32f3x0_hal_adc.c ****             /* enable software trigger */
 699:../firmware/gd32f3x0_hal_peripheral/Source/gd32f3x0_hal_adc.c ****             hals_adc_external_trigger_config(ADC_ROUTINE_CHANNEL, ENABLE);
 1412              		.loc 1 699 13
 1413 00a4 0121     		movs	r1, #1
 1414 00a6 0120     		movs	r0, #1
 1415 00a8 FFF7FEFF 		bl	hals_adc_external_trigger_config
 700:../firmware/gd32f3x0_hal_peripheral/Source/gd32f3x0_hal_adc.c ****             hals_adc_software_trigger_enable(ADC_ROUTINE_CHANNEL);
 1416              		.loc 1 700 13
 1417 00ac 0120     		movs	r0, #1
 1418 00ae FFF7FEFF 		bl	hals_adc_software_trigger_enable
 1419 00b2 07E0     		b	.L88
 1420              	.L87:
 701:../firmware/gd32f3x0_hal_peripheral/Source/gd32f3x0_hal_adc.c ****         } else {
 702:../firmware/gd32f3x0_hal_peripheral/Source/gd32f3x0_hal_adc.c ****             /* enable external trigger */
 703:../firmware/gd32f3x0_hal_peripheral/Source/gd32f3x0_hal_adc.c ****             hals_adc_external_trigger_config(ADC_ROUTINE_CHANNEL, ENABLE);
 1421              		.loc 1 703 13
 1422 00b4 0121     		movs	r1, #1
 1423 00b6 0120     		movs	r0, #1
 1424 00b8 FFF7FEFF 		bl	hals_adc_external_trigger_config
 1425 00bc 02E0     		b	.L88
 1426              	.L83:
 704:../firmware/gd32f3x0_hal_peripheral/Source/gd32f3x0_hal_adc.c ****         }
 705:../firmware/gd32f3x0_hal_peripheral/Source/gd32f3x0_hal_adc.c ****     } else {
 706:../firmware/gd32f3x0_hal_peripheral/Source/gd32f3x0_hal_adc.c ****         return HAL_ERR_HARDWARE;
 1427              		.loc 1 706 16
 1428 00be 6FF00703 		mvn	r3, #7
 1429 00c2 03E0     		b	.L82
 1430              	.L88:
 707:../firmware/gd32f3x0_hal_peripheral/Source/gd32f3x0_hal_adc.c ****     }
 708:../firmware/gd32f3x0_hal_peripheral/Source/gd32f3x0_hal_adc.c **** 
 709:../firmware/gd32f3x0_hal_peripheral/Source/gd32f3x0_hal_adc.c ****     /* unlock ADC */
 710:../firmware/gd32f3x0_hal_peripheral/Source/gd32f3x0_hal_adc.c ****     HAL_UNLOCK(adc_dev);
 1431              		.loc 1 710 5
 1432 00c4 7B68     		ldr	r3, [r7, #4]
 1433 00c6 0022     		movs	r2, #0
 1434 00c8 5A77     		strb	r2, [r3, #29]
 711:../firmware/gd32f3x0_hal_peripheral/Source/gd32f3x0_hal_adc.c **** 
 712:../firmware/gd32f3x0_hal_peripheral/Source/gd32f3x0_hal_adc.c ****     return HAL_ERR_NONE;
 1435              		.loc 1 712 12
 1436 00ca 0023     		movs	r3, #0
 1437              	.L82:
 713:../firmware/gd32f3x0_hal_peripheral/Source/gd32f3x0_hal_adc.c **** }
 1438              		.loc 1 713 1
 1439 00cc 1846     		mov	r0, r3
 1440 00ce 0837     		adds	r7, r7, #8
 1441              		.cfi_def_cfa_offset 8
 1442 00d0 BD46     		mov	sp, r7
 1443              		.cfi_def_cfa_register 13
 1444              		@ sp needed
 1445 00d2 80BD     		pop	{r7, pc}
 1446              	.L90:
 1447              		.align	2
 1448              	.L89:
 1449 00d4 04240140 		.word	1073816580
 1450 00d8 08240140 		.word	1073816584
 1451              		.cfi_endproc
 1452              	.LFE129:
 1454              		.section	.text.hal_adc_stop_interrupt,"ax",%progbits
 1455              		.align	1
 1456              		.global	hal_adc_stop_interrupt
 1457              		.syntax unified
 1458              		.thumb
 1459              		.thumb_func
 1460              		.fpu softvfp
 1462              	hal_adc_stop_interrupt:
 1463              	.LFB130:
 714:../firmware/gd32f3x0_hal_peripheral/Source/gd32f3x0_hal_adc.c **** 
 715:../firmware/gd32f3x0_hal_peripheral/Source/gd32f3x0_hal_adc.c **** /*!
 716:../firmware/gd32f3x0_hal_peripheral/Source/gd32f3x0_hal_adc.c ****     \brief      stop ADC EOC interrupt
 717:../firmware/gd32f3x0_hal_peripheral/Source/gd32f3x0_hal_adc.c ****     \param[in]  adc_dev: ADC device information structure
 718:../firmware/gd32f3x0_hal_peripheral/Source/gd32f3x0_hal_adc.c ****                   the structure is not necessary to be reconfigured after structrue initialization,
 719:../firmware/gd32f3x0_hal_peripheral/Source/gd32f3x0_hal_adc.c ****                   the structure parameters altering is automatically configured by core
 720:../firmware/gd32f3x0_hal_peripheral/Source/gd32f3x0_hal_adc.c ****     \param[out] none
 721:../firmware/gd32f3x0_hal_peripheral/Source/gd32f3x0_hal_adc.c ****     \retval     HAL_ERR_NONE, HAL_ERR_ADDRESS, HAL_ERR_HARDWARE, details refer to gd32f3x0_hal.h
 722:../firmware/gd32f3x0_hal_peripheral/Source/gd32f3x0_hal_adc.c **** */
 723:../firmware/gd32f3x0_hal_peripheral/Source/gd32f3x0_hal_adc.c **** int32_t hal_adc_stop_interrupt(hal_adc_dev_struct *adc_dev)
 724:../firmware/gd32f3x0_hal_peripheral/Source/gd32f3x0_hal_adc.c **** {
 1464              		.loc 1 724 1
 1465              		.cfi_startproc
 1466              		@ args = 0, pretend = 0, frame = 8
 1467              		@ frame_needed = 1, uses_anonymous_args = 0
 1468 0000 80B5     		push	{r7, lr}
 1469              		.cfi_def_cfa_offset 8
 1470              		.cfi_offset 7, -8
 1471              		.cfi_offset 14, -4
 1472 0002 82B0     		sub	sp, sp, #8
 1473              		.cfi_def_cfa_offset 16
 1474 0004 00AF     		add	r7, sp, #0
 1475              		.cfi_def_cfa_register 7
 1476 0006 7860     		str	r0, [r7, #4]
 725:../firmware/gd32f3x0_hal_peripheral/Source/gd32f3x0_hal_adc.c **** #if (1 == HAL_PARAMETER_CHECK)
 726:../firmware/gd32f3x0_hal_peripheral/Source/gd32f3x0_hal_adc.c ****     /* check the parameters */
 727:../firmware/gd32f3x0_hal_peripheral/Source/gd32f3x0_hal_adc.c ****     if(NULL == adc_dev) {
 728:../firmware/gd32f3x0_hal_peripheral/Source/gd32f3x0_hal_adc.c ****         HAL_DEBUGE("pointer [adc_dev] address is invalid");
 729:../firmware/gd32f3x0_hal_peripheral/Source/gd32f3x0_hal_adc.c ****         return HAL_ERR_ADDRESS;
 730:../firmware/gd32f3x0_hal_peripheral/Source/gd32f3x0_hal_adc.c ****     }
 731:../firmware/gd32f3x0_hal_peripheral/Source/gd32f3x0_hal_adc.c **** #endif /* 1 = HAL_PARAMETER_CHECK */
 732:../firmware/gd32f3x0_hal_peripheral/Source/gd32f3x0_hal_adc.c **** 
 733:../firmware/gd32f3x0_hal_peripheral/Source/gd32f3x0_hal_adc.c ****     /* if ADC is disabled */
 734:../firmware/gd32f3x0_hal_peripheral/Source/gd32f3x0_hal_adc.c ****     if(HAL_ERR_NONE == _adc_disable(adc_dev)) {
 1477              		.loc 1 734 24
 1478 0008 7868     		ldr	r0, [r7, #4]
 1479 000a FFF7FEFF 		bl	_adc_disable
 1480 000e 0346     		mov	r3, r0
 1481              		.loc 1 734 7
 1482 0010 002B     		cmp	r3, #0
 1483 0012 14D1     		bne	.L92
 735:../firmware/gd32f3x0_hal_peripheral/Source/gd32f3x0_hal_adc.c ****         /* end of sequence conversion interrupt */
 736:../firmware/gd32f3x0_hal_peripheral/Source/gd32f3x0_hal_adc.c ****         hals_adc_interrupt_disable(ADC_INT_EOC);
 1484              		.loc 1 736 9
 1485 0014 0220     		movs	r0, #2
 1486 0016 FFF7FEFF 		bl	hals_adc_interrupt_disable
 737:../firmware/gd32f3x0_hal_peripheral/Source/gd32f3x0_hal_adc.c ****         adc_dev->adc_irq.adc_eoc_handle = NULL;
 1487              		.loc 1 737 41
 1488 001a 7B68     		ldr	r3, [r7, #4]
 1489 001c 0022     		movs	r2, #0
 1490 001e 1A60     		str	r2, [r3]
 738:../firmware/gd32f3x0_hal_peripheral/Source/gd32f3x0_hal_adc.c **** 
 739:../firmware/gd32f3x0_hal_peripheral/Source/gd32f3x0_hal_adc.c ****         /* set ADC state */
 740:../firmware/gd32f3x0_hal_peripheral/Source/gd32f3x0_hal_adc.c ****         _adc_state_clear(adc_dev, HAL_ADC_STATE_ROUTINE_BUSY);
 1491              		.loc 1 740 9
 1492 0020 1021     		movs	r1, #16
 1493 0022 7868     		ldr	r0, [r7, #4]
 1494 0024 FFF7FEFF 		bl	_adc_state_clear
 741:../firmware/gd32f3x0_hal_peripheral/Source/gd32f3x0_hal_adc.c ****         _adc_state_clear(adc_dev, HAL_ADC_STATE_INSERTED_BUSY);
 1495              		.loc 1 741 9
 1496 0028 4FF48071 		mov	r1, #256
 1497 002c 7868     		ldr	r0, [r7, #4]
 1498 002e FFF7FEFF 		bl	_adc_state_clear
 742:../firmware/gd32f3x0_hal_peripheral/Source/gd32f3x0_hal_adc.c ****         _adc_state_set(adc_dev, HAL_ADC_STATE_READY);
 1499              		.loc 1 742 9
 1500 0032 0121     		movs	r1, #1
 1501 0034 7868     		ldr	r0, [r7, #4]
 1502 0036 FFF7FEFF 		bl	_adc_state_set
 743:../firmware/gd32f3x0_hal_peripheral/Source/gd32f3x0_hal_adc.c ****     } else {
 744:../firmware/gd32f3x0_hal_peripheral/Source/gd32f3x0_hal_adc.c ****         return HAL_ERR_HARDWARE;
 745:../firmware/gd32f3x0_hal_peripheral/Source/gd32f3x0_hal_adc.c ****     }
 746:../firmware/gd32f3x0_hal_peripheral/Source/gd32f3x0_hal_adc.c **** 
 747:../firmware/gd32f3x0_hal_peripheral/Source/gd32f3x0_hal_adc.c ****     return HAL_ERR_NONE;
 1503              		.loc 1 747 12
 1504 003a 0023     		movs	r3, #0
 1505 003c 01E0     		b	.L94
 1506              	.L92:
 744:../firmware/gd32f3x0_hal_peripheral/Source/gd32f3x0_hal_adc.c ****     }
 1507              		.loc 1 744 16
 1508 003e 6FF00703 		mvn	r3, #7
 1509              	.L94:
 748:../firmware/gd32f3x0_hal_peripheral/Source/gd32f3x0_hal_adc.c **** }
 1510              		.loc 1 748 1
 1511 0042 1846     		mov	r0, r3
 1512 0044 0837     		adds	r7, r7, #8
 1513              		.cfi_def_cfa_offset 8
 1514 0046 BD46     		mov	sp, r7
 1515              		.cfi_def_cfa_register 13
 1516              		@ sp needed
 1517 0048 80BD     		pop	{r7, pc}
 1518              		.cfi_endproc
 1519              	.LFE130:
 1521              		.section	.text.hal_adc_start_dma,"ax",%progbits
 1522              		.align	1
 1523              		.global	hal_adc_start_dma
 1524              		.syntax unified
 1525              		.thumb
 1526              		.thumb_func
 1527              		.fpu softvfp
 1529              	hal_adc_start_dma:
 1530              	.LFB131:
 749:../firmware/gd32f3x0_hal_peripheral/Source/gd32f3x0_hal_adc.c **** 
 750:../firmware/gd32f3x0_hal_peripheral/Source/gd32f3x0_hal_adc.c **** /*!
 751:../firmware/gd32f3x0_hal_peripheral/Source/gd32f3x0_hal_adc.c ****     \brief      enable ADC and start the conversion of routine sequence with DMA
 752:../firmware/gd32f3x0_hal_peripheral/Source/gd32f3x0_hal_adc.c ****     \param[in]  adc_dev: ADC device information structrue
 753:../firmware/gd32f3x0_hal_peripheral/Source/gd32f3x0_hal_adc.c ****                   the structure is not necessary to be reconfigured after structrue initialization,
 754:../firmware/gd32f3x0_hal_peripheral/Source/gd32f3x0_hal_adc.c ****                   the structure parameters altering is automatically configured by core
 755:../firmware/gd32f3x0_hal_peripheral/Source/gd32f3x0_hal_adc.c ****     \param[in]  pdata: the source memory buffer address
 756:../firmware/gd32f3x0_hal_peripheral/Source/gd32f3x0_hal_adc.c ****     \param[in]  length: the number of data to be transferred from source to destination
 757:../firmware/gd32f3x0_hal_peripheral/Source/gd32f3x0_hal_adc.c ****     \param[in]  dmacb: ADC DMA transfer complete interrupt callback function structure
 758:../firmware/gd32f3x0_hal_peripheral/Source/gd32f3x0_hal_adc.c ****                   transcom_handle: DMA transfer complete interrupt handler
 759:../firmware/gd32f3x0_hal_peripheral/Source/gd32f3x0_hal_adc.c ****                   error_handle: ADC DMA error interrupt handler
 760:../firmware/gd32f3x0_hal_peripheral/Source/gd32f3x0_hal_adc.c ****     \param[out] none
 761:../firmware/gd32f3x0_hal_peripheral/Source/gd32f3x0_hal_adc.c ****     \retval     HAL_ERR_NONE, HAL_ERR_ADDRESS, HAL_ERR_VAL, HAL_ERR_HARDWARE, details refer to gd32
 762:../firmware/gd32f3x0_hal_peripheral/Source/gd32f3x0_hal_adc.c **** */
 763:../firmware/gd32f3x0_hal_peripheral/Source/gd32f3x0_hal_adc.c **** int32_t hal_adc_start_dma(hal_adc_dev_struct *adc_dev, uint32_t *pdata, uint32_t length, hal_adc_dm
 764:../firmware/gd32f3x0_hal_peripheral/Source/gd32f3x0_hal_adc.c **** {
 1531              		.loc 1 764 1
 1532              		.cfi_startproc
 1533              		@ args = 0, pretend = 0, frame = 32
 1534              		@ frame_needed = 1, uses_anonymous_args = 0
 1535 0000 80B5     		push	{r7, lr}
 1536              		.cfi_def_cfa_offset 8
 1537              		.cfi_offset 7, -8
 1538              		.cfi_offset 14, -4
 1539 0002 8AB0     		sub	sp, sp, #40
 1540              		.cfi_def_cfa_offset 48
 1541 0004 02AF     		add	r7, sp, #8
 1542              		.cfi_def_cfa 7, 40
 1543 0006 F860     		str	r0, [r7, #12]
 1544 0008 B960     		str	r1, [r7, #8]
 1545 000a 7A60     		str	r2, [r7, #4]
 1546 000c 3B60     		str	r3, [r7]
 765:../firmware/gd32f3x0_hal_peripheral/Source/gd32f3x0_hal_adc.c ****     hal_dma_irq_struct dma_irq;
 766:../firmware/gd32f3x0_hal_peripheral/Source/gd32f3x0_hal_adc.c **** 
 767:../firmware/gd32f3x0_hal_peripheral/Source/gd32f3x0_hal_adc.c **** #if (1 == HAL_PARAMETER_CHECK)
 768:../firmware/gd32f3x0_hal_peripheral/Source/gd32f3x0_hal_adc.c ****     /* check the parameters */
 769:../firmware/gd32f3x0_hal_peripheral/Source/gd32f3x0_hal_adc.c ****     if((NULL == adc_dev) || (NULL == pdata) || (NULL == dmacb)) {
 770:../firmware/gd32f3x0_hal_peripheral/Source/gd32f3x0_hal_adc.c ****         HAL_DEBUGE("pointer [adc_dev] or [pdata] or [dmacb] address is invalid");
 771:../firmware/gd32f3x0_hal_peripheral/Source/gd32f3x0_hal_adc.c ****         return HAL_ERR_ADDRESS;
 772:../firmware/gd32f3x0_hal_peripheral/Source/gd32f3x0_hal_adc.c ****     }
 773:../firmware/gd32f3x0_hal_peripheral/Source/gd32f3x0_hal_adc.c ****     if(0U == length) {
 774:../firmware/gd32f3x0_hal_peripheral/Source/gd32f3x0_hal_adc.c ****         HAL_DEBUGE("parameter [length] value is invalid");
 775:../firmware/gd32f3x0_hal_peripheral/Source/gd32f3x0_hal_adc.c ****         return HAL_ERR_VAL;
 776:../firmware/gd32f3x0_hal_peripheral/Source/gd32f3x0_hal_adc.c ****     }
 777:../firmware/gd32f3x0_hal_peripheral/Source/gd32f3x0_hal_adc.c **** #endif /* 1 = HAL_PARAMETER_CHECK */
 778:../firmware/gd32f3x0_hal_peripheral/Source/gd32f3x0_hal_adc.c **** 
 779:../firmware/gd32f3x0_hal_peripheral/Source/gd32f3x0_hal_adc.c ****     /* lock ADC */
 780:../firmware/gd32f3x0_hal_peripheral/Source/gd32f3x0_hal_adc.c ****     HAL_LOCK(adc_dev);
 1547              		.loc 1 780 5
 1548 000e FB68     		ldr	r3, [r7, #12]
 1549 0010 5B7F     		ldrb	r3, [r3, #29]	@ zero_extendqisi2
 1550 0012 012B     		cmp	r3, #1
 1551 0014 02D1     		bne	.L96
 1552              		.loc 1 780 5 is_stmt 0 discriminator 1
 1553 0016 6FF00103 		mvn	r3, #1
 1554 001a 78E0     		b	.L104
 1555              	.L96:
 1556              		.loc 1 780 5 discriminator 2
 1557 001c FB68     		ldr	r3, [r7, #12]
 1558 001e 0122     		movs	r2, #1
 1559 0020 5A77     		strb	r2, [r3, #29]
 781:../firmware/gd32f3x0_hal_peripheral/Source/gd32f3x0_hal_adc.c **** 
 782:../firmware/gd32f3x0_hal_peripheral/Source/gd32f3x0_hal_adc.c ****     hal_dma_struct_init(HAL_DMA_IRQ_STRUCT, &dma_irq);
 1560              		.loc 1 782 5 is_stmt 1 discriminator 2
 1561 0022 07F11403 		add	r3, r7, #20
 1562 0026 1946     		mov	r1, r3
 1563 0028 0220     		movs	r0, #2
 1564 002a FFF7FEFF 		bl	hal_dma_struct_init
 783:../firmware/gd32f3x0_hal_peripheral/Source/gd32f3x0_hal_adc.c **** 
 784:../firmware/gd32f3x0_hal_peripheral/Source/gd32f3x0_hal_adc.c ****     /* if ADC is enabled */
 785:../firmware/gd32f3x0_hal_peripheral/Source/gd32f3x0_hal_adc.c ****     if(HAL_ERR_NONE == _adc_enable(adc_dev)) {
 1565              		.loc 1 785 24 discriminator 2
 1566 002e F868     		ldr	r0, [r7, #12]
 1567 0030 FFF7FEFF 		bl	_adc_enable
 1568 0034 0346     		mov	r3, r0
 1569              		.loc 1 785 7 discriminator 2
 1570 0036 002B     		cmp	r3, #0
 1571 0038 62D1     		bne	.L98
 786:../firmware/gd32f3x0_hal_peripheral/Source/gd32f3x0_hal_adc.c ****         /* set ADC state */
 787:../firmware/gd32f3x0_hal_peripheral/Source/gd32f3x0_hal_adc.c ****         _adc_state_clear(adc_dev, HAL_ADC_STATE_READY);
 1572              		.loc 1 787 9
 1573 003a 0121     		movs	r1, #1
 1574 003c F868     		ldr	r0, [r7, #12]
 1575 003e FFF7FEFF 		bl	_adc_state_clear
 788:../firmware/gd32f3x0_hal_peripheral/Source/gd32f3x0_hal_adc.c ****         _adc_state_clear(adc_dev, HAL_ADC_STATE_ROUTINE_EOC);
 1576              		.loc 1 788 9
 1577 0042 2021     		movs	r1, #32
 1578 0044 F868     		ldr	r0, [r7, #12]
 1579 0046 FFF7FEFF 		bl	_adc_state_clear
 789:../firmware/gd32f3x0_hal_peripheral/Source/gd32f3x0_hal_adc.c ****         _adc_state_set(adc_dev, HAL_ADC_STATE_ROUTINE_BUSY);
 1580              		.loc 1 789 9
 1581 004a 1021     		movs	r1, #16
 1582 004c F868     		ldr	r0, [r7, #12]
 1583 004e FFF7FEFF 		bl	_adc_state_set
 790:../firmware/gd32f3x0_hal_peripheral/Source/gd32f3x0_hal_adc.c **** 
 791:../firmware/gd32f3x0_hal_peripheral/Source/gd32f3x0_hal_adc.c ****         /* if conversions on routine sequence are also triggering inserted sequence */
 792:../firmware/gd32f3x0_hal_peripheral/Source/gd32f3x0_hal_adc.c ****         if(SET == __HAL_ADC_GET_INSERTEDCH_AUTOCONV) {
 1584              		.loc 1 792 19
 1585 0052 314B     		ldr	r3, .L105
 1586 0054 1B68     		ldr	r3, [r3]
 1587 0056 03F48063 		and	r3, r3, #1024
 1588              		.loc 1 792 11
 1589 005a 012B     		cmp	r3, #1
 1590 005c 09D1     		bne	.L99
 793:../firmware/gd32f3x0_hal_peripheral/Source/gd32f3x0_hal_adc.c ****             _adc_state_clear(adc_dev, HAL_ADC_STATE_INSERTED_EOC);
 1591              		.loc 1 793 13
 1592 005e 4FF40071 		mov	r1, #512
 1593 0062 F868     		ldr	r0, [r7, #12]
 1594 0064 FFF7FEFF 		bl	_adc_state_clear
 794:../firmware/gd32f3x0_hal_peripheral/Source/gd32f3x0_hal_adc.c ****             _adc_state_set(adc_dev, HAL_ADC_STATE_INSERTED_BUSY);
 1595              		.loc 1 794 13
 1596 0068 4FF48071 		mov	r1, #256
 1597 006c F868     		ldr	r0, [r7, #12]
 1598 006e FFF7FEFF 		bl	_adc_state_set
 1599              	.L99:
 795:../firmware/gd32f3x0_hal_peripheral/Source/gd32f3x0_hal_adc.c ****         }
 796:../firmware/gd32f3x0_hal_peripheral/Source/gd32f3x0_hal_adc.c ****         /* check if an inserted conversion is ongoing */
 797:../firmware/gd32f3x0_hal_peripheral/Source/gd32f3x0_hal_adc.c ****         if(SET == ((hal_adc_state_get(adc_dev)) & HAL_ADC_STATE_INSERTED_BUSY)) {
 1600              		.loc 1 797 21
 1601 0072 F868     		ldr	r0, [r7, #12]
 1602 0074 FFF7FEFF 		bl	hal_adc_state_get
 1603 0078 0346     		mov	r3, r0
 1604              		.loc 1 797 49
 1605 007a 03F48073 		and	r3, r3, #256
 1606              		.loc 1 797 11
 1607 007e 012B     		cmp	r3, #1
 1608 0080 04D1     		bne	.L100
 798:../firmware/gd32f3x0_hal_peripheral/Source/gd32f3x0_hal_adc.c ****             _adc_error_clear(adc_dev, HAL_ADC_ERROR_DMA);
 1609              		.loc 1 798 13
 1610 0082 0221     		movs	r1, #2
 1611 0084 F868     		ldr	r0, [r7, #12]
 1612 0086 FFF7FEFF 		bl	_adc_error_clear
 1613 008a 02E0     		b	.L101
 1614              	.L100:
 799:../firmware/gd32f3x0_hal_peripheral/Source/gd32f3x0_hal_adc.c ****         } else {
 800:../firmware/gd32f3x0_hal_peripheral/Source/gd32f3x0_hal_adc.c ****             adc_dev->error_state = HAL_ADC_ERROR_NONE;
 1615              		.loc 1 800 34
 1616 008c FB68     		ldr	r3, [r7, #12]
 1617 008e 0022     		movs	r2, #0
 1618 0090 1A77     		strb	r2, [r3, #28]
 1619              	.L101:
 801:../firmware/gd32f3x0_hal_peripheral/Source/gd32f3x0_hal_adc.c ****         }
 802:../firmware/gd32f3x0_hal_peripheral/Source/gd32f3x0_hal_adc.c **** 
 803:../firmware/gd32f3x0_hal_peripheral/Source/gd32f3x0_hal_adc.c ****         /* clear ADC flag */
 804:../firmware/gd32f3x0_hal_peripheral/Source/gd32f3x0_hal_adc.c ****         hals_adc_flag_clear(ADC_FLAG_EOC);
 1620              		.loc 1 804 9
 1621 0092 0220     		movs	r0, #2
 1622 0094 FFF7FEFF 		bl	hals_adc_flag_clear
 805:../firmware/gd32f3x0_hal_peripheral/Source/gd32f3x0_hal_adc.c **** 
 806:../firmware/gd32f3x0_hal_peripheral/Source/gd32f3x0_hal_adc.c ****         adc_dev->adc_dma.full_transcom_handle = dmacb->full_transcom_handle;
 1623              		.loc 1 806 54
 1624 0098 3B68     		ldr	r3, [r7]
 1625 009a 1A68     		ldr	r2, [r3]
 1626              		.loc 1 806 47
 1627 009c FB68     		ldr	r3, [r7, #12]
 1628 009e 1A61     		str	r2, [r3, #16]
 807:../firmware/gd32f3x0_hal_peripheral/Source/gd32f3x0_hal_adc.c ****         adc_dev->adc_dma.half_transcom_handle = dmacb->half_transcom_handle;
 1629              		.loc 1 807 54
 1630 00a0 3B68     		ldr	r3, [r7]
 1631 00a2 5A68     		ldr	r2, [r3, #4]
 1632              		.loc 1 807 47
 1633 00a4 FB68     		ldr	r3, [r7, #12]
 1634 00a6 5A61     		str	r2, [r3, #20]
 808:../firmware/gd32f3x0_hal_peripheral/Source/gd32f3x0_hal_adc.c ****         adc_dev->adc_dma.error_handle    = dmacb->error_handle;
 1635              		.loc 1 808 49
 1636 00a8 3B68     		ldr	r3, [r7]
 1637 00aa 9A68     		ldr	r2, [r3, #8]
 1638              		.loc 1 808 42
 1639 00ac FB68     		ldr	r3, [r7, #12]
 1640 00ae 9A61     		str	r2, [r3, #24]
 809:../firmware/gd32f3x0_hal_peripheral/Source/gd32f3x0_hal_adc.c **** 
 810:../firmware/gd32f3x0_hal_peripheral/Source/gd32f3x0_hal_adc.c ****         /* set the DMA transfer complete callback */
 811:../firmware/gd32f3x0_hal_peripheral/Source/gd32f3x0_hal_adc.c ****         dma_irq.full_finish_handle = _adc_dma_full_transfer_complete;
 1641              		.loc 1 811 36
 1642 00b0 1A4B     		ldr	r3, .L105+4
 1643 00b2 FB61     		str	r3, [r7, #28]
 812:../firmware/gd32f3x0_hal_peripheral/Source/gd32f3x0_hal_adc.c ****         dma_irq.half_finish_handle = _adc_dma_half_transfer_complete;
 1644              		.loc 1 812 36
 1645 00b4 1A4B     		ldr	r3, .L105+8
 1646 00b6 BB61     		str	r3, [r7, #24]
 813:../firmware/gd32f3x0_hal_peripheral/Source/gd32f3x0_hal_adc.c ****         dma_irq.error_handle       = _adc_dma_error;
 1647              		.loc 1 813 36
 1648 00b8 1A4B     		ldr	r3, .L105+12
 1649 00ba 7B61     		str	r3, [r7, #20]
 814:../firmware/gd32f3x0_hal_peripheral/Source/gd32f3x0_hal_adc.c **** 
 815:../firmware/gd32f3x0_hal_peripheral/Source/gd32f3x0_hal_adc.c ****         /* enable ADC DMA mode */
 816:../firmware/gd32f3x0_hal_peripheral/Source/gd32f3x0_hal_adc.c ****         hals_adc_dma_mode_enable();
 1650              		.loc 1 816 9
 1651 00bc FFF7FEFF 		bl	hals_adc_dma_mode_enable
 817:../firmware/gd32f3x0_hal_peripheral/Source/gd32f3x0_hal_adc.c ****         /* start the DMA channel */
 818:../firmware/gd32f3x0_hal_peripheral/Source/gd32f3x0_hal_adc.c ****         hal_dma_start_interrupt(adc_dev->p_dma_adc, (uint32_t)&ADC_RDATA, (uint32_t)pdata, length,
 1652              		.loc 1 818 9
 1653 00c0 FB68     		ldr	r3, [r7, #12]
 1654 00c2 D868     		ldr	r0, [r3, #12]
 1655 00c4 BA68     		ldr	r2, [r7, #8]
 1656 00c6 7B68     		ldr	r3, [r7, #4]
 1657 00c8 99B2     		uxth	r1, r3
 1658 00ca 07F11403 		add	r3, r7, #20
 1659 00ce 0093     		str	r3, [sp]
 1660 00d0 0B46     		mov	r3, r1
 1661 00d2 1549     		ldr	r1, .L105+16
 1662 00d4 FFF7FEFF 		bl	hal_dma_start_interrupt
 819:../firmware/gd32f3x0_hal_peripheral/Source/gd32f3x0_hal_adc.c ****                                 &dma_irq);
 820:../firmware/gd32f3x0_hal_peripheral/Source/gd32f3x0_hal_adc.c **** 
 821:../firmware/gd32f3x0_hal_peripheral/Source/gd32f3x0_hal_adc.c ****         /* enable the conversion of routine sequence */
 822:../firmware/gd32f3x0_hal_peripheral/Source/gd32f3x0_hal_adc.c ****         if(ADC_EXTTRIG_ROUTINE_NONE == __HAL_ADC_GET_ROUTINECH_EXTTRIGGER) {
 1663              		.loc 1 822 40
 1664 00d8 144B     		ldr	r3, .L105+20
 1665 00da 1B68     		ldr	r3, [r3]
 1666 00dc 03F46023 		and	r3, r3, #917504
 1667              		.loc 1 822 11
 1668 00e0 B3F5602F 		cmp	r3, #917504
 1669 00e4 07D1     		bne	.L102
 823:../firmware/gd32f3x0_hal_peripheral/Source/gd32f3x0_hal_adc.c ****             /* enable software trigger */
 824:../firmware/gd32f3x0_hal_peripheral/Source/gd32f3x0_hal_adc.c ****             hals_adc_external_trigger_config(ADC_ROUTINE_CHANNEL, ENABLE);
 1670              		.loc 1 824 13
 1671 00e6 0121     		movs	r1, #1
 1672 00e8 0120     		movs	r0, #1
 1673 00ea FFF7FEFF 		bl	hals_adc_external_trigger_config
 825:../firmware/gd32f3x0_hal_peripheral/Source/gd32f3x0_hal_adc.c ****             hals_adc_software_trigger_enable(ADC_ROUTINE_CHANNEL);
 1674              		.loc 1 825 13
 1675 00ee 0120     		movs	r0, #1
 1676 00f0 FFF7FEFF 		bl	hals_adc_software_trigger_enable
 1677 00f4 07E0     		b	.L103
 1678              	.L102:
 826:../firmware/gd32f3x0_hal_peripheral/Source/gd32f3x0_hal_adc.c **** 
 827:../firmware/gd32f3x0_hal_peripheral/Source/gd32f3x0_hal_adc.c ****         } else {
 828:../firmware/gd32f3x0_hal_peripheral/Source/gd32f3x0_hal_adc.c ****             /* enable external trigger */
 829:../firmware/gd32f3x0_hal_peripheral/Source/gd32f3x0_hal_adc.c ****             hals_adc_external_trigger_config(ADC_ROUTINE_CHANNEL, ENABLE);
 1679              		.loc 1 829 13
 1680 00f6 0121     		movs	r1, #1
 1681 00f8 0120     		movs	r0, #1
 1682 00fa FFF7FEFF 		bl	hals_adc_external_trigger_config
 1683 00fe 02E0     		b	.L103
 1684              	.L98:
 830:../firmware/gd32f3x0_hal_peripheral/Source/gd32f3x0_hal_adc.c ****         }
 831:../firmware/gd32f3x0_hal_peripheral/Source/gd32f3x0_hal_adc.c ****     } else {
 832:../firmware/gd32f3x0_hal_peripheral/Source/gd32f3x0_hal_adc.c ****         return HAL_ERR_HARDWARE;
 1685              		.loc 1 832 16
 1686 0100 6FF00703 		mvn	r3, #7
 1687 0104 03E0     		b	.L104
 1688              	.L103:
 833:../firmware/gd32f3x0_hal_peripheral/Source/gd32f3x0_hal_adc.c ****     }
 834:../firmware/gd32f3x0_hal_peripheral/Source/gd32f3x0_hal_adc.c **** 
 835:../firmware/gd32f3x0_hal_peripheral/Source/gd32f3x0_hal_adc.c ****     /* unlock ADC */
 836:../firmware/gd32f3x0_hal_peripheral/Source/gd32f3x0_hal_adc.c ****     HAL_UNLOCK(adc_dev);
 1689              		.loc 1 836 5
 1690 0106 FB68     		ldr	r3, [r7, #12]
 1691 0108 0022     		movs	r2, #0
 1692 010a 5A77     		strb	r2, [r3, #29]
 837:../firmware/gd32f3x0_hal_peripheral/Source/gd32f3x0_hal_adc.c **** 
 838:../firmware/gd32f3x0_hal_peripheral/Source/gd32f3x0_hal_adc.c ****     return HAL_ERR_NONE;
 1693              		.loc 1 838 12
 1694 010c 0023     		movs	r3, #0
 1695              	.L104:
 839:../firmware/gd32f3x0_hal_peripheral/Source/gd32f3x0_hal_adc.c **** }
 1696              		.loc 1 839 1 discriminator 1
 1697 010e 1846     		mov	r0, r3
 1698 0110 2037     		adds	r7, r7, #32
 1699              		.cfi_def_cfa_offset 8
 1700 0112 BD46     		mov	sp, r7
 1701              		.cfi_def_cfa_register 13
 1702              		@ sp needed
 1703 0114 80BD     		pop	{r7, pc}
 1704              	.L106:
 1705 0116 00BF     		.align	2
 1706              	.L105:
 1707 0118 04240140 		.word	1073816580
 1708 011c 00000000 		.word	_adc_dma_full_transfer_complete
 1709 0120 00000000 		.word	_adc_dma_half_transfer_complete
 1710 0124 00000000 		.word	_adc_dma_error
 1711 0128 4C240140 		.word	1073816652
 1712 012c 08240140 		.word	1073816584
 1713              		.cfi_endproc
 1714              	.LFE131:
 1716              		.section	.text.hal_adc_stop_dma,"ax",%progbits
 1717              		.align	1
 1718              		.global	hal_adc_stop_dma
 1719              		.syntax unified
 1720              		.thumb
 1721              		.thumb_func
 1722              		.fpu softvfp
 1724              	hal_adc_stop_dma:
 1725              	.LFB132:
 840:../firmware/gd32f3x0_hal_peripheral/Source/gd32f3x0_hal_adc.c **** 
 841:../firmware/gd32f3x0_hal_peripheral/Source/gd32f3x0_hal_adc.c **** /*!
 842:../firmware/gd32f3x0_hal_peripheral/Source/gd32f3x0_hal_adc.c ****     \brief      stop the conversion of routine sequence, disable ADC DMA mode and disable ADC
 843:../firmware/gd32f3x0_hal_peripheral/Source/gd32f3x0_hal_adc.c ****     \param[in]  adc_dev: ADC device information structure
 844:../firmware/gd32f3x0_hal_peripheral/Source/gd32f3x0_hal_adc.c ****                   the structure is not necessary to be reconfigured after structrue initialization,
 845:../firmware/gd32f3x0_hal_peripheral/Source/gd32f3x0_hal_adc.c ****                   the structure parameters altering is automatically configured by core
 846:../firmware/gd32f3x0_hal_peripheral/Source/gd32f3x0_hal_adc.c ****     \param[out] none
 847:../firmware/gd32f3x0_hal_peripheral/Source/gd32f3x0_hal_adc.c ****     \retval     HAL_ERR_NONE, HAL_ERR_ADDRESS, HAL_ERR_HARDWARE, details refer to gd32f3x0_hal.h
 848:../firmware/gd32f3x0_hal_peripheral/Source/gd32f3x0_hal_adc.c **** */
 849:../firmware/gd32f3x0_hal_peripheral/Source/gd32f3x0_hal_adc.c **** int32_t hal_adc_stop_dma(hal_adc_dev_struct *adc_dev)
 850:../firmware/gd32f3x0_hal_peripheral/Source/gd32f3x0_hal_adc.c **** {
 1726              		.loc 1 850 1
 1727              		.cfi_startproc
 1728              		@ args = 0, pretend = 0, frame = 8
 1729              		@ frame_needed = 1, uses_anonymous_args = 0
 1730 0000 80B5     		push	{r7, lr}
 1731              		.cfi_def_cfa_offset 8
 1732              		.cfi_offset 7, -8
 1733              		.cfi_offset 14, -4
 1734 0002 82B0     		sub	sp, sp, #8
 1735              		.cfi_def_cfa_offset 16
 1736 0004 00AF     		add	r7, sp, #0
 1737              		.cfi_def_cfa_register 7
 1738 0006 7860     		str	r0, [r7, #4]
 851:../firmware/gd32f3x0_hal_peripheral/Source/gd32f3x0_hal_adc.c **** #if (1 == HAL_PARAMETER_CHECK)
 852:../firmware/gd32f3x0_hal_peripheral/Source/gd32f3x0_hal_adc.c ****     /* check the parameters */
 853:../firmware/gd32f3x0_hal_peripheral/Source/gd32f3x0_hal_adc.c ****     if(NULL == adc_dev) {
 854:../firmware/gd32f3x0_hal_peripheral/Source/gd32f3x0_hal_adc.c ****         HAL_DEBUGE("pointer [adc_dev] address is invalid");
 855:../firmware/gd32f3x0_hal_peripheral/Source/gd32f3x0_hal_adc.c ****         return HAL_ERR_ADDRESS;
 856:../firmware/gd32f3x0_hal_peripheral/Source/gd32f3x0_hal_adc.c ****     }
 857:../firmware/gd32f3x0_hal_peripheral/Source/gd32f3x0_hal_adc.c **** #endif /* 1 = HAL_PARAMETER_CHECK */
 858:../firmware/gd32f3x0_hal_peripheral/Source/gd32f3x0_hal_adc.c **** 
 859:../firmware/gd32f3x0_hal_peripheral/Source/gd32f3x0_hal_adc.c ****     /* if ADC is enabled */
 860:../firmware/gd32f3x0_hal_peripheral/Source/gd32f3x0_hal_adc.c ****     if(HAL_ERR_NONE == _adc_disable(adc_dev)) {
 1739              		.loc 1 860 24
 1740 0008 7868     		ldr	r0, [r7, #4]
 1741 000a FFF7FEFF 		bl	_adc_disable
 1742 000e 0346     		mov	r3, r0
 1743              		.loc 1 860 7
 1744 0010 002B     		cmp	r3, #0
 1745 0012 1ED1     		bne	.L108
 861:../firmware/gd32f3x0_hal_peripheral/Source/gd32f3x0_hal_adc.c ****         /* disable ADC DMA mode */
 862:../firmware/gd32f3x0_hal_peripheral/Source/gd32f3x0_hal_adc.c ****         hals_adc_dma_mode_disable();
 1746              		.loc 1 862 9
 1747 0014 FFF7FEFF 		bl	hals_adc_dma_mode_disable
 863:../firmware/gd32f3x0_hal_peripheral/Source/gd32f3x0_hal_adc.c ****         /* disable the DMA channel */
 864:../firmware/gd32f3x0_hal_peripheral/Source/gd32f3x0_hal_adc.c ****         hal_dma_stop(adc_dev->p_dma_adc);
 1748              		.loc 1 864 9
 1749 0018 7B68     		ldr	r3, [r7, #4]
 1750 001a DB68     		ldr	r3, [r3, #12]
 1751 001c 1846     		mov	r0, r3
 1752 001e FFF7FEFF 		bl	hal_dma_stop
 865:../firmware/gd32f3x0_hal_peripheral/Source/gd32f3x0_hal_adc.c **** 
 866:../firmware/gd32f3x0_hal_peripheral/Source/gd32f3x0_hal_adc.c ****         /* reset DMA callback function interrupt handler */
 867:../firmware/gd32f3x0_hal_peripheral/Source/gd32f3x0_hal_adc.c ****         adc_dev->adc_dma.full_transcom_handle = NULL;
 1753              		.loc 1 867 47
 1754 0022 7B68     		ldr	r3, [r7, #4]
 1755 0024 0022     		movs	r2, #0
 1756 0026 1A61     		str	r2, [r3, #16]
 868:../firmware/gd32f3x0_hal_peripheral/Source/gd32f3x0_hal_adc.c ****         adc_dev->adc_dma.half_transcom_handle = NULL;
 1757              		.loc 1 868 47
 1758 0028 7B68     		ldr	r3, [r7, #4]
 1759 002a 0022     		movs	r2, #0
 1760 002c 5A61     		str	r2, [r3, #20]
 869:../firmware/gd32f3x0_hal_peripheral/Source/gd32f3x0_hal_adc.c ****         adc_dev->adc_dma.error_handle = NULL;
 1761              		.loc 1 869 39
 1762 002e 7B68     		ldr	r3, [r7, #4]
 1763 0030 0022     		movs	r2, #0
 1764 0032 9A61     		str	r2, [r3, #24]
 870:../firmware/gd32f3x0_hal_peripheral/Source/gd32f3x0_hal_adc.c **** 
 871:../firmware/gd32f3x0_hal_peripheral/Source/gd32f3x0_hal_adc.c ****         /* set ADC state */
 872:../firmware/gd32f3x0_hal_peripheral/Source/gd32f3x0_hal_adc.c ****         _adc_state_clear(adc_dev, HAL_ADC_STATE_ROUTINE_BUSY);
 1765              		.loc 1 872 9
 1766 0034 1021     		movs	r1, #16
 1767 0036 7868     		ldr	r0, [r7, #4]
 1768 0038 FFF7FEFF 		bl	_adc_state_clear
 873:../firmware/gd32f3x0_hal_peripheral/Source/gd32f3x0_hal_adc.c ****         _adc_state_clear(adc_dev, HAL_ADC_STATE_INSERTED_BUSY);
 1769              		.loc 1 873 9
 1770 003c 4FF48071 		mov	r1, #256
 1771 0040 7868     		ldr	r0, [r7, #4]
 1772 0042 FFF7FEFF 		bl	_adc_state_clear
 874:../firmware/gd32f3x0_hal_peripheral/Source/gd32f3x0_hal_adc.c ****         _adc_state_set(adc_dev, HAL_ADC_STATE_READY);
 1773              		.loc 1 874 9
 1774 0046 0121     		movs	r1, #1
 1775 0048 7868     		ldr	r0, [r7, #4]
 1776 004a FFF7FEFF 		bl	_adc_state_set
 875:../firmware/gd32f3x0_hal_peripheral/Source/gd32f3x0_hal_adc.c ****     } else {
 876:../firmware/gd32f3x0_hal_peripheral/Source/gd32f3x0_hal_adc.c ****         return HAL_ERR_HARDWARE;
 877:../firmware/gd32f3x0_hal_peripheral/Source/gd32f3x0_hal_adc.c ****     }
 878:../firmware/gd32f3x0_hal_peripheral/Source/gd32f3x0_hal_adc.c **** 
 879:../firmware/gd32f3x0_hal_peripheral/Source/gd32f3x0_hal_adc.c ****     return HAL_ERR_NONE;
 1777              		.loc 1 879 12
 1778 004e 0023     		movs	r3, #0
 1779 0050 01E0     		b	.L110
 1780              	.L108:
 876:../firmware/gd32f3x0_hal_peripheral/Source/gd32f3x0_hal_adc.c ****     }
 1781              		.loc 1 876 16
 1782 0052 6FF00703 		mvn	r3, #7
 1783              	.L110:
 880:../firmware/gd32f3x0_hal_peripheral/Source/gd32f3x0_hal_adc.c **** }
 1784              		.loc 1 880 1
 1785 0056 1846     		mov	r0, r3
 1786 0058 0837     		adds	r7, r7, #8
 1787              		.cfi_def_cfa_offset 8
 1788 005a BD46     		mov	sp, r7
 1789              		.cfi_def_cfa_register 13
 1790              		@ sp needed
 1791 005c 80BD     		pop	{r7, pc}
 1792              		.cfi_endproc
 1793              	.LFE132:
 1795              		.section	.text.hal_adc_inserted_channel_config,"ax",%progbits
 1796              		.align	1
 1797              		.global	hal_adc_inserted_channel_config
 1798              		.syntax unified
 1799              		.thumb
 1800              		.thumb_func
 1801              		.fpu softvfp
 1803              	hal_adc_inserted_channel_config:
 1804              	.LFB133:
 881:../firmware/gd32f3x0_hal_peripheral/Source/gd32f3x0_hal_adc.c **** 
 882:../firmware/gd32f3x0_hal_peripheral/Source/gd32f3x0_hal_adc.c **** /*!
 883:../firmware/gd32f3x0_hal_peripheral/Source/gd32f3x0_hal_adc.c ****     \brief      initialize ADC inserted channel
 884:../firmware/gd32f3x0_hal_peripheral/Source/gd32f3x0_hal_adc.c ****     \param[in]  adc_dev: ADC device information structure
 885:../firmware/gd32f3x0_hal_peripheral/Source/gd32f3x0_hal_adc.c ****                   the structure is not necessary to be reconfigured after structrue initialization,
 886:../firmware/gd32f3x0_hal_peripheral/Source/gd32f3x0_hal_adc.c ****                   the structure parameters altering is automatically configured by core
 887:../firmware/gd32f3x0_hal_peripheral/Source/gd32f3x0_hal_adc.c ****     \param[in]  p_ichannel: the pointer of ADC inserted sequence init structure
 888:../firmware/gd32f3x0_hal_peripheral/Source/gd32f3x0_hal_adc.c ****                   inserted_sequence_conversions: ENABLE, DISABLE
 889:../firmware/gd32f3x0_hal_peripheral/Source/gd32f3x0_hal_adc.c ****                   inserted_sequence_length: 1-4
 890:../firmware/gd32f3x0_hal_peripheral/Source/gd32f3x0_hal_adc.c ****                   inserted_sequence_external_trigger_select: inserted sequence trigger source
 891:../firmware/gd32f3x0_hal_peripheral/Source/gd32f3x0_hal_adc.c ****                   only one parameter can be selected which is shown as below:
 892:../firmware/gd32f3x0_hal_peripheral/Source/gd32f3x0_hal_adc.c ****       \arg          ADC_EXTTRIG_INSERTED_T0_TRGO: TIMER0 TRGO event select
 893:../firmware/gd32f3x0_hal_peripheral/Source/gd32f3x0_hal_adc.c ****       \arg          ADC_EXTTRIG_INSERTED_T0_CH3: TIMER0 CH3 event select
 894:../firmware/gd32f3x0_hal_peripheral/Source/gd32f3x0_hal_adc.c ****       \arg          ADC_EXTTRIG_INSERTED_T1_TRGO: TIMER1 TRGO event select
 895:../firmware/gd32f3x0_hal_peripheral/Source/gd32f3x0_hal_adc.c ****       \arg          ADC_EXTTRIG_INSERTED_T1_CH0: TIMER1 CH0 event select
 896:../firmware/gd32f3x0_hal_peripheral/Source/gd32f3x0_hal_adc.c ****       \arg          ADC_EXTTRIG_INSERTED_T2_CH3: TIMER2 CH3 event select
 897:../firmware/gd32f3x0_hal_peripheral/Source/gd32f3x0_hal_adc.c ****       \arg          ADC_EXTTRIG_INSERTED_T14_TRGO: TIMER14 TRGO event select
 898:../firmware/gd32f3x0_hal_peripheral/Source/gd32f3x0_hal_adc.c ****       \arg          ADC_EXTTRIG_INSERTED_EXTI_15: external interrupt line 15
 899:../firmware/gd32f3x0_hal_peripheral/Source/gd32f3x0_hal_adc.c ****       \arg          ADC_EXTTRIG_INSERTED_NONE: software trigger
 900:../firmware/gd32f3x0_hal_peripheral/Source/gd32f3x0_hal_adc.c ****                   auto_convert:
 901:../firmware/gd32f3x0_hal_peripheral/Source/gd32f3x0_hal_adc.c ****       \arg          ENABLE: enable auto convert
 902:../firmware/gd32f3x0_hal_peripheral/Source/gd32f3x0_hal_adc.c ****       \arg          DISABLE: disable auto convert
 903:../firmware/gd32f3x0_hal_peripheral/Source/gd32f3x0_hal_adc.c ****                   discontinuous_mode:
 904:../firmware/gd32f3x0_hal_peripheral/Source/gd32f3x0_hal_adc.c ****       \arg          ENABLE: enable discontinuous mode
 905:../firmware/gd32f3x0_hal_peripheral/Source/gd32f3x0_hal_adc.c ****       \arg          DISABLE: disable discontinuous mode
 906:../firmware/gd32f3x0_hal_peripheral/Source/gd32f3x0_hal_adc.c ****     \param[out] none
 907:../firmware/gd32f3x0_hal_peripheral/Source/gd32f3x0_hal_adc.c ****     \retval     HAL_ERR_NONE, HAL_ERR_ADDRESS, HAL_ERR_NO_SUPPORT, details refer to gd32f3x0_hal.h
 908:../firmware/gd32f3x0_hal_peripheral/Source/gd32f3x0_hal_adc.c **** */
 909:../firmware/gd32f3x0_hal_peripheral/Source/gd32f3x0_hal_adc.c **** int32_t hal_adc_inserted_channel_config(hal_adc_dev_struct *adc_dev, hal_adc_inserted_config_struct
 910:../firmware/gd32f3x0_hal_peripheral/Source/gd32f3x0_hal_adc.c **** {
 1805              		.loc 1 910 1
 1806              		.cfi_startproc
 1807              		@ args = 0, pretend = 0, frame = 8
 1808              		@ frame_needed = 1, uses_anonymous_args = 0
 1809 0000 80B5     		push	{r7, lr}
 1810              		.cfi_def_cfa_offset 8
 1811              		.cfi_offset 7, -8
 1812              		.cfi_offset 14, -4
 1813 0002 82B0     		sub	sp, sp, #8
 1814              		.cfi_def_cfa_offset 16
 1815 0004 00AF     		add	r7, sp, #0
 1816              		.cfi_def_cfa_register 7
 1817 0006 7860     		str	r0, [r7, #4]
 1818 0008 3960     		str	r1, [r7]
 911:../firmware/gd32f3x0_hal_peripheral/Source/gd32f3x0_hal_adc.c **** #if (1 == HAL_PARAMETER_CHECK)
 912:../firmware/gd32f3x0_hal_peripheral/Source/gd32f3x0_hal_adc.c ****     /* check the parameters */
 913:../firmware/gd32f3x0_hal_peripheral/Source/gd32f3x0_hal_adc.c ****     if((NULL == adc_dev) || (NULL == p_ichannel)) {
 914:../firmware/gd32f3x0_hal_peripheral/Source/gd32f3x0_hal_adc.c ****         HAL_DEBUGE("pointer [adc_dev] or [p_iinit] address is invalid");
 915:../firmware/gd32f3x0_hal_peripheral/Source/gd32f3x0_hal_adc.c ****         return HAL_ERR_ADDRESS;
 916:../firmware/gd32f3x0_hal_peripheral/Source/gd32f3x0_hal_adc.c ****     }
 917:../firmware/gd32f3x0_hal_peripheral/Source/gd32f3x0_hal_adc.c **** #endif /* 1 = HAL_PARAMETER_CHECK */
 918:../firmware/gd32f3x0_hal_peripheral/Source/gd32f3x0_hal_adc.c **** 
 919:../firmware/gd32f3x0_hal_peripheral/Source/gd32f3x0_hal_adc.c ****     /* ADC inserted channel initialize */
 920:../firmware/gd32f3x0_hal_peripheral/Source/gd32f3x0_hal_adc.c ****     if(ENABLE == p_ichannel->inserted_sequence_conversions) {
 1819              		.loc 1 920 28
 1820 000a 3B68     		ldr	r3, [r7]
 1821 000c 1B78     		ldrb	r3, [r3]	@ zero_extendqisi2
 1822              		.loc 1 920 7
 1823 000e 012B     		cmp	r3, #1
 1824 0010 45D1     		bne	.L112
 921:../firmware/gd32f3x0_hal_peripheral/Source/gd32f3x0_hal_adc.c ****         /* ADC inserted channel length config */
 922:../firmware/gd32f3x0_hal_peripheral/Source/gd32f3x0_hal_adc.c ****         hals_adc_channel_length_config(ADC_INSERTED_CHANNEL, p_ichannel->inserted_sequence_length);
 1825              		.loc 1 922 9
 1826 0012 3B68     		ldr	r3, [r7]
 1827 0014 5B68     		ldr	r3, [r3, #4]
 1828 0016 1946     		mov	r1, r3
 1829 0018 0220     		movs	r0, #2
 1830 001a FFF7FEFF 		bl	hals_adc_channel_length_config
 923:../firmware/gd32f3x0_hal_peripheral/Source/gd32f3x0_hal_adc.c **** 
 924:../firmware/gd32f3x0_hal_peripheral/Source/gd32f3x0_hal_adc.c ****         /* ADC inserted channel external trigger config */
 925:../firmware/gd32f3x0_hal_peripheral/Source/gd32f3x0_hal_adc.c ****         hals_adc_external_trigger_source_config(ADC_INSERTED_CHANNEL,
 1831              		.loc 1 925 9
 1832 001e 3B68     		ldr	r3, [r7]
 1833 0020 9B68     		ldr	r3, [r3, #8]
 1834 0022 1946     		mov	r1, r3
 1835 0024 0220     		movs	r0, #2
 1836 0026 FFF7FEFF 		bl	hals_adc_external_trigger_source_config
 926:../firmware/gd32f3x0_hal_peripheral/Source/gd32f3x0_hal_adc.c ****                                                 p_ichannel->inserted_sequence_external_trigger_sele
 927:../firmware/gd32f3x0_hal_peripheral/Source/gd32f3x0_hal_adc.c **** 
 928:../firmware/gd32f3x0_hal_peripheral/Source/gd32f3x0_hal_adc.c ****         /* ADC inserted channel sequence convert automatically config */
 929:../firmware/gd32f3x0_hal_peripheral/Source/gd32f3x0_hal_adc.c ****         if(ENABLE == p_ichannel->auto_convert) {
 1837              		.loc 1 929 32
 1838 002a 3B68     		ldr	r3, [r7]
 1839 002c 1B7B     		ldrb	r3, [r3, #12]	@ zero_extendqisi2
 1840              		.loc 1 929 11
 1841 002e 012B     		cmp	r3, #1
 1842 0030 13D1     		bne	.L113
 930:../firmware/gd32f3x0_hal_peripheral/Source/gd32f3x0_hal_adc.c ****             if(ADC_EXTTRIG_INSERTED_NONE == p_ichannel->inserted_sequence_external_trigger_select) 
 1843              		.loc 1 930 55
 1844 0032 3B68     		ldr	r3, [r7]
 1845 0034 9B68     		ldr	r3, [r3, #8]
 1846              		.loc 1 930 15
 1847 0036 B3F5E04F 		cmp	r3, #28672
 1848 003a 07D1     		bne	.L114
 931:../firmware/gd32f3x0_hal_peripheral/Source/gd32f3x0_hal_adc.c ****                 hals_adc_special_function_config(ADC_INSERTED_CHANNEL_AUTO, p_ichannel->auto_conver
 1849              		.loc 1 931 17
 1850 003c 3B68     		ldr	r3, [r7]
 1851 003e 1B7B     		ldrb	r3, [r3, #12]	@ zero_extendqisi2
 1852 0040 1946     		mov	r1, r3
 1853 0042 4FF48060 		mov	r0, #1024
 1854 0046 FFF7FEFF 		bl	hals_adc_special_function_config
 1855 004a 0CE0     		b	.L115
 1856              	.L114:
 932:../firmware/gd32f3x0_hal_peripheral/Source/gd32f3x0_hal_adc.c ****             } else {
 933:../firmware/gd32f3x0_hal_peripheral/Source/gd32f3x0_hal_adc.c ****                 _adc_error_set(adc_dev, HAL_ADC_ERROR_CONFIG);
 1857              		.loc 1 933 17
 1858 004c 0421     		movs	r1, #4
 1859 004e 7868     		ldr	r0, [r7, #4]
 1860 0050 FFF7FEFF 		bl	_adc_error_set
 934:../firmware/gd32f3x0_hal_peripheral/Source/gd32f3x0_hal_adc.c ****                 return HAL_ERR_NO_SUPPORT;
 1861              		.loc 1 934 24
 1862 0054 6FF00303 		mvn	r3, #3
 1863 0058 22E0     		b	.L116
 1864              	.L113:
 935:../firmware/gd32f3x0_hal_peripheral/Source/gd32f3x0_hal_adc.c ****             }
 936:../firmware/gd32f3x0_hal_peripheral/Source/gd32f3x0_hal_adc.c ****         } else {
 937:../firmware/gd32f3x0_hal_peripheral/Source/gd32f3x0_hal_adc.c ****             ADC_CTL0 &= ~((uint32_t)ADC_CTL0_ICA);
 1865              		.loc 1 937 22
 1866 005a 134B     		ldr	r3, .L119
 1867 005c 1B68     		ldr	r3, [r3]
 1868 005e 124A     		ldr	r2, .L119
 1869 0060 23F48063 		bic	r3, r3, #1024
 1870 0064 1360     		str	r3, [r2]
 1871              	.L115:
 938:../firmware/gd32f3x0_hal_peripheral/Source/gd32f3x0_hal_adc.c ****         }
 939:../firmware/gd32f3x0_hal_peripheral/Source/gd32f3x0_hal_adc.c **** 
 940:../firmware/gd32f3x0_hal_peripheral/Source/gd32f3x0_hal_adc.c ****         /* ADC discontinuous mode config */
 941:../firmware/gd32f3x0_hal_peripheral/Source/gd32f3x0_hal_adc.c ****         if(ENABLE == p_ichannel->discontinuous_mode) {
 1872              		.loc 1 941 32
 1873 0066 3B68     		ldr	r3, [r7]
 1874 0068 5B7B     		ldrb	r3, [r3, #13]	@ zero_extendqisi2
 1875              		.loc 1 941 11
 1876 006a 012B     		cmp	r3, #1
 1877 006c 11D1     		bne	.L117
 942:../firmware/gd32f3x0_hal_peripheral/Source/gd32f3x0_hal_adc.c ****             /* inserted discontinuous can be enabled only if auto-inserted mode is disabled.   */
 943:../firmware/gd32f3x0_hal_peripheral/Source/gd32f3x0_hal_adc.c ****             if(DISABLE == p_ichannel->auto_convert) {
 1878              		.loc 1 943 37
 1879 006e 3B68     		ldr	r3, [r7]
 1880 0070 1B7B     		ldrb	r3, [r3, #12]	@ zero_extendqisi2
 1881              		.loc 1 943 15
 1882 0072 002B     		cmp	r3, #0
 1883 0074 06D1     		bne	.L118
 944:../firmware/gd32f3x0_hal_peripheral/Source/gd32f3x0_hal_adc.c ****                 ADC_CTL0 |= (uint32_t)ADC_CTL0_DISIC;
 1884              		.loc 1 944 26
 1885 0076 0C4B     		ldr	r3, .L119
 1886 0078 1B68     		ldr	r3, [r3]
 1887 007a 0B4A     		ldr	r2, .L119
 1888 007c 43F48053 		orr	r3, r3, #4096
 1889 0080 1360     		str	r3, [r2]
 1890 0082 0CE0     		b	.L112
 1891              	.L118:
 945:../firmware/gd32f3x0_hal_peripheral/Source/gd32f3x0_hal_adc.c ****             } else {
 946:../firmware/gd32f3x0_hal_peripheral/Source/gd32f3x0_hal_adc.c ****                 _adc_error_set(adc_dev, HAL_ADC_ERROR_CONFIG);
 1892              		.loc 1 946 17
 1893 0084 0421     		movs	r1, #4
 1894 0086 7868     		ldr	r0, [r7, #4]
 1895 0088 FFF7FEFF 		bl	_adc_error_set
 947:../firmware/gd32f3x0_hal_peripheral/Source/gd32f3x0_hal_adc.c ****                 return HAL_ERR_NO_SUPPORT;
 1896              		.loc 1 947 24
 1897 008c 6FF00303 		mvn	r3, #3
 1898 0090 06E0     		b	.L116
 1899              	.L117:
 948:../firmware/gd32f3x0_hal_peripheral/Source/gd32f3x0_hal_adc.c ****             }
 949:../firmware/gd32f3x0_hal_peripheral/Source/gd32f3x0_hal_adc.c ****         } else {
 950:../firmware/gd32f3x0_hal_peripheral/Source/gd32f3x0_hal_adc.c ****             ADC_CTL0 &= ~((uint32_t)ADC_CTL0_DISIC);
 1900              		.loc 1 950 22
 1901 0092 054B     		ldr	r3, .L119
 1902 0094 1B68     		ldr	r3, [r3]
 1903 0096 044A     		ldr	r2, .L119
 1904 0098 23F48053 		bic	r3, r3, #4096
 1905 009c 1360     		str	r3, [r2]
 1906              	.L112:
 951:../firmware/gd32f3x0_hal_peripheral/Source/gd32f3x0_hal_adc.c ****         }
 952:../firmware/gd32f3x0_hal_peripheral/Source/gd32f3x0_hal_adc.c ****     }
 953:../firmware/gd32f3x0_hal_peripheral/Source/gd32f3x0_hal_adc.c **** 
 954:../firmware/gd32f3x0_hal_peripheral/Source/gd32f3x0_hal_adc.c ****     return HAL_ERR_NONE;
 1907              		.loc 1 954 12
 1908 009e 0023     		movs	r3, #0
 1909              	.L116:
 955:../firmware/gd32f3x0_hal_peripheral/Source/gd32f3x0_hal_adc.c **** }
 1910              		.loc 1 955 1
 1911 00a0 1846     		mov	r0, r3
 1912 00a2 0837     		adds	r7, r7, #8
 1913              		.cfi_def_cfa_offset 8
 1914 00a4 BD46     		mov	sp, r7
 1915              		.cfi_def_cfa_register 13
 1916              		@ sp needed
 1917 00a6 80BD     		pop	{r7, pc}
 1918              	.L120:
 1919              		.align	2
 1920              	.L119:
 1921 00a8 04240140 		.word	1073816580
 1922              		.cfi_endproc
 1923              	.LFE133:
 1925              		.section	.text.hal_adc_inserted_rank_config,"ax",%progbits
 1926              		.align	1
 1927              		.global	hal_adc_inserted_rank_config
 1928              		.syntax unified
 1929              		.thumb
 1930              		.thumb_func
 1931              		.fpu softvfp
 1933              	hal_adc_inserted_rank_config:
 1934              	.LFB134:
 956:../firmware/gd32f3x0_hal_peripheral/Source/gd32f3x0_hal_adc.c **** 
 957:../firmware/gd32f3x0_hal_peripheral/Source/gd32f3x0_hal_adc.c **** /*!
 958:../firmware/gd32f3x0_hal_peripheral/Source/gd32f3x0_hal_adc.c ****     \brief      configure ADC inserted rank
 959:../firmware/gd32f3x0_hal_peripheral/Source/gd32f3x0_hal_adc.c ****     \param[in]  adc_dev: ADC device information structure
 960:../firmware/gd32f3x0_hal_peripheral/Source/gd32f3x0_hal_adc.c ****                   the structure is not necessary to be reconfigured after structrue initialization,
 961:../firmware/gd32f3x0_hal_peripheral/Source/gd32f3x0_hal_adc.c ****                   the structure parameters altering is automatically configured by core
 962:../firmware/gd32f3x0_hal_peripheral/Source/gd32f3x0_hal_adc.c ****     \param[in]  p_irank: the pointer of ADC inserted channel configuration structure
 963:../firmware/gd32f3x0_hal_peripheral/Source/gd32f3x0_hal_adc.c ****                   channel: ADC_CHANNEL_x(x=0..18)
 964:../firmware/gd32f3x0_hal_peripheral/Source/gd32f3x0_hal_adc.c ****                   inserted_sequence:
 965:../firmware/gd32f3x0_hal_peripheral/Source/gd32f3x0_hal_adc.c ****                     the argument could be selected from enumeration <hal_adc_inserted_sequence_enum
 966:../firmware/gd32f3x0_hal_peripheral/Source/gd32f3x0_hal_adc.c ****                   sampling_time: the sample time value
 967:../firmware/gd32f3x0_hal_peripheral/Source/gd32f3x0_hal_adc.c ****                   only one parameter can be selected which is shown as below:
 968:../firmware/gd32f3x0_hal_peripheral/Source/gd32f3x0_hal_adc.c ****       \arg          ADC_SAMPLETIME_1POINT5: 1.5 sampling cycles
 969:../firmware/gd32f3x0_hal_peripheral/Source/gd32f3x0_hal_adc.c ****       \arg          ADC_SAMPLETIME_7POINT5: 7.5 sampling cycles
 970:../firmware/gd32f3x0_hal_peripheral/Source/gd32f3x0_hal_adc.c ****       \arg          ADC_SAMPLETIME_13POINT5: 13.5 sampling cycles
 971:../firmware/gd32f3x0_hal_peripheral/Source/gd32f3x0_hal_adc.c ****       \arg          ADC_SAMPLETIME_28POINT5: 28.5 sampling cycles
 972:../firmware/gd32f3x0_hal_peripheral/Source/gd32f3x0_hal_adc.c ****       \arg          ADC_SAMPLETIME_41POINT5: 41.5 sampling cycles
 973:../firmware/gd32f3x0_hal_peripheral/Source/gd32f3x0_hal_adc.c ****       \arg          ADC_SAMPLETIME_55POINT5: 55.5 sampling cycles
 974:../firmware/gd32f3x0_hal_peripheral/Source/gd32f3x0_hal_adc.c ****       \arg          ADC_SAMPLETIME_71POINT5: 71.5 sampling cycles
 975:../firmware/gd32f3x0_hal_peripheral/Source/gd32f3x0_hal_adc.c ****       \arg          ADC_SAMPLETIME_239POINT5: 239.5 sampling cycles
 976:../firmware/gd32f3x0_hal_peripheral/Source/gd32f3x0_hal_adc.c ****                   data_offset: the offset data(0-0x0FFF)
 977:../firmware/gd32f3x0_hal_peripheral/Source/gd32f3x0_hal_adc.c ****     \param[out] none
 978:../firmware/gd32f3x0_hal_peripheral/Source/gd32f3x0_hal_adc.c ****     \retval     HAL_ERR_NONE, HAL_ERR_ADDRESS, HAL_ERR_NO_SUPPORT, details refer to gd32f3x0_hal.h
 979:../firmware/gd32f3x0_hal_peripheral/Source/gd32f3x0_hal_adc.c **** */
 980:../firmware/gd32f3x0_hal_peripheral/Source/gd32f3x0_hal_adc.c **** int32_t hal_adc_inserted_rank_config(hal_adc_dev_struct *adc_dev, hal_adc_inserted_rank_config_stru
 981:../firmware/gd32f3x0_hal_peripheral/Source/gd32f3x0_hal_adc.c **** {
 1935              		.loc 1 981 1
 1936              		.cfi_startproc
 1937              		@ args = 0, pretend = 0, frame = 24
 1938              		@ frame_needed = 1, uses_anonymous_args = 0
 1939 0000 80B5     		push	{r7, lr}
 1940              		.cfi_def_cfa_offset 8
 1941              		.cfi_offset 7, -8
 1942              		.cfi_offset 14, -4
 1943 0002 86B0     		sub	sp, sp, #24
 1944              		.cfi_def_cfa_offset 32
 1945 0004 00AF     		add	r7, sp, #0
 1946              		.cfi_def_cfa_register 7
 1947 0006 7860     		str	r0, [r7, #4]
 1948 0008 3960     		str	r1, [r7]
 982:../firmware/gd32f3x0_hal_peripheral/Source/gd32f3x0_hal_adc.c ****     uint32_t reg_temp;
 983:../firmware/gd32f3x0_hal_peripheral/Source/gd32f3x0_hal_adc.c ****     uint32_t length_temp;
 984:../firmware/gd32f3x0_hal_peripheral/Source/gd32f3x0_hal_adc.c ****     __IO uint32_t wait_loop = 0;
 1949              		.loc 1 984 19
 1950 000a 0023     		movs	r3, #0
 1951 000c BB60     		str	r3, [r7, #8]
 985:../firmware/gd32f3x0_hal_peripheral/Source/gd32f3x0_hal_adc.c ****     uint8_t inserted_length;
 986:../firmware/gd32f3x0_hal_peripheral/Source/gd32f3x0_hal_adc.c **** 
 987:../firmware/gd32f3x0_hal_peripheral/Source/gd32f3x0_hal_adc.c **** #if (1 == HAL_PARAMETER_CHECK)
 988:../firmware/gd32f3x0_hal_peripheral/Source/gd32f3x0_hal_adc.c ****     /* check the parameters */
 989:../firmware/gd32f3x0_hal_peripheral/Source/gd32f3x0_hal_adc.c ****     if((NULL == adc_dev) || (NULL == p_irank)) {
 990:../firmware/gd32f3x0_hal_peripheral/Source/gd32f3x0_hal_adc.c ****         HAL_DEBUGE("pointer [adc_dev] or [p_ichannel] address is invalid");
 991:../firmware/gd32f3x0_hal_peripheral/Source/gd32f3x0_hal_adc.c ****         return HAL_ERR_ADDRESS;
 992:../firmware/gd32f3x0_hal_peripheral/Source/gd32f3x0_hal_adc.c ****     }
 993:../firmware/gd32f3x0_hal_peripheral/Source/gd32f3x0_hal_adc.c **** #endif /* 1 = HAL_PARAMETER_CHECK */
 994:../firmware/gd32f3x0_hal_peripheral/Source/gd32f3x0_hal_adc.c **** 
 995:../firmware/gd32f3x0_hal_peripheral/Source/gd32f3x0_hal_adc.c ****     /* ADC inserted channel length */
 996:../firmware/gd32f3x0_hal_peripheral/Source/gd32f3x0_hal_adc.c ****     length_temp = ((ADC_ISQ & ADC_ISQ_IL) >> 20U) + 1U;
 1952              		.loc 1 996 21
 1953 000e 504B     		ldr	r3, .L132
 1954 0010 1B68     		ldr	r3, [r3]
 1955              		.loc 1 996 43
 1956 0012 1B0D     		lsrs	r3, r3, #20
 1957 0014 03F00303 		and	r3, r3, #3
 1958              		.loc 1 996 17
 1959 0018 0133     		adds	r3, r3, #1
 1960 001a 7B61     		str	r3, [r7, #20]
 997:../firmware/gd32f3x0_hal_peripheral/Source/gd32f3x0_hal_adc.c **** 
 998:../firmware/gd32f3x0_hal_peripheral/Source/gd32f3x0_hal_adc.c ****     if(RESET == __HAL_ADC_GET_SCAN_MODE) {
 1961              		.loc 1 998 17
 1962 001c 4D4B     		ldr	r3, .L132+4
 1963 001e 1B68     		ldr	r3, [r3]
 1964 0020 03F48073 		and	r3, r3, #256
 1965              		.loc 1 998 7
 1966 0024 002B     		cmp	r3, #0
 1967 0026 14D1     		bne	.L122
 999:../firmware/gd32f3x0_hal_peripheral/Source/gd32f3x0_hal_adc.c ****         if(ADC_INSERTED_SEQUENCE_0 == p_irank->inserted_sequence) {
 1968              		.loc 1 999 46
 1969 0028 3B68     		ldr	r3, [r7]
 1970 002a 1B7B     		ldrb	r3, [r3, #12]	@ zero_extendqisi2
 1971              		.loc 1 999 11
 1972 002c 002B     		cmp	r3, #0
 1973 002e 09D1     		bne	.L123
1000:../firmware/gd32f3x0_hal_peripheral/Source/gd32f3x0_hal_adc.c ****             /* ADC inserted channel config */
1001:../firmware/gd32f3x0_hal_peripheral/Source/gd32f3x0_hal_adc.c ****             hals_adc_inserted_channel_config(ADC_INSERTED_SEQUENCE_0, p_irank->channel, p_irank->sa
 1974              		.loc 1 1001 78
 1975 0030 3B68     		ldr	r3, [r7]
 1976 0032 1B68     		ldr	r3, [r3]
 1977              		.loc 1 1001 13
 1978 0034 D9B2     		uxtb	r1, r3
 1979 0036 3B68     		ldr	r3, [r7]
 1980 0038 5B68     		ldr	r3, [r3, #4]
 1981 003a 1A46     		mov	r2, r3
 1982 003c 0020     		movs	r0, #0
 1983 003e FFF7FEFF 		bl	hals_adc_inserted_channel_config
 1984 0042 39E0     		b	.L124
 1985              	.L123:
1002:../firmware/gd32f3x0_hal_peripheral/Source/gd32f3x0_hal_adc.c ****         } else {
1003:../firmware/gd32f3x0_hal_peripheral/Source/gd32f3x0_hal_adc.c ****             _adc_error_set(adc_dev, HAL_ADC_ERROR_CONFIG);
 1986              		.loc 1 1003 13
 1987 0044 0421     		movs	r1, #4
 1988 0046 7868     		ldr	r0, [r7, #4]
 1989 0048 FFF7FEFF 		bl	_adc_error_set
1004:../firmware/gd32f3x0_hal_peripheral/Source/gd32f3x0_hal_adc.c ****             return HAL_ERR_NO_SUPPORT;
 1990              		.loc 1 1004 20
 1991 004c 6FF00303 		mvn	r3, #3
 1992 0050 79E0     		b	.L125
 1993              	.L122:
1005:../firmware/gd32f3x0_hal_peripheral/Source/gd32f3x0_hal_adc.c ****         }
1006:../firmware/gd32f3x0_hal_peripheral/Source/gd32f3x0_hal_adc.c ****     } else {
1007:../firmware/gd32f3x0_hal_peripheral/Source/gd32f3x0_hal_adc.c ****         if(p_irank->inserted_sequence <= (length_temp - 1U)) {
 1994              		.loc 1 1007 19
 1995 0052 3B68     		ldr	r3, [r7]
 1996 0054 1B7B     		ldrb	r3, [r3, #12]	@ zero_extendqisi2
 1997 0056 1A46     		mov	r2, r3
 1998              		.loc 1 1007 55
 1999 0058 7B69     		ldr	r3, [r7, #20]
 2000 005a 013B     		subs	r3, r3, #1
 2001              		.loc 1 1007 11
 2002 005c 9A42     		cmp	r2, r3
 2003 005e 0AD8     		bhi	.L126
1008:../firmware/gd32f3x0_hal_peripheral/Source/gd32f3x0_hal_adc.c ****             /* ADC inserted channel config */
1009:../firmware/gd32f3x0_hal_peripheral/Source/gd32f3x0_hal_adc.c ****             hals_adc_inserted_channel_config(p_irank->inserted_sequence, p_irank->channel,
 2004              		.loc 1 1009 53
 2005 0060 3B68     		ldr	r3, [r7]
 2006 0062 187B     		ldrb	r0, [r3, #12]	@ zero_extendqisi2
 2007              		.loc 1 1009 81
 2008 0064 3B68     		ldr	r3, [r7]
 2009 0066 1B68     		ldr	r3, [r3]
 2010              		.loc 1 1009 13
 2011 0068 D9B2     		uxtb	r1, r3
 2012 006a 3B68     		ldr	r3, [r7]
 2013 006c 5B68     		ldr	r3, [r3, #4]
 2014 006e 1A46     		mov	r2, r3
 2015 0070 FFF7FEFF 		bl	hals_adc_inserted_channel_config
 2016 0074 20E0     		b	.L124
 2017              	.L126:
1010:../firmware/gd32f3x0_hal_peripheral/Source/gd32f3x0_hal_adc.c ****                                              p_irank->sampling_time);
1011:../firmware/gd32f3x0_hal_peripheral/Source/gd32f3x0_hal_adc.c ****         } else {
1012:../firmware/gd32f3x0_hal_peripheral/Source/gd32f3x0_hal_adc.c ****             /* clear parameters */
1013:../firmware/gd32f3x0_hal_peripheral/Source/gd32f3x0_hal_adc.c ****             ADC_ISQ &= ~((uint32_t)ADC_ISQ_IL);
 2018              		.loc 1 1013 21
 2019 0076 364B     		ldr	r3, .L132
 2020 0078 1B68     		ldr	r3, [r3]
 2021 007a 354A     		ldr	r2, .L132
 2022 007c 23F44013 		bic	r3, r3, #3145728
 2023 0080 1360     		str	r3, [r2]
1014:../firmware/gd32f3x0_hal_peripheral/Source/gd32f3x0_hal_adc.c **** 
1015:../firmware/gd32f3x0_hal_peripheral/Source/gd32f3x0_hal_adc.c ****             inserted_length = (uint8_t)(length_temp - 1U);
 2024              		.loc 1 1015 31
 2025 0082 7B69     		ldr	r3, [r7, #20]
 2026 0084 DBB2     		uxtb	r3, r3
 2027              		.loc 1 1015 29
 2028 0086 013B     		subs	r3, r3, #1
 2029 0088 FB74     		strb	r3, [r7, #19]
1016:../firmware/gd32f3x0_hal_peripheral/Source/gd32f3x0_hal_adc.c ****             reg_temp = ADC_ISQ;
 2030              		.loc 1 1016 24
 2031 008a 314B     		ldr	r3, .L132
 2032              		.loc 1 1016 22
 2033 008c 1B68     		ldr	r3, [r3]
 2034 008e FB60     		str	r3, [r7, #12]
1017:../firmware/gd32f3x0_hal_peripheral/Source/gd32f3x0_hal_adc.c ****             reg_temp &= ~((uint32_t)(ADC_ISQ_ISQN << (15U - (inserted_length - (p_irank->inserted_s
 2035              		.loc 1 1017 78
 2036 0090 FB7C     		ldrb	r3, [r7, #19]	@ zero_extendqisi2
 2037              		.loc 1 1017 88
 2038 0092 3A68     		ldr	r2, [r7]
 2039 0094 127B     		ldrb	r2, [r2, #12]	@ zero_extendqisi2
 2040              		.loc 1 1017 78
 2041 0096 9B1A     		subs	r3, r3, r2
 2042 0098 1A46     		mov	r2, r3
 2043              		.loc 1 1017 110
 2044 009a 1346     		mov	r3, r2
 2045 009c 9B00     		lsls	r3, r3, #2
 2046 009e 1344     		add	r3, r3, r2
 2047              		.loc 1 1017 59
 2048 00a0 C3F10F03 		rsb	r3, r3, #15
 2049              		.loc 1 1017 27
 2050 00a4 1F22     		movs	r2, #31
 2051 00a6 02FA03F3 		lsl	r3, r2, r3
 2052              		.loc 1 1017 25
 2053 00aa DB43     		mvns	r3, r3
 2054              		.loc 1 1017 22
 2055 00ac FA68     		ldr	r2, [r7, #12]
 2056 00ae 1340     		ands	r3, r3, r2
 2057 00b0 FB60     		str	r3, [r7, #12]
1018:../firmware/gd32f3x0_hal_peripheral/Source/gd32f3x0_hal_adc.c ****                                      5U)));
1019:../firmware/gd32f3x0_hal_peripheral/Source/gd32f3x0_hal_adc.c ****             ADC_ISQ = reg_temp;
 2058              		.loc 1 1019 13
 2059 00b2 274A     		ldr	r2, .L132
 2060              		.loc 1 1019 21
 2061 00b4 FB68     		ldr	r3, [r7, #12]
 2062 00b6 1360     		str	r3, [r2]
 2063              	.L124:
1020:../firmware/gd32f3x0_hal_peripheral/Source/gd32f3x0_hal_adc.c ****         }
1021:../firmware/gd32f3x0_hal_peripheral/Source/gd32f3x0_hal_adc.c ****     }
1022:../firmware/gd32f3x0_hal_peripheral/Source/gd32f3x0_hal_adc.c **** 
1023:../firmware/gd32f3x0_hal_peripheral/Source/gd32f3x0_hal_adc.c ****     /* ADC inserted channel offset config */
1024:../firmware/gd32f3x0_hal_peripheral/Source/gd32f3x0_hal_adc.c ****     hals_adc_inserted_channel_offset_config(p_irank->inserted_sequence, p_irank->data_offset);
 2064              		.loc 1 1024 52
 2065 00b8 3B68     		ldr	r3, [r7]
 2066 00ba 1A7B     		ldrb	r2, [r3, #12]	@ zero_extendqisi2
 2067              		.loc 1 1024 80
 2068 00bc 3B68     		ldr	r3, [r7]
 2069 00be 9B68     		ldr	r3, [r3, #8]
 2070              		.loc 1 1024 5
 2071 00c0 9BB2     		uxth	r3, r3
 2072 00c2 1946     		mov	r1, r3
 2073 00c4 1046     		mov	r0, r2
 2074 00c6 FFF7FEFF 		bl	hals_adc_inserted_channel_offset_config
1025:../firmware/gd32f3x0_hal_peripheral/Source/gd32f3x0_hal_adc.c **** 
1026:../firmware/gd32f3x0_hal_peripheral/Source/gd32f3x0_hal_adc.c ****     /* enable temperature sensor and VREFINT measurement */
1027:../firmware/gd32f3x0_hal_peripheral/Source/gd32f3x0_hal_adc.c ****     if((ADC_CHANNEL_TEMPSENSOR == p_irank->channel) || (ADC_CHANNEL_VREFINT == p_irank->channel)) {
 2075              		.loc 1 1027 42
 2076 00ca 3B68     		ldr	r3, [r7]
 2077 00cc 1B68     		ldr	r3, [r3]
 2078              		.loc 1 1027 7
 2079 00ce 102B     		cmp	r3, #16
 2080 00d0 03D0     		beq	.L127
 2081              		.loc 1 1027 87 discriminator 1
 2082 00d2 3B68     		ldr	r3, [r7]
 2083 00d4 1B68     		ldr	r3, [r3]
 2084              		.loc 1 1027 53 discriminator 1
 2085 00d6 112B     		cmp	r3, #17
 2086 00d8 24D1     		bne	.L128
 2087              	.L127:
1028:../firmware/gd32f3x0_hal_peripheral/Source/gd32f3x0_hal_adc.c ****         if(RESET == __HAL_ADC_GET_TEMPVREF_ENABLE) {
 2088              		.loc 1 1028 21
 2089 00da 1F4B     		ldr	r3, .L132+8
 2090 00dc 1B68     		ldr	r3, [r3]
 2091 00de 03F40003 		and	r3, r3, #8388608
 2092              		.loc 1 1028 11
 2093 00e2 002B     		cmp	r3, #0
 2094 00e4 1ED1     		bne	.L128
1029:../firmware/gd32f3x0_hal_peripheral/Source/gd32f3x0_hal_adc.c ****             ADC_CTL1 |= ADC_CTL1_TSVREN;
 2095              		.loc 1 1029 22
 2096 00e6 1C4B     		ldr	r3, .L132+8
 2097 00e8 1B68     		ldr	r3, [r3]
 2098 00ea 1B4A     		ldr	r2, .L132+8
 2099 00ec 43F40003 		orr	r3, r3, #8388608
 2100 00f0 1360     		str	r3, [r2]
1030:../firmware/gd32f3x0_hal_peripheral/Source/gd32f3x0_hal_adc.c ****             if(ADC_CHANNEL_TEMPSENSOR == p_irank->channel) {
 2101              		.loc 1 1030 49
 2102 00f2 3B68     		ldr	r3, [r7]
 2103 00f4 1B68     		ldr	r3, [r3]
 2104              		.loc 1 1030 15
 2105 00f6 102B     		cmp	r3, #16
 2106 00f8 14D1     		bne	.L128
1031:../firmware/gd32f3x0_hal_peripheral/Source/gd32f3x0_hal_adc.c ****                 /* delay for temperature sensor stabilization time */
1032:../firmware/gd32f3x0_hal_peripheral/Source/gd32f3x0_hal_adc.c ****                 /* compute number of CPU cycles to wait for */
1033:../firmware/gd32f3x0_hal_peripheral/Source/gd32f3x0_hal_adc.c ****                 wait_loop = (ADC_TEMPSENSOR_DELAYTIME * (g_systemcoreclock / 1000000));
 2107              		.loc 1 1033 76
 2108 00fa 184B     		ldr	r3, .L132+12
 2109 00fc 1B68     		ldr	r3, [r3]
 2110 00fe 184A     		ldr	r2, .L132+16
 2111 0100 82FB0312 		smull	r1, r2, r2, r3
 2112 0104 9214     		asrs	r2, r2, #18
 2113 0106 DB17     		asrs	r3, r3, #31
 2114 0108 D31A     		subs	r3, r2, r3
 2115 010a 1A46     		mov	r2, r3
 2116              		.loc 1 1033 55
 2117 010c 1346     		mov	r3, r2
 2118 010e 9B00     		lsls	r3, r3, #2
 2119 0110 1344     		add	r3, r3, r2
 2120 0112 5B00     		lsls	r3, r3, #1
 2121              		.loc 1 1033 27
 2122 0114 BB60     		str	r3, [r7, #8]
1034:../firmware/gd32f3x0_hal_peripheral/Source/gd32f3x0_hal_adc.c ****                 while(wait_loop != 0) {
 2123              		.loc 1 1034 22
 2124 0116 02E0     		b	.L129
 2125              	.L130:
1035:../firmware/gd32f3x0_hal_peripheral/Source/gd32f3x0_hal_adc.c ****                     wait_loop--;
 2126              		.loc 1 1035 30
 2127 0118 BB68     		ldr	r3, [r7, #8]
 2128 011a 013B     		subs	r3, r3, #1
 2129 011c BB60     		str	r3, [r7, #8]
 2130              	.L129:
1034:../firmware/gd32f3x0_hal_peripheral/Source/gd32f3x0_hal_adc.c ****                 while(wait_loop != 0) {
 2131              		.loc 1 1034 33
 2132 011e BB68     		ldr	r3, [r7, #8]
1034:../firmware/gd32f3x0_hal_peripheral/Source/gd32f3x0_hal_adc.c ****                 while(wait_loop != 0) {
 2133              		.loc 1 1034 22
 2134 0120 002B     		cmp	r3, #0
 2135 0122 F9D1     		bne	.L130
 2136              	.L128:
1036:../firmware/gd32f3x0_hal_peripheral/Source/gd32f3x0_hal_adc.c ****                 }
1037:../firmware/gd32f3x0_hal_peripheral/Source/gd32f3x0_hal_adc.c ****             }
1038:../firmware/gd32f3x0_hal_peripheral/Source/gd32f3x0_hal_adc.c ****         }
1039:../firmware/gd32f3x0_hal_peripheral/Source/gd32f3x0_hal_adc.c ****     }
1040:../firmware/gd32f3x0_hal_peripheral/Source/gd32f3x0_hal_adc.c ****     /* enable backup battery voltage measurement */
1041:../firmware/gd32f3x0_hal_peripheral/Source/gd32f3x0_hal_adc.c ****     if(ADC_CHANNEL_BATTERY == p_irank->channel) {
 2137              		.loc 1 1041 38
 2138 0124 3B68     		ldr	r3, [r7]
 2139 0126 1B68     		ldr	r3, [r3]
 2140              		.loc 1 1041 7
 2141 0128 122B     		cmp	r3, #18
 2142 012a 0BD1     		bne	.L131
1042:../firmware/gd32f3x0_hal_peripheral/Source/gd32f3x0_hal_adc.c ****         if(RESET == __HAL_ADC_GET_BATTERY_ENABLE) {
 2143              		.loc 1 1042 21
 2144 012c 0A4B     		ldr	r3, .L132+8
 2145 012e 1B68     		ldr	r3, [r3]
 2146 0130 03F08073 		and	r3, r3, #16777216
 2147              		.loc 1 1042 11
 2148 0134 002B     		cmp	r3, #0
 2149 0136 05D1     		bne	.L131
1043:../firmware/gd32f3x0_hal_peripheral/Source/gd32f3x0_hal_adc.c ****             /* enable the temperature sensor and Vrefint channel */
1044:../firmware/gd32f3x0_hal_peripheral/Source/gd32f3x0_hal_adc.c ****             ADC_CTL1 |= ADC_CTL1_VBETEN;
 2150              		.loc 1 1044 22
 2151 0138 074B     		ldr	r3, .L132+8
 2152 013a 1B68     		ldr	r3, [r3]
 2153 013c 064A     		ldr	r2, .L132+8
 2154 013e 43F08073 		orr	r3, r3, #16777216
 2155 0142 1360     		str	r3, [r2]
 2156              	.L131:
1045:../firmware/gd32f3x0_hal_peripheral/Source/gd32f3x0_hal_adc.c ****         }
1046:../firmware/gd32f3x0_hal_peripheral/Source/gd32f3x0_hal_adc.c ****     }
1047:../firmware/gd32f3x0_hal_peripheral/Source/gd32f3x0_hal_adc.c **** 
1048:../firmware/gd32f3x0_hal_peripheral/Source/gd32f3x0_hal_adc.c ****     return HAL_ERR_NONE;
 2157              		.loc 1 1048 12
 2158 0144 0023     		movs	r3, #0
 2159              	.L125:
1049:../firmware/gd32f3x0_hal_peripheral/Source/gd32f3x0_hal_adc.c **** }
 2160              		.loc 1 1049 1
 2161 0146 1846     		mov	r0, r3
 2162 0148 1837     		adds	r7, r7, #24
 2163              		.cfi_def_cfa_offset 8
 2164 014a BD46     		mov	sp, r7
 2165              		.cfi_def_cfa_register 13
 2166              		@ sp needed
 2167 014c 80BD     		pop	{r7, pc}
 2168              	.L133:
 2169 014e 00BF     		.align	2
 2170              	.L132:
 2171 0150 38240140 		.word	1073816632
 2172 0154 04240140 		.word	1073816580
 2173 0158 08240140 		.word	1073816584
 2174 015c 00000000 		.word	g_systemcoreclock
 2175 0160 83DE1B43 		.word	1125899907
 2176              		.cfi_endproc
 2177              	.LFE134:
 2179              		.section	.text.hal_adc_inserted_start,"ax",%progbits
 2180              		.align	1
 2181              		.global	hal_adc_inserted_start
 2182              		.syntax unified
 2183              		.thumb
 2184              		.thumb_func
 2185              		.fpu softvfp
 2187              	hal_adc_inserted_start:
 2188              	.LFB135:
1050:../firmware/gd32f3x0_hal_peripheral/Source/gd32f3x0_hal_adc.c **** 
1051:../firmware/gd32f3x0_hal_peripheral/Source/gd32f3x0_hal_adc.c **** /*!
1052:../firmware/gd32f3x0_hal_peripheral/Source/gd32f3x0_hal_adc.c ****     \brief      enable ADC and start the conversion of inserted sequence
1053:../firmware/gd32f3x0_hal_peripheral/Source/gd32f3x0_hal_adc.c ****     \param[in]  adc_dev: ADC device information structure
1054:../firmware/gd32f3x0_hal_peripheral/Source/gd32f3x0_hal_adc.c ****                   the structure is not necessary to be reconfigured after structrue initialization,
1055:../firmware/gd32f3x0_hal_peripheral/Source/gd32f3x0_hal_adc.c ****                   the structure parameters altering is automatically configured by core
1056:../firmware/gd32f3x0_hal_peripheral/Source/gd32f3x0_hal_adc.c ****     \param[out] none
1057:../firmware/gd32f3x0_hal_peripheral/Source/gd32f3x0_hal_adc.c ****     \retval     HAL_ERR_NONE, HAL_ERR_ADDRESS, HAL_ERR_HARDWARE, details refer to gd32f3x0_hal.h
1058:../firmware/gd32f3x0_hal_peripheral/Source/gd32f3x0_hal_adc.c **** */
1059:../firmware/gd32f3x0_hal_peripheral/Source/gd32f3x0_hal_adc.c **** int32_t hal_adc_inserted_start(hal_adc_dev_struct *adc_dev)
1060:../firmware/gd32f3x0_hal_peripheral/Source/gd32f3x0_hal_adc.c **** {
 2189              		.loc 1 1060 1
 2190              		.cfi_startproc
 2191              		@ args = 0, pretend = 0, frame = 8
 2192              		@ frame_needed = 1, uses_anonymous_args = 0
 2193 0000 80B5     		push	{r7, lr}
 2194              		.cfi_def_cfa_offset 8
 2195              		.cfi_offset 7, -8
 2196              		.cfi_offset 14, -4
 2197 0002 82B0     		sub	sp, sp, #8
 2198              		.cfi_def_cfa_offset 16
 2199 0004 00AF     		add	r7, sp, #0
 2200              		.cfi_def_cfa_register 7
 2201 0006 7860     		str	r0, [r7, #4]
1061:../firmware/gd32f3x0_hal_peripheral/Source/gd32f3x0_hal_adc.c **** #if (1 == HAL_PARAMETER_CHECK)
1062:../firmware/gd32f3x0_hal_peripheral/Source/gd32f3x0_hal_adc.c ****     /* check the parameters */
1063:../firmware/gd32f3x0_hal_peripheral/Source/gd32f3x0_hal_adc.c ****     if(NULL == adc_dev) {
1064:../firmware/gd32f3x0_hal_peripheral/Source/gd32f3x0_hal_adc.c ****         HAL_DEBUGE("pointer [adc_dev] address is invalid");
1065:../firmware/gd32f3x0_hal_peripheral/Source/gd32f3x0_hal_adc.c ****         return HAL_ERR_ADDRESS;
1066:../firmware/gd32f3x0_hal_peripheral/Source/gd32f3x0_hal_adc.c ****     }
1067:../firmware/gd32f3x0_hal_peripheral/Source/gd32f3x0_hal_adc.c **** #endif /* 1 = HAL_PARAMETER_CHECK */
1068:../firmware/gd32f3x0_hal_peripheral/Source/gd32f3x0_hal_adc.c **** 
1069:../firmware/gd32f3x0_hal_peripheral/Source/gd32f3x0_hal_adc.c ****     /* if ADC is enabled */
1070:../firmware/gd32f3x0_hal_peripheral/Source/gd32f3x0_hal_adc.c ****     if(HAL_ERR_NONE == _adc_enable(adc_dev)) {
 2202              		.loc 1 1070 24
 2203 0008 7868     		ldr	r0, [r7, #4]
 2204 000a FFF7FEFF 		bl	_adc_enable
 2205 000e 0346     		mov	r3, r0
 2206              		.loc 1 1070 7
 2207 0010 002B     		cmp	r3, #0
 2208 0012 35D1     		bne	.L135
1071:../firmware/gd32f3x0_hal_peripheral/Source/gd32f3x0_hal_adc.c ****         /* set ADC state  */
1072:../firmware/gd32f3x0_hal_peripheral/Source/gd32f3x0_hal_adc.c ****         _adc_state_clear(adc_dev, HAL_ADC_STATE_READY);
 2209              		.loc 1 1072 9
 2210 0014 0121     		movs	r1, #1
 2211 0016 7868     		ldr	r0, [r7, #4]
 2212 0018 FFF7FEFF 		bl	_adc_state_clear
1073:../firmware/gd32f3x0_hal_peripheral/Source/gd32f3x0_hal_adc.c ****         _adc_state_clear(adc_dev, HAL_ADC_STATE_INSERTED_EOC);
 2213              		.loc 1 1073 9
 2214 001c 4FF40071 		mov	r1, #512
 2215 0020 7868     		ldr	r0, [r7, #4]
 2216 0022 FFF7FEFF 		bl	_adc_state_clear
1074:../firmware/gd32f3x0_hal_peripheral/Source/gd32f3x0_hal_adc.c ****         _adc_state_set(adc_dev, HAL_ADC_STATE_INSERTED_BUSY);
 2217              		.loc 1 1074 9
 2218 0026 4FF48071 		mov	r1, #256
 2219 002a 7868     		ldr	r0, [r7, #4]
 2220 002c FFF7FEFF 		bl	_adc_state_set
1075:../firmware/gd32f3x0_hal_peripheral/Source/gd32f3x0_hal_adc.c ****         /* check if a routine conversion is ongoing */
1076:../firmware/gd32f3x0_hal_peripheral/Source/gd32f3x0_hal_adc.c ****         if(RESET == ((hal_adc_state_get(adc_dev)) & HAL_ADC_STATE_ROUTINE_BUSY)) {
 2221              		.loc 1 1076 23
 2222 0030 7868     		ldr	r0, [r7, #4]
 2223 0032 FFF7FEFF 		bl	hal_adc_state_get
 2224 0036 0346     		mov	r3, r0
 2225              		.loc 1 1076 51
 2226 0038 03F01003 		and	r3, r3, #16
 2227              		.loc 1 1076 11
 2228 003c 002B     		cmp	r3, #0
 2229 003e 02D1     		bne	.L136
1077:../firmware/gd32f3x0_hal_peripheral/Source/gd32f3x0_hal_adc.c ****             adc_dev->error_state = HAL_ADC_ERROR_NONE;
 2230              		.loc 1 1077 34
 2231 0040 7B68     		ldr	r3, [r7, #4]
 2232 0042 0022     		movs	r2, #0
 2233 0044 1A77     		strb	r2, [r3, #28]
 2234              	.L136:
1078:../firmware/gd32f3x0_hal_peripheral/Source/gd32f3x0_hal_adc.c ****         }
1079:../firmware/gd32f3x0_hal_peripheral/Source/gd32f3x0_hal_adc.c **** 
1080:../firmware/gd32f3x0_hal_peripheral/Source/gd32f3x0_hal_adc.c ****         /* clear ADC flag */
1081:../firmware/gd32f3x0_hal_peripheral/Source/gd32f3x0_hal_adc.c ****         hals_adc_flag_clear(ADC_FLAG_EOIC);
 2235              		.loc 1 1081 9
 2236 0046 0420     		movs	r0, #4
 2237 0048 FFF7FEFF 		bl	hals_adc_flag_clear
1082:../firmware/gd32f3x0_hal_peripheral/Source/gd32f3x0_hal_adc.c **** 
1083:../firmware/gd32f3x0_hal_peripheral/Source/gd32f3x0_hal_adc.c ****         if(RESET == __HAL_ADC_GET_INSERTEDCH_AUTOCONV) {
 2238              		.loc 1 1083 21
 2239 004c 104B     		ldr	r3, .L140
 2240 004e 1B68     		ldr	r3, [r3]
 2241 0050 03F48063 		and	r3, r3, #1024
 2242              		.loc 1 1083 11
 2243 0054 002B     		cmp	r3, #0
 2244 0056 16D1     		bne	.L137
1084:../firmware/gd32f3x0_hal_peripheral/Source/gd32f3x0_hal_adc.c ****             if(ADC_EXTTRIG_INSERTED_NONE == __HAL_ADC_GET_INSERTEDCH_EXTTRIGGER) {
 2245              		.loc 1 1084 45
 2246 0058 0E4B     		ldr	r3, .L140+4
 2247 005a 1B68     		ldr	r3, [r3]
 2248 005c 03F4E043 		and	r3, r3, #28672
 2249              		.loc 1 1084 15
 2250 0060 B3F5E04F 		cmp	r3, #28672
 2251 0064 07D1     		bne	.L138
1085:../firmware/gd32f3x0_hal_peripheral/Source/gd32f3x0_hal_adc.c ****                 /* enable software trigger */
1086:../firmware/gd32f3x0_hal_peripheral/Source/gd32f3x0_hal_adc.c ****                 hals_adc_external_trigger_config(ADC_INSERTED_CHANNEL, ENABLE);
 2252              		.loc 1 1086 17
 2253 0066 0121     		movs	r1, #1
 2254 0068 0220     		movs	r0, #2
 2255 006a FFF7FEFF 		bl	hals_adc_external_trigger_config
1087:../firmware/gd32f3x0_hal_peripheral/Source/gd32f3x0_hal_adc.c ****                 hals_adc_software_trigger_enable(ADC_INSERTED_CHANNEL);
 2256              		.loc 1 1087 17
 2257 006e 0220     		movs	r0, #2
 2258 0070 FFF7FEFF 		bl	hals_adc_software_trigger_enable
 2259 0074 07E0     		b	.L137
 2260              	.L138:
1088:../firmware/gd32f3x0_hal_peripheral/Source/gd32f3x0_hal_adc.c ****             } else {
1089:../firmware/gd32f3x0_hal_peripheral/Source/gd32f3x0_hal_adc.c ****                 /* enable external trigger */
1090:../firmware/gd32f3x0_hal_peripheral/Source/gd32f3x0_hal_adc.c ****                 hals_adc_external_trigger_config(ADC_INSERTED_CHANNEL, ENABLE);
 2261              		.loc 1 1090 17
 2262 0076 0121     		movs	r1, #1
 2263 0078 0220     		movs	r0, #2
 2264 007a FFF7FEFF 		bl	hals_adc_external_trigger_config
 2265 007e 02E0     		b	.L137
 2266              	.L135:
1091:../firmware/gd32f3x0_hal_peripheral/Source/gd32f3x0_hal_adc.c ****             }
1092:../firmware/gd32f3x0_hal_peripheral/Source/gd32f3x0_hal_adc.c ****         }
1093:../firmware/gd32f3x0_hal_peripheral/Source/gd32f3x0_hal_adc.c ****     } else {
1094:../firmware/gd32f3x0_hal_peripheral/Source/gd32f3x0_hal_adc.c ****         return HAL_ERR_HARDWARE;
 2267              		.loc 1 1094 16
 2268 0080 6FF00703 		mvn	r3, #7
 2269 0084 00E0     		b	.L139
 2270              	.L137:
1095:../firmware/gd32f3x0_hal_peripheral/Source/gd32f3x0_hal_adc.c ****     }
1096:../firmware/gd32f3x0_hal_peripheral/Source/gd32f3x0_hal_adc.c **** 
1097:../firmware/gd32f3x0_hal_peripheral/Source/gd32f3x0_hal_adc.c ****     return HAL_ERR_NONE;
 2271              		.loc 1 1097 12
 2272 0086 0023     		movs	r3, #0
 2273              	.L139:
1098:../firmware/gd32f3x0_hal_peripheral/Source/gd32f3x0_hal_adc.c **** }
 2274              		.loc 1 1098 1
 2275 0088 1846     		mov	r0, r3
 2276 008a 0837     		adds	r7, r7, #8
 2277              		.cfi_def_cfa_offset 8
 2278 008c BD46     		mov	sp, r7
 2279              		.cfi_def_cfa_register 13
 2280              		@ sp needed
 2281 008e 80BD     		pop	{r7, pc}
 2282              	.L141:
 2283              		.align	2
 2284              	.L140:
 2285 0090 04240140 		.word	1073816580
 2286 0094 08240140 		.word	1073816584
 2287              		.cfi_endproc
 2288              	.LFE135:
 2290              		.section	.text.hal_adc_inserted_stop,"ax",%progbits
 2291              		.align	1
 2292              		.global	hal_adc_inserted_stop
 2293              		.syntax unified
 2294              		.thumb
 2295              		.thumb_func
 2296              		.fpu softvfp
 2298              	hal_adc_inserted_stop:
 2299              	.LFB136:
1099:../firmware/gd32f3x0_hal_peripheral/Source/gd32f3x0_hal_adc.c **** 
1100:../firmware/gd32f3x0_hal_peripheral/Source/gd32f3x0_hal_adc.c **** /*!
1101:../firmware/gd32f3x0_hal_peripheral/Source/gd32f3x0_hal_adc.c ****     \brief      stop the conversion of inserted sequence and disable ADC
1102:../firmware/gd32f3x0_hal_peripheral/Source/gd32f3x0_hal_adc.c ****     \param[in]  adc_dev: ADC device information structure
1103:../firmware/gd32f3x0_hal_peripheral/Source/gd32f3x0_hal_adc.c ****                   the structure is not necessary to be reconfigured after structrue initialization,
1104:../firmware/gd32f3x0_hal_peripheral/Source/gd32f3x0_hal_adc.c ****                   the structure parameters altering is automatically configured by core
1105:../firmware/gd32f3x0_hal_peripheral/Source/gd32f3x0_hal_adc.c ****     \param[out] none
1106:../firmware/gd32f3x0_hal_peripheral/Source/gd32f3x0_hal_adc.c ****     \retval     HAL_ERR_NONE, HAL_ERR_ADDRESS, HAL_ERR_NO_SUPPORT, details refer to gd32f3x0_hal.h
1107:../firmware/gd32f3x0_hal_peripheral/Source/gd32f3x0_hal_adc.c **** */
1108:../firmware/gd32f3x0_hal_peripheral/Source/gd32f3x0_hal_adc.c **** int32_t hal_adc_inserted_stop(hal_adc_dev_struct *adc_dev)
1109:../firmware/gd32f3x0_hal_peripheral/Source/gd32f3x0_hal_adc.c **** {
 2300              		.loc 1 1109 1
 2301              		.cfi_startproc
 2302              		@ args = 0, pretend = 0, frame = 8
 2303              		@ frame_needed = 1, uses_anonymous_args = 0
 2304 0000 80B5     		push	{r7, lr}
 2305              		.cfi_def_cfa_offset 8
 2306              		.cfi_offset 7, -8
 2307              		.cfi_offset 14, -4
 2308 0002 82B0     		sub	sp, sp, #8
 2309              		.cfi_def_cfa_offset 16
 2310 0004 00AF     		add	r7, sp, #0
 2311              		.cfi_def_cfa_register 7
 2312 0006 7860     		str	r0, [r7, #4]
1110:../firmware/gd32f3x0_hal_peripheral/Source/gd32f3x0_hal_adc.c **** #if (1 == HAL_PARAMETER_CHECK)
1111:../firmware/gd32f3x0_hal_peripheral/Source/gd32f3x0_hal_adc.c ****     /* check the parameters */
1112:../firmware/gd32f3x0_hal_peripheral/Source/gd32f3x0_hal_adc.c ****     if(NULL == adc_dev) {
1113:../firmware/gd32f3x0_hal_peripheral/Source/gd32f3x0_hal_adc.c ****         HAL_DEBUGE("pointer [adc_dev] address is invalid");
1114:../firmware/gd32f3x0_hal_peripheral/Source/gd32f3x0_hal_adc.c ****         return HAL_ERR_ADDRESS;
1115:../firmware/gd32f3x0_hal_peripheral/Source/gd32f3x0_hal_adc.c ****     }
1116:../firmware/gd32f3x0_hal_peripheral/Source/gd32f3x0_hal_adc.c **** #endif /* 1 = HAL_PARAMETER_CHECK */
1117:../firmware/gd32f3x0_hal_peripheral/Source/gd32f3x0_hal_adc.c **** 
1118:../firmware/gd32f3x0_hal_peripheral/Source/gd32f3x0_hal_adc.c ****     /* routine sequence is not busy and automatic convert is set */
1119:../firmware/gd32f3x0_hal_peripheral/Source/gd32f3x0_hal_adc.c ****     if((RESET == ((hal_adc_state_get(adc_dev)) & HAL_ADC_STATE_ROUTINE_BUSY)) &&
 2313              		.loc 1 1119 20
 2314 0008 7868     		ldr	r0, [r7, #4]
 2315 000a FFF7FEFF 		bl	hal_adc_state_get
 2316 000e 0346     		mov	r3, r0
 2317              		.loc 1 1119 48
 2318 0010 03F01003 		and	r3, r3, #16
 2319              		.loc 1 1119 7
 2320 0014 002B     		cmp	r3, #0
 2321 0016 19D1     		bne	.L143
1120:../firmware/gd32f3x0_hal_peripheral/Source/gd32f3x0_hal_adc.c ****             (SET == __HAL_ADC_GET_INSERTEDCH_AUTOCONV)) {
 2322              		.loc 1 1120 21 discriminator 1
 2323 0018 124B     		ldr	r3, .L147
 2324 001a 1B68     		ldr	r3, [r3]
 2325 001c 03F48063 		and	r3, r3, #1024
1119:../firmware/gd32f3x0_hal_peripheral/Source/gd32f3x0_hal_adc.c ****             (SET == __HAL_ADC_GET_INSERTEDCH_AUTOCONV)) {
 2326              		.loc 1 1119 79 discriminator 1
 2327 0020 012B     		cmp	r3, #1
 2328 0022 13D1     		bne	.L143
1121:../firmware/gd32f3x0_hal_peripheral/Source/gd32f3x0_hal_adc.c ****         /* if ADC is disabled */
1122:../firmware/gd32f3x0_hal_peripheral/Source/gd32f3x0_hal_adc.c ****         if(HAL_ERR_NONE == _adc_disable(adc_dev)) {
 2329              		.loc 1 1122 28
 2330 0024 7868     		ldr	r0, [r7, #4]
 2331 0026 FFF7FEFF 		bl	_adc_disable
 2332 002a 0346     		mov	r3, r0
 2333              		.loc 1 1122 11
 2334 002c 002B     		cmp	r3, #0
 2335 002e 14D1     		bne	.L145
1123:../firmware/gd32f3x0_hal_peripheral/Source/gd32f3x0_hal_adc.c ****             /* set ADC state  */
1124:../firmware/gd32f3x0_hal_peripheral/Source/gd32f3x0_hal_adc.c ****             _adc_state_clear(adc_dev, HAL_ADC_STATE_ROUTINE_BUSY);
 2336              		.loc 1 1124 13
 2337 0030 1021     		movs	r1, #16
 2338 0032 7868     		ldr	r0, [r7, #4]
 2339 0034 FFF7FEFF 		bl	_adc_state_clear
1125:../firmware/gd32f3x0_hal_peripheral/Source/gd32f3x0_hal_adc.c ****             _adc_state_clear(adc_dev, HAL_ADC_STATE_INSERTED_BUSY);
 2340              		.loc 1 1125 13
 2341 0038 4FF48071 		mov	r1, #256
 2342 003c 7868     		ldr	r0, [r7, #4]
 2343 003e FFF7FEFF 		bl	_adc_state_clear
1126:../firmware/gd32f3x0_hal_peripheral/Source/gd32f3x0_hal_adc.c ****             _adc_state_set(adc_dev, HAL_ADC_STATE_READY);
 2344              		.loc 1 1126 13
 2345 0042 0121     		movs	r1, #1
 2346 0044 7868     		ldr	r0, [r7, #4]
 2347 0046 FFF7FEFF 		bl	_adc_state_set
1122:../firmware/gd32f3x0_hal_peripheral/Source/gd32f3x0_hal_adc.c ****             /* set ADC state  */
 2348              		.loc 1 1122 11
 2349 004a 06E0     		b	.L145
 2350              	.L143:
1127:../firmware/gd32f3x0_hal_peripheral/Source/gd32f3x0_hal_adc.c ****         }
1128:../firmware/gd32f3x0_hal_peripheral/Source/gd32f3x0_hal_adc.c ****     } else {
1129:../firmware/gd32f3x0_hal_peripheral/Source/gd32f3x0_hal_adc.c ****         _adc_error_set(adc_dev, HAL_ADC_ERROR_CONFIG);
 2351              		.loc 1 1129 9
 2352 004c 0421     		movs	r1, #4
 2353 004e 7868     		ldr	r0, [r7, #4]
 2354 0050 FFF7FEFF 		bl	_adc_error_set
1130:../firmware/gd32f3x0_hal_peripheral/Source/gd32f3x0_hal_adc.c ****         return HAL_ERR_NO_SUPPORT;
 2355              		.loc 1 1130 16
 2356 0054 6FF00303 		mvn	r3, #3
 2357 0058 00E0     		b	.L146
 2358              	.L145:
1131:../firmware/gd32f3x0_hal_peripheral/Source/gd32f3x0_hal_adc.c ****     }
1132:../firmware/gd32f3x0_hal_peripheral/Source/gd32f3x0_hal_adc.c **** 
1133:../firmware/gd32f3x0_hal_peripheral/Source/gd32f3x0_hal_adc.c ****     return HAL_ERR_NONE;
 2359              		.loc 1 1133 12
 2360 005a 0023     		movs	r3, #0
 2361              	.L146:
1134:../firmware/gd32f3x0_hal_peripheral/Source/gd32f3x0_hal_adc.c **** }
 2362              		.loc 1 1134 1
 2363 005c 1846     		mov	r0, r3
 2364 005e 0837     		adds	r7, r7, #8
 2365              		.cfi_def_cfa_offset 8
 2366 0060 BD46     		mov	sp, r7
 2367              		.cfi_def_cfa_register 13
 2368              		@ sp needed
 2369 0062 80BD     		pop	{r7, pc}
 2370              	.L148:
 2371              		.align	2
 2372              	.L147:
 2373 0064 04240140 		.word	1073816580
 2374              		.cfi_endproc
 2375              	.LFE136:
 2377              		.section	.text.hal_adc_inserted_conversion_poll,"ax",%progbits
 2378              		.align	1
 2379              		.global	hal_adc_inserted_conversion_poll
 2380              		.syntax unified
 2381              		.thumb
 2382              		.thumb_func
 2383              		.fpu softvfp
 2385              	hal_adc_inserted_conversion_poll:
 2386              	.LFB137:
1135:../firmware/gd32f3x0_hal_peripheral/Source/gd32f3x0_hal_adc.c **** 
1136:../firmware/gd32f3x0_hal_peripheral/Source/gd32f3x0_hal_adc.c **** /*!
1137:../firmware/gd32f3x0_hal_peripheral/Source/gd32f3x0_hal_adc.c ****     \brief      polling for ADC inserted sequence conversion, this function is just for single conv
1138:../firmware/gd32f3x0_hal_peripheral/Source/gd32f3x0_hal_adc.c ****                 (scan mode disabled or scan mode enabled with the length of inserted channel is 1).
1139:../firmware/gd32f3x0_hal_peripheral/Source/gd32f3x0_hal_adc.c ****     \param[in]  adc_dev: ADC device information structrue
1140:../firmware/gd32f3x0_hal_peripheral/Source/gd32f3x0_hal_adc.c ****                   the structure is not necessary to be reconfigured after structrue initialization,
1141:../firmware/gd32f3x0_hal_peripheral/Source/gd32f3x0_hal_adc.c ****                   the structure parameters altering is automatically configured by core
1142:../firmware/gd32f3x0_hal_peripheral/Source/gd32f3x0_hal_adc.c ****     \param[in]  timeout_ms: time out duration in milliscond
1143:../firmware/gd32f3x0_hal_peripheral/Source/gd32f3x0_hal_adc.c ****     \param[out] none
1144:../firmware/gd32f3x0_hal_peripheral/Source/gd32f3x0_hal_adc.c ****     \retval     HAL_ERR_NONE, HAL_ERR_ADDRESS, HAL_ERR_HARDWARE, HAL_ERR_TIMEOUT, details refer to 
1145:../firmware/gd32f3x0_hal_peripheral/Source/gd32f3x0_hal_adc.c **** */
1146:../firmware/gd32f3x0_hal_peripheral/Source/gd32f3x0_hal_adc.c **** int32_t hal_adc_inserted_conversion_poll(hal_adc_dev_struct *adc_dev, uint32_t timeout_ms)
1147:../firmware/gd32f3x0_hal_peripheral/Source/gd32f3x0_hal_adc.c **** {
 2387              		.loc 1 1147 1
 2388              		.cfi_startproc
 2389              		@ args = 0, pretend = 0, frame = 16
 2390              		@ frame_needed = 1, uses_anonymous_args = 0
 2391 0000 80B5     		push	{r7, lr}
 2392              		.cfi_def_cfa_offset 8
 2393              		.cfi_offset 7, -8
 2394              		.cfi_offset 14, -4
 2395 0002 84B0     		sub	sp, sp, #16
 2396              		.cfi_def_cfa_offset 24
 2397 0004 00AF     		add	r7, sp, #0
 2398              		.cfi_def_cfa_register 7
 2399 0006 7860     		str	r0, [r7, #4]
 2400 0008 3960     		str	r1, [r7]
1148:../firmware/gd32f3x0_hal_peripheral/Source/gd32f3x0_hal_adc.c ****     uint32_t tick_start = 0;
 2401              		.loc 1 1148 14
 2402 000a 0023     		movs	r3, #0
 2403 000c FB60     		str	r3, [r7, #12]
1149:../firmware/gd32f3x0_hal_peripheral/Source/gd32f3x0_hal_adc.c **** 
1150:../firmware/gd32f3x0_hal_peripheral/Source/gd32f3x0_hal_adc.c **** #if (1 == HAL_PARAMETER_CHECK)
1151:../firmware/gd32f3x0_hal_peripheral/Source/gd32f3x0_hal_adc.c ****     /* check the parameters */
1152:../firmware/gd32f3x0_hal_peripheral/Source/gd32f3x0_hal_adc.c ****     if(NULL == adc_dev) {
1153:../firmware/gd32f3x0_hal_peripheral/Source/gd32f3x0_hal_adc.c ****         HAL_DEBUGE("pointer [adc_dev] address is invalid");
1154:../firmware/gd32f3x0_hal_peripheral/Source/gd32f3x0_hal_adc.c ****         return HAL_ERR_ADDRESS;
1155:../firmware/gd32f3x0_hal_peripheral/Source/gd32f3x0_hal_adc.c ****     }
1156:../firmware/gd32f3x0_hal_peripheral/Source/gd32f3x0_hal_adc.c **** #endif /* 1 = HAL_PARAMETER_CHECK */
1157:../firmware/gd32f3x0_hal_peripheral/Source/gd32f3x0_hal_adc.c ****     /* lock ADC */
1158:../firmware/gd32f3x0_hal_peripheral/Source/gd32f3x0_hal_adc.c ****     HAL_LOCK(adc_dev);
 2404              		.loc 1 1158 5
 2405 000e 7B68     		ldr	r3, [r7, #4]
 2406 0010 5B7F     		ldrb	r3, [r3, #29]	@ zero_extendqisi2
 2407 0012 012B     		cmp	r3, #1
 2408 0014 02D1     		bne	.L150
 2409              		.loc 1 1158 5 is_stmt 0 discriminator 1
 2410 0016 6FF00103 		mvn	r3, #1
 2411 001a 6BE0     		b	.L151
 2412              	.L150:
 2413              		.loc 1 1158 5 discriminator 2
 2414 001c 7B68     		ldr	r3, [r7, #4]
 2415 001e 0122     		movs	r2, #1
 2416 0020 5A77     		strb	r2, [r3, #29]
1159:../firmware/gd32f3x0_hal_peripheral/Source/gd32f3x0_hal_adc.c **** 
1160:../firmware/gd32f3x0_hal_peripheral/Source/gd32f3x0_hal_adc.c ****     /* set timeout */
1161:../firmware/gd32f3x0_hal_peripheral/Source/gd32f3x0_hal_adc.c ****     tick_start = hal_sys_basetick_count_get();
 2417              		.loc 1 1161 18 is_stmt 1 discriminator 2
 2418 0022 FFF7FEFF 		bl	hal_sys_basetick_count_get
 2419 0026 F860     		str	r0, [r7, #12]
1162:../firmware/gd32f3x0_hal_peripheral/Source/gd32f3x0_hal_adc.c **** 
1163:../firmware/gd32f3x0_hal_peripheral/Source/gd32f3x0_hal_adc.c ****     /* if single conversion: scan mode disabled or enabled with length = 1 */
1164:../firmware/gd32f3x0_hal_peripheral/Source/gd32f3x0_hal_adc.c ****     if((RESET == __HAL_ADC_GET_SCAN_MODE) && (RESET == __HAL_ADC_GET_INSERTEDCH_LENGTH)) {
 2420              		.loc 1 1164 18 discriminator 2
 2421 0028 344B     		ldr	r3, .L159
 2422 002a 1B68     		ldr	r3, [r3]
 2423 002c 03F48073 		and	r3, r3, #256
 2424              		.loc 1 1164 7 discriminator 2
 2425 0030 002B     		cmp	r3, #0
 2426 0032 1FD1     		bne	.L152
 2427              		.loc 1 1164 56 discriminator 1
 2428 0034 324B     		ldr	r3, .L159+4
 2429 0036 1B68     		ldr	r3, [r3]
 2430 0038 03F47003 		and	r3, r3, #15728640
 2431              		.loc 1 1164 43 discriminator 1
 2432 003c 002B     		cmp	r3, #0
 2433 003e 19D1     		bne	.L152
1165:../firmware/gd32f3x0_hal_peripheral/Source/gd32f3x0_hal_adc.c ****         /* wait until end of inserted channel conversion flag is raised */
1166:../firmware/gd32f3x0_hal_peripheral/Source/gd32f3x0_hal_adc.c ****         while(RESET == hals_adc_flag_get(ADC_FLAG_EOIC)) {
 2434              		.loc 1 1166 14
 2435 0040 11E0     		b	.L153
 2436              	.L154:
1167:../firmware/gd32f3x0_hal_peripheral/Source/gd32f3x0_hal_adc.c ****             /* check for the timeout */
1168:../firmware/gd32f3x0_hal_peripheral/Source/gd32f3x0_hal_adc.c ****             if(HAL_TIMEOUT_FOREVER != timeout_ms) {
 2437              		.loc 1 1168 15
 2438 0042 3B68     		ldr	r3, [r7]
 2439 0044 B3F1FF3F 		cmp	r3, #-1
 2440 0048 0DD0     		beq	.L153
1169:../firmware/gd32f3x0_hal_peripheral/Source/gd32f3x0_hal_adc.c ****                 if(SET == hal_sys_basetick_timeout_check(tick_start, timeout_ms)) {
 2441              		.loc 1 1169 27
 2442 004a 3968     		ldr	r1, [r7]
 2443 004c F868     		ldr	r0, [r7, #12]
 2444 004e FFF7FEFF 		bl	hal_sys_basetick_timeout_check
 2445 0052 0346     		mov	r3, r0
 2446              		.loc 1 1169 19
 2447 0054 012B     		cmp	r3, #1
 2448 0056 06D1     		bne	.L153
1170:../firmware/gd32f3x0_hal_peripheral/Source/gd32f3x0_hal_adc.c ****                     _adc_state_set(adc_dev, HAL_ADC_STATE_TIMEOUT);
 2449              		.loc 1 1170 21
 2450 0058 0421     		movs	r1, #4
 2451 005a 7868     		ldr	r0, [r7, #4]
 2452 005c FFF7FEFF 		bl	_adc_state_set
1171:../firmware/gd32f3x0_hal_peripheral/Source/gd32f3x0_hal_adc.c ****                     /* when timeout occurs, output timeout warning message */
1172:../firmware/gd32f3x0_hal_peripheral/Source/gd32f3x0_hal_adc.c ****                     HAL_DEBUGW("adc_dev inserted conversion poll timeout");
1173:../firmware/gd32f3x0_hal_peripheral/Source/gd32f3x0_hal_adc.c ****                     return HAL_ERR_TIMEOUT;
 2453              		.loc 1 1173 28
 2454 0060 6FF00403 		mvn	r3, #4
 2455 0064 46E0     		b	.L151
 2456              	.L153:
1166:../firmware/gd32f3x0_hal_peripheral/Source/gd32f3x0_hal_adc.c ****             /* check for the timeout */
 2457              		.loc 1 1166 24
 2458 0066 0420     		movs	r0, #4
 2459 0068 FFF7FEFF 		bl	hals_adc_flag_get
 2460 006c 0346     		mov	r3, r0
1166:../firmware/gd32f3x0_hal_peripheral/Source/gd32f3x0_hal_adc.c ****             /* check for the timeout */
 2461              		.loc 1 1166 14
 2462 006e 002B     		cmp	r3, #0
 2463 0070 E7D0     		beq	.L154
1164:../firmware/gd32f3x0_hal_peripheral/Source/gd32f3x0_hal_adc.c ****         /* wait until end of inserted channel conversion flag is raised */
 2464              		.loc 1 1164 7
 2465 0072 02E0     		b	.L158
 2466              	.L152:
1174:../firmware/gd32f3x0_hal_peripheral/Source/gd32f3x0_hal_adc.c ****                 }
1175:../firmware/gd32f3x0_hal_peripheral/Source/gd32f3x0_hal_adc.c ****             }
1176:../firmware/gd32f3x0_hal_peripheral/Source/gd32f3x0_hal_adc.c ****         }
1177:../firmware/gd32f3x0_hal_peripheral/Source/gd32f3x0_hal_adc.c ****     } else {
1178:../firmware/gd32f3x0_hal_peripheral/Source/gd32f3x0_hal_adc.c ****         return HAL_ERR_NO_SUPPORT;
 2467              		.loc 1 1178 16
 2468 0074 6FF00303 		mvn	r3, #3
 2469 0078 3CE0     		b	.L151
 2470              	.L158:
1179:../firmware/gd32f3x0_hal_peripheral/Source/gd32f3x0_hal_adc.c ****     }
1180:../firmware/gd32f3x0_hal_peripheral/Source/gd32f3x0_hal_adc.c **** 
1181:../firmware/gd32f3x0_hal_peripheral/Source/gd32f3x0_hal_adc.c ****     /* clear ADC EOIC/STIC/EOC flag */
1182:../firmware/gd32f3x0_hal_peripheral/Source/gd32f3x0_hal_adc.c ****     hals_adc_flag_clear(ADC_FLAG_EOIC);
 2471              		.loc 1 1182 5
 2472 007a 0420     		movs	r0, #4
 2473 007c FFF7FEFF 		bl	hals_adc_flag_clear
1183:../firmware/gd32f3x0_hal_peripheral/Source/gd32f3x0_hal_adc.c ****     hals_adc_flag_clear(ADC_FLAG_STIC);
 2474              		.loc 1 1183 5
 2475 0080 0820     		movs	r0, #8
 2476 0082 FFF7FEFF 		bl	hals_adc_flag_clear
1184:../firmware/gd32f3x0_hal_peripheral/Source/gd32f3x0_hal_adc.c ****     hals_adc_flag_clear(ADC_FLAG_EOC);
 2477              		.loc 1 1184 5
 2478 0086 0220     		movs	r0, #2
 2479 0088 FFF7FEFF 		bl	hals_adc_flag_clear
1185:../firmware/gd32f3x0_hal_peripheral/Source/gd32f3x0_hal_adc.c **** 
1186:../firmware/gd32f3x0_hal_peripheral/Source/gd32f3x0_hal_adc.c ****     /* set ADC state */
1187:../firmware/gd32f3x0_hal_peripheral/Source/gd32f3x0_hal_adc.c ****     _adc_state_set(adc_dev, HAL_ADC_STATE_INSERTED_EOC);
 2480              		.loc 1 1187 5
 2481 008c 4FF40071 		mov	r1, #512
 2482 0090 7868     		ldr	r0, [r7, #4]
 2483 0092 FFF7FEFF 		bl	_adc_state_set
1188:../firmware/gd32f3x0_hal_peripheral/Source/gd32f3x0_hal_adc.c **** 
1189:../firmware/gd32f3x0_hal_peripheral/Source/gd32f3x0_hal_adc.c ****     if((ADC_EXTTRIG_INSERTED_NONE == __HAL_ADC_GET_INSERTEDCH_EXTTRIGGER) ||
 2484              		.loc 1 1189 38
 2485 0096 1B4B     		ldr	r3, .L159+8
 2486 0098 1B68     		ldr	r3, [r3]
 2487 009a 03F4E043 		and	r3, r3, #28672
 2488              		.loc 1 1189 7
 2489 009e B3F5E04F 		cmp	r3, #28672
 2490 00a2 12D0     		beq	.L156
1190:../firmware/gd32f3x0_hal_peripheral/Source/gd32f3x0_hal_adc.c ****             ((RESET == __HAL_ADC_GET_INSERTEDCH_AUTOCONV) \
 2491              		.loc 1 1190 24 discriminator 1
 2492 00a4 154B     		ldr	r3, .L159
 2493 00a6 1B68     		ldr	r3, [r3]
 2494 00a8 03F48063 		and	r3, r3, #1024
1189:../firmware/gd32f3x0_hal_peripheral/Source/gd32f3x0_hal_adc.c ****             ((RESET == __HAL_ADC_GET_INSERTEDCH_AUTOCONV) \
 2495              		.loc 1 1189 75 discriminator 1
 2496 00ac 002B     		cmp	r3, #0
 2497 00ae 1DD1     		bne	.L157
1191:../firmware/gd32f3x0_hal_peripheral/Source/gd32f3x0_hal_adc.c ****              && ((ADC_EXTTRIG_ROUTINE_NONE == __HAL_ADC_GET_ROUTINECH_EXTTRIGGER) &&
 2498              		.loc 1 1191 47
 2499 00b0 144B     		ldr	r3, .L159+8
 2500 00b2 1B68     		ldr	r3, [r3]
 2501 00b4 03F46023 		and	r3, r3, #917504
 2502              		.loc 1 1191 14
 2503 00b8 B3F5602F 		cmp	r3, #917504
 2504 00bc 16D1     		bne	.L157
1192:../firmware/gd32f3x0_hal_peripheral/Source/gd32f3x0_hal_adc.c ****                  (RESET == __HAL_ADC_GET_CONTINUOUS_MODE)))) {
 2505              		.loc 1 1192 28 discriminator 1
 2506 00be 114B     		ldr	r3, .L159+8
 2507 00c0 1B68     		ldr	r3, [r3]
 2508 00c2 03F00203 		and	r3, r3, #2
1191:../firmware/gd32f3x0_hal_peripheral/Source/gd32f3x0_hal_adc.c ****              && ((ADC_EXTTRIG_ROUTINE_NONE == __HAL_ADC_GET_ROUTINECH_EXTTRIGGER) &&
 2509              		.loc 1 1191 83 discriminator 1
 2510 00c6 002B     		cmp	r3, #0
 2511 00c8 10D1     		bne	.L157
 2512              	.L156:
1193:../firmware/gd32f3x0_hal_peripheral/Source/gd32f3x0_hal_adc.c ****         /* set ADC state */
1194:../firmware/gd32f3x0_hal_peripheral/Source/gd32f3x0_hal_adc.c ****         _adc_state_clear(adc_dev, HAL_ADC_STATE_INSERTED_BUSY);
 2513              		.loc 1 1194 9
 2514 00ca 4FF48071 		mov	r1, #256
 2515 00ce 7868     		ldr	r0, [r7, #4]
 2516 00d0 FFF7FEFF 		bl	_adc_state_clear
1195:../firmware/gd32f3x0_hal_peripheral/Source/gd32f3x0_hal_adc.c ****         if(RESET == ((hal_adc_state_get(adc_dev)) & HAL_ADC_STATE_ROUTINE_BUSY)) {
 2517              		.loc 1 1195 23
 2518 00d4 7868     		ldr	r0, [r7, #4]
 2519 00d6 FFF7FEFF 		bl	hal_adc_state_get
 2520 00da 0346     		mov	r3, r0
 2521              		.loc 1 1195 51
 2522 00dc 03F01003 		and	r3, r3, #16
 2523              		.loc 1 1195 11
 2524 00e0 002B     		cmp	r3, #0
 2525 00e2 03D1     		bne	.L157
1196:../firmware/gd32f3x0_hal_peripheral/Source/gd32f3x0_hal_adc.c ****             _adc_state_set(adc_dev, HAL_ADC_STATE_READY);
 2526              		.loc 1 1196 13
 2527 00e4 0121     		movs	r1, #1
 2528 00e6 7868     		ldr	r0, [r7, #4]
 2529 00e8 FFF7FEFF 		bl	_adc_state_set
 2530              	.L157:
1197:../firmware/gd32f3x0_hal_peripheral/Source/gd32f3x0_hal_adc.c ****         }
1198:../firmware/gd32f3x0_hal_peripheral/Source/gd32f3x0_hal_adc.c ****     }
1199:../firmware/gd32f3x0_hal_peripheral/Source/gd32f3x0_hal_adc.c ****     /* unlock ADC */
1200:../firmware/gd32f3x0_hal_peripheral/Source/gd32f3x0_hal_adc.c ****     HAL_UNLOCK(adc_dev);
 2531              		.loc 1 1200 5
 2532 00ec 7B68     		ldr	r3, [r7, #4]
 2533 00ee 0022     		movs	r2, #0
 2534 00f0 5A77     		strb	r2, [r3, #29]
1201:../firmware/gd32f3x0_hal_peripheral/Source/gd32f3x0_hal_adc.c **** 
1202:../firmware/gd32f3x0_hal_peripheral/Source/gd32f3x0_hal_adc.c ****     return HAL_ERR_NONE;
 2535              		.loc 1 1202 12
 2536 00f2 0023     		movs	r3, #0
 2537              	.L151:
1203:../firmware/gd32f3x0_hal_peripheral/Source/gd32f3x0_hal_adc.c **** }
 2538              		.loc 1 1203 1
 2539 00f4 1846     		mov	r0, r3
 2540 00f6 1037     		adds	r7, r7, #16
 2541              		.cfi_def_cfa_offset 8
 2542 00f8 BD46     		mov	sp, r7
 2543              		.cfi_def_cfa_register 13
 2544              		@ sp needed
 2545 00fa 80BD     		pop	{r7, pc}
 2546              	.L160:
 2547              		.align	2
 2548              	.L159:
 2549 00fc 04240140 		.word	1073816580
 2550 0100 2C240140 		.word	1073816620
 2551 0104 08240140 		.word	1073816584
 2552              		.cfi_endproc
 2553              	.LFE137:
 2555              		.section	.text.hal_adc_inserted_software_trigger_enable,"ax",%progbits
 2556              		.align	1
 2557              		.global	hal_adc_inserted_software_trigger_enable
 2558              		.syntax unified
 2559              		.thumb
 2560              		.thumb_func
 2561              		.fpu softvfp
 2563              	hal_adc_inserted_software_trigger_enable:
 2564              	.LFB138:
1204:../firmware/gd32f3x0_hal_peripheral/Source/gd32f3x0_hal_adc.c **** 
1205:../firmware/gd32f3x0_hal_peripheral/Source/gd32f3x0_hal_adc.c **** /*!
1206:../firmware/gd32f3x0_hal_peripheral/Source/gd32f3x0_hal_adc.c ****     \brief      enable ADC inserted sequence software trigger
1207:../firmware/gd32f3x0_hal_peripheral/Source/gd32f3x0_hal_adc.c ****     \param[in]  adc_dev: ADC device information structure
1208:../firmware/gd32f3x0_hal_peripheral/Source/gd32f3x0_hal_adc.c ****                   the structure is not necessary to be reconfigured after structrue initialization,
1209:../firmware/gd32f3x0_hal_peripheral/Source/gd32f3x0_hal_adc.c ****                   the structure parameters altering is automatically configured by core
1210:../firmware/gd32f3x0_hal_peripheral/Source/gd32f3x0_hal_adc.c ****     \param[out] none
1211:../firmware/gd32f3x0_hal_peripheral/Source/gd32f3x0_hal_adc.c ****     \retval     none
1212:../firmware/gd32f3x0_hal_peripheral/Source/gd32f3x0_hal_adc.c **** */
1213:../firmware/gd32f3x0_hal_peripheral/Source/gd32f3x0_hal_adc.c **** void hal_adc_inserted_software_trigger_enable(hal_adc_dev_struct *adc_dev)
1214:../firmware/gd32f3x0_hal_peripheral/Source/gd32f3x0_hal_adc.c **** {
 2565              		.loc 1 1214 1
 2566              		.cfi_startproc
 2567              		@ args = 0, pretend = 0, frame = 8
 2568              		@ frame_needed = 1, uses_anonymous_args = 0
 2569 0000 80B5     		push	{r7, lr}
 2570              		.cfi_def_cfa_offset 8
 2571              		.cfi_offset 7, -8
 2572              		.cfi_offset 14, -4
 2573 0002 82B0     		sub	sp, sp, #8
 2574              		.cfi_def_cfa_offset 16
 2575 0004 00AF     		add	r7, sp, #0
 2576              		.cfi_def_cfa_register 7
 2577 0006 7860     		str	r0, [r7, #4]
1215:../firmware/gd32f3x0_hal_peripheral/Source/gd32f3x0_hal_adc.c ****     hals_adc_software_trigger_enable(ADC_INSERTED_CHANNEL);
 2578              		.loc 1 1215 5
 2579 0008 0220     		movs	r0, #2
 2580 000a FFF7FEFF 		bl	hals_adc_software_trigger_enable
1216:../firmware/gd32f3x0_hal_peripheral/Source/gd32f3x0_hal_adc.c **** }
 2581              		.loc 1 1216 1
 2582 000e 00BF     		nop
 2583 0010 0837     		adds	r7, r7, #8
 2584              		.cfi_def_cfa_offset 8
 2585 0012 BD46     		mov	sp, r7
 2586              		.cfi_def_cfa_register 13
 2587              		@ sp needed
 2588 0014 80BD     		pop	{r7, pc}
 2589              		.cfi_endproc
 2590              	.LFE138:
 2592              		.section	.text.hal_adc_inserted_start_interrupt,"ax",%progbits
 2593              		.align	1
 2594              		.global	hal_adc_inserted_start_interrupt
 2595              		.syntax unified
 2596              		.thumb
 2597              		.thumb_func
 2598              		.fpu softvfp
 2600              	hal_adc_inserted_start_interrupt:
 2601              	.LFB139:
1217:../firmware/gd32f3x0_hal_peripheral/Source/gd32f3x0_hal_adc.c **** 
1218:../firmware/gd32f3x0_hal_peripheral/Source/gd32f3x0_hal_adc.c **** /*!
1219:../firmware/gd32f3x0_hal_peripheral/Source/gd32f3x0_hal_adc.c ****     \brief      start ADC EOIC interrupt
1220:../firmware/gd32f3x0_hal_peripheral/Source/gd32f3x0_hal_adc.c ****     \param[in]  adc_dev: ADC device information structure
1221:../firmware/gd32f3x0_hal_peripheral/Source/gd32f3x0_hal_adc.c ****                   the structure is not necessary to be reconfigured after structrue initialization,
1222:../firmware/gd32f3x0_hal_peripheral/Source/gd32f3x0_hal_adc.c ****                   the structure parameters altering is automatically configured by core
1223:../firmware/gd32f3x0_hal_peripheral/Source/gd32f3x0_hal_adc.c ****     \param[in]  p_irq: EOIC interrupt callback function structure
1224:../firmware/gd32f3x0_hal_peripheral/Source/gd32f3x0_hal_adc.c ****     \param[out] none
1225:../firmware/gd32f3x0_hal_peripheral/Source/gd32f3x0_hal_adc.c ****     \retval     HAL_ERR_NONE, HAL_ERR_ADDRESS, HAL_ERR_HARDWARE, details refer to gd32f3x0_hal.h
1226:../firmware/gd32f3x0_hal_peripheral/Source/gd32f3x0_hal_adc.c **** */
1227:../firmware/gd32f3x0_hal_peripheral/Source/gd32f3x0_hal_adc.c **** int32_t hal_adc_inserted_start_interrupt(hal_adc_dev_struct *adc_dev, hal_adc_irq_struct *p_irq)
1228:../firmware/gd32f3x0_hal_peripheral/Source/gd32f3x0_hal_adc.c **** {
 2602              		.loc 1 1228 1
 2603              		.cfi_startproc
 2604              		@ args = 0, pretend = 0, frame = 8
 2605              		@ frame_needed = 1, uses_anonymous_args = 0
 2606 0000 80B5     		push	{r7, lr}
 2607              		.cfi_def_cfa_offset 8
 2608              		.cfi_offset 7, -8
 2609              		.cfi_offset 14, -4
 2610 0002 82B0     		sub	sp, sp, #8
 2611              		.cfi_def_cfa_offset 16
 2612 0004 00AF     		add	r7, sp, #0
 2613              		.cfi_def_cfa_register 7
 2614 0006 7860     		str	r0, [r7, #4]
 2615 0008 3960     		str	r1, [r7]
1229:../firmware/gd32f3x0_hal_peripheral/Source/gd32f3x0_hal_adc.c **** #if (1 == HAL_PARAMETER_CHECK)
1230:../firmware/gd32f3x0_hal_peripheral/Source/gd32f3x0_hal_adc.c ****     /* check the parameters */
1231:../firmware/gd32f3x0_hal_peripheral/Source/gd32f3x0_hal_adc.c ****     if((NULL == adc_dev) || (NULL == p_irq)) {
1232:../firmware/gd32f3x0_hal_peripheral/Source/gd32f3x0_hal_adc.c ****         HAL_DEBUGE("pointer [adc_dev] or [p_irq] address is invalid");
1233:../firmware/gd32f3x0_hal_peripheral/Source/gd32f3x0_hal_adc.c ****         return HAL_ERR_ADDRESS;
1234:../firmware/gd32f3x0_hal_peripheral/Source/gd32f3x0_hal_adc.c ****     }
1235:../firmware/gd32f3x0_hal_peripheral/Source/gd32f3x0_hal_adc.c **** #endif /* 1 = HAL_PARAMETER_CHECK */
1236:../firmware/gd32f3x0_hal_peripheral/Source/gd32f3x0_hal_adc.c **** 
1237:../firmware/gd32f3x0_hal_peripheral/Source/gd32f3x0_hal_adc.c ****     /* lock ADC */
1238:../firmware/gd32f3x0_hal_peripheral/Source/gd32f3x0_hal_adc.c ****     HAL_LOCK(adc_dev);
 2616              		.loc 1 1238 5
 2617 000a 7B68     		ldr	r3, [r7, #4]
 2618 000c 5B7F     		ldrb	r3, [r3, #29]	@ zero_extendqisi2
 2619 000e 012B     		cmp	r3, #1
 2620 0010 02D1     		bne	.L163
 2621              		.loc 1 1238 5 is_stmt 0 discriminator 1
 2622 0012 6FF00103 		mvn	r3, #1
 2623 0016 4DE0     		b	.L164
 2624              	.L163:
 2625              		.loc 1 1238 5 discriminator 2
 2626 0018 7B68     		ldr	r3, [r7, #4]
 2627 001a 0122     		movs	r2, #1
 2628 001c 5A77     		strb	r2, [r3, #29]
1239:../firmware/gd32f3x0_hal_peripheral/Source/gd32f3x0_hal_adc.c **** 
1240:../firmware/gd32f3x0_hal_peripheral/Source/gd32f3x0_hal_adc.c ****     /* if ADC is enabled */
1241:../firmware/gd32f3x0_hal_peripheral/Source/gd32f3x0_hal_adc.c ****     if(HAL_ERR_NONE == _adc_enable(adc_dev)) {
 2629              		.loc 1 1241 24 is_stmt 1 discriminator 2
 2630 001e 7868     		ldr	r0, [r7, #4]
 2631 0020 FFF7FEFF 		bl	_adc_enable
 2632 0024 0346     		mov	r3, r0
 2633              		.loc 1 1241 7 discriminator 2
 2634 0026 002B     		cmp	r3, #0
 2635 0028 3DD1     		bne	.L165
1242:../firmware/gd32f3x0_hal_peripheral/Source/gd32f3x0_hal_adc.c ****         _adc_state_clear(adc_dev, HAL_ADC_STATE_READY);
 2636              		.loc 1 1242 9
 2637 002a 0121     		movs	r1, #1
 2638 002c 7868     		ldr	r0, [r7, #4]
 2639 002e FFF7FEFF 		bl	_adc_state_clear
1243:../firmware/gd32f3x0_hal_peripheral/Source/gd32f3x0_hal_adc.c ****         _adc_state_clear(adc_dev, HAL_ADC_STATE_INSERTED_EOC);
 2640              		.loc 1 1243 9
 2641 0032 4FF40071 		mov	r1, #512
 2642 0036 7868     		ldr	r0, [r7, #4]
 2643 0038 FFF7FEFF 		bl	_adc_state_clear
1244:../firmware/gd32f3x0_hal_peripheral/Source/gd32f3x0_hal_adc.c ****         _adc_state_set(adc_dev, HAL_ADC_STATE_INSERTED_BUSY);
 2644              		.loc 1 1244 9
 2645 003c 4FF48071 		mov	r1, #256
 2646 0040 7868     		ldr	r0, [r7, #4]
 2647 0042 FFF7FEFF 		bl	_adc_state_set
1245:../firmware/gd32f3x0_hal_peripheral/Source/gd32f3x0_hal_adc.c **** 
1246:../firmware/gd32f3x0_hal_peripheral/Source/gd32f3x0_hal_adc.c ****         /* check if an inserted conversion is ongoing */
1247:../firmware/gd32f3x0_hal_peripheral/Source/gd32f3x0_hal_adc.c ****         if(RESET == ((hal_adc_state_get(adc_dev)) & HAL_ADC_STATE_ROUTINE_BUSY)) {
 2648              		.loc 1 1247 23
 2649 0046 7868     		ldr	r0, [r7, #4]
 2650 0048 FFF7FEFF 		bl	hal_adc_state_get
 2651 004c 0346     		mov	r3, r0
 2652              		.loc 1 1247 51
 2653 004e 03F01003 		and	r3, r3, #16
 2654              		.loc 1 1247 11
 2655 0052 002B     		cmp	r3, #0
 2656 0054 02D1     		bne	.L166
1248:../firmware/gd32f3x0_hal_peripheral/Source/gd32f3x0_hal_adc.c ****             adc_dev->error_state = HAL_ADC_ERROR_NONE;
 2657              		.loc 1 1248 34
 2658 0056 7B68     		ldr	r3, [r7, #4]
 2659 0058 0022     		movs	r2, #0
 2660 005a 1A77     		strb	r2, [r3, #28]
 2661              	.L166:
1249:../firmware/gd32f3x0_hal_peripheral/Source/gd32f3x0_hal_adc.c ****         }
1250:../firmware/gd32f3x0_hal_peripheral/Source/gd32f3x0_hal_adc.c **** 
1251:../firmware/gd32f3x0_hal_peripheral/Source/gd32f3x0_hal_adc.c ****         adc_dev->adc_irq.adc_eoic_handle = p_irq->adc_eoic_handle;
 2662              		.loc 1 1251 49
 2663 005c 3B68     		ldr	r3, [r7]
 2664 005e 5A68     		ldr	r2, [r3, #4]
 2665              		.loc 1 1251 42
 2666 0060 7B68     		ldr	r3, [r7, #4]
 2667 0062 5A60     		str	r2, [r3, #4]
1252:../firmware/gd32f3x0_hal_peripheral/Source/gd32f3x0_hal_adc.c ****         /* clear ADC interrupt flag */
1253:../firmware/gd32f3x0_hal_peripheral/Source/gd32f3x0_hal_adc.c ****         hals_adc_interrupt_flag_clear(ADC_INT_FLAG_EOIC);
 2668              		.loc 1 1253 9
 2669 0064 0420     		movs	r0, #4
 2670 0066 FFF7FEFF 		bl	hals_adc_interrupt_flag_clear
1254:../firmware/gd32f3x0_hal_peripheral/Source/gd32f3x0_hal_adc.c ****         /* enable ADC end of sequence conversion flag */
1255:../firmware/gd32f3x0_hal_peripheral/Source/gd32f3x0_hal_adc.c ****         hals_adc_interrupt_enable(ADC_INT_EOIC);
 2671              		.loc 1 1255 9
 2672 006a 0420     		movs	r0, #4
 2673 006c FFF7FEFF 		bl	hals_adc_interrupt_enable
1256:../firmware/gd32f3x0_hal_peripheral/Source/gd32f3x0_hal_adc.c **** 
1257:../firmware/gd32f3x0_hal_peripheral/Source/gd32f3x0_hal_adc.c ****         /* check if inserted sequence external trigger is enable*/
1258:../firmware/gd32f3x0_hal_peripheral/Source/gd32f3x0_hal_adc.c ****         if(RESET == ((ADC_CTL1) & (ADC_CTL1_ETEIC))) {
 2674              		.loc 1 1258 23
 2675 0070 124B     		ldr	r3, .L169
 2676 0072 1B68     		ldr	r3, [r3]
 2677              		.loc 1 1258 33
 2678 0074 03F40043 		and	r3, r3, #32768
 2679              		.loc 1 1258 11
 2680 0078 002B     		cmp	r3, #0
 2681 007a 03D1     		bne	.L167
1259:../firmware/gd32f3x0_hal_peripheral/Source/gd32f3x0_hal_adc.c ****             /* enable software trigger */
1260:../firmware/gd32f3x0_hal_peripheral/Source/gd32f3x0_hal_adc.c ****             hals_adc_external_trigger_config(ADC_INSERTED_CHANNEL, ENABLE);
 2682              		.loc 1 1260 13
 2683 007c 0121     		movs	r1, #1
 2684 007e 0220     		movs	r0, #2
 2685 0080 FFF7FEFF 		bl	hals_adc_external_trigger_config
 2686              	.L167:
1261:../firmware/gd32f3x0_hal_peripheral/Source/gd32f3x0_hal_adc.c ****         }
1262:../firmware/gd32f3x0_hal_peripheral/Source/gd32f3x0_hal_adc.c ****         if(RESET == __HAL_ADC_GET_INSERTEDCH_AUTOCONV) {
 2687              		.loc 1 1262 21
 2688 0084 0E4B     		ldr	r3, .L169+4
 2689 0086 1B68     		ldr	r3, [r3]
 2690 0088 03F48063 		and	r3, r3, #1024
 2691              		.loc 1 1262 11
 2692 008c 002B     		cmp	r3, #0
 2693 008e 0DD1     		bne	.L168
1263:../firmware/gd32f3x0_hal_peripheral/Source/gd32f3x0_hal_adc.c ****             if(ADC_EXTTRIG_INSERTED_NONE == __HAL_ADC_GET_INSERTEDCH_EXTTRIGGER) {
 2694              		.loc 1 1263 45
 2695 0090 0A4B     		ldr	r3, .L169
 2696 0092 1B68     		ldr	r3, [r3]
 2697 0094 03F4E043 		and	r3, r3, #28672
 2698              		.loc 1 1263 15
 2699 0098 B3F5E04F 		cmp	r3, #28672
 2700 009c 06D1     		bne	.L168
1264:../firmware/gd32f3x0_hal_peripheral/Source/gd32f3x0_hal_adc.c ****                 /* enable software trigger */
1265:../firmware/gd32f3x0_hal_peripheral/Source/gd32f3x0_hal_adc.c ****                 hals_adc_software_trigger_enable(ADC_INSERTED_CHANNEL);
 2701              		.loc 1 1265 17
 2702 009e 0220     		movs	r0, #2
 2703 00a0 FFF7FEFF 		bl	hals_adc_software_trigger_enable
 2704 00a4 02E0     		b	.L168
 2705              	.L165:
1266:../firmware/gd32f3x0_hal_peripheral/Source/gd32f3x0_hal_adc.c ****             }
1267:../firmware/gd32f3x0_hal_peripheral/Source/gd32f3x0_hal_adc.c ****         }
1268:../firmware/gd32f3x0_hal_peripheral/Source/gd32f3x0_hal_adc.c ****     } else {
1269:../firmware/gd32f3x0_hal_peripheral/Source/gd32f3x0_hal_adc.c ****         return HAL_ERR_HARDWARE;
 2706              		.loc 1 1269 16
 2707 00a6 6FF00703 		mvn	r3, #7
 2708 00aa 03E0     		b	.L164
 2709              	.L168:
1270:../firmware/gd32f3x0_hal_peripheral/Source/gd32f3x0_hal_adc.c ****     }
1271:../firmware/gd32f3x0_hal_peripheral/Source/gd32f3x0_hal_adc.c **** 
1272:../firmware/gd32f3x0_hal_peripheral/Source/gd32f3x0_hal_adc.c ****     /* unlock ADC */
1273:../firmware/gd32f3x0_hal_peripheral/Source/gd32f3x0_hal_adc.c ****     HAL_UNLOCK(adc_dev);
 2710              		.loc 1 1273 5
 2711 00ac 7B68     		ldr	r3, [r7, #4]
 2712 00ae 0022     		movs	r2, #0
 2713 00b0 5A77     		strb	r2, [r3, #29]
1274:../firmware/gd32f3x0_hal_peripheral/Source/gd32f3x0_hal_adc.c **** 
1275:../firmware/gd32f3x0_hal_peripheral/Source/gd32f3x0_hal_adc.c ****     return HAL_ERR_NONE;
 2714              		.loc 1 1275 12
 2715 00b2 0023     		movs	r3, #0
 2716              	.L164:
1276:../firmware/gd32f3x0_hal_peripheral/Source/gd32f3x0_hal_adc.c **** }
 2717              		.loc 1 1276 1
 2718 00b4 1846     		mov	r0, r3
 2719 00b6 0837     		adds	r7, r7, #8
 2720              		.cfi_def_cfa_offset 8
 2721 00b8 BD46     		mov	sp, r7
 2722              		.cfi_def_cfa_register 13
 2723              		@ sp needed
 2724 00ba 80BD     		pop	{r7, pc}
 2725              	.L170:
 2726              		.align	2
 2727              	.L169:
 2728 00bc 08240140 		.word	1073816584
 2729 00c0 04240140 		.word	1073816580
 2730              		.cfi_endproc
 2731              	.LFE139:
 2733              		.section	.text.hal_adc_inserted_stop_interrupt,"ax",%progbits
 2734              		.align	1
 2735              		.global	hal_adc_inserted_stop_interrupt
 2736              		.syntax unified
 2737              		.thumb
 2738              		.thumb_func
 2739              		.fpu softvfp
 2741              	hal_adc_inserted_stop_interrupt:
 2742              	.LFB140:
1277:../firmware/gd32f3x0_hal_peripheral/Source/gd32f3x0_hal_adc.c **** 
1278:../firmware/gd32f3x0_hal_peripheral/Source/gd32f3x0_hal_adc.c **** /*!
1279:../firmware/gd32f3x0_hal_peripheral/Source/gd32f3x0_hal_adc.c ****     \brief      stop the conversion of inserted sequence and disable ADC
1280:../firmware/gd32f3x0_hal_peripheral/Source/gd32f3x0_hal_adc.c ****     \param[in]  adc_dev: ADC device information structure
1281:../firmware/gd32f3x0_hal_peripheral/Source/gd32f3x0_hal_adc.c ****                   the structure is not necessary to be reconfigured after structrue initialization,
