   1              		.cpu cortex-m4
   2              		.eabi_attribute 20, 1
   3              		.eabi_attribute 21, 1
   4              		.eabi_attribute 23, 3
   5              		.eabi_attribute 24, 1
   6              		.eabi_attribute 25, 1
   7              		.eabi_attribute 26, 1
   8              		.eabi_attribute 30, 6
   9              		.eabi_attribute 34, 1
  10              		.eabi_attribute 18, 4
  11              		.file	"gd32f3x0_hal_i2c.c"
  12              		.text
  13              	.Ltext0:
  14              		.cfi_sections	.debug_frame
  15              		.section	.text.hal_i2c_struct_init,"ax",%progbits
  16              		.align	1
  17              		.global	hal_i2c_struct_init
  18              		.arch armv7e-m
  19              		.syntax unified
  20              		.thumb
  21              		.thumb_func
  22              		.fpu softvfp
  24              	hal_i2c_struct_init:
  25              	.LFB119:
  26              		.file 1 "../firmware/gd32f3x0_hal_peripheral/Source/gd32f3x0_hal_i2c.c"
   1:../firmware/gd32f3x0_hal_peripheral/Source/gd32f3x0_hal_i2c.c **** /*!
   2:../firmware/gd32f3x0_hal_peripheral/Source/gd32f3x0_hal_i2c.c ****     \file    gd32f3x0_hal_i2c.c
   3:../firmware/gd32f3x0_hal_peripheral/Source/gd32f3x0_hal_i2c.c ****     \brief   I2C driver
   4:../firmware/gd32f3x0_hal_peripheral/Source/gd32f3x0_hal_i2c.c **** 
   5:../firmware/gd32f3x0_hal_peripheral/Source/gd32f3x0_hal_i2c.c ****     \version 2023-08-01, V1.0.0, HAL firmware for GD32F3x0
   6:../firmware/gd32f3x0_hal_peripheral/Source/gd32f3x0_hal_i2c.c **** */
   7:../firmware/gd32f3x0_hal_peripheral/Source/gd32f3x0_hal_i2c.c **** 
   8:../firmware/gd32f3x0_hal_peripheral/Source/gd32f3x0_hal_i2c.c **** /*
   9:../firmware/gd32f3x0_hal_peripheral/Source/gd32f3x0_hal_i2c.c ****     Copyright (c) 2023, GigaDevice Semiconductor Inc.
  10:../firmware/gd32f3x0_hal_peripheral/Source/gd32f3x0_hal_i2c.c **** 
  11:../firmware/gd32f3x0_hal_peripheral/Source/gd32f3x0_hal_i2c.c ****     All rights reserved.
  12:../firmware/gd32f3x0_hal_peripheral/Source/gd32f3x0_hal_i2c.c **** 
  13:../firmware/gd32f3x0_hal_peripheral/Source/gd32f3x0_hal_i2c.c ****     Redistribution and use in source and binary forms, with or without modification,
  14:../firmware/gd32f3x0_hal_peripheral/Source/gd32f3x0_hal_i2c.c **** are permitted provided that the following conditions are met:
  15:../firmware/gd32f3x0_hal_peripheral/Source/gd32f3x0_hal_i2c.c **** 
  16:../firmware/gd32f3x0_hal_peripheral/Source/gd32f3x0_hal_i2c.c ****     1. Redistributions of source code must retain the above copyright notice, this
  17:../firmware/gd32f3x0_hal_peripheral/Source/gd32f3x0_hal_i2c.c ****        list of conditions and the following disclaimer.
  18:../firmware/gd32f3x0_hal_peripheral/Source/gd32f3x0_hal_i2c.c ****     2. Redistributions in binary form must reproduce the above copyright notice,
  19:../firmware/gd32f3x0_hal_peripheral/Source/gd32f3x0_hal_i2c.c ****        this list of conditions and the following disclaimer in the documentation
  20:../firmware/gd32f3x0_hal_peripheral/Source/gd32f3x0_hal_i2c.c ****        and/or other materials provided with the distribution.
  21:../firmware/gd32f3x0_hal_peripheral/Source/gd32f3x0_hal_i2c.c ****     3. Neither the name of the copyright holder nor the names of its contributors
  22:../firmware/gd32f3x0_hal_peripheral/Source/gd32f3x0_hal_i2c.c ****        may be used to endorse or promote products derived from this software without
  23:../firmware/gd32f3x0_hal_peripheral/Source/gd32f3x0_hal_i2c.c ****        specific prior written permission.
  24:../firmware/gd32f3x0_hal_peripheral/Source/gd32f3x0_hal_i2c.c **** 
  25:../firmware/gd32f3x0_hal_peripheral/Source/gd32f3x0_hal_i2c.c ****     THIS SOFTWARE IS PROVIDED BY THE COPYRIGHT HOLDERS AND CONTRIBUTORS "AS IS"
  26:../firmware/gd32f3x0_hal_peripheral/Source/gd32f3x0_hal_i2c.c **** AND ANY EXPRESS OR IMPLIED WARRANTIES, INCLUDING, BUT NOT LIMITED TO, THE IMPLIED
  27:../firmware/gd32f3x0_hal_peripheral/Source/gd32f3x0_hal_i2c.c **** WARRANTIES OF MERCHANTABILITY AND FITNESS FOR A PARTICULAR PURPOSE ARE DISCLAIMED.
  28:../firmware/gd32f3x0_hal_peripheral/Source/gd32f3x0_hal_i2c.c **** IN NO EVENT SHALL THE COPYRIGHT HOLDER OR CONTRIBUTORS BE LIABLE FOR ANY DIRECT,
  29:../firmware/gd32f3x0_hal_peripheral/Source/gd32f3x0_hal_i2c.c **** INDIRECT, INCIDENTAL, SPECIAL, EXEMPLARY, OR CONSEQUENTIAL DAMAGES (INCLUDING, BUT
  30:../firmware/gd32f3x0_hal_peripheral/Source/gd32f3x0_hal_i2c.c **** NOT LIMITED TO, PROCUREMENT OF SUBSTITUTE GOODS OR SERVICES; LOSS OF USE, DATA, OR
  31:../firmware/gd32f3x0_hal_peripheral/Source/gd32f3x0_hal_i2c.c **** PROFITS; OR BUSINESS INTERRUPTION) HOWEVER CAUSED AND ON ANY THEORY OF LIABILITY,
  32:../firmware/gd32f3x0_hal_peripheral/Source/gd32f3x0_hal_i2c.c **** WHETHER IN CONTRACT, STRICT LIABILITY, OR TORT (INCLUDING NEGLIGENCE OR OTHERWISE)
  33:../firmware/gd32f3x0_hal_peripheral/Source/gd32f3x0_hal_i2c.c **** ARISING IN ANY WAY OUT OF THE USE OF THIS SOFTWARE, EVEN IF ADVISED OF THE POSSIBILITY
  34:../firmware/gd32f3x0_hal_peripheral/Source/gd32f3x0_hal_i2c.c **** OF SUCH DAMAGE.
  35:../firmware/gd32f3x0_hal_peripheral/Source/gd32f3x0_hal_i2c.c **** */
  36:../firmware/gd32f3x0_hal_peripheral/Source/gd32f3x0_hal_i2c.c **** 
  37:../firmware/gd32f3x0_hal_peripheral/Source/gd32f3x0_hal_i2c.c **** #include "gd32f3x0_hal.h"
  38:../firmware/gd32f3x0_hal_peripheral/Source/gd32f3x0_hal_i2c.c **** 
  39:../firmware/gd32f3x0_hal_peripheral/Source/gd32f3x0_hal_i2c.c **** #define SLAVE10_FIRST_BYTE(address)         ((0xF0) | (uint8_t)((address & 0x0300U)>>7U))
  40:../firmware/gd32f3x0_hal_peripheral/Source/gd32f3x0_hal_i2c.c **** #define SLAVE10_SECOND_BYTE(address)        ((uint8_t)(address & 0x00FFU))
  41:../firmware/gd32f3x0_hal_peripheral/Source/gd32f3x0_hal_i2c.c **** #define I2C_MEMORY_ADDRESS_MSB(address)     ((uint8_t)((address & 0xFF00U) >> 8U))
  42:../firmware/gd32f3x0_hal_peripheral/Source/gd32f3x0_hal_i2c.c **** #define I2C_MEMORY_ADDRESS_LSB(address)     ((uint8_t)(address & 0x00FFU))
  43:../firmware/gd32f3x0_hal_peripheral/Source/gd32f3x0_hal_i2c.c **** 
  44:../firmware/gd32f3x0_hal_peripheral/Source/gd32f3x0_hal_i2c.c **** /* wait the flag status until timeout */
  45:../firmware/gd32f3x0_hal_peripheral/Source/gd32f3x0_hal_i2c.c **** static int32_t _i2c_wait_flag_timeout(uint32_t i2c_periph, i2c_flag_enum flag, \
  46:../firmware/gd32f3x0_hal_peripheral/Source/gd32f3x0_hal_i2c.c ****                                       FlagStatus status, uint32_t timeout_ms);
  47:../firmware/gd32f3x0_hal_peripheral/Source/gd32f3x0_hal_i2c.c **** 
  48:../firmware/gd32f3x0_hal_peripheral/Source/gd32f3x0_hal_i2c.c **** /* master sends device address for write request */
  49:../firmware/gd32f3x0_hal_peripheral/Source/gd32f3x0_hal_i2c.c **** static int32_t _i2c_master_write(hal_i2c_dev_struct *i2c_dev, uint32_t timeout_ms);
  50:../firmware/gd32f3x0_hal_peripheral/Source/gd32f3x0_hal_i2c.c **** /* event handler in I2C master transmit mode */
  51:../firmware/gd32f3x0_hal_peripheral/Source/gd32f3x0_hal_i2c.c **** static void _i2c_master_transmit_interrupt(void *i2c);
  52:../firmware/gd32f3x0_hal_peripheral/Source/gd32f3x0_hal_i2c.c **** /* DMA full finish handler in I2C master transmit mode */
  53:../firmware/gd32f3x0_hal_peripheral/Source/gd32f3x0_hal_i2c.c **** static void _i2c_transmit_dma(void *dma);
  54:../firmware/gd32f3x0_hal_peripheral/Source/gd32f3x0_hal_i2c.c **** /* handle the I2C DMA error process */
  55:../firmware/gd32f3x0_hal_peripheral/Source/gd32f3x0_hal_i2c.c **** static void _i2c_dma_error(void *dma);
  56:../firmware/gd32f3x0_hal_peripheral/Source/gd32f3x0_hal_i2c.c **** 
  57:../firmware/gd32f3x0_hal_peripheral/Source/gd32f3x0_hal_i2c.c **** /* master sends device address for read request */
  58:../firmware/gd32f3x0_hal_peripheral/Source/gd32f3x0_hal_i2c.c **** static int32_t _i2c_master_read(hal_i2c_dev_struct *i2c_dev, uint32_t timeout_ms);
  59:../firmware/gd32f3x0_hal_peripheral/Source/gd32f3x0_hal_i2c.c **** /* event handler in I2C master receive mode */
  60:../firmware/gd32f3x0_hal_peripheral/Source/gd32f3x0_hal_i2c.c **** static void _i2c_master_receive_interrupt(void *i2c);
  61:../firmware/gd32f3x0_hal_peripheral/Source/gd32f3x0_hal_i2c.c **** /* DMA full finish handler in I2C master receive mode */
  62:../firmware/gd32f3x0_hal_peripheral/Source/gd32f3x0_hal_i2c.c **** static void _i2c_receive_dma(void *dma);
  63:../firmware/gd32f3x0_hal_peripheral/Source/gd32f3x0_hal_i2c.c **** 
  64:../firmware/gd32f3x0_hal_peripheral/Source/gd32f3x0_hal_i2c.c **** /* event handler in I2C slave transmit mode */
  65:../firmware/gd32f3x0_hal_peripheral/Source/gd32f3x0_hal_i2c.c **** static void _i2c_slave_transmit_interrupt(void *i2c);
  66:../firmware/gd32f3x0_hal_peripheral/Source/gd32f3x0_hal_i2c.c **** /* event handler in I2C slave receive mode */
  67:../firmware/gd32f3x0_hal_peripheral/Source/gd32f3x0_hal_i2c.c **** static void _i2c_slave_receive_interrupt(void *i2c);
  68:../firmware/gd32f3x0_hal_peripheral/Source/gd32f3x0_hal_i2c.c **** /* event handler in I2C slave serial receive mode */
  69:../firmware/gd32f3x0_hal_peripheral/Source/gd32f3x0_hal_i2c.c **** static void _i2c_slave_serial_receive_interrupt(void *i2c);
  70:../firmware/gd32f3x0_hal_peripheral/Source/gd32f3x0_hal_i2c.c **** 
  71:../firmware/gd32f3x0_hal_peripheral/Source/gd32f3x0_hal_i2c.c **** /* master sends device address for memory write request */
  72:../firmware/gd32f3x0_hal_peripheral/Source/gd32f3x0_hal_i2c.c **** static int32_t _i2c_memory_write(hal_i2c_dev_struct *i2c_dev, uint32_t timeout_ms);
  73:../firmware/gd32f3x0_hal_peripheral/Source/gd32f3x0_hal_i2c.c **** /* master sends device address for memory read request */
  74:../firmware/gd32f3x0_hal_peripheral/Source/gd32f3x0_hal_i2c.c **** static int32_t _i2c_memory_read(hal_i2c_dev_struct *i2c_dev, uint32_t timeout_ms);
  75:../firmware/gd32f3x0_hal_peripheral/Source/gd32f3x0_hal_i2c.c **** /* event handler of memory write in I2C master mode */
  76:../firmware/gd32f3x0_hal_peripheral/Source/gd32f3x0_hal_i2c.c **** static void _i2c_memmory_write_interrupt(void *i2c);
  77:../firmware/gd32f3x0_hal_peripheral/Source/gd32f3x0_hal_i2c.c **** /* event handler of memory read in I2C master mode */
  78:../firmware/gd32f3x0_hal_peripheral/Source/gd32f3x0_hal_i2c.c **** static void _i2c_memory_read_interrupt(void *i2c);
  79:../firmware/gd32f3x0_hal_peripheral/Source/gd32f3x0_hal_i2c.c **** 
  80:../firmware/gd32f3x0_hal_peripheral/Source/gd32f3x0_hal_i2c.c **** /* event handler for address listen in slave mode */
  81:../firmware/gd32f3x0_hal_peripheral/Source/gd32f3x0_hal_i2c.c **** static void _i2c_address_listen_interrupt(void *i2c);
  82:../firmware/gd32f3x0_hal_peripheral/Source/gd32f3x0_hal_i2c.c **** 
  83:../firmware/gd32f3x0_hal_peripheral/Source/gd32f3x0_hal_i2c.c **** /*!
  84:../firmware/gd32f3x0_hal_peripheral/Source/gd32f3x0_hal_i2c.c ****     \brief      initialize the I2C structure with the default values
  85:../firmware/gd32f3x0_hal_peripheral/Source/gd32f3x0_hal_i2c.c ****     \param[in]  struct_type: refer to hal_i2c_struct_type_enum
  86:../firmware/gd32f3x0_hal_peripheral/Source/gd32f3x0_hal_i2c.c ****     \param[in]  p_struct: pointer to I2C structure that contains the configuration information
  87:../firmware/gd32f3x0_hal_peripheral/Source/gd32f3x0_hal_i2c.c ****     \param[out] none
  88:../firmware/gd32f3x0_hal_peripheral/Source/gd32f3x0_hal_i2c.c ****     \retval     none
  89:../firmware/gd32f3x0_hal_peripheral/Source/gd32f3x0_hal_i2c.c **** */
  90:../firmware/gd32f3x0_hal_peripheral/Source/gd32f3x0_hal_i2c.c **** void hal_i2c_struct_init(hal_i2c_struct_type_enum struct_type, void *p_struct)
  91:../firmware/gd32f3x0_hal_peripheral/Source/gd32f3x0_hal_i2c.c **** {
  27              		.loc 1 91 1
  28              		.cfi_startproc
  29              		@ args = 0, pretend = 0, frame = 8
  30              		@ frame_needed = 1, uses_anonymous_args = 0
  31              		@ link register save eliminated.
  32 0000 80B4     		push	{r7}
  33              		.cfi_def_cfa_offset 4
  34              		.cfi_offset 7, -4
  35 0002 83B0     		sub	sp, sp, #12
  36              		.cfi_def_cfa_offset 16
  37 0004 00AF     		add	r7, sp, #0
  38              		.cfi_def_cfa_register 7
  39 0006 0346     		mov	r3, r0
  40 0008 3960     		str	r1, [r7]
  41 000a FB71     		strb	r3, [r7, #7]
  92:../firmware/gd32f3x0_hal_peripheral/Source/gd32f3x0_hal_i2c.c **** #if (1 == HAL_PARAMETER_CHECK)
  93:../firmware/gd32f3x0_hal_peripheral/Source/gd32f3x0_hal_i2c.c ****     if(NULL == p_struct) {
  94:../firmware/gd32f3x0_hal_peripheral/Source/gd32f3x0_hal_i2c.c ****         HAL_DEBUGE("parameter [*p_struct] value is invalid");
  95:../firmware/gd32f3x0_hal_peripheral/Source/gd32f3x0_hal_i2c.c ****     }
  96:../firmware/gd32f3x0_hal_peripheral/Source/gd32f3x0_hal_i2c.c **** #endif /* 1 == HAL_PARAMETER_CHECK */
  97:../firmware/gd32f3x0_hal_peripheral/Source/gd32f3x0_hal_i2c.c **** 
  98:../firmware/gd32f3x0_hal_peripheral/Source/gd32f3x0_hal_i2c.c ****     switch(struct_type) {
  42              		.loc 1 98 5
  43 000c FB79     		ldrb	r3, [r7, #7]	@ zero_extendqisi2
  44 000e 022B     		cmp	r3, #2
  45 0010 71D0     		beq	.L2
  46 0012 022B     		cmp	r3, #2
  47 0014 75DC     		bgt	.L7
  48 0016 002B     		cmp	r3, #0
  49 0018 02D0     		beq	.L4
  50 001a 012B     		cmp	r3, #1
  51 001c 19D0     		beq	.L5
  99:../firmware/gd32f3x0_hal_peripheral/Source/gd32f3x0_hal_i2c.c ****     case HAL_I2C_INIT_STRUCT:
 100:../firmware/gd32f3x0_hal_peripheral/Source/gd32f3x0_hal_i2c.c ****         /* initialize I2C initialization structure with the default values */
 101:../firmware/gd32f3x0_hal_peripheral/Source/gd32f3x0_hal_i2c.c ****         ((hal_i2c_init_struct *)p_struct)->duty_cycle = I2C_DTCY_2;
 102:../firmware/gd32f3x0_hal_peripheral/Source/gd32f3x0_hal_i2c.c ****         ((hal_i2c_init_struct *)p_struct)->clock_speed = 100000U;
 103:../firmware/gd32f3x0_hal_peripheral/Source/gd32f3x0_hal_i2c.c ****         ((hal_i2c_init_struct *)p_struct)->address_format = I2C_ADDFORMAT_7BITS;
 104:../firmware/gd32f3x0_hal_peripheral/Source/gd32f3x0_hal_i2c.c ****         ((hal_i2c_init_struct *)p_struct)->own_address1 = 0U;
 105:../firmware/gd32f3x0_hal_peripheral/Source/gd32f3x0_hal_i2c.c ****         ((hal_i2c_init_struct *)p_struct)->dual_address = I2C_DUADEN_DISABLE;
 106:../firmware/gd32f3x0_hal_peripheral/Source/gd32f3x0_hal_i2c.c ****         ((hal_i2c_init_struct *)p_struct)->own_address2 = 0U;
 107:../firmware/gd32f3x0_hal_peripheral/Source/gd32f3x0_hal_i2c.c ****         ((hal_i2c_init_struct *)p_struct)->general_call = I2C_GCEN_DISABLE;
 108:../firmware/gd32f3x0_hal_peripheral/Source/gd32f3x0_hal_i2c.c ****         ((hal_i2c_init_struct *)p_struct)->no_stretch = I2C_SCLSTRETCH_DISABLE;
 109:../firmware/gd32f3x0_hal_peripheral/Source/gd32f3x0_hal_i2c.c ****         break;
 110:../firmware/gd32f3x0_hal_peripheral/Source/gd32f3x0_hal_i2c.c ****     case HAL_I2C_DEV_STRUCT:
 111:../firmware/gd32f3x0_hal_peripheral/Source/gd32f3x0_hal_i2c.c ****         /* initialize I2C device information structure with the default values */
 112:../firmware/gd32f3x0_hal_peripheral/Source/gd32f3x0_hal_i2c.c ****         ((hal_i2c_dev_struct *)p_struct)->periph = 0;
 113:../firmware/gd32f3x0_hal_peripheral/Source/gd32f3x0_hal_i2c.c ****         ((hal_i2c_dev_struct *)p_struct)->i2c_irq.error_handle = NULL;
 114:../firmware/gd32f3x0_hal_peripheral/Source/gd32f3x0_hal_i2c.c ****         ((hal_i2c_dev_struct *)p_struct)->i2c_irq.event_handle = NULL;
 115:../firmware/gd32f3x0_hal_peripheral/Source/gd32f3x0_hal_i2c.c ****         ((hal_i2c_dev_struct *)p_struct)->p_dma_rx = NULL;
 116:../firmware/gd32f3x0_hal_peripheral/Source/gd32f3x0_hal_i2c.c ****         ((hal_i2c_dev_struct *)p_struct)->p_dma_tx = NULL;
 117:../firmware/gd32f3x0_hal_peripheral/Source/gd32f3x0_hal_i2c.c ****         ((hal_i2c_dev_struct *)p_struct)->txbuffer.buffer = NULL;
 118:../firmware/gd32f3x0_hal_peripheral/Source/gd32f3x0_hal_i2c.c ****         ((hal_i2c_dev_struct *)p_struct)->txbuffer.length = 0U;
 119:../firmware/gd32f3x0_hal_peripheral/Source/gd32f3x0_hal_i2c.c ****         ((hal_i2c_dev_struct *)p_struct)->txbuffer.pos = 0U;
 120:../firmware/gd32f3x0_hal_peripheral/Source/gd32f3x0_hal_i2c.c ****         ((hal_i2c_dev_struct *)p_struct)->rxbuffer.buffer = NULL;
 121:../firmware/gd32f3x0_hal_peripheral/Source/gd32f3x0_hal_i2c.c ****         ((hal_i2c_dev_struct *)p_struct)->rxbuffer.length = 0U;
 122:../firmware/gd32f3x0_hal_peripheral/Source/gd32f3x0_hal_i2c.c ****         ((hal_i2c_dev_struct *)p_struct)->rxbuffer.pos = 0U;
 123:../firmware/gd32f3x0_hal_peripheral/Source/gd32f3x0_hal_i2c.c ****         ((hal_i2c_dev_struct *)p_struct)->rxbuffer.pos = 0U;
 124:../firmware/gd32f3x0_hal_peripheral/Source/gd32f3x0_hal_i2c.c ****         ((hal_i2c_dev_struct *)p_struct)->error_state = HAL_I2C_ERROR_NONE;
 125:../firmware/gd32f3x0_hal_peripheral/Source/gd32f3x0_hal_i2c.c ****         ((hal_i2c_dev_struct *)p_struct)->tx_state = HAL_I2C_STATE_READY;
 126:../firmware/gd32f3x0_hal_peripheral/Source/gd32f3x0_hal_i2c.c ****         ((hal_i2c_dev_struct *)p_struct)->rx_state = HAL_I2C_STATE_READY;
 127:../firmware/gd32f3x0_hal_peripheral/Source/gd32f3x0_hal_i2c.c ****         ((hal_i2c_dev_struct *)p_struct)->previous_state = HAL_I2C_PREVIOUS_STATE_NONE;
 128:../firmware/gd32f3x0_hal_peripheral/Source/gd32f3x0_hal_i2c.c ****         ((hal_i2c_dev_struct *)p_struct)->last_error = HAL_I2C_ERROR_NONE;
 129:../firmware/gd32f3x0_hal_peripheral/Source/gd32f3x0_hal_i2c.c ****         ((hal_i2c_dev_struct *)p_struct)->slave_address.device_address = 0U;
 130:../firmware/gd32f3x0_hal_peripheral/Source/gd32f3x0_hal_i2c.c ****         ((hal_i2c_dev_struct *)p_struct)->slave_address.memory_address = 0U;
 131:../firmware/gd32f3x0_hal_peripheral/Source/gd32f3x0_hal_i2c.c ****         ((hal_i2c_dev_struct *)p_struct)->slave_address.address_size = I2C_MEMORY_ADDRESS_8BIT;
 132:../firmware/gd32f3x0_hal_peripheral/Source/gd32f3x0_hal_i2c.c ****         ((hal_i2c_dev_struct *)p_struct)->slave_address.address_complete = RESET;
 133:../firmware/gd32f3x0_hal_peripheral/Source/gd32f3x0_hal_i2c.c ****         ((hal_i2c_dev_struct *)p_struct)->slave_address.address_count = 0U;
 134:../firmware/gd32f3x0_hal_peripheral/Source/gd32f3x0_hal_i2c.c ****         ((hal_i2c_dev_struct *)p_struct)->slave_address.second_addressing = RESET;
 135:../firmware/gd32f3x0_hal_peripheral/Source/gd32f3x0_hal_i2c.c ****         ((hal_i2c_dev_struct *)p_struct)->transfer_option = I2C_NO_OPTION_TRANSFER;
 136:../firmware/gd32f3x0_hal_peripheral/Source/gd32f3x0_hal_i2c.c ****         ((hal_i2c_dev_struct *)p_struct)->mutex = HAL_MUTEX_UNLOCKED;
 137:../firmware/gd32f3x0_hal_peripheral/Source/gd32f3x0_hal_i2c.c ****         break;
 138:../firmware/gd32f3x0_hal_peripheral/Source/gd32f3x0_hal_i2c.c ****     case HAL_I2C_IRQ_STRUCT:
 139:../firmware/gd32f3x0_hal_peripheral/Source/gd32f3x0_hal_i2c.c ****         /* initialize I2C irq structure with the default values */
 140:../firmware/gd32f3x0_hal_peripheral/Source/gd32f3x0_hal_i2c.c ****         ((hal_i2c_irq_struct *)p_struct)->error_handle = NULL;
 141:../firmware/gd32f3x0_hal_peripheral/Source/gd32f3x0_hal_i2c.c ****         ((hal_i2c_irq_struct *)p_struct)->event_handle = NULL;
 142:../firmware/gd32f3x0_hal_peripheral/Source/gd32f3x0_hal_i2c.c ****     default:
 143:../firmware/gd32f3x0_hal_peripheral/Source/gd32f3x0_hal_i2c.c ****         HAL_DEBUGW("parameter [hal_struct_type] value is undefine");
 144:../firmware/gd32f3x0_hal_peripheral/Source/gd32f3x0_hal_i2c.c ****         break;
  52              		.loc 1 144 9
  53 001e 70E0     		b	.L7
  54              	.L4:
 101:../firmware/gd32f3x0_hal_peripheral/Source/gd32f3x0_hal_i2c.c ****         ((hal_i2c_init_struct *)p_struct)->clock_speed = 100000U;
  55              		.loc 1 101 55
  56 0020 3B68     		ldr	r3, [r7]
  57 0022 0022     		movs	r2, #0
  58 0024 5A60     		str	r2, [r3, #4]
 102:../firmware/gd32f3x0_hal_peripheral/Source/gd32f3x0_hal_i2c.c ****         ((hal_i2c_init_struct *)p_struct)->address_format = I2C_ADDFORMAT_7BITS;
  59              		.loc 1 102 56
  60 0026 3B68     		ldr	r3, [r7]
  61 0028 394A     		ldr	r2, .L8
  62 002a 1A60     		str	r2, [r3]
 103:../firmware/gd32f3x0_hal_peripheral/Source/gd32f3x0_hal_i2c.c ****         ((hal_i2c_init_struct *)p_struct)->own_address1 = 0U;
  63              		.loc 1 103 59
  64 002c 3B68     		ldr	r3, [r7]
  65 002e 0022     		movs	r2, #0
  66 0030 9A60     		str	r2, [r3, #8]
 104:../firmware/gd32f3x0_hal_peripheral/Source/gd32f3x0_hal_i2c.c ****         ((hal_i2c_init_struct *)p_struct)->dual_address = I2C_DUADEN_DISABLE;
  67              		.loc 1 104 57
  68 0032 3B68     		ldr	r3, [r7]
  69 0034 0022     		movs	r2, #0
  70 0036 DA60     		str	r2, [r3, #12]
 105:../firmware/gd32f3x0_hal_peripheral/Source/gd32f3x0_hal_i2c.c ****         ((hal_i2c_init_struct *)p_struct)->own_address2 = 0U;
  71              		.loc 1 105 57
  72 0038 3B68     		ldr	r3, [r7]
  73 003a 0022     		movs	r2, #0
  74 003c 1A61     		str	r2, [r3, #16]
 106:../firmware/gd32f3x0_hal_peripheral/Source/gd32f3x0_hal_i2c.c ****         ((hal_i2c_init_struct *)p_struct)->general_call = I2C_GCEN_DISABLE;
  75              		.loc 1 106 57
  76 003e 3B68     		ldr	r3, [r7]
  77 0040 0022     		movs	r2, #0
  78 0042 5A61     		str	r2, [r3, #20]
 107:../firmware/gd32f3x0_hal_peripheral/Source/gd32f3x0_hal_i2c.c ****         ((hal_i2c_init_struct *)p_struct)->no_stretch = I2C_SCLSTRETCH_DISABLE;
  79              		.loc 1 107 57
  80 0044 3B68     		ldr	r3, [r7]
  81 0046 0022     		movs	r2, #0
  82 0048 9A61     		str	r2, [r3, #24]
 108:../firmware/gd32f3x0_hal_peripheral/Source/gd32f3x0_hal_i2c.c ****         break;
  83              		.loc 1 108 55
  84 004a 3B68     		ldr	r3, [r7]
  85 004c 8022     		movs	r2, #128
  86 004e DA61     		str	r2, [r3, #28]
 109:../firmware/gd32f3x0_hal_peripheral/Source/gd32f3x0_hal_i2c.c ****     case HAL_I2C_DEV_STRUCT:
  87              		.loc 1 109 9
  88 0050 58E0     		b	.L6
  89              	.L5:
 112:../firmware/gd32f3x0_hal_peripheral/Source/gd32f3x0_hal_i2c.c ****         ((hal_i2c_dev_struct *)p_struct)->i2c_irq.error_handle = NULL;
  90              		.loc 1 112 50
  91 0052 3B68     		ldr	r3, [r7]
  92 0054 0022     		movs	r2, #0
  93 0056 1A60     		str	r2, [r3]
 113:../firmware/gd32f3x0_hal_peripheral/Source/gd32f3x0_hal_i2c.c ****         ((hal_i2c_dev_struct *)p_struct)->i2c_irq.event_handle = NULL;
  94              		.loc 1 113 64
  95 0058 3B68     		ldr	r3, [r7]
  96 005a 0022     		movs	r2, #0
  97 005c 9A60     		str	r2, [r3, #8]
 114:../firmware/gd32f3x0_hal_peripheral/Source/gd32f3x0_hal_i2c.c ****         ((hal_i2c_dev_struct *)p_struct)->p_dma_rx = NULL;
  98              		.loc 1 114 64
  99 005e 3B68     		ldr	r3, [r7]
 100 0060 0022     		movs	r2, #0
 101 0062 5A60     		str	r2, [r3, #4]
 115:../firmware/gd32f3x0_hal_peripheral/Source/gd32f3x0_hal_i2c.c ****         ((hal_i2c_dev_struct *)p_struct)->p_dma_tx = NULL;
 102              		.loc 1 115 52
 103 0064 3B68     		ldr	r3, [r7]
 104 0066 0022     		movs	r2, #0
 105 0068 DA60     		str	r2, [r3, #12]
 116:../firmware/gd32f3x0_hal_peripheral/Source/gd32f3x0_hal_i2c.c ****         ((hal_i2c_dev_struct *)p_struct)->txbuffer.buffer = NULL;
 106              		.loc 1 116 52
 107 006a 3B68     		ldr	r3, [r7]
 108 006c 0022     		movs	r2, #0
 109 006e 1A61     		str	r2, [r3, #16]
 117:../firmware/gd32f3x0_hal_peripheral/Source/gd32f3x0_hal_i2c.c ****         ((hal_i2c_dev_struct *)p_struct)->txbuffer.length = 0U;
 110              		.loc 1 117 59
 111 0070 3B68     		ldr	r3, [r7]
 112 0072 0022     		movs	r2, #0
 113 0074 5A61     		str	r2, [r3, #20]
 118:../firmware/gd32f3x0_hal_peripheral/Source/gd32f3x0_hal_i2c.c ****         ((hal_i2c_dev_struct *)p_struct)->txbuffer.pos = 0U;
 114              		.loc 1 118 59
 115 0076 3B68     		ldr	r3, [r7]
 116 0078 0022     		movs	r2, #0
 117 007a 9A61     		str	r2, [r3, #24]
 119:../firmware/gd32f3x0_hal_peripheral/Source/gd32f3x0_hal_i2c.c ****         ((hal_i2c_dev_struct *)p_struct)->rxbuffer.buffer = NULL;
 118              		.loc 1 119 56
 119 007c 3B68     		ldr	r3, [r7]
 120 007e 0022     		movs	r2, #0
 121 0080 DA61     		str	r2, [r3, #28]
 120:../firmware/gd32f3x0_hal_peripheral/Source/gd32f3x0_hal_i2c.c ****         ((hal_i2c_dev_struct *)p_struct)->rxbuffer.length = 0U;
 122              		.loc 1 120 59
 123 0082 3B68     		ldr	r3, [r7]
 124 0084 0022     		movs	r2, #0
 125 0086 1A62     		str	r2, [r3, #32]
 121:../firmware/gd32f3x0_hal_peripheral/Source/gd32f3x0_hal_i2c.c ****         ((hal_i2c_dev_struct *)p_struct)->rxbuffer.pos = 0U;
 126              		.loc 1 121 59
 127 0088 3B68     		ldr	r3, [r7]
 128 008a 0022     		movs	r2, #0
 129 008c 5A62     		str	r2, [r3, #36]
 122:../firmware/gd32f3x0_hal_peripheral/Source/gd32f3x0_hal_i2c.c ****         ((hal_i2c_dev_struct *)p_struct)->rxbuffer.pos = 0U;
 130              		.loc 1 122 56
 131 008e 3B68     		ldr	r3, [r7]
 132 0090 0022     		movs	r2, #0
 133 0092 9A62     		str	r2, [r3, #40]
 123:../firmware/gd32f3x0_hal_peripheral/Source/gd32f3x0_hal_i2c.c ****         ((hal_i2c_dev_struct *)p_struct)->error_state = HAL_I2C_ERROR_NONE;
 134              		.loc 1 123 56
 135 0094 3B68     		ldr	r3, [r7]
 136 0096 0022     		movs	r2, #0
 137 0098 9A62     		str	r2, [r3, #40]
 124:../firmware/gd32f3x0_hal_peripheral/Source/gd32f3x0_hal_i2c.c ****         ((hal_i2c_dev_struct *)p_struct)->tx_state = HAL_I2C_STATE_READY;
 138              		.loc 1 124 55
 139 009a 3B68     		ldr	r3, [r7]
 140 009c 0022     		movs	r2, #0
 141 009e DA63     		str	r2, [r3, #60]
 125:../firmware/gd32f3x0_hal_peripheral/Source/gd32f3x0_hal_i2c.c ****         ((hal_i2c_dev_struct *)p_struct)->rx_state = HAL_I2C_STATE_READY;
 142              		.loc 1 125 52
 143 00a0 3B68     		ldr	r3, [r7]
 144 00a2 0022     		movs	r2, #0
 145 00a4 83F84020 		strb	r2, [r3, #64]
 126:../firmware/gd32f3x0_hal_peripheral/Source/gd32f3x0_hal_i2c.c ****         ((hal_i2c_dev_struct *)p_struct)->previous_state = HAL_I2C_PREVIOUS_STATE_NONE;
 146              		.loc 1 126 52
 147 00a8 3B68     		ldr	r3, [r7]
 148 00aa 0022     		movs	r2, #0
 149 00ac 83F84120 		strb	r2, [r3, #65]
 127:../firmware/gd32f3x0_hal_peripheral/Source/gd32f3x0_hal_i2c.c ****         ((hal_i2c_dev_struct *)p_struct)->last_error = HAL_I2C_ERROR_NONE;
 150              		.loc 1 127 58
 151 00b0 3B68     		ldr	r3, [r7]
 152 00b2 0022     		movs	r2, #0
 153 00b4 5A64     		str	r2, [r3, #68]
 128:../firmware/gd32f3x0_hal_peripheral/Source/gd32f3x0_hal_i2c.c ****         ((hal_i2c_dev_struct *)p_struct)->slave_address.device_address = 0U;
 154              		.loc 1 128 54
 155 00b6 3B68     		ldr	r3, [r7]
 156 00b8 0022     		movs	r2, #0
 157 00ba 5A87     		strh	r2, [r3, #58]	@ movhi
 129:../firmware/gd32f3x0_hal_peripheral/Source/gd32f3x0_hal_i2c.c ****         ((hal_i2c_dev_struct *)p_struct)->slave_address.memory_address = 0U;
 158              		.loc 1 129 72
 159 00bc 3B68     		ldr	r3, [r7]
 160 00be 0022     		movs	r2, #0
 161 00c0 DA62     		str	r2, [r3, #44]
 130:../firmware/gd32f3x0_hal_peripheral/Source/gd32f3x0_hal_i2c.c ****         ((hal_i2c_dev_struct *)p_struct)->slave_address.address_size = I2C_MEMORY_ADDRESS_8BIT;
 162              		.loc 1 130 72
 163 00c2 3B68     		ldr	r3, [r7]
 164 00c4 0022     		movs	r2, #0
 165 00c6 1A86     		strh	r2, [r3, #48]	@ movhi
 131:../firmware/gd32f3x0_hal_peripheral/Source/gd32f3x0_hal_i2c.c ****         ((hal_i2c_dev_struct *)p_struct)->slave_address.address_complete = RESET;
 166              		.loc 1 131 70
 167 00c8 3B68     		ldr	r3, [r7]
 168 00ca 0022     		movs	r2, #0
 169 00cc 5A86     		strh	r2, [r3, #50]	@ movhi
 132:../firmware/gd32f3x0_hal_peripheral/Source/gd32f3x0_hal_i2c.c ****         ((hal_i2c_dev_struct *)p_struct)->slave_address.address_count = 0U;
 170              		.loc 1 132 74
 171 00ce 3B68     		ldr	r3, [r7]
 172 00d0 0022     		movs	r2, #0
 173 00d2 83F83420 		strb	r2, [r3, #52]
 133:../firmware/gd32f3x0_hal_peripheral/Source/gd32f3x0_hal_i2c.c ****         ((hal_i2c_dev_struct *)p_struct)->slave_address.second_addressing = RESET;
 174              		.loc 1 133 71
 175 00d6 3B68     		ldr	r3, [r7]
 176 00d8 0022     		movs	r2, #0
 177 00da 83F83520 		strb	r2, [r3, #53]
 134:../firmware/gd32f3x0_hal_peripheral/Source/gd32f3x0_hal_i2c.c ****         ((hal_i2c_dev_struct *)p_struct)->transfer_option = I2C_NO_OPTION_TRANSFER;
 178              		.loc 1 134 75
 179 00de 3B68     		ldr	r3, [r7]
 180 00e0 0022     		movs	r2, #0
 181 00e2 83F83620 		strb	r2, [r3, #54]
 135:../firmware/gd32f3x0_hal_peripheral/Source/gd32f3x0_hal_i2c.c ****         ((hal_i2c_dev_struct *)p_struct)->mutex = HAL_MUTEX_UNLOCKED;
 182              		.loc 1 135 59
 183 00e6 3B68     		ldr	r3, [r7]
 184 00e8 0122     		movs	r2, #1
 185 00ea 1A87     		strh	r2, [r3, #56]	@ movhi
 136:../firmware/gd32f3x0_hal_peripheral/Source/gd32f3x0_hal_i2c.c ****         break;
 186              		.loc 1 136 49
 187 00ec 3B68     		ldr	r3, [r7]
 188 00ee 0022     		movs	r2, #0
 189 00f0 83F85020 		strb	r2, [r3, #80]
 137:../firmware/gd32f3x0_hal_peripheral/Source/gd32f3x0_hal_i2c.c ****     case HAL_I2C_IRQ_STRUCT:
 190              		.loc 1 137 9
 191 00f4 06E0     		b	.L6
 192              	.L2:
 140:../firmware/gd32f3x0_hal_peripheral/Source/gd32f3x0_hal_i2c.c ****         ((hal_i2c_irq_struct *)p_struct)->event_handle = NULL;
 193              		.loc 1 140 56
 194 00f6 3B68     		ldr	r3, [r7]
 195 00f8 0022     		movs	r2, #0
 196 00fa 5A60     		str	r2, [r3, #4]
 141:../firmware/gd32f3x0_hal_peripheral/Source/gd32f3x0_hal_i2c.c ****     default:
 197              		.loc 1 141 56
 198 00fc 3B68     		ldr	r3, [r7]
 199 00fe 0022     		movs	r2, #0
 200 0100 1A60     		str	r2, [r3]
 201              	.L7:
 202              		.loc 1 144 9
 203 0102 00BF     		nop
 204              	.L6:
 145:../firmware/gd32f3x0_hal_peripheral/Source/gd32f3x0_hal_i2c.c ****     }
 146:../firmware/gd32f3x0_hal_peripheral/Source/gd32f3x0_hal_i2c.c **** }
 205              		.loc 1 146 1
 206 0104 00BF     		nop
 207 0106 0C37     		adds	r7, r7, #12
 208              		.cfi_def_cfa_offset 4
 209 0108 BD46     		mov	sp, r7
 210              		.cfi_def_cfa_register 13
 211              		@ sp needed
 212 010a 80BC     		pop	{r7}
 213              		.cfi_restore 7
 214              		.cfi_def_cfa_offset 0
 215 010c 7047     		bx	lr
 216              	.L9:
 217 010e 00BF     		.align	2
 218              	.L8:
 219 0110 A0860100 		.word	100000
 220              		.cfi_endproc
 221              	.LFE119:
 223              		.section	.text.hal_i2c_deinit,"ax",%progbits
 224              		.align	1
 225              		.global	hal_i2c_deinit
 226              		.syntax unified
 227              		.thumb
 228              		.thumb_func
 229              		.fpu softvfp
 231              	hal_i2c_deinit:
 232              	.LFB120:
 147:../firmware/gd32f3x0_hal_peripheral/Source/gd32f3x0_hal_i2c.c **** 
 148:../firmware/gd32f3x0_hal_peripheral/Source/gd32f3x0_hal_i2c.c **** /*!
 149:../firmware/gd32f3x0_hal_peripheral/Source/gd32f3x0_hal_i2c.c ****     \brief      deinitialize I2C
 150:../firmware/gd32f3x0_hal_peripheral/Source/gd32f3x0_hal_i2c.c ****     \param[in]  i2c_dev: I2C device information structrue
 151:../firmware/gd32f3x0_hal_peripheral/Source/gd32f3x0_hal_i2c.c ****                   the structure is not necessary to be reconfigured after structrue initialization,
 152:../firmware/gd32f3x0_hal_peripheral/Source/gd32f3x0_hal_i2c.c ****                   the structure parameters altering is automatically configured by core
 153:../firmware/gd32f3x0_hal_peripheral/Source/gd32f3x0_hal_i2c.c ****     \param[out] none
 154:../firmware/gd32f3x0_hal_peripheral/Source/gd32f3x0_hal_i2c.c ****     \retval     none
 155:../firmware/gd32f3x0_hal_peripheral/Source/gd32f3x0_hal_i2c.c **** */
 156:../firmware/gd32f3x0_hal_peripheral/Source/gd32f3x0_hal_i2c.c **** void hal_i2c_deinit(hal_i2c_dev_struct *i2c_dev)
 157:../firmware/gd32f3x0_hal_peripheral/Source/gd32f3x0_hal_i2c.c **** {
 233              		.loc 1 157 1
 234              		.cfi_startproc
 235              		@ args = 0, pretend = 0, frame = 16
 236              		@ frame_needed = 1, uses_anonymous_args = 0
 237 0000 80B5     		push	{r7, lr}
 238              		.cfi_def_cfa_offset 8
 239              		.cfi_offset 7, -8
 240              		.cfi_offset 14, -4
 241 0002 84B0     		sub	sp, sp, #16
 242              		.cfi_def_cfa_offset 24
 243 0004 00AF     		add	r7, sp, #0
 244              		.cfi_def_cfa_register 7
 245 0006 7860     		str	r0, [r7, #4]
 158:../firmware/gd32f3x0_hal_peripheral/Source/gd32f3x0_hal_i2c.c ****     uint32_t periph;
 159:../firmware/gd32f3x0_hal_peripheral/Source/gd32f3x0_hal_i2c.c **** #if (1 == HAL_PARAMETER_CHECK)
 160:../firmware/gd32f3x0_hal_peripheral/Source/gd32f3x0_hal_i2c.c ****     /* check the parameters */
 161:../firmware/gd32f3x0_hal_peripheral/Source/gd32f3x0_hal_i2c.c ****     if(NULL == i2c_dev) {
 162:../firmware/gd32f3x0_hal_peripheral/Source/gd32f3x0_hal_i2c.c ****         HAL_DEBUGE("pointer [i2c_dev] address is invalid");
 163:../firmware/gd32f3x0_hal_peripheral/Source/gd32f3x0_hal_i2c.c ****     }
 164:../firmware/gd32f3x0_hal_peripheral/Source/gd32f3x0_hal_i2c.c **** #endif /* 1 = HAL_PARAMETER_CHECK */
 165:../firmware/gd32f3x0_hal_peripheral/Source/gd32f3x0_hal_i2c.c **** 
 166:../firmware/gd32f3x0_hal_peripheral/Source/gd32f3x0_hal_i2c.c ****     periph = i2c_dev->periph;
 246              		.loc 1 166 12
 247 0008 7B68     		ldr	r3, [r7, #4]
 248 000a 1B68     		ldr	r3, [r3]
 249 000c FB60     		str	r3, [r7, #12]
 167:../firmware/gd32f3x0_hal_peripheral/Source/gd32f3x0_hal_i2c.c ****     if(I2C0 == periph) {
 250              		.loc 1 167 7
 251 000e FB68     		ldr	r3, [r7, #12]
 252 0010 144A     		ldr	r2, .L14
 253 0012 9342     		cmp	r3, r2
 254 0014 0FD1     		bne	.L11
 168:../firmware/gd32f3x0_hal_peripheral/Source/gd32f3x0_hal_i2c.c ****         hal_rcu_periph_reset_enable(RCU_I2C0RST);
 255              		.loc 1 168 9
 256 0016 40F21540 		movw	r0, #1045
 257 001a FFF7FEFF 		bl	hal_rcu_periph_reset_enable
 169:../firmware/gd32f3x0_hal_peripheral/Source/gd32f3x0_hal_i2c.c ****         hal_rcu_periph_reset_disable(RCU_I2C0RST);
 258              		.loc 1 169 9
 259 001e 40F21540 		movw	r0, #1045
 260 0022 FFF7FEFF 		bl	hal_rcu_periph_reset_disable
 170:../firmware/gd32f3x0_hal_peripheral/Source/gd32f3x0_hal_i2c.c **** 
 171:../firmware/gd32f3x0_hal_peripheral/Source/gd32f3x0_hal_i2c.c ****         hal_i2c_struct_init(HAL_I2C_DEV_STRUCT, i2c_dev);
 261              		.loc 1 171 9
 262 0026 7968     		ldr	r1, [r7, #4]
 263 0028 0120     		movs	r0, #1
 264 002a FFF7FEFF 		bl	hal_i2c_struct_init
 172:../firmware/gd32f3x0_hal_peripheral/Source/gd32f3x0_hal_i2c.c ****         i2c_dev->periph = periph;
 265              		.loc 1 172 25
 266 002e 7B68     		ldr	r3, [r7, #4]
 267 0030 FA68     		ldr	r2, [r7, #12]
 268 0032 1A60     		str	r2, [r3]
 173:../firmware/gd32f3x0_hal_peripheral/Source/gd32f3x0_hal_i2c.c ****     } else if(I2C1 == periph) {
 174:../firmware/gd32f3x0_hal_peripheral/Source/gd32f3x0_hal_i2c.c ****         hal_rcu_periph_reset_enable(RCU_I2C1RST);
 175:../firmware/gd32f3x0_hal_peripheral/Source/gd32f3x0_hal_i2c.c ****         hal_rcu_periph_reset_disable(RCU_I2C1RST);
 176:../firmware/gd32f3x0_hal_peripheral/Source/gd32f3x0_hal_i2c.c ****         hal_i2c_struct_init(HAL_I2C_DEV_STRUCT, i2c_dev);
 177:../firmware/gd32f3x0_hal_peripheral/Source/gd32f3x0_hal_i2c.c ****         i2c_dev->periph = periph;
 178:../firmware/gd32f3x0_hal_peripheral/Source/gd32f3x0_hal_i2c.c ****     } else {
 179:../firmware/gd32f3x0_hal_peripheral/Source/gd32f3x0_hal_i2c.c ****         HAL_DEBUGE("parameter [i2c_dev->periph] value is invalid");
 180:../firmware/gd32f3x0_hal_peripheral/Source/gd32f3x0_hal_i2c.c ****     }
 181:../firmware/gd32f3x0_hal_peripheral/Source/gd32f3x0_hal_i2c.c **** }
 269              		.loc 1 181 1
 270 0034 12E0     		b	.L13
 271              	.L11:
 173:../firmware/gd32f3x0_hal_peripheral/Source/gd32f3x0_hal_i2c.c ****     } else if(I2C1 == periph) {
 272              		.loc 1 173 14
 273 0036 FB68     		ldr	r3, [r7, #12]
 274 0038 0B4A     		ldr	r2, .L14+4
 275 003a 9342     		cmp	r3, r2
 276 003c 0ED1     		bne	.L13
 174:../firmware/gd32f3x0_hal_peripheral/Source/gd32f3x0_hal_i2c.c ****         hal_rcu_periph_reset_disable(RCU_I2C1RST);
 277              		.loc 1 174 9
 278 003e 40F21640 		movw	r0, #1046
 279 0042 FFF7FEFF 		bl	hal_rcu_periph_reset_enable
 175:../firmware/gd32f3x0_hal_peripheral/Source/gd32f3x0_hal_i2c.c ****         hal_i2c_struct_init(HAL_I2C_DEV_STRUCT, i2c_dev);
 280              		.loc 1 175 9
 281 0046 40F21640 		movw	r0, #1046
 282 004a FFF7FEFF 		bl	hal_rcu_periph_reset_disable
 176:../firmware/gd32f3x0_hal_peripheral/Source/gd32f3x0_hal_i2c.c ****         i2c_dev->periph = periph;
 283              		.loc 1 176 9
 284 004e 7968     		ldr	r1, [r7, #4]
 285 0050 0120     		movs	r0, #1
 286 0052 FFF7FEFF 		bl	hal_i2c_struct_init
 177:../firmware/gd32f3x0_hal_peripheral/Source/gd32f3x0_hal_i2c.c ****     } else {
 287              		.loc 1 177 25
 288 0056 7B68     		ldr	r3, [r7, #4]
 289 0058 FA68     		ldr	r2, [r7, #12]
 290 005a 1A60     		str	r2, [r3]
 291              	.L13:
 292              		.loc 1 181 1
 293 005c 00BF     		nop
 294 005e 1037     		adds	r7, r7, #16
 295              		.cfi_def_cfa_offset 8
 296 0060 BD46     		mov	sp, r7
 297              		.cfi_def_cfa_register 13
 298              		@ sp needed
 299 0062 80BD     		pop	{r7, pc}
 300              	.L15:
 301              		.align	2
 302              	.L14:
 303 0064 00540040 		.word	1073763328
 304 0068 00580040 		.word	1073764352
 305              		.cfi_endproc
 306              	.LFE120:
 308              		.section	.text.hal_i2c_init,"ax",%progbits
 309              		.align	1
 310              		.global	hal_i2c_init
 311              		.syntax unified
 312              		.thumb
 313              		.thumb_func
 314              		.fpu softvfp
 316              	hal_i2c_init:
 317              	.LFB121:
 182:../firmware/gd32f3x0_hal_peripheral/Source/gd32f3x0_hal_i2c.c **** 
 183:../firmware/gd32f3x0_hal_peripheral/Source/gd32f3x0_hal_i2c.c **** /*!
 184:../firmware/gd32f3x0_hal_peripheral/Source/gd32f3x0_hal_i2c.c ****     \brief      initialize I2C
 185:../firmware/gd32f3x0_hal_peripheral/Source/gd32f3x0_hal_i2c.c ****     \param[in]  i2c_dev: I2C device information structrue
 186:../firmware/gd32f3x0_hal_peripheral/Source/gd32f3x0_hal_i2c.c ****                   the structure is not necessary to be reconfigured after structrue initialization,
 187:../firmware/gd32f3x0_hal_peripheral/Source/gd32f3x0_hal_i2c.c ****                   the structure parameters altering is automatically configured by core
 188:../firmware/gd32f3x0_hal_peripheral/Source/gd32f3x0_hal_i2c.c ****     \param[in]  periph: specify which I2C is initialized
 189:../firmware/gd32f3x0_hal_peripheral/Source/gd32f3x0_hal_i2c.c ****     \param[in]  i2c_init: the initialization data needed to initialize I2C
 190:../firmware/gd32f3x0_hal_peripheral/Source/gd32f3x0_hal_i2c.c ****                   duty_cycle: I2C_DTCY_2, I2C_DTCY_16_9
 191:../firmware/gd32f3x0_hal_peripheral/Source/gd32f3x0_hal_i2c.c ****                   clock_speed: I2C clock speed, supports standard mode (up to 100 kHz), fast mode
 192:../firmware/gd32f3x0_hal_peripheral/Source/gd32f3x0_hal_i2c.c ****                                (up to 400 kHz) and fast mode plus (up to 1MHz)
 193:../firmware/gd32f3x0_hal_peripheral/Source/gd32f3x0_hal_i2c.c ****                   address_format: I2C_ADDFORMAT_7BITS, I2C_ADDFORMAT_10BITS
 194:../firmware/gd32f3x0_hal_peripheral/Source/gd32f3x0_hal_i2c.c ****                   own_address1: I2C address
 195:../firmware/gd32f3x0_hal_peripheral/Source/gd32f3x0_hal_i2c.c ****                   dual_address: I2C_DUADEN_ENABLE, I2C_DUADEN_DISABLE
 196:../firmware/gd32f3x0_hal_peripheral/Source/gd32f3x0_hal_i2c.c ****                   own_address2: the second address in dual-address mode
 197:../firmware/gd32f3x0_hal_peripheral/Source/gd32f3x0_hal_i2c.c ****                   general_call: I2C_GCEN_ENABLE, I2C_GCEN_DISABLE
 198:../firmware/gd32f3x0_hal_peripheral/Source/gd32f3x0_hal_i2c.c ****                   no_stretch: I2C_SCLSTRETCH_ENABLE, I2C_SCLSTRETCH_DISABLE
 199:../firmware/gd32f3x0_hal_peripheral/Source/gd32f3x0_hal_i2c.c ****     \param[out] none
 200:../firmware/gd32f3x0_hal_peripheral/Source/gd32f3x0_hal_i2c.c ****     \retval     error code: HAL_ERR_NONE, HAL_ERR_VAL, HAL_ERR_ADDRESS, details refer to gd32f3x0_h
 201:../firmware/gd32f3x0_hal_peripheral/Source/gd32f3x0_hal_i2c.c **** */
 202:../firmware/gd32f3x0_hal_peripheral/Source/gd32f3x0_hal_i2c.c **** int32_t hal_i2c_init(hal_i2c_dev_struct *i2c_dev, uint32_t periph, \
 203:../firmware/gd32f3x0_hal_peripheral/Source/gd32f3x0_hal_i2c.c ****                      hal_i2c_init_struct *i2c_init)
 204:../firmware/gd32f3x0_hal_peripheral/Source/gd32f3x0_hal_i2c.c **** {
 318              		.loc 1 204 1
 319              		.cfi_startproc
 320              		@ args = 0, pretend = 0, frame = 16
 321              		@ frame_needed = 1, uses_anonymous_args = 0
 322 0000 80B5     		push	{r7, lr}
 323              		.cfi_def_cfa_offset 8
 324              		.cfi_offset 7, -8
 325              		.cfi_offset 14, -4
 326 0002 84B0     		sub	sp, sp, #16
 327              		.cfi_def_cfa_offset 24
 328 0004 00AF     		add	r7, sp, #0
 329              		.cfi_def_cfa_register 7
 330 0006 F860     		str	r0, [r7, #12]
 331 0008 B960     		str	r1, [r7, #8]
 332 000a 7A60     		str	r2, [r7, #4]
 205:../firmware/gd32f3x0_hal_peripheral/Source/gd32f3x0_hal_i2c.c **** #if (1 == HAL_PARAMETER_CHECK)
 206:../firmware/gd32f3x0_hal_peripheral/Source/gd32f3x0_hal_i2c.c ****     /* check I2C pointer and i2c_init address */
 207:../firmware/gd32f3x0_hal_peripheral/Source/gd32f3x0_hal_i2c.c ****     if((NULL == i2c_dev) && (NULL == i2c_init)) {
 208:../firmware/gd32f3x0_hal_peripheral/Source/gd32f3x0_hal_i2c.c ****         HAL_DEBUGE("pointer [i2c_dev] or [i2c_init] address is invalid");
 209:../firmware/gd32f3x0_hal_peripheral/Source/gd32f3x0_hal_i2c.c ****         return HAL_ERR_ADDRESS;
 210:../firmware/gd32f3x0_hal_peripheral/Source/gd32f3x0_hal_i2c.c ****     }
 211:../firmware/gd32f3x0_hal_peripheral/Source/gd32f3x0_hal_i2c.c ****     /* check periph parameter */
 212:../firmware/gd32f3x0_hal_peripheral/Source/gd32f3x0_hal_i2c.c ****     if((I2C0 != periph) && (I2C1 != periph)) {
 213:../firmware/gd32f3x0_hal_peripheral/Source/gd32f3x0_hal_i2c.c ****         HAL_DEBUGE("parameter [periph] value is invalid");
 214:../firmware/gd32f3x0_hal_peripheral/Source/gd32f3x0_hal_i2c.c ****         return HAL_ERR_VAL;
 215:../firmware/gd32f3x0_hal_peripheral/Source/gd32f3x0_hal_i2c.c ****     }
 216:../firmware/gd32f3x0_hal_peripheral/Source/gd32f3x0_hal_i2c.c ****     /* check periph value from I2C device struct */
 217:../firmware/gd32f3x0_hal_peripheral/Source/gd32f3x0_hal_i2c.c ****     if(0 != i2c_dev->periph) {
 218:../firmware/gd32f3x0_hal_peripheral/Source/gd32f3x0_hal_i2c.c ****         HAL_DEBUGI("periph value from i2c device struct has been rewrite");
 219:../firmware/gd32f3x0_hal_peripheral/Source/gd32f3x0_hal_i2c.c ****     }
 220:../firmware/gd32f3x0_hal_peripheral/Source/gd32f3x0_hal_i2c.c **** #endif /* 1 == HAL_PARAMETER_CHECK */
 221:../firmware/gd32f3x0_hal_peripheral/Source/gd32f3x0_hal_i2c.c **** 
 222:../firmware/gd32f3x0_hal_peripheral/Source/gd32f3x0_hal_i2c.c ****     i2c_dev->periph = periph;
 333              		.loc 1 222 21
 334 000c FB68     		ldr	r3, [r7, #12]
 335 000e BA68     		ldr	r2, [r7, #8]
 336 0010 1A60     		str	r2, [r3]
 223:../firmware/gd32f3x0_hal_peripheral/Source/gd32f3x0_hal_i2c.c ****     /* configure I2C clock */
 224:../firmware/gd32f3x0_hal_peripheral/Source/gd32f3x0_hal_i2c.c ****     hals_i2c_clock_config(periph, i2c_init->clock_speed, i2c_init->duty_cycle);
 337              		.loc 1 224 5
 338 0012 7B68     		ldr	r3, [r7, #4]
 339 0014 1968     		ldr	r1, [r3]
 340 0016 7B68     		ldr	r3, [r7, #4]
 341 0018 5B68     		ldr	r3, [r3, #4]
 342 001a 1A46     		mov	r2, r3
 343 001c B868     		ldr	r0, [r7, #8]
 344 001e FFF7FEFF 		bl	hals_i2c_clock_config
 225:../firmware/gd32f3x0_hal_peripheral/Source/gd32f3x0_hal_i2c.c ****     /* configure I2C address */
 226:../firmware/gd32f3x0_hal_peripheral/Source/gd32f3x0_hal_i2c.c ****     i2c_init->own_address1 = i2c_init->own_address1 << 1;
 345              		.loc 1 226 38
 346 0022 7B68     		ldr	r3, [r7, #4]
 347 0024 DB68     		ldr	r3, [r3, #12]
 348              		.loc 1 226 53
 349 0026 5A00     		lsls	r2, r3, #1
 350              		.loc 1 226 28
 351 0028 7B68     		ldr	r3, [r7, #4]
 352 002a DA60     		str	r2, [r3, #12]
 227:../firmware/gd32f3x0_hal_peripheral/Source/gd32f3x0_hal_i2c.c ****     hals_i2c_mode_addr_config(periph, I2C_I2CMODE_ENABLE, i2c_init->address_format, \
 353              		.loc 1 227 5
 354 002c 7B68     		ldr	r3, [r7, #4]
 355 002e 9A68     		ldr	r2, [r3, #8]
 356 0030 7B68     		ldr	r3, [r7, #4]
 357 0032 DB68     		ldr	r3, [r3, #12]
 358 0034 0021     		movs	r1, #0
 359 0036 B868     		ldr	r0, [r7, #8]
 360 0038 FFF7FEFF 		bl	hals_i2c_mode_addr_config
 228:../firmware/gd32f3x0_hal_peripheral/Source/gd32f3x0_hal_i2c.c ****                               i2c_init->own_address1);
 229:../firmware/gd32f3x0_hal_peripheral/Source/gd32f3x0_hal_i2c.c ****     /* configure dual-address mode */
 230:../firmware/gd32f3x0_hal_peripheral/Source/gd32f3x0_hal_i2c.c ****     if(I2C_DUADEN_ENABLE == i2c_init->dual_address) {
 361              		.loc 1 230 37
 362 003c 7B68     		ldr	r3, [r7, #4]
 363 003e 1B69     		ldr	r3, [r3, #16]
 364              		.loc 1 230 7
 365 0040 012B     		cmp	r3, #1
 366 0042 0BD1     		bne	.L17
 231:../firmware/gd32f3x0_hal_peripheral/Source/gd32f3x0_hal_i2c.c ****         i2c_init->own_address2 = i2c_init->own_address2 << 1;
 367              		.loc 1 231 42
 368 0044 7B68     		ldr	r3, [r7, #4]
 369 0046 5B69     		ldr	r3, [r3, #20]
 370              		.loc 1 231 57
 371 0048 5A00     		lsls	r2, r3, #1
 372              		.loc 1 231 32
 373 004a 7B68     		ldr	r3, [r7, #4]
 374 004c 5A61     		str	r2, [r3, #20]
 232:../firmware/gd32f3x0_hal_peripheral/Source/gd32f3x0_hal_i2c.c ****         hals_i2c_dualaddr_enable(periph, i2c_init->own_address2);
 375              		.loc 1 232 9
 376 004e 7B68     		ldr	r3, [r7, #4]
 377 0050 5B69     		ldr	r3, [r3, #20]
 378 0052 1946     		mov	r1, r3
 379 0054 B868     		ldr	r0, [r7, #8]
 380 0056 FFF7FEFF 		bl	hals_i2c_dualaddr_enable
 381 005a 02E0     		b	.L18
 382              	.L17:
 233:../firmware/gd32f3x0_hal_peripheral/Source/gd32f3x0_hal_i2c.c ****     } else {
 234:../firmware/gd32f3x0_hal_peripheral/Source/gd32f3x0_hal_i2c.c ****         hals_i2c_dualaddr_disable(periph);
 383              		.loc 1 234 9
 384 005c B868     		ldr	r0, [r7, #8]
 385 005e FFF7FEFF 		bl	hals_i2c_dualaddr_disable
 386              	.L18:
 235:../firmware/gd32f3x0_hal_peripheral/Source/gd32f3x0_hal_i2c.c ****     }
 236:../firmware/gd32f3x0_hal_peripheral/Source/gd32f3x0_hal_i2c.c ****     /* configure whether to stretch SCL low when data is not ready in slave mode */
 237:../firmware/gd32f3x0_hal_peripheral/Source/gd32f3x0_hal_i2c.c ****     hals_i2c_stretch_scl_low_config(periph, i2c_init->no_stretch);
 387              		.loc 1 237 5
 388 0062 7B68     		ldr	r3, [r7, #4]
 389 0064 DB69     		ldr	r3, [r3, #28]
 390 0066 1946     		mov	r1, r3
 391 0068 B868     		ldr	r0, [r7, #8]
 392 006a FFF7FEFF 		bl	hals_i2c_stretch_scl_low_config
 238:../firmware/gd32f3x0_hal_peripheral/Source/gd32f3x0_hal_i2c.c ****     /* whether or not to response to a general call */
 239:../firmware/gd32f3x0_hal_peripheral/Source/gd32f3x0_hal_i2c.c ****     hals_i2c_slave_response_to_gcall_config(periph, i2c_init->general_call);
 393              		.loc 1 239 5
 394 006e 7B68     		ldr	r3, [r7, #4]
 395 0070 9B69     		ldr	r3, [r3, #24]
 396 0072 1946     		mov	r1, r3
 397 0074 B868     		ldr	r0, [r7, #8]
 398 0076 FFF7FEFF 		bl	hals_i2c_slave_response_to_gcall_config
 240:../firmware/gd32f3x0_hal_peripheral/Source/gd32f3x0_hal_i2c.c ****     /* enable I2C */
 241:../firmware/gd32f3x0_hal_peripheral/Source/gd32f3x0_hal_i2c.c ****     HAL_I2C_ENABLE(periph);
 399              		.loc 1 241 5
 400 007a BB68     		ldr	r3, [r7, #8]
 401 007c 1A68     		ldr	r2, [r3]
 402 007e BB68     		ldr	r3, [r7, #8]
 403 0080 42F00102 		orr	r2, r2, #1
 404 0084 1A60     		str	r2, [r3]
 242:../firmware/gd32f3x0_hal_peripheral/Source/gd32f3x0_hal_i2c.c ****     /* enable acknowledge */
 243:../firmware/gd32f3x0_hal_peripheral/Source/gd32f3x0_hal_i2c.c ****     hals_i2c_ack_config(periph, I2C_ACK_ENABLE);
 405              		.loc 1 243 5
 406 0086 4FF48061 		mov	r1, #1024
 407 008a B868     		ldr	r0, [r7, #8]
 408 008c FFF7FEFF 		bl	hals_i2c_ack_config
 244:../firmware/gd32f3x0_hal_peripheral/Source/gd32f3x0_hal_i2c.c ****     i2c_dev->tx_state = HAL_I2C_STATE_READY;
 409              		.loc 1 244 23
 410 0090 FB68     		ldr	r3, [r7, #12]
 411 0092 0022     		movs	r2, #0
 412 0094 83F84020 		strb	r2, [r3, #64]
 245:../firmware/gd32f3x0_hal_peripheral/Source/gd32f3x0_hal_i2c.c ****     i2c_dev->rx_state = HAL_I2C_STATE_READY;
 413              		.loc 1 245 23
 414 0098 FB68     		ldr	r3, [r7, #12]
 415 009a 0022     		movs	r2, #0
 416 009c 83F84120 		strb	r2, [r3, #65]
 246:../firmware/gd32f3x0_hal_peripheral/Source/gd32f3x0_hal_i2c.c **** 
 247:../firmware/gd32f3x0_hal_peripheral/Source/gd32f3x0_hal_i2c.c ****     return HAL_ERR_NONE;
 417              		.loc 1 247 12
 418 00a0 0023     		movs	r3, #0
 248:../firmware/gd32f3x0_hal_peripheral/Source/gd32f3x0_hal_i2c.c **** }
 419              		.loc 1 248 1
 420 00a2 1846     		mov	r0, r3
 421 00a4 1037     		adds	r7, r7, #16
 422              		.cfi_def_cfa_offset 8
 423 00a6 BD46     		mov	sp, r7
 424              		.cfi_def_cfa_register 13
 425              		@ sp needed
 426 00a8 80BD     		pop	{r7, pc}
 427              		.cfi_endproc
 428              	.LFE121:
 430              		.section	.text.hal_i2c_error_irq,"ax",%progbits
 431              		.align	1
 432              		.global	hal_i2c_error_irq
 433              		.syntax unified
 434              		.thumb
 435              		.thumb_func
 436              		.fpu softvfp
 438              	hal_i2c_error_irq:
 439              	.LFB122:
 249:../firmware/gd32f3x0_hal_peripheral/Source/gd32f3x0_hal_i2c.c **** 
 250:../firmware/gd32f3x0_hal_peripheral/Source/gd32f3x0_hal_i2c.c **** /*!
 251:../firmware/gd32f3x0_hal_peripheral/Source/gd32f3x0_hal_i2c.c ****     \brief      I2C error interrupt handler
 252:../firmware/gd32f3x0_hal_peripheral/Source/gd32f3x0_hal_i2c.c ****     \param[in]  i2c_dev: I2C device information structrue
 253:../firmware/gd32f3x0_hal_peripheral/Source/gd32f3x0_hal_i2c.c ****                   the structure is not necessary to be reconfigured after structrue initialization,
 254:../firmware/gd32f3x0_hal_peripheral/Source/gd32f3x0_hal_i2c.c ****                   the structure parameters altering is automatically configured by core
 255:../firmware/gd32f3x0_hal_peripheral/Source/gd32f3x0_hal_i2c.c ****     \param[out] none
 256:../firmware/gd32f3x0_hal_peripheral/Source/gd32f3x0_hal_i2c.c ****     \retval     none
 257:../firmware/gd32f3x0_hal_peripheral/Source/gd32f3x0_hal_i2c.c **** */
 258:../firmware/gd32f3x0_hal_peripheral/Source/gd32f3x0_hal_i2c.c **** void hal_i2c_error_irq(hal_i2c_dev_struct *i2c_dev)
 259:../firmware/gd32f3x0_hal_peripheral/Source/gd32f3x0_hal_i2c.c **** {
 440              		.loc 1 259 1
 441              		.cfi_startproc
 442              		@ args = 0, pretend = 0, frame = 8
 443              		@ frame_needed = 1, uses_anonymous_args = 0
 444 0000 80B5     		push	{r7, lr}
 445              		.cfi_def_cfa_offset 8
 446              		.cfi_offset 7, -8
 447              		.cfi_offset 14, -4
 448 0002 82B0     		sub	sp, sp, #8
 449              		.cfi_def_cfa_offset 16
 450 0004 00AF     		add	r7, sp, #0
 451              		.cfi_def_cfa_register 7
 452 0006 7860     		str	r0, [r7, #4]
 260:../firmware/gd32f3x0_hal_peripheral/Source/gd32f3x0_hal_i2c.c **** #if (1 == HAL_PARAMETER_CHECK)
 261:../firmware/gd32f3x0_hal_peripheral/Source/gd32f3x0_hal_i2c.c ****     /* check the parameters */
 262:../firmware/gd32f3x0_hal_peripheral/Source/gd32f3x0_hal_i2c.c ****     if(NULL == i2c_dev) {
 263:../firmware/gd32f3x0_hal_peripheral/Source/gd32f3x0_hal_i2c.c ****         HAL_DEBUGE("pointer [i2c_dev] address is invalid");
 264:../firmware/gd32f3x0_hal_peripheral/Source/gd32f3x0_hal_i2c.c ****     }
 265:../firmware/gd32f3x0_hal_peripheral/Source/gd32f3x0_hal_i2c.c **** #endif /* 1 = HAL_PARAMETER_CHECK */
 266:../firmware/gd32f3x0_hal_peripheral/Source/gd32f3x0_hal_i2c.c ****     /* no acknowledge received */
 267:../firmware/gd32f3x0_hal_peripheral/Source/gd32f3x0_hal_i2c.c ****     if(hals_i2c_interrupt_flag_get(i2c_dev->periph, I2C_INT_FLAG_AERR)) {
 453              		.loc 1 267 8
 454 0008 7B68     		ldr	r3, [r7, #4]
 455 000a 1B68     		ldr	r3, [r3]
 456 000c 4449     		ldr	r1, .L28
 457 000e 1846     		mov	r0, r3
 458 0010 FFF7FEFF 		bl	hals_i2c_interrupt_flag_get
 459 0014 0346     		mov	r3, r0
 460              		.loc 1 267 7
 461 0016 002B     		cmp	r3, #0
 462 0018 0ED0     		beq	.L21
 268:../firmware/gd32f3x0_hal_peripheral/Source/gd32f3x0_hal_i2c.c ****         hals_i2c_interrupt_flag_clear(i2c_dev->periph, I2C_INT_FLAG_AERR);
 463              		.loc 1 268 9
 464 001a 7B68     		ldr	r3, [r7, #4]
 465 001c 1B68     		ldr	r3, [r3]
 466 001e 4049     		ldr	r1, .L28
 467 0020 1846     		mov	r0, r3
 468 0022 FFF7FEFF 		bl	hals_i2c_interrupt_flag_clear
 269:../firmware/gd32f3x0_hal_peripheral/Source/gd32f3x0_hal_i2c.c ****         i2c_dev->error_state |= HAL_I2C_ERROR_AERR;
 469              		.loc 1 269 30
 470 0026 7B68     		ldr	r3, [r7, #4]
 471 0028 DB6B     		ldr	r3, [r3, #60]
 472 002a 43F00402 		orr	r2, r3, #4
 473 002e 7B68     		ldr	r3, [r7, #4]
 474 0030 DA63     		str	r2, [r3, #60]
 270:../firmware/gd32f3x0_hal_peripheral/Source/gd32f3x0_hal_i2c.c ****         i2c_dev->last_error = HAL_I2C_ERROR_AERR;
 475              		.loc 1 270 29
 476 0032 7B68     		ldr	r3, [r7, #4]
 477 0034 0422     		movs	r2, #4
 478 0036 5A87     		strh	r2, [r3, #58]	@ movhi
 479              	.L21:
 271:../firmware/gd32f3x0_hal_peripheral/Source/gd32f3x0_hal_i2c.c ****     }
 272:../firmware/gd32f3x0_hal_peripheral/Source/gd32f3x0_hal_i2c.c **** 
 273:../firmware/gd32f3x0_hal_peripheral/Source/gd32f3x0_hal_i2c.c ****     /* over-run or under-run when SCL stretch is disabled */
 274:../firmware/gd32f3x0_hal_peripheral/Source/gd32f3x0_hal_i2c.c ****     if(hals_i2c_interrupt_flag_get(i2c_dev->periph, I2C_INT_FLAG_OUERR)) {
 480              		.loc 1 274 8
 481 0038 7B68     		ldr	r3, [r7, #4]
 482 003a 1B68     		ldr	r3, [r3]
 483 003c 3949     		ldr	r1, .L28+4
 484 003e 1846     		mov	r0, r3
 485 0040 FFF7FEFF 		bl	hals_i2c_interrupt_flag_get
 486 0044 0346     		mov	r3, r0
 487              		.loc 1 274 7
 488 0046 002B     		cmp	r3, #0
 489 0048 0ED0     		beq	.L22
 275:../firmware/gd32f3x0_hal_peripheral/Source/gd32f3x0_hal_i2c.c ****         hals_i2c_interrupt_flag_clear(i2c_dev->periph, I2C_INT_FLAG_OUERR);
 490              		.loc 1 275 9
 491 004a 7B68     		ldr	r3, [r7, #4]
 492 004c 1B68     		ldr	r3, [r3]
 493 004e 3549     		ldr	r1, .L28+4
 494 0050 1846     		mov	r0, r3
 495 0052 FFF7FEFF 		bl	hals_i2c_interrupt_flag_clear
 276:../firmware/gd32f3x0_hal_peripheral/Source/gd32f3x0_hal_i2c.c ****         i2c_dev->error_state |= HAL_I2C_ERROR_OUERR;
 496              		.loc 1 276 30
 497 0056 7B68     		ldr	r3, [r7, #4]
 498 0058 DB6B     		ldr	r3, [r3, #60]
 499 005a 43F00802 		orr	r2, r3, #8
 500 005e 7B68     		ldr	r3, [r7, #4]
 501 0060 DA63     		str	r2, [r3, #60]
 277:../firmware/gd32f3x0_hal_peripheral/Source/gd32f3x0_hal_i2c.c ****         i2c_dev->last_error = HAL_I2C_ERROR_OUERR;
 502              		.loc 1 277 29
 503 0062 7B68     		ldr	r3, [r7, #4]
 504 0064 0822     		movs	r2, #8
 505 0066 5A87     		strh	r2, [r3, #58]	@ movhi
 506              	.L22:
 278:../firmware/gd32f3x0_hal_peripheral/Source/gd32f3x0_hal_i2c.c ****     }
 279:../firmware/gd32f3x0_hal_peripheral/Source/gd32f3x0_hal_i2c.c **** 
 280:../firmware/gd32f3x0_hal_peripheral/Source/gd32f3x0_hal_i2c.c ****     /* arbitration lost */
 281:../firmware/gd32f3x0_hal_peripheral/Source/gd32f3x0_hal_i2c.c ****     if(hals_i2c_interrupt_flag_get(i2c_dev->periph, I2C_INT_FLAG_LOSTARB)) {
 507              		.loc 1 281 8
 508 0068 7B68     		ldr	r3, [r7, #4]
 509 006a 1B68     		ldr	r3, [r3]
 510 006c 2E49     		ldr	r1, .L28+8
 511 006e 1846     		mov	r0, r3
 512 0070 FFF7FEFF 		bl	hals_i2c_interrupt_flag_get
 513 0074 0346     		mov	r3, r0
 514              		.loc 1 281 7
 515 0076 002B     		cmp	r3, #0
 516 0078 0ED0     		beq	.L23
 282:../firmware/gd32f3x0_hal_peripheral/Source/gd32f3x0_hal_i2c.c ****         hals_i2c_interrupt_flag_clear(i2c_dev->periph, I2C_INT_FLAG_LOSTARB);
 517              		.loc 1 282 9
 518 007a 7B68     		ldr	r3, [r7, #4]
 519 007c 1B68     		ldr	r3, [r3]
 520 007e 2A49     		ldr	r1, .L28+8
 521 0080 1846     		mov	r0, r3
 522 0082 FFF7FEFF 		bl	hals_i2c_interrupt_flag_clear
 283:../firmware/gd32f3x0_hal_peripheral/Source/gd32f3x0_hal_i2c.c ****         i2c_dev->error_state |= HAL_I2C_ERROR_LOSTARB;
 523              		.loc 1 283 30
 524 0086 7B68     		ldr	r3, [r7, #4]
 525 0088 DB6B     		ldr	r3, [r3, #60]
 526 008a 43F00202 		orr	r2, r3, #2
 527 008e 7B68     		ldr	r3, [r7, #4]
 528 0090 DA63     		str	r2, [r3, #60]
 284:../firmware/gd32f3x0_hal_peripheral/Source/gd32f3x0_hal_i2c.c ****         i2c_dev->last_error = HAL_I2C_ERROR_LOSTARB;
 529              		.loc 1 284 29
 530 0092 7B68     		ldr	r3, [r7, #4]
 531 0094 0222     		movs	r2, #2
 532 0096 5A87     		strh	r2, [r3, #58]	@ movhi
 533              	.L23:
 285:../firmware/gd32f3x0_hal_peripheral/Source/gd32f3x0_hal_i2c.c ****     }
 286:../firmware/gd32f3x0_hal_peripheral/Source/gd32f3x0_hal_i2c.c **** 
 287:../firmware/gd32f3x0_hal_peripheral/Source/gd32f3x0_hal_i2c.c ****     /* bus error */
 288:../firmware/gd32f3x0_hal_peripheral/Source/gd32f3x0_hal_i2c.c ****     if(hals_i2c_interrupt_flag_get(i2c_dev->periph, I2C_INT_FLAG_BERR)) {
 534              		.loc 1 288 8
 535 0098 7B68     		ldr	r3, [r7, #4]
 536 009a 1B68     		ldr	r3, [r3]
 537 009c 2349     		ldr	r1, .L28+12
 538 009e 1846     		mov	r0, r3
 539 00a0 FFF7FEFF 		bl	hals_i2c_interrupt_flag_get
 540 00a4 0346     		mov	r3, r0
 541              		.loc 1 288 7
 542 00a6 002B     		cmp	r3, #0
 543 00a8 0ED0     		beq	.L24
 289:../firmware/gd32f3x0_hal_peripheral/Source/gd32f3x0_hal_i2c.c ****         hals_i2c_interrupt_flag_clear(i2c_dev->periph, I2C_INT_FLAG_BERR);
 544              		.loc 1 289 9
 545 00aa 7B68     		ldr	r3, [r7, #4]
 546 00ac 1B68     		ldr	r3, [r3]
 547 00ae 1F49     		ldr	r1, .L28+12
 548 00b0 1846     		mov	r0, r3
 549 00b2 FFF7FEFF 		bl	hals_i2c_interrupt_flag_clear
 290:../firmware/gd32f3x0_hal_peripheral/Source/gd32f3x0_hal_i2c.c ****         i2c_dev->error_state |= HAL_I2C_ERROR_BERR;
 550              		.loc 1 290 30
 551 00b6 7B68     		ldr	r3, [r7, #4]
 552 00b8 DB6B     		ldr	r3, [r3, #60]
 553 00ba 43F00102 		orr	r2, r3, #1
 554 00be 7B68     		ldr	r3, [r7, #4]
 555 00c0 DA63     		str	r2, [r3, #60]
 291:../firmware/gd32f3x0_hal_peripheral/Source/gd32f3x0_hal_i2c.c ****         i2c_dev->last_error = HAL_I2C_ERROR_BERR;
 556              		.loc 1 291 29
 557 00c2 7B68     		ldr	r3, [r7, #4]
 558 00c4 0122     		movs	r2, #1
 559 00c6 5A87     		strh	r2, [r3, #58]	@ movhi
 560              	.L24:
 292:../firmware/gd32f3x0_hal_peripheral/Source/gd32f3x0_hal_i2c.c ****     }
 293:../firmware/gd32f3x0_hal_peripheral/Source/gd32f3x0_hal_i2c.c **** 
 294:../firmware/gd32f3x0_hal_peripheral/Source/gd32f3x0_hal_i2c.c ****     /* CRC value doesn't match */
 295:../firmware/gd32f3x0_hal_peripheral/Source/gd32f3x0_hal_i2c.c ****     if(hals_i2c_interrupt_flag_get(i2c_dev->periph, I2C_INT_FLAG_PECERR)) {
 561              		.loc 1 295 8
 562 00c8 7B68     		ldr	r3, [r7, #4]
 563 00ca 1B68     		ldr	r3, [r3]
 564 00cc 1849     		ldr	r1, .L28+16
 565 00ce 1846     		mov	r0, r3
 566 00d0 FFF7FEFF 		bl	hals_i2c_interrupt_flag_get
 567 00d4 0346     		mov	r3, r0
 568              		.loc 1 295 7
 569 00d6 002B     		cmp	r3, #0
 570 00d8 0ED0     		beq	.L25
 296:../firmware/gd32f3x0_hal_peripheral/Source/gd32f3x0_hal_i2c.c ****         hals_i2c_interrupt_flag_clear(i2c_dev->periph, I2C_INT_FLAG_PECERR);
 571              		.loc 1 296 9
 572 00da 7B68     		ldr	r3, [r7, #4]
 573 00dc 1B68     		ldr	r3, [r3]
 574 00de 1449     		ldr	r1, .L28+16
 575 00e0 1846     		mov	r0, r3
 576 00e2 FFF7FEFF 		bl	hals_i2c_interrupt_flag_clear
 297:../firmware/gd32f3x0_hal_peripheral/Source/gd32f3x0_hal_i2c.c ****         i2c_dev->error_state |= HAL_I2C_ERROR_PECERR;
 577              		.loc 1 297 30
 578 00e6 7B68     		ldr	r3, [r7, #4]
 579 00e8 DB6B     		ldr	r3, [r3, #60]
 580 00ea 43F01002 		orr	r2, r3, #16
 581 00ee 7B68     		ldr	r3, [r7, #4]
 582 00f0 DA63     		str	r2, [r3, #60]
 298:../firmware/gd32f3x0_hal_peripheral/Source/gd32f3x0_hal_i2c.c ****         i2c_dev->last_error = HAL_I2C_ERROR_PECERR;
 583              		.loc 1 298 29
 584 00f2 7B68     		ldr	r3, [r7, #4]
 585 00f4 1022     		movs	r2, #16
 586 00f6 5A87     		strh	r2, [r3, #58]	@ movhi
 587              	.L25:
 299:../firmware/gd32f3x0_hal_peripheral/Source/gd32f3x0_hal_i2c.c ****     }
 300:../firmware/gd32f3x0_hal_peripheral/Source/gd32f3x0_hal_i2c.c **** 
 301:../firmware/gd32f3x0_hal_peripheral/Source/gd32f3x0_hal_i2c.c ****     if(HAL_I2C_ERROR_NONE != i2c_dev->error_state) {
 588              		.loc 1 301 37
 589 00f8 7B68     		ldr	r3, [r7, #4]
 590 00fa DB6B     		ldr	r3, [r3, #60]
 591              		.loc 1 301 7
 592 00fc 002B     		cmp	r3, #0
 593 00fe 0AD0     		beq	.L27
 302:../firmware/gd32f3x0_hal_peripheral/Source/gd32f3x0_hal_i2c.c ****         if(i2c_dev->i2c_irq.error_handle != NULL) {
 594              		.loc 1 302 28
 595 0100 7B68     		ldr	r3, [r7, #4]
 596 0102 9B68     		ldr	r3, [r3, #8]
 597              		.loc 1 302 11
 598 0104 002B     		cmp	r3, #0
 599 0106 06D0     		beq	.L27
 303:../firmware/gd32f3x0_hal_peripheral/Source/gd32f3x0_hal_i2c.c ****             i2c_dev->i2c_irq.error_handle(i2c_dev);
 600              		.loc 1 303 29
 601 0108 7B68     		ldr	r3, [r7, #4]
 602 010a 9B68     		ldr	r3, [r3, #8]
 603              		.loc 1 303 13
 604 010c 7868     		ldr	r0, [r7, #4]
 605 010e 9847     		blx	r3
 606              	.LVL0:
 304:../firmware/gd32f3x0_hal_peripheral/Source/gd32f3x0_hal_i2c.c ****             i2c_dev->error_state = HAL_I2C_ERROR_NONE;
 607              		.loc 1 304 34
 608 0110 7B68     		ldr	r3, [r7, #4]
 609 0112 0022     		movs	r2, #0
 610 0114 DA63     		str	r2, [r3, #60]
 611              	.L27:
 305:../firmware/gd32f3x0_hal_peripheral/Source/gd32f3x0_hal_i2c.c ****         }
 306:../firmware/gd32f3x0_hal_peripheral/Source/gd32f3x0_hal_i2c.c ****     }
 307:../firmware/gd32f3x0_hal_peripheral/Source/gd32f3x0_hal_i2c.c **** }
 612              		.loc 1 307 1
 613 0116 00BF     		nop
 614 0118 0837     		adds	r7, r7, #8
 615              		.cfi_def_cfa_offset 8
 616 011a BD46     		mov	sp, r7
 617              		.cfi_def_cfa_register 13
 618              		@ sp needed
 619 011c 80BD     		pop	{r7, pc}
 620              	.L29:
 621 011e 00BF     		.align	2
 622              	.L28:
 623 0120 08010A05 		.word	84541704
 624 0124 08010B05 		.word	84607240
 625 0128 08010905 		.word	84476168
 626 012c 08010805 		.word	84410632
 627 0130 08010C05 		.word	84672776
 628              		.cfi_endproc
 629              	.LFE122:
 631              		.section	.text.hal_i2c_event_irq,"ax",%progbits
 632              		.align	1
 633              		.global	hal_i2c_event_irq
 634              		.syntax unified
 635              		.thumb
 636              		.thumb_func
 637              		.fpu softvfp
 639              	hal_i2c_event_irq:
 640              	.LFB123:
 308:../firmware/gd32f3x0_hal_peripheral/Source/gd32f3x0_hal_i2c.c **** 
 309:../firmware/gd32f3x0_hal_peripheral/Source/gd32f3x0_hal_i2c.c **** /*!
 310:../firmware/gd32f3x0_hal_peripheral/Source/gd32f3x0_hal_i2c.c ****     \brief      I2C event interrupt handler
 311:../firmware/gd32f3x0_hal_peripheral/Source/gd32f3x0_hal_i2c.c ****     \param[in]  i2c_dev: I2C device information structrue
 312:../firmware/gd32f3x0_hal_peripheral/Source/gd32f3x0_hal_i2c.c ****                   the structure is not necessary to be reconfigured after structrue initialization,
 313:../firmware/gd32f3x0_hal_peripheral/Source/gd32f3x0_hal_i2c.c ****                   the structure parameters altering is automatically configured by core
 314:../firmware/gd32f3x0_hal_peripheral/Source/gd32f3x0_hal_i2c.c ****     \param[out] none
 315:../firmware/gd32f3x0_hal_peripheral/Source/gd32f3x0_hal_i2c.c ****     \retval     none
 316:../firmware/gd32f3x0_hal_peripheral/Source/gd32f3x0_hal_i2c.c **** */
 317:../firmware/gd32f3x0_hal_peripheral/Source/gd32f3x0_hal_i2c.c **** void hal_i2c_event_irq(hal_i2c_dev_struct *i2c_dev)
 318:../firmware/gd32f3x0_hal_peripheral/Source/gd32f3x0_hal_i2c.c **** {
 641              		.loc 1 318 1
 642              		.cfi_startproc
 643              		@ args = 0, pretend = 0, frame = 8
 644              		@ frame_needed = 1, uses_anonymous_args = 0
 645 0000 80B5     		push	{r7, lr}
 646              		.cfi_def_cfa_offset 8
 647              		.cfi_offset 7, -8
 648              		.cfi_offset 14, -4
 649 0002 82B0     		sub	sp, sp, #8
 650              		.cfi_def_cfa_offset 16
 651 0004 00AF     		add	r7, sp, #0
 652              		.cfi_def_cfa_register 7
 653 0006 7860     		str	r0, [r7, #4]
 319:../firmware/gd32f3x0_hal_peripheral/Source/gd32f3x0_hal_i2c.c **** #if (1 == HAL_PARAMETER_CHECK)
 320:../firmware/gd32f3x0_hal_peripheral/Source/gd32f3x0_hal_i2c.c ****     /* check the parameters */
 321:../firmware/gd32f3x0_hal_peripheral/Source/gd32f3x0_hal_i2c.c ****     if(NULL == i2c_dev) {
 322:../firmware/gd32f3x0_hal_peripheral/Source/gd32f3x0_hal_i2c.c ****         HAL_DEBUGE("pointer [i2c_dev] address is invalid");
 323:../firmware/gd32f3x0_hal_peripheral/Source/gd32f3x0_hal_i2c.c ****     }
 324:../firmware/gd32f3x0_hal_peripheral/Source/gd32f3x0_hal_i2c.c **** #endif /* 1 = HAL_PARAMETER_CHECK */
 325:../firmware/gd32f3x0_hal_peripheral/Source/gd32f3x0_hal_i2c.c **** 
 326:../firmware/gd32f3x0_hal_peripheral/Source/gd32f3x0_hal_i2c.c ****     if(i2c_dev->i2c_irq.event_handle != NULL) {
 654              		.loc 1 326 24
 655 0008 7B68     		ldr	r3, [r7, #4]
 656 000a 5B68     		ldr	r3, [r3, #4]
 657              		.loc 1 326 7
 658 000c 002B     		cmp	r3, #0
 659 000e 04D0     		beq	.L30
 327:../firmware/gd32f3x0_hal_peripheral/Source/gd32f3x0_hal_i2c.c ****         i2c_dev->i2c_irq.event_handle(i2c_dev);
 660              		.loc 1 327 25
 661 0010 7B68     		ldr	r3, [r7, #4]
 662 0012 5B68     		ldr	r3, [r3, #4]
 663              		.loc 1 327 9
 664 0014 7868     		ldr	r0, [r7, #4]
 665 0016 9847     		blx	r3
 666              	.LVL1:
 328:../firmware/gd32f3x0_hal_peripheral/Source/gd32f3x0_hal_i2c.c ****         return;
 667              		.loc 1 328 9
 668 0018 00BF     		nop
 669              	.L30:
 329:../firmware/gd32f3x0_hal_peripheral/Source/gd32f3x0_hal_i2c.c ****     }
 330:../firmware/gd32f3x0_hal_peripheral/Source/gd32f3x0_hal_i2c.c **** 
 331:../firmware/gd32f3x0_hal_peripheral/Source/gd32f3x0_hal_i2c.c **** }
 670              		.loc 1 331 1
 671 001a 0837     		adds	r7, r7, #8
 672              		.cfi_def_cfa_offset 8
 673 001c BD46     		mov	sp, r7
 674              		.cfi_def_cfa_register 13
 675              		@ sp needed
 676 001e 80BD     		pop	{r7, pc}
 677              		.cfi_endproc
 678              	.LFE123:
 680              		.section	.text.hal_i2c_start,"ax",%progbits
 681              		.align	1
 682              		.global	hal_i2c_start
 683              		.syntax unified
 684              		.thumb
 685              		.thumb_func
 686              		.fpu softvfp
 688              	hal_i2c_start:
 689              	.LFB124:
 332:../firmware/gd32f3x0_hal_peripheral/Source/gd32f3x0_hal_i2c.c **** 
 333:../firmware/gd32f3x0_hal_peripheral/Source/gd32f3x0_hal_i2c.c **** /*!
 334:../firmware/gd32f3x0_hal_peripheral/Source/gd32f3x0_hal_i2c.c ****     \brief      start I2C module function
 335:../firmware/gd32f3x0_hal_peripheral/Source/gd32f3x0_hal_i2c.c ****     \param[in]  i2c_dev: I2C device information structrue
 336:../firmware/gd32f3x0_hal_peripheral/Source/gd32f3x0_hal_i2c.c ****                   the structure is not necessary to be reconfigured after structrue initialization,
 337:../firmware/gd32f3x0_hal_peripheral/Source/gd32f3x0_hal_i2c.c ****                   the structure parameters altering is automatically configured by core
 338:../firmware/gd32f3x0_hal_peripheral/Source/gd32f3x0_hal_i2c.c ****     \param[out] none
 339:../firmware/gd32f3x0_hal_peripheral/Source/gd32f3x0_hal_i2c.c ****     \retval
 340:../firmware/gd32f3x0_hal_peripheral/Source/gd32f3x0_hal_i2c.c **** */
 341:../firmware/gd32f3x0_hal_peripheral/Source/gd32f3x0_hal_i2c.c **** void hal_i2c_start(hal_i2c_dev_struct *i2c_dev)
 342:../firmware/gd32f3x0_hal_peripheral/Source/gd32f3x0_hal_i2c.c **** {
 690              		.loc 1 342 1
 691              		.cfi_startproc
 692              		@ args = 0, pretend = 0, frame = 8
 693              		@ frame_needed = 1, uses_anonymous_args = 0
 694              		@ link register save eliminated.
 695 0000 80B4     		push	{r7}
 696              		.cfi_def_cfa_offset 4
 697              		.cfi_offset 7, -4
 698 0002 83B0     		sub	sp, sp, #12
 699              		.cfi_def_cfa_offset 16
 700 0004 00AF     		add	r7, sp, #0
 701              		.cfi_def_cfa_register 7
 702 0006 7860     		str	r0, [r7, #4]
 343:../firmware/gd32f3x0_hal_peripheral/Source/gd32f3x0_hal_i2c.c **** #if (1 == HAL_PARAMETER_CHECK)
 344:../firmware/gd32f3x0_hal_peripheral/Source/gd32f3x0_hal_i2c.c ****     /* check the parameters */
 345:../firmware/gd32f3x0_hal_peripheral/Source/gd32f3x0_hal_i2c.c ****     if(NULL == i2c_dev) {
 346:../firmware/gd32f3x0_hal_peripheral/Source/gd32f3x0_hal_i2c.c ****         HAL_DEBUGE("pointer [i2c_dev] address is invalid");
 347:../firmware/gd32f3x0_hal_peripheral/Source/gd32f3x0_hal_i2c.c ****     }
 348:../firmware/gd32f3x0_hal_peripheral/Source/gd32f3x0_hal_i2c.c **** #endif /* 1 = HAL_PARAMETER_CHECK */
 349:../firmware/gd32f3x0_hal_peripheral/Source/gd32f3x0_hal_i2c.c **** 
 350:../firmware/gd32f3x0_hal_peripheral/Source/gd32f3x0_hal_i2c.c ****     I2C_CTL0(i2c_dev->periph) |= I2C_CTL0_I2CEN;
 703              		.loc 1 350 5
 704 0008 7B68     		ldr	r3, [r7, #4]
 705 000a 1B68     		ldr	r3, [r3]
 706              		.loc 1 350 31
 707 000c 1B68     		ldr	r3, [r3]
 708              		.loc 1 350 5
 709 000e 7A68     		ldr	r2, [r7, #4]
 710 0010 1268     		ldr	r2, [r2]
 711              		.loc 1 350 31
 712 0012 43F00103 		orr	r3, r3, #1
 713 0016 1360     		str	r3, [r2]
 351:../firmware/gd32f3x0_hal_peripheral/Source/gd32f3x0_hal_i2c.c **** }
 714              		.loc 1 351 1
 715 0018 00BF     		nop
 716 001a 0C37     		adds	r7, r7, #12
 717              		.cfi_def_cfa_offset 4
 718 001c BD46     		mov	sp, r7
 719              		.cfi_def_cfa_register 13
 720              		@ sp needed
 721 001e 80BC     		pop	{r7}
 722              		.cfi_restore 7
 723              		.cfi_def_cfa_offset 0
 724 0020 7047     		bx	lr
 725              		.cfi_endproc
 726              	.LFE124:
 728              		.section	.text.hal_i2c_stop,"ax",%progbits
 729              		.align	1
 730              		.global	hal_i2c_stop
 731              		.syntax unified
 732              		.thumb
 733              		.thumb_func
 734              		.fpu softvfp
 736              	hal_i2c_stop:
 737              	.LFB125:
 352:../firmware/gd32f3x0_hal_peripheral/Source/gd32f3x0_hal_i2c.c **** 
 353:../firmware/gd32f3x0_hal_peripheral/Source/gd32f3x0_hal_i2c.c **** /*!
 354:../firmware/gd32f3x0_hal_peripheral/Source/gd32f3x0_hal_i2c.c ****     \brief      stop I2C module function
 355:../firmware/gd32f3x0_hal_peripheral/Source/gd32f3x0_hal_i2c.c ****     \param[in]  i2c_dev: I2C device information structrue
 356:../firmware/gd32f3x0_hal_peripheral/Source/gd32f3x0_hal_i2c.c ****                   the structure is not necessary to be reconfigured after structrue initialization,
 357:../firmware/gd32f3x0_hal_peripheral/Source/gd32f3x0_hal_i2c.c ****                   the structure parameters altering is automatically configured by core
 358:../firmware/gd32f3x0_hal_peripheral/Source/gd32f3x0_hal_i2c.c ****     \param[out] none
 359:../firmware/gd32f3x0_hal_peripheral/Source/gd32f3x0_hal_i2c.c ****     \retval
 360:../firmware/gd32f3x0_hal_peripheral/Source/gd32f3x0_hal_i2c.c **** */
 361:../firmware/gd32f3x0_hal_peripheral/Source/gd32f3x0_hal_i2c.c **** void hal_i2c_stop(hal_i2c_dev_struct *i2c_dev)
 362:../firmware/gd32f3x0_hal_peripheral/Source/gd32f3x0_hal_i2c.c **** {
 738              		.loc 1 362 1
 739              		.cfi_startproc
 740              		@ args = 0, pretend = 0, frame = 8
 741              		@ frame_needed = 1, uses_anonymous_args = 0
 742              		@ link register save eliminated.
 743 0000 80B4     		push	{r7}
 744              		.cfi_def_cfa_offset 4
 745              		.cfi_offset 7, -4
 746 0002 83B0     		sub	sp, sp, #12
 747              		.cfi_def_cfa_offset 16
 748 0004 00AF     		add	r7, sp, #0
 749              		.cfi_def_cfa_register 7
 750 0006 7860     		str	r0, [r7, #4]
 363:../firmware/gd32f3x0_hal_peripheral/Source/gd32f3x0_hal_i2c.c **** #if (1 == HAL_PARAMETER_CHECK)
 364:../firmware/gd32f3x0_hal_peripheral/Source/gd32f3x0_hal_i2c.c ****     /* check the parameters */
 365:../firmware/gd32f3x0_hal_peripheral/Source/gd32f3x0_hal_i2c.c ****     if(NULL == i2c_dev) {
 366:../firmware/gd32f3x0_hal_peripheral/Source/gd32f3x0_hal_i2c.c ****         HAL_DEBUGE("pointer [i2c_dev] address is invalid");
 367:../firmware/gd32f3x0_hal_peripheral/Source/gd32f3x0_hal_i2c.c ****     }
 368:../firmware/gd32f3x0_hal_peripheral/Source/gd32f3x0_hal_i2c.c **** #endif /* 1 = HAL_PARAMETER_CHECK */
 369:../firmware/gd32f3x0_hal_peripheral/Source/gd32f3x0_hal_i2c.c **** 
 370:../firmware/gd32f3x0_hal_peripheral/Source/gd32f3x0_hal_i2c.c ****     I2C_CTL0(i2c_dev->periph) &= ~(I2C_CTL0_I2CEN);
 751              		.loc 1 370 5
 752 0008 7B68     		ldr	r3, [r7, #4]
 753 000a 1B68     		ldr	r3, [r3]
 754              		.loc 1 370 31
 755 000c 1B68     		ldr	r3, [r3]
 756              		.loc 1 370 5
 757 000e 7A68     		ldr	r2, [r7, #4]
 758 0010 1268     		ldr	r2, [r2]
 759              		.loc 1 370 31
 760 0012 23F00103 		bic	r3, r3, #1
 761 0016 1360     		str	r3, [r2]
 371:../firmware/gd32f3x0_hal_peripheral/Source/gd32f3x0_hal_i2c.c **** }
 762              		.loc 1 371 1
 763 0018 00BF     		nop
 764 001a 0C37     		adds	r7, r7, #12
 765              		.cfi_def_cfa_offset 4
 766 001c BD46     		mov	sp, r7
 767              		.cfi_def_cfa_register 13
 768              		@ sp needed
 769 001e 80BC     		pop	{r7}
 770              		.cfi_restore 7
 771              		.cfi_def_cfa_offset 0
 772 0020 7047     		bx	lr
 773              		.cfi_endproc
 774              	.LFE125:
 776              		.section	.text.hal_i2c_irq_handle_set,"ax",%progbits
 777              		.align	1
 778              		.global	hal_i2c_irq_handle_set
 779              		.syntax unified
 780              		.thumb
 781              		.thumb_func
 782              		.fpu softvfp
 784              	hal_i2c_irq_handle_set:
 785              	.LFB126:
 372:../firmware/gd32f3x0_hal_peripheral/Source/gd32f3x0_hal_i2c.c **** 
 373:../firmware/gd32f3x0_hal_peripheral/Source/gd32f3x0_hal_i2c.c **** /*!
 374:../firmware/gd32f3x0_hal_peripheral/Source/gd32f3x0_hal_i2c.c ****     \brief      set user-defined interrupt callback function,
 375:../firmware/gd32f3x0_hal_peripheral/Source/gd32f3x0_hal_i2c.c ****                 which will be registered and called when corresponding interrupt be triggered
 376:../firmware/gd32f3x0_hal_peripheral/Source/gd32f3x0_hal_i2c.c ****     \param[in]  i2c_dev: I2C device information structrue
 377:../firmware/gd32f3x0_hal_peripheral/Source/gd32f3x0_hal_i2c.c ****                   the structure is not necessary to be reconfigured after structrue initialization,
 378:../firmware/gd32f3x0_hal_peripheral/Source/gd32f3x0_hal_i2c.c ****                   the structure parameters altering is automatically configured by core
 379:../firmware/gd32f3x0_hal_peripheral/Source/gd32f3x0_hal_i2c.c ****     \param[in]  p_irq: the structure that contains callback handlers of I2C interrupt
 380:../firmware/gd32f3x0_hal_peripheral/Source/gd32f3x0_hal_i2c.c ****                 The structure member can be assigned as following parameters:
 381:../firmware/gd32f3x0_hal_peripheral/Source/gd32f3x0_hal_i2c.c ****       \arg        hal_irq_handle_cb function pointer: the function is user-defined,
 382:../firmware/gd32f3x0_hal_peripheral/Source/gd32f3x0_hal_i2c.c ****                     the corresponding callback mechanism is in use, and enable corresponding interr
 383:../firmware/gd32f3x0_hal_peripheral/Source/gd32f3x0_hal_i2c.c ****       \arg        NULL: The corresponding callback mechanism is out of use, and
 384:../firmware/gd32f3x0_hal_peripheral/Source/gd32f3x0_hal_i2c.c ****                     disable corresponding interrupt
 385:../firmware/gd32f3x0_hal_peripheral/Source/gd32f3x0_hal_i2c.c ****     \param[out] none
 386:../firmware/gd32f3x0_hal_peripheral/Source/gd32f3x0_hal_i2c.c ****     \retval     none
 387:../firmware/gd32f3x0_hal_peripheral/Source/gd32f3x0_hal_i2c.c **** */
 388:../firmware/gd32f3x0_hal_peripheral/Source/gd32f3x0_hal_i2c.c **** void hal_i2c_irq_handle_set(hal_i2c_dev_struct *i2c_dev, hal_i2c_irq_struct *p_irq)
 389:../firmware/gd32f3x0_hal_peripheral/Source/gd32f3x0_hal_i2c.c **** {
 786              		.loc 1 389 1
 787              		.cfi_startproc
 788              		@ args = 0, pretend = 0, frame = 8
 789              		@ frame_needed = 1, uses_anonymous_args = 0
 790 0000 80B5     		push	{r7, lr}
 791              		.cfi_def_cfa_offset 8
 792              		.cfi_offset 7, -8
 793              		.cfi_offset 14, -4
 794 0002 82B0     		sub	sp, sp, #8
 795              		.cfi_def_cfa_offset 16
 796 0004 00AF     		add	r7, sp, #0
 797              		.cfi_def_cfa_register 7
 798 0006 7860     		str	r0, [r7, #4]
 799 0008 3960     		str	r1, [r7]
 390:../firmware/gd32f3x0_hal_peripheral/Source/gd32f3x0_hal_i2c.c **** #if (1 == HAL_PARAMETER_CHECK)
 391:../firmware/gd32f3x0_hal_peripheral/Source/gd32f3x0_hal_i2c.c ****     /* check the parameters */
 392:../firmware/gd32f3x0_hal_peripheral/Source/gd32f3x0_hal_i2c.c ****     if((NULL == i2c_dev) || (NULL == p_irq)) {
 393:../firmware/gd32f3x0_hal_peripheral/Source/gd32f3x0_hal_i2c.c ****         HAL_DEBUGE("pointer [i2c_dev] or [p_irq] address is invalid");
 394:../firmware/gd32f3x0_hal_peripheral/Source/gd32f3x0_hal_i2c.c ****     }
 395:../firmware/gd32f3x0_hal_peripheral/Source/gd32f3x0_hal_i2c.c **** #endif /* 1 = HAL_PARAMETER_CHECK */
 396:../firmware/gd32f3x0_hal_peripheral/Source/gd32f3x0_hal_i2c.c **** 
 397:../firmware/gd32f3x0_hal_peripheral/Source/gd32f3x0_hal_i2c.c ****     /* event interrupt handler set */
 398:../firmware/gd32f3x0_hal_peripheral/Source/gd32f3x0_hal_i2c.c ****     if(NULL != p_irq->event_handle) {
 800              		.loc 1 398 21
 801 000a 3B68     		ldr	r3, [r7]
 802 000c 1B68     		ldr	r3, [r3]
 803              		.loc 1 398 7
 804 000e 002B     		cmp	r3, #0
 805 0010 12D0     		beq	.L35
 399:../firmware/gd32f3x0_hal_peripheral/Source/gd32f3x0_hal_i2c.c ****         i2c_dev->i2c_irq.event_handle = p_irq->event_handle;
 806              		.loc 1 399 46
 807 0012 3B68     		ldr	r3, [r7]
 808 0014 1A68     		ldr	r2, [r3]
 809              		.loc 1 399 39
 810 0016 7B68     		ldr	r3, [r7, #4]
 811 0018 5A60     		str	r2, [r3, #4]
 400:../firmware/gd32f3x0_hal_peripheral/Source/gd32f3x0_hal_i2c.c ****         hals_i2c_interrupt_enable(i2c_dev->periph, I2C_INT_BUF);
 812              		.loc 1 400 9
 813 001a 7B68     		ldr	r3, [r7, #4]
 814 001c 1B68     		ldr	r3, [r3]
 815 001e 4FF48571 		mov	r1, #266
 816 0022 1846     		mov	r0, r3
 817 0024 FFF7FEFF 		bl	hals_i2c_interrupt_enable
 401:../firmware/gd32f3x0_hal_peripheral/Source/gd32f3x0_hal_i2c.c ****         hals_i2c_interrupt_enable(i2c_dev->periph, I2C_INT_EV);
 818              		.loc 1 401 9
 819 0028 7B68     		ldr	r3, [r7, #4]
 820 002a 1B68     		ldr	r3, [r3]
 821 002c 40F20911 		movw	r1, #265
 822 0030 1846     		mov	r0, r3
 823 0032 FFF7FEFF 		bl	hals_i2c_interrupt_enable
 824 0036 10E0     		b	.L36
 825              	.L35:
 402:../firmware/gd32f3x0_hal_peripheral/Source/gd32f3x0_hal_i2c.c ****     } else {
 403:../firmware/gd32f3x0_hal_peripheral/Source/gd32f3x0_hal_i2c.c ****         i2c_dev->i2c_irq.event_handle = NULL;
 826              		.loc 1 403 39
 827 0038 7B68     		ldr	r3, [r7, #4]
 828 003a 0022     		movs	r2, #0
 829 003c 5A60     		str	r2, [r3, #4]
 404:../firmware/gd32f3x0_hal_peripheral/Source/gd32f3x0_hal_i2c.c ****         hals_i2c_interrupt_disable(i2c_dev->periph, I2C_INT_BUF);
 830              		.loc 1 404 9
 831 003e 7B68     		ldr	r3, [r7, #4]
 832 0040 1B68     		ldr	r3, [r3]
 833 0042 4FF48571 		mov	r1, #266
 834 0046 1846     		mov	r0, r3
 835 0048 FFF7FEFF 		bl	hals_i2c_interrupt_disable
 405:../firmware/gd32f3x0_hal_peripheral/Source/gd32f3x0_hal_i2c.c ****         hals_i2c_interrupt_disable(i2c_dev->periph, I2C_INT_EV);
 836              		.loc 1 405 9
 837 004c 7B68     		ldr	r3, [r7, #4]
 838 004e 1B68     		ldr	r3, [r3]
 839 0050 40F20911 		movw	r1, #265
 840 0054 1846     		mov	r0, r3
 841 0056 FFF7FEFF 		bl	hals_i2c_interrupt_disable
 842              	.L36:
 406:../firmware/gd32f3x0_hal_peripheral/Source/gd32f3x0_hal_i2c.c ****     }
 407:../firmware/gd32f3x0_hal_peripheral/Source/gd32f3x0_hal_i2c.c ****     /* error interrupt handler set */
 408:../firmware/gd32f3x0_hal_peripheral/Source/gd32f3x0_hal_i2c.c ****     if(NULL != p_irq->error_handle) {
 843              		.loc 1 408 21
 844 005a 3B68     		ldr	r3, [r7]
 845 005c 5B68     		ldr	r3, [r3, #4]
 846              		.loc 1 408 7
 847 005e 002B     		cmp	r3, #0
 848 0060 0BD0     		beq	.L37
 409:../firmware/gd32f3x0_hal_peripheral/Source/gd32f3x0_hal_i2c.c ****         i2c_dev->i2c_irq.error_handle = p_irq->error_handle;
 849              		.loc 1 409 46
 850 0062 3B68     		ldr	r3, [r7]
 851 0064 5A68     		ldr	r2, [r3, #4]
 852              		.loc 1 409 39
 853 0066 7B68     		ldr	r3, [r7, #4]
 854 0068 9A60     		str	r2, [r3, #8]
 410:../firmware/gd32f3x0_hal_peripheral/Source/gd32f3x0_hal_i2c.c ****         hals_i2c_interrupt_enable(i2c_dev->periph, I2C_INT_ERR);
 855              		.loc 1 410 9
 856 006a 7B68     		ldr	r3, [r7, #4]
 857 006c 1B68     		ldr	r3, [r3]
 858 006e 4FF48471 		mov	r1, #264
 859 0072 1846     		mov	r0, r3
 860 0074 FFF7FEFF 		bl	hals_i2c_interrupt_enable
 411:../firmware/gd32f3x0_hal_peripheral/Source/gd32f3x0_hal_i2c.c ****     } else {
 412:../firmware/gd32f3x0_hal_peripheral/Source/gd32f3x0_hal_i2c.c ****         i2c_dev->i2c_irq.error_handle = NULL;
 413:../firmware/gd32f3x0_hal_peripheral/Source/gd32f3x0_hal_i2c.c ****         hals_i2c_interrupt_disable(i2c_dev->periph, I2C_INT_ERR);
 414:../firmware/gd32f3x0_hal_peripheral/Source/gd32f3x0_hal_i2c.c ****     }
 415:../firmware/gd32f3x0_hal_peripheral/Source/gd32f3x0_hal_i2c.c **** }
 861              		.loc 1 415 1
 862 0078 09E0     		b	.L39
 863              	.L37:
 412:../firmware/gd32f3x0_hal_peripheral/Source/gd32f3x0_hal_i2c.c ****         hals_i2c_interrupt_disable(i2c_dev->periph, I2C_INT_ERR);
 864              		.loc 1 412 39
 865 007a 7B68     		ldr	r3, [r7, #4]
 866 007c 0022     		movs	r2, #0
 867 007e 9A60     		str	r2, [r3, #8]
 413:../firmware/gd32f3x0_hal_peripheral/Source/gd32f3x0_hal_i2c.c ****     }
 868              		.loc 1 413 9
 869 0080 7B68     		ldr	r3, [r7, #4]
 870 0082 1B68     		ldr	r3, [r3]
 871 0084 4FF48471 		mov	r1, #264
 872 0088 1846     		mov	r0, r3
 873 008a FFF7FEFF 		bl	hals_i2c_interrupt_disable
 874              	.L39:
 875              		.loc 1 415 1
 876 008e 00BF     		nop
 877 0090 0837     		adds	r7, r7, #8
 878              		.cfi_def_cfa_offset 8
 879 0092 BD46     		mov	sp, r7
 880              		.cfi_def_cfa_register 13
 881              		@ sp needed
 882 0094 80BD     		pop	{r7, pc}
 883              		.cfi_endproc
 884              	.LFE126:
 886              		.section	.text.hal_i2c_irq_handle_all_reset,"ax",%progbits
 887              		.align	1
 888              		.global	hal_i2c_irq_handle_all_reset
 889              		.syntax unified
 890              		.thumb
 891              		.thumb_func
 892              		.fpu softvfp
 894              	hal_i2c_irq_handle_all_reset:
 895              	.LFB127:
 416:../firmware/gd32f3x0_hal_peripheral/Source/gd32f3x0_hal_i2c.c **** 
 417:../firmware/gd32f3x0_hal_peripheral/Source/gd32f3x0_hal_i2c.c **** /*!
 418:../firmware/gd32f3x0_hal_peripheral/Source/gd32f3x0_hal_i2c.c ****     \brief      reset all user-defined interrupt callback function,
 419:../firmware/gd32f3x0_hal_peripheral/Source/gd32f3x0_hal_i2c.c ****                 which will be registered and called when corresponding interrupt be triggered
 420:../firmware/gd32f3x0_hal_peripheral/Source/gd32f3x0_hal_i2c.c ****     \param[in]  i2c_dev: I2C device information structrue
 421:../firmware/gd32f3x0_hal_peripheral/Source/gd32f3x0_hal_i2c.c ****                   the structure is not necessary to be reconfigured after structrue initialization,
 422:../firmware/gd32f3x0_hal_peripheral/Source/gd32f3x0_hal_i2c.c ****                   the structure parameters altering is automatically configured by core
 423:../firmware/gd32f3x0_hal_peripheral/Source/gd32f3x0_hal_i2c.c ****     \param[out] none
 424:../firmware/gd32f3x0_hal_peripheral/Source/gd32f3x0_hal_i2c.c ****     \retval     none
 425:../firmware/gd32f3x0_hal_peripheral/Source/gd32f3x0_hal_i2c.c **** */
 426:../firmware/gd32f3x0_hal_peripheral/Source/gd32f3x0_hal_i2c.c **** void hal_i2c_irq_handle_all_reset(hal_i2c_dev_struct *i2c_dev)
 427:../firmware/gd32f3x0_hal_peripheral/Source/gd32f3x0_hal_i2c.c **** {
 896              		.loc 1 427 1
 897              		.cfi_startproc
 898              		@ args = 0, pretend = 0, frame = 8
 899              		@ frame_needed = 1, uses_anonymous_args = 0
 900              		@ link register save eliminated.
 901 0000 80B4     		push	{r7}
 902              		.cfi_def_cfa_offset 4
 903              		.cfi_offset 7, -4
 904 0002 83B0     		sub	sp, sp, #12
 905              		.cfi_def_cfa_offset 16
 906 0004 00AF     		add	r7, sp, #0
 907              		.cfi_def_cfa_register 7
 908 0006 7860     		str	r0, [r7, #4]
 428:../firmware/gd32f3x0_hal_peripheral/Source/gd32f3x0_hal_i2c.c ****     /* configure interrupt callback function to NULL */
 429:../firmware/gd32f3x0_hal_peripheral/Source/gd32f3x0_hal_i2c.c ****     i2c_dev->i2c_irq.event_handle = NULL;
 909              		.loc 1 429 35
 910 0008 7B68     		ldr	r3, [r7, #4]
 911 000a 0022     		movs	r2, #0
 912 000c 5A60     		str	r2, [r3, #4]
 430:../firmware/gd32f3x0_hal_peripheral/Source/gd32f3x0_hal_i2c.c ****     i2c_dev->i2c_irq.error_handle = NULL;
 913              		.loc 1 430 35
 914 000e 7B68     		ldr	r3, [r7, #4]
 915 0010 0022     		movs	r2, #0
 916 0012 9A60     		str	r2, [r3, #8]
 431:../firmware/gd32f3x0_hal_peripheral/Source/gd32f3x0_hal_i2c.c **** }
 917              		.loc 1 431 1
 918 0014 00BF     		nop
 919 0016 0C37     		adds	r7, r7, #12
 920              		.cfi_def_cfa_offset 4
 921 0018 BD46     		mov	sp, r7
 922              		.cfi_def_cfa_register 13
 923              		@ sp needed
 924 001a 80BC     		pop	{r7}
 925              		.cfi_restore 7
 926              		.cfi_def_cfa_offset 0
 927 001c 7047     		bx	lr
 928              		.cfi_endproc
 929              	.LFE127:
 931              		.section	.text.hal_i2c_master_transmit_poll,"ax",%progbits
 932              		.align	1
 933              		.global	hal_i2c_master_transmit_poll
 934              		.syntax unified
 935              		.thumb
 936              		.thumb_func
 937              		.fpu softvfp
 939              	hal_i2c_master_transmit_poll:
 940              	.LFB128:
 432:../firmware/gd32f3x0_hal_peripheral/Source/gd32f3x0_hal_i2c.c **** 
 433:../firmware/gd32f3x0_hal_peripheral/Source/gd32f3x0_hal_i2c.c **** /*!
 434:../firmware/gd32f3x0_hal_peripheral/Source/gd32f3x0_hal_i2c.c ****     \brief      transmit amounts of data in master mode, poll transmit process and completed status
 435:../firmware/gd32f3x0_hal_peripheral/Source/gd32f3x0_hal_i2c.c ****                 the function is blocking
 436:../firmware/gd32f3x0_hal_peripheral/Source/gd32f3x0_hal_i2c.c ****     \param[in]  i2c_dev: I2C device information structrue
 437:../firmware/gd32f3x0_hal_peripheral/Source/gd32f3x0_hal_i2c.c ****                   the structure is not necessary to be reconfigured after structrue initialization,
 438:../firmware/gd32f3x0_hal_peripheral/Source/gd32f3x0_hal_i2c.c ****                   the structure parameters altering is automatically configured by core
 439:../firmware/gd32f3x0_hal_peripheral/Source/gd32f3x0_hal_i2c.c ****     \param[in]  p_buffer: pointer to txbuffer
 440:../firmware/gd32f3x0_hal_peripheral/Source/gd32f3x0_hal_i2c.c ****     \param[in]  length: length of data to be sent
 441:../firmware/gd32f3x0_hal_peripheral/Source/gd32f3x0_hal_i2c.c ****     \param[in]  timeout_ms: timeout duration
 442:../firmware/gd32f3x0_hal_peripheral/Source/gd32f3x0_hal_i2c.c ****     \param[out] none
 443:../firmware/gd32f3x0_hal_peripheral/Source/gd32f3x0_hal_i2c.c ****     \retval     error code: HAL_ERR_NONE, HAL_ERR_ADDRESS, HAL_ERR_TIMEOUT, HAL_ERR_BUSY,
 444:../firmware/gd32f3x0_hal_peripheral/Source/gd32f3x0_hal_i2c.c ****                 details refer to gd32f3x0_hal.h
 445:../firmware/gd32f3x0_hal_peripheral/Source/gd32f3x0_hal_i2c.c **** */
 446:../firmware/gd32f3x0_hal_peripheral/Source/gd32f3x0_hal_i2c.c **** int32_t hal_i2c_master_transmit_poll(hal_i2c_dev_struct *i2c_dev, uint8_t *p_buffer, \
 447:../firmware/gd32f3x0_hal_peripheral/Source/gd32f3x0_hal_i2c.c ****                                      uint32_t length, uint32_t timeout_ms)
 448:../firmware/gd32f3x0_hal_peripheral/Source/gd32f3x0_hal_i2c.c **** {
 941              		.loc 1 448 1
 942              		.cfi_startproc
 943              		@ args = 0, pretend = 0, frame = 24
 944              		@ frame_needed = 1, uses_anonymous_args = 0
 945 0000 80B5     		push	{r7, lr}
 946              		.cfi_def_cfa_offset 8
 947              		.cfi_offset 7, -8
 948              		.cfi_offset 14, -4
 949 0002 86B0     		sub	sp, sp, #24
 950              		.cfi_def_cfa_offset 32
 951 0004 00AF     		add	r7, sp, #0
 952              		.cfi_def_cfa_register 7
 953 0006 F860     		str	r0, [r7, #12]
 954 0008 B960     		str	r1, [r7, #8]
 955 000a 7A60     		str	r2, [r7, #4]
 956 000c 3B60     		str	r3, [r7]
 449:../firmware/gd32f3x0_hal_peripheral/Source/gd32f3x0_hal_i2c.c ****     uint32_t data_length;
 450:../firmware/gd32f3x0_hal_peripheral/Source/gd32f3x0_hal_i2c.c **** #if (1 == HAL_PARAMETER_CHECK)
 451:../firmware/gd32f3x0_hal_peripheral/Source/gd32f3x0_hal_i2c.c ****     /* check the parameters */
 452:../firmware/gd32f3x0_hal_peripheral/Source/gd32f3x0_hal_i2c.c ****     if((NULL == i2c_dev) || (NULL == p_buffer) || (0U == length)) {
 453:../firmware/gd32f3x0_hal_peripheral/Source/gd32f3x0_hal_i2c.c ****         HAL_DEBUGE("parameter [i2c_dev] or [p_buffer] or [length] value is invalid");
 454:../firmware/gd32f3x0_hal_peripheral/Source/gd32f3x0_hal_i2c.c ****         return HAL_ERR_ADDRESS;
 455:../firmware/gd32f3x0_hal_peripheral/Source/gd32f3x0_hal_i2c.c ****     }
 456:../firmware/gd32f3x0_hal_peripheral/Source/gd32f3x0_hal_i2c.c **** #endif /* 1 == HAL_PARAMETER_CHECK */
 457:../firmware/gd32f3x0_hal_peripheral/Source/gd32f3x0_hal_i2c.c **** 
 458:../firmware/gd32f3x0_hal_peripheral/Source/gd32f3x0_hal_i2c.c ****     HAL_LOCK(i2c_dev);
 957              		.loc 1 458 5
 958 000e FB68     		ldr	r3, [r7, #12]
 959 0010 93F85030 		ldrb	r3, [r3, #80]	@ zero_extendqisi2
 960 0014 012B     		cmp	r3, #1
 961 0016 02D1     		bne	.L42
 962              		.loc 1 458 5 is_stmt 0 discriminator 1
 963 0018 6FF00103 		mvn	r3, #1
 964 001c 7FE0     		b	.L43
 965              	.L42:
 966              		.loc 1 458 5 discriminator 2
 967 001e FB68     		ldr	r3, [r7, #12]
 968 0020 0122     		movs	r2, #1
 969 0022 83F85020 		strb	r2, [r3, #80]
 459:../firmware/gd32f3x0_hal_peripheral/Source/gd32f3x0_hal_i2c.c ****     /* check the tx_state whether it is busy or not */
 460:../firmware/gd32f3x0_hal_peripheral/Source/gd32f3x0_hal_i2c.c ****     if(HAL_I2C_STATE_BUSY == i2c_dev->tx_state) {
 970              		.loc 1 460 37 is_stmt 1 discriminator 2
 971 0026 FB68     		ldr	r3, [r7, #12]
 972 0028 93F84030 		ldrb	r3, [r3, #64]
 973 002c DBB2     		uxtb	r3, r3
 974              		.loc 1 460 7 discriminator 2
 975 002e 012B     		cmp	r3, #1
 976 0030 02D1     		bne	.L44
 461:../firmware/gd32f3x0_hal_peripheral/Source/gd32f3x0_hal_i2c.c ****         HAL_DEBUGE("i2c tx has already been used, please wait until run_state change to free ");
 462:../firmware/gd32f3x0_hal_peripheral/Source/gd32f3x0_hal_i2c.c ****         return HAL_ERR_BUSY;
 977              		.loc 1 462 16
 978 0032 6FF00203 		mvn	r3, #2
 979 0036 72E0     		b	.L43
 980              	.L44:
 463:../firmware/gd32f3x0_hal_peripheral/Source/gd32f3x0_hal_i2c.c ****     }
 464:../firmware/gd32f3x0_hal_peripheral/Source/gd32f3x0_hal_i2c.c **** 
 465:../firmware/gd32f3x0_hal_peripheral/Source/gd32f3x0_hal_i2c.c ****     /* initialize transmit parameters */
 466:../firmware/gd32f3x0_hal_peripheral/Source/gd32f3x0_hal_i2c.c ****     i2c_dev->txbuffer.buffer = (uint8_t *)p_buffer;
 981              		.loc 1 466 30
 982 0038 FB68     		ldr	r3, [r7, #12]
 983 003a BA68     		ldr	r2, [r7, #8]
 984 003c 5A61     		str	r2, [r3, #20]
 467:../firmware/gd32f3x0_hal_peripheral/Source/gd32f3x0_hal_i2c.c ****     i2c_dev->txbuffer.length = length;
 985              		.loc 1 467 30
 986 003e FB68     		ldr	r3, [r7, #12]
 987 0040 7A68     		ldr	r2, [r7, #4]
 988 0042 9A61     		str	r2, [r3, #24]
 468:../firmware/gd32f3x0_hal_peripheral/Source/gd32f3x0_hal_i2c.c ****     i2c_dev->txbuffer.pos = 0;
 989              		.loc 1 468 27
 990 0044 FB68     		ldr	r3, [r7, #12]
 991 0046 0022     		movs	r2, #0
 992 0048 DA61     		str	r2, [r3, #28]
 469:../firmware/gd32f3x0_hal_peripheral/Source/gd32f3x0_hal_i2c.c ****     data_length = i2c_dev->txbuffer.length;
 993              		.loc 1 469 17
 994 004a FB68     		ldr	r3, [r7, #12]
 995 004c 9B69     		ldr	r3, [r3, #24]
 996 004e 7B61     		str	r3, [r7, #20]
 470:../firmware/gd32f3x0_hal_peripheral/Source/gd32f3x0_hal_i2c.c **** 
 471:../firmware/gd32f3x0_hal_peripheral/Source/gd32f3x0_hal_i2c.c ****     /* wait until I2C bus is idle */
 472:../firmware/gd32f3x0_hal_peripheral/Source/gd32f3x0_hal_i2c.c ****     if(HAL_ERR_NONE != _i2c_wait_flag_timeout(i2c_dev->periph, I2C_FLAG_I2CBSY, RESET, timeout_ms))
 997              		.loc 1 472 24
 998 0050 FB68     		ldr	r3, [r7, #12]
 999 0052 1868     		ldr	r0, [r3]
 1000 0054 3B68     		ldr	r3, [r7]
 1001 0056 0022     		movs	r2, #0
 1002 0058 40F20161 		movw	r1, #1537
 1003 005c FFF7FEFF 		bl	_i2c_wait_flag_timeout
 1004 0060 0346     		mov	r3, r0
 1005              		.loc 1 472 7
 1006 0062 002B     		cmp	r3, #0
 1007 0064 02D0     		beq	.L45
 473:../firmware/gd32f3x0_hal_peripheral/Source/gd32f3x0_hal_i2c.c ****         HAL_DEBUGW("i2c busy timeout");
 474:../firmware/gd32f3x0_hal_peripheral/Source/gd32f3x0_hal_i2c.c ****         return HAL_ERR_TIMEOUT;
 1008              		.loc 1 474 16
 1009 0066 6FF00403 		mvn	r3, #4
 1010 006a 58E0     		b	.L43
 1011              	.L45:
 475:../firmware/gd32f3x0_hal_peripheral/Source/gd32f3x0_hal_i2c.c ****     }
 476:../firmware/gd32f3x0_hal_peripheral/Source/gd32f3x0_hal_i2c.c **** 
 477:../firmware/gd32f3x0_hal_peripheral/Source/gd32f3x0_hal_i2c.c ****     i2c_dev->tx_state = HAL_I2C_STATE_BUSY;
 1012              		.loc 1 477 23
 1013 006c FB68     		ldr	r3, [r7, #12]
 1014 006e 0122     		movs	r2, #1
 1015 0070 83F84020 		strb	r2, [r3, #64]
 478:../firmware/gd32f3x0_hal_peripheral/Source/gd32f3x0_hal_i2c.c ****     i2c_dev->error_state = HAL_I2C_ERROR_NONE;
 1016              		.loc 1 478 26
 1017 0074 FB68     		ldr	r3, [r7, #12]
 1018 0076 0022     		movs	r2, #0
 1019 0078 DA63     		str	r2, [r3, #60]
 479:../firmware/gd32f3x0_hal_peripheral/Source/gd32f3x0_hal_i2c.c ****     /* master sends device address for write request */
 480:../firmware/gd32f3x0_hal_peripheral/Source/gd32f3x0_hal_i2c.c ****     if(HAL_ERR_NONE != _i2c_master_write(i2c_dev, timeout_ms)) {
 1020              		.loc 1 480 24
 1021 007a 3968     		ldr	r1, [r7]
 1022 007c F868     		ldr	r0, [r7, #12]
 1023 007e FFF7FEFF 		bl	_i2c_master_write
 1024 0082 0346     		mov	r3, r0
 1025              		.loc 1 480 7
 1026 0084 002B     		cmp	r3, #0
 1027 0086 02D0     		beq	.L46
 481:../firmware/gd32f3x0_hal_peripheral/Source/gd32f3x0_hal_i2c.c ****         return HAL_ERR_TIMEOUT;
 1028              		.loc 1 481 16
 1029 0088 6FF00403 		mvn	r3, #4
 1030 008c 47E0     		b	.L43
 1031              	.L46:
 482:../firmware/gd32f3x0_hal_peripheral/Source/gd32f3x0_hal_i2c.c ****     }
 483:../firmware/gd32f3x0_hal_peripheral/Source/gd32f3x0_hal_i2c.c ****     /* clear ADDSEND bit */
 484:../firmware/gd32f3x0_hal_peripheral/Source/gd32f3x0_hal_i2c.c ****     hals_i2c_flag_clear(i2c_dev->periph, I2C_FLAG_ADDSEND);
 1032              		.loc 1 484 5
 1033 008e FB68     		ldr	r3, [r7, #12]
 1034 0090 1B68     		ldr	r3, [r3]
 1035 0092 40F20151 		movw	r1, #1281
 1036 0096 1846     		mov	r0, r3
 1037 0098 FFF7FEFF 		bl	hals_i2c_flag_clear
 485:../firmware/gd32f3x0_hal_peripheral/Source/gd32f3x0_hal_i2c.c ****     while(i2c_dev->txbuffer.pos < data_length) {
 1038              		.loc 1 485 10
 1039 009c 21E0     		b	.L47
 1040              	.L49:
 486:../firmware/gd32f3x0_hal_peripheral/Source/gd32f3x0_hal_i2c.c ****         /* wait until the transmission data register is empty */
 487:../firmware/gd32f3x0_hal_peripheral/Source/gd32f3x0_hal_i2c.c ****         if(HAL_ERR_NONE != _i2c_wait_flag_timeout(i2c_dev->periph, I2C_FLAG_TBE, SET, timeout_ms)) 
 1041              		.loc 1 487 28
 1042 009e FB68     		ldr	r3, [r7, #12]
 1043 00a0 1868     		ldr	r0, [r3]
 1044 00a2 3B68     		ldr	r3, [r7]
 1045 00a4 0122     		movs	r2, #1
 1046 00a6 40F20751 		movw	r1, #1287
 1047 00aa FFF7FEFF 		bl	_i2c_wait_flag_timeout
 1048 00ae 0346     		mov	r3, r0
 1049              		.loc 1 487 11
 1050 00b0 002B     		cmp	r3, #0
 1051 00b2 02D0     		beq	.L48
 488:../firmware/gd32f3x0_hal_peripheral/Source/gd32f3x0_hal_i2c.c ****             HAL_DEBUGW("i2c get TBE timeout");
 489:../firmware/gd32f3x0_hal_peripheral/Source/gd32f3x0_hal_i2c.c ****             return HAL_ERR_TIMEOUT;
 1052              		.loc 1 489 20
 1053 00b4 6FF00403 		mvn	r3, #4
 1054 00b8 31E0     		b	.L43
 1055              	.L48:
 490:../firmware/gd32f3x0_hal_peripheral/Source/gd32f3x0_hal_i2c.c ****         }
 491:../firmware/gd32f3x0_hal_peripheral/Source/gd32f3x0_hal_i2c.c ****         hals_i2c_data_transmit(i2c_dev->periph, *i2c_dev->txbuffer.buffer);
 1056              		.loc 1 491 9
 1057 00ba FB68     		ldr	r3, [r7, #12]
 1058 00bc 1A68     		ldr	r2, [r3]
 1059              		.loc 1 491 67
 1060 00be FB68     		ldr	r3, [r7, #12]
 1061 00c0 5B69     		ldr	r3, [r3, #20]
 1062              		.loc 1 491 9
 1063 00c2 1B78     		ldrb	r3, [r3]
 1064 00c4 DBB2     		uxtb	r3, r3
 1065 00c6 1946     		mov	r1, r3
 1066 00c8 1046     		mov	r0, r2
 1067 00ca FFF7FEFF 		bl	hals_i2c_data_transmit
 492:../firmware/gd32f3x0_hal_peripheral/Source/gd32f3x0_hal_i2c.c ****         i2c_dev->txbuffer.buffer++;
 1068              		.loc 1 492 26
 1069 00ce FB68     		ldr	r3, [r7, #12]
 1070 00d0 5B69     		ldr	r3, [r3, #20]
 1071              		.loc 1 492 33
 1072 00d2 5A1C     		adds	r2, r3, #1
 1073 00d4 FB68     		ldr	r3, [r7, #12]
 1074 00d6 5A61     		str	r2, [r3, #20]
 493:../firmware/gd32f3x0_hal_peripheral/Source/gd32f3x0_hal_i2c.c ****         i2c_dev->txbuffer.pos++;
 1075              		.loc 1 493 26
 1076 00d8 FB68     		ldr	r3, [r7, #12]
 1077 00da DB69     		ldr	r3, [r3, #28]
 1078              		.loc 1 493 30
 1079 00dc 5A1C     		adds	r2, r3, #1
 1080 00de FB68     		ldr	r3, [r7, #12]
 1081 00e0 DA61     		str	r2, [r3, #28]
 1082              	.L47:
 485:../firmware/gd32f3x0_hal_peripheral/Source/gd32f3x0_hal_i2c.c ****         /* wait until the transmission data register is empty */
 1083              		.loc 1 485 28
 1084 00e2 FB68     		ldr	r3, [r7, #12]
 1085 00e4 DB69     		ldr	r3, [r3, #28]
 485:../firmware/gd32f3x0_hal_peripheral/Source/gd32f3x0_hal_i2c.c ****         /* wait until the transmission data register is empty */
 1086              		.loc 1 485 10
 1087 00e6 7A69     		ldr	r2, [r7, #20]
 1088 00e8 9A42     		cmp	r2, r3
 1089 00ea D8D8     		bhi	.L49
 494:../firmware/gd32f3x0_hal_peripheral/Source/gd32f3x0_hal_i2c.c ****     }
 495:../firmware/gd32f3x0_hal_peripheral/Source/gd32f3x0_hal_i2c.c ****     /* send a stop condition to I2C bus */
 496:../firmware/gd32f3x0_hal_peripheral/Source/gd32f3x0_hal_i2c.c ****     HAL_I2C_STOP_ON_BUS(i2c_dev->periph);
 1090              		.loc 1 496 5
 1091 00ec FB68     		ldr	r3, [r7, #12]
 1092 00ee 1B68     		ldr	r3, [r3]
 1093 00f0 1B68     		ldr	r3, [r3]
 1094 00f2 FA68     		ldr	r2, [r7, #12]
 1095 00f4 1268     		ldr	r2, [r2]
 1096 00f6 43F40073 		orr	r3, r3, #512
 1097 00fa 1360     		str	r3, [r2]
 497:../firmware/gd32f3x0_hal_peripheral/Source/gd32f3x0_hal_i2c.c ****     while(I2C_CTL0(i2c_dev->periph) & 0x0200);
 1098              		.loc 1 497 10
 1099 00fc 00BF     		nop
 1100              	.L50:
 1101              		.loc 1 497 11 discriminator 1
 1102 00fe FB68     		ldr	r3, [r7, #12]
 1103 0100 1B68     		ldr	r3, [r3]
 1104 0102 1B68     		ldr	r3, [r3]
 1105              		.loc 1 497 37 discriminator 1
 1106 0104 03F40073 		and	r3, r3, #512
 1107              		.loc 1 497 10 discriminator 1
 1108 0108 002B     		cmp	r3, #0
 1109 010a F8D1     		bne	.L50
 498:../firmware/gd32f3x0_hal_peripheral/Source/gd32f3x0_hal_i2c.c ****     i2c_dev->tx_state = HAL_I2C_STATE_READY;
 1110              		.loc 1 498 23
 1111 010c FB68     		ldr	r3, [r7, #12]
 1112 010e 0022     		movs	r2, #0
 1113 0110 83F84020 		strb	r2, [r3, #64]
 499:../firmware/gd32f3x0_hal_peripheral/Source/gd32f3x0_hal_i2c.c **** 
 500:../firmware/gd32f3x0_hal_peripheral/Source/gd32f3x0_hal_i2c.c ****     HAL_UNLOCK(i2c_dev);
 1114              		.loc 1 500 5
 1115 0114 FB68     		ldr	r3, [r7, #12]
 1116 0116 0022     		movs	r2, #0
 1117 0118 83F85020 		strb	r2, [r3, #80]
 501:../firmware/gd32f3x0_hal_peripheral/Source/gd32f3x0_hal_i2c.c ****     return HAL_ERR_NONE;
 1118              		.loc 1 501 12
 1119 011c 0023     		movs	r3, #0
 1120              	.L43:
 502:../firmware/gd32f3x0_hal_peripheral/Source/gd32f3x0_hal_i2c.c **** }
 1121              		.loc 1 502 1
 1122 011e 1846     		mov	r0, r3
 1123 0120 1837     		adds	r7, r7, #24
 1124              		.cfi_def_cfa_offset 8
 1125 0122 BD46     		mov	sp, r7
 1126              		.cfi_def_cfa_register 13
 1127              		@ sp needed
 1128 0124 80BD     		pop	{r7, pc}
 1129              		.cfi_endproc
 1130              	.LFE128:
 1132              		.section	.text.hal_i2c_master_receive_poll,"ax",%progbits
 1133              		.align	1
 1134              		.global	hal_i2c_master_receive_poll
 1135              		.syntax unified
 1136              		.thumb
 1137              		.thumb_func
 1138              		.fpu softvfp
 1140              	hal_i2c_master_receive_poll:
 1141              	.LFB129:
 503:../firmware/gd32f3x0_hal_peripheral/Source/gd32f3x0_hal_i2c.c **** 
 504:../firmware/gd32f3x0_hal_peripheral/Source/gd32f3x0_hal_i2c.c **** /*!
 505:../firmware/gd32f3x0_hal_peripheral/Source/gd32f3x0_hal_i2c.c ****     \brief      receive amounts of data in master mode, poll receive process and completed
 506:../firmware/gd32f3x0_hal_peripheral/Source/gd32f3x0_hal_i2c.c ****                 status, the function is blocking
 507:../firmware/gd32f3x0_hal_peripheral/Source/gd32f3x0_hal_i2c.c ****     \param[in]  i2c_dev: I2C device information structrue
 508:../firmware/gd32f3x0_hal_peripheral/Source/gd32f3x0_hal_i2c.c ****                   the structure is not necessary to be reconfigured after structrue initialization,
 509:../firmware/gd32f3x0_hal_peripheral/Source/gd32f3x0_hal_i2c.c ****                   the structure parameters altering is automatically configured by core
 510:../firmware/gd32f3x0_hal_peripheral/Source/gd32f3x0_hal_i2c.c ****     \param[in]  p_buffer: pointer to rxbuffer
 511:../firmware/gd32f3x0_hal_peripheral/Source/gd32f3x0_hal_i2c.c ****     \param[in]  length: length of data to be read
 512:../firmware/gd32f3x0_hal_peripheral/Source/gd32f3x0_hal_i2c.c ****     \param[in]  timeout_ms: timeout duration
 513:../firmware/gd32f3x0_hal_peripheral/Source/gd32f3x0_hal_i2c.c ****     \param[out] none
 514:../firmware/gd32f3x0_hal_peripheral/Source/gd32f3x0_hal_i2c.c ****     \retval     error code: HAL_ERR_NONE, HAL_ERR_ADDRESS, HAL_ERR_TIMEOUT, HAL_ERR_BUSY,
 515:../firmware/gd32f3x0_hal_peripheral/Source/gd32f3x0_hal_i2c.c ****                 details refer to gd32f3x0_hal.h
 516:../firmware/gd32f3x0_hal_peripheral/Source/gd32f3x0_hal_i2c.c **** */
 517:../firmware/gd32f3x0_hal_peripheral/Source/gd32f3x0_hal_i2c.c **** int32_t hal_i2c_master_receive_poll(hal_i2c_dev_struct *i2c_dev, uint8_t *p_buffer, \
 518:../firmware/gd32f3x0_hal_peripheral/Source/gd32f3x0_hal_i2c.c ****                                     uint32_t length, uint32_t timeout_ms)
 519:../firmware/gd32f3x0_hal_peripheral/Source/gd32f3x0_hal_i2c.c **** {
 1142              		.loc 1 519 1
 1143              		.cfi_startproc
 1144              		@ args = 0, pretend = 0, frame = 16
 1145              		@ frame_needed = 1, uses_anonymous_args = 0
 1146 0000 90B5     		push	{r4, r7, lr}
 1147              		.cfi_def_cfa_offset 12
 1148              		.cfi_offset 4, -12
 1149              		.cfi_offset 7, -8
 1150              		.cfi_offset 14, -4
 1151 0002 85B0     		sub	sp, sp, #20
 1152              		.cfi_def_cfa_offset 32
 1153 0004 00AF     		add	r7, sp, #0
 1154              		.cfi_def_cfa_register 7
 1155 0006 F860     		str	r0, [r7, #12]
 1156 0008 B960     		str	r1, [r7, #8]
 1157 000a 7A60     		str	r2, [r7, #4]
 1158 000c 3B60     		str	r3, [r7]
 520:../firmware/gd32f3x0_hal_peripheral/Source/gd32f3x0_hal_i2c.c **** #if (1 == HAL_PARAMETER_CHECK)
 521:../firmware/gd32f3x0_hal_peripheral/Source/gd32f3x0_hal_i2c.c ****     /* check the parameters */
 522:../firmware/gd32f3x0_hal_peripheral/Source/gd32f3x0_hal_i2c.c ****     if((NULL == i2c_dev) || (NULL == p_buffer) || (0U == length)) {
 523:../firmware/gd32f3x0_hal_peripheral/Source/gd32f3x0_hal_i2c.c ****         HAL_DEBUGE("parameter [i2c_dev] or [p_buffer] or [length] value is invalid");
 524:../firmware/gd32f3x0_hal_peripheral/Source/gd32f3x0_hal_i2c.c ****         return HAL_ERR_ADDRESS;
 525:../firmware/gd32f3x0_hal_peripheral/Source/gd32f3x0_hal_i2c.c ****     }
 526:../firmware/gd32f3x0_hal_peripheral/Source/gd32f3x0_hal_i2c.c **** #endif /* 1 == HAL_PARAMETER_CHECK */
 527:../firmware/gd32f3x0_hal_peripheral/Source/gd32f3x0_hal_i2c.c **** 
 528:../firmware/gd32f3x0_hal_peripheral/Source/gd32f3x0_hal_i2c.c ****     HAL_LOCK(i2c_dev);
 1159              		.loc 1 528 5
 1160 000e FB68     		ldr	r3, [r7, #12]
 1161 0010 93F85030 		ldrb	r3, [r3, #80]	@ zero_extendqisi2
 1162 0014 012B     		cmp	r3, #1
 1163 0016 02D1     		bne	.L52
 1164              		.loc 1 528 5 is_stmt 0 discriminator 1
 1165 0018 6FF00103 		mvn	r3, #1
 1166 001c A5E1     		b	.L53
 1167              	.L52:
 1168              		.loc 1 528 5 discriminator 2
 1169 001e FB68     		ldr	r3, [r7, #12]
 1170 0020 0122     		movs	r2, #1
 1171 0022 83F85020 		strb	r2, [r3, #80]
 529:../firmware/gd32f3x0_hal_peripheral/Source/gd32f3x0_hal_i2c.c ****     /* check the rx_state whether it is busy or not */
 530:../firmware/gd32f3x0_hal_peripheral/Source/gd32f3x0_hal_i2c.c ****     if(HAL_I2C_STATE_BUSY == i2c_dev->rx_state) {
 1172              		.loc 1 530 37 is_stmt 1 discriminator 2
 1173 0026 FB68     		ldr	r3, [r7, #12]
 1174 0028 93F84130 		ldrb	r3, [r3, #65]
 1175 002c DBB2     		uxtb	r3, r3
 1176              		.loc 1 530 7 discriminator 2
 1177 002e 012B     		cmp	r3, #1
 1178 0030 02D1     		bne	.L54
 531:../firmware/gd32f3x0_hal_peripheral/Source/gd32f3x0_hal_i2c.c ****         HAL_DEBUGE("i2c rx has already been used, please wait until run_state change to free ");
 532:../firmware/gd32f3x0_hal_peripheral/Source/gd32f3x0_hal_i2c.c ****         return HAL_ERR_BUSY;
 1179              		.loc 1 532 16
 1180 0032 6FF00203 		mvn	r3, #2
 1181 0036 98E1     		b	.L53
 1182              	.L54:
 533:../firmware/gd32f3x0_hal_peripheral/Source/gd32f3x0_hal_i2c.c ****     }
 534:../firmware/gd32f3x0_hal_peripheral/Source/gd32f3x0_hal_i2c.c **** 
 535:../firmware/gd32f3x0_hal_peripheral/Source/gd32f3x0_hal_i2c.c ****     /* initialize receive parameters */
 536:../firmware/gd32f3x0_hal_peripheral/Source/gd32f3x0_hal_i2c.c ****     i2c_dev->rxbuffer.buffer = (uint8_t *)p_buffer;
 1183              		.loc 1 536 30
 1184 0038 FB68     		ldr	r3, [r7, #12]
 1185 003a BA68     		ldr	r2, [r7, #8]
 1186 003c 1A62     		str	r2, [r3, #32]
 537:../firmware/gd32f3x0_hal_peripheral/Source/gd32f3x0_hal_i2c.c ****     i2c_dev->rxbuffer.length = length;
 1187              		.loc 1 537 30
 1188 003e FB68     		ldr	r3, [r7, #12]
 1189 0040 7A68     		ldr	r2, [r7, #4]
 1190 0042 5A62     		str	r2, [r3, #36]
 538:../firmware/gd32f3x0_hal_peripheral/Source/gd32f3x0_hal_i2c.c ****     i2c_dev->rxbuffer.pos = 0;
 1191              		.loc 1 538 27
 1192 0044 FB68     		ldr	r3, [r7, #12]
 1193 0046 0022     		movs	r2, #0
 1194 0048 9A62     		str	r2, [r3, #40]
 539:../firmware/gd32f3x0_hal_peripheral/Source/gd32f3x0_hal_i2c.c **** 
 540:../firmware/gd32f3x0_hal_peripheral/Source/gd32f3x0_hal_i2c.c ****     /* wait until I2C bus is idle */
 541:../firmware/gd32f3x0_hal_peripheral/Source/gd32f3x0_hal_i2c.c ****     if(HAL_ERR_NONE != _i2c_wait_flag_timeout(i2c_dev->periph, I2C_FLAG_I2CBSY, RESET, timeout_ms))
 1195              		.loc 1 541 24
 1196 004a FB68     		ldr	r3, [r7, #12]
 1197 004c 1868     		ldr	r0, [r3]
 1198 004e 3B68     		ldr	r3, [r7]
 1199 0050 0022     		movs	r2, #0
 1200 0052 40F20161 		movw	r1, #1537
 1201 0056 FFF7FEFF 		bl	_i2c_wait_flag_timeout
 1202 005a 0346     		mov	r3, r0
 1203              		.loc 1 541 7
 1204 005c 002B     		cmp	r3, #0
 1205 005e 02D0     		beq	.L55
 542:../firmware/gd32f3x0_hal_peripheral/Source/gd32f3x0_hal_i2c.c ****         HAL_DEBUGW("i2c busy timeout");
 543:../firmware/gd32f3x0_hal_peripheral/Source/gd32f3x0_hal_i2c.c ****         return HAL_ERR_TIMEOUT;
 1206              		.loc 1 543 16
 1207 0060 6FF00403 		mvn	r3, #4
 1208 0064 81E1     		b	.L53
 1209              	.L55:
 544:../firmware/gd32f3x0_hal_peripheral/Source/gd32f3x0_hal_i2c.c ****     }
 545:../firmware/gd32f3x0_hal_peripheral/Source/gd32f3x0_hal_i2c.c **** 
 546:../firmware/gd32f3x0_hal_peripheral/Source/gd32f3x0_hal_i2c.c ****     i2c_dev->rx_state = HAL_I2C_STATE_BUSY;
 1210              		.loc 1 546 23
 1211 0066 FB68     		ldr	r3, [r7, #12]
 1212 0068 0122     		movs	r2, #1
 1213 006a 83F84120 		strb	r2, [r3, #65]
 547:../firmware/gd32f3x0_hal_peripheral/Source/gd32f3x0_hal_i2c.c ****     i2c_dev->last_error = HAL_I2C_ERROR_NONE;
 1214              		.loc 1 547 25
 1215 006e FB68     		ldr	r3, [r7, #12]
 1216 0070 0022     		movs	r2, #0
 1217 0072 5A87     		strh	r2, [r3, #58]	@ movhi
 548:../firmware/gd32f3x0_hal_peripheral/Source/gd32f3x0_hal_i2c.c ****     /* master sends device address for read request */
 549:../firmware/gd32f3x0_hal_peripheral/Source/gd32f3x0_hal_i2c.c ****     if(HAL_ERR_NONE != _i2c_master_read(i2c_dev, timeout_ms)) {
 1218              		.loc 1 549 24
 1219 0074 3968     		ldr	r1, [r7]
 1220 0076 F868     		ldr	r0, [r7, #12]
 1221 0078 FFF7FEFF 		bl	_i2c_master_read
 1222 007c 0346     		mov	r3, r0
 1223              		.loc 1 549 7
 1224 007e 002B     		cmp	r3, #0
 1225 0080 02D0     		beq	.L56
 550:../firmware/gd32f3x0_hal_peripheral/Source/gd32f3x0_hal_i2c.c ****         return HAL_ERR_TIMEOUT;
 1226              		.loc 1 550 16
 1227 0082 6FF00403 		mvn	r3, #4
 1228 0086 70E1     		b	.L53
 1229              	.L56:
 551:../firmware/gd32f3x0_hal_peripheral/Source/gd32f3x0_hal_i2c.c ****     }
 552:../firmware/gd32f3x0_hal_peripheral/Source/gd32f3x0_hal_i2c.c ****     if(1 == i2c_dev->rxbuffer.length) {
 1230              		.loc 1 552 30
 1231 0088 FB68     		ldr	r3, [r7, #12]
 1232 008a 5B6A     		ldr	r3, [r3, #36]
 1233              		.loc 1 552 7
 1234 008c 012B     		cmp	r3, #1
 1235 008e 15D1     		bne	.L57
 553:../firmware/gd32f3x0_hal_peripheral/Source/gd32f3x0_hal_i2c.c ****         /* disable acknowledge */
 554:../firmware/gd32f3x0_hal_peripheral/Source/gd32f3x0_hal_i2c.c ****         hals_i2c_ack_config(i2c_dev->periph, I2C_ACK_DISABLE);
 1236              		.loc 1 554 9
 1237 0090 FB68     		ldr	r3, [r7, #12]
 1238 0092 1B68     		ldr	r3, [r3]
 1239 0094 0021     		movs	r1, #0
 1240 0096 1846     		mov	r0, r3
 1241 0098 FFF7FEFF 		bl	hals_i2c_ack_config
 555:../firmware/gd32f3x0_hal_peripheral/Source/gd32f3x0_hal_i2c.c ****         /* clear ADDSEND bit */
 556:../firmware/gd32f3x0_hal_peripheral/Source/gd32f3x0_hal_i2c.c ****         hals_i2c_flag_clear(i2c_dev->periph, I2C_FLAG_ADDSEND);
 1242              		.loc 1 556 9
 1243 009c FB68     		ldr	r3, [r7, #12]
 1244 009e 1B68     		ldr	r3, [r3]
 1245 00a0 40F20151 		movw	r1, #1281
 1246 00a4 1846     		mov	r0, r3
 1247 00a6 FFF7FEFF 		bl	hals_i2c_flag_clear
 557:../firmware/gd32f3x0_hal_peripheral/Source/gd32f3x0_hal_i2c.c ****         /* send a stop condition to I2C bus*/
 558:../firmware/gd32f3x0_hal_peripheral/Source/gd32f3x0_hal_i2c.c ****         HAL_I2C_STOP_ON_BUS(i2c_dev->periph);
 1248              		.loc 1 558 9
 1249 00aa FB68     		ldr	r3, [r7, #12]
 1250 00ac 1B68     		ldr	r3, [r3]
 1251 00ae 1B68     		ldr	r3, [r3]
 1252 00b0 FA68     		ldr	r2, [r7, #12]
 1253 00b2 1268     		ldr	r2, [r2]
 1254 00b4 43F40073 		orr	r3, r3, #512
 1255 00b8 1360     		str	r3, [r2]
 1256 00ba 48E1     		b	.L60
 1257              	.L57:
 559:../firmware/gd32f3x0_hal_peripheral/Source/gd32f3x0_hal_i2c.c ****     } else if(2 == i2c_dev->rxbuffer.length) {
 1258              		.loc 1 559 37
 1259 00bc FB68     		ldr	r3, [r7, #12]
 1260 00be 5B6A     		ldr	r3, [r3, #36]
 1261              		.loc 1 559 14
 1262 00c0 022B     		cmp	r3, #2
 1263 00c2 14D1     		bne	.L59
 560:../firmware/gd32f3x0_hal_peripheral/Source/gd32f3x0_hal_i2c.c ****         /* send a NACK for the next data byte which will be received into the shift register */
 561:../firmware/gd32f3x0_hal_peripheral/Source/gd32f3x0_hal_i2c.c ****         hals_i2c_ackpos_config(i2c_dev->periph, I2C_ACKPOS_NEXT);
 1264              		.loc 1 561 9
 1265 00c4 FB68     		ldr	r3, [r7, #12]
 1266 00c6 1B68     		ldr	r3, [r3]
 1267 00c8 4FF40061 		mov	r1, #2048
 1268 00cc 1846     		mov	r0, r3
 1269 00ce FFF7FEFF 		bl	hals_i2c_ackpos_config
 562:../firmware/gd32f3x0_hal_peripheral/Source/gd32f3x0_hal_i2c.c ****         /* disable acknowledge */
 563:../firmware/gd32f3x0_hal_peripheral/Source/gd32f3x0_hal_i2c.c ****         hals_i2c_ack_config(i2c_dev->periph, I2C_ACK_DISABLE);
 1270              		.loc 1 563 9
 1271 00d2 FB68     		ldr	r3, [r7, #12]
 1272 00d4 1B68     		ldr	r3, [r3]
 1273 00d6 0021     		movs	r1, #0
 1274 00d8 1846     		mov	r0, r3
 1275 00da FFF7FEFF 		bl	hals_i2c_ack_config
 564:../firmware/gd32f3x0_hal_peripheral/Source/gd32f3x0_hal_i2c.c ****         /* clear ADDSEND bit */
 565:../firmware/gd32f3x0_hal_peripheral/Source/gd32f3x0_hal_i2c.c ****         hals_i2c_flag_clear(i2c_dev->periph, I2C_FLAG_ADDSEND);
 1276              		.loc 1 565 9
 1277 00de FB68     		ldr	r3, [r7, #12]
 1278 00e0 1B68     		ldr	r3, [r3]
 1279 00e2 40F20151 		movw	r1, #1281
 1280 00e6 1846     		mov	r0, r3
 1281 00e8 FFF7FEFF 		bl	hals_i2c_flag_clear
 1282 00ec 2FE1     		b	.L60
 1283              	.L59:
 566:../firmware/gd32f3x0_hal_peripheral/Source/gd32f3x0_hal_i2c.c ****     } else {
 567:../firmware/gd32f3x0_hal_peripheral/Source/gd32f3x0_hal_i2c.c ****         /* enable acknowledge */
 568:../firmware/gd32f3x0_hal_peripheral/Source/gd32f3x0_hal_i2c.c ****         hals_i2c_ack_config(i2c_dev->periph, I2C_ACK_ENABLE);
 1284              		.loc 1 568 9
 1285 00ee FB68     		ldr	r3, [r7, #12]
 1286 00f0 1B68     		ldr	r3, [r3]
 1287 00f2 4FF48061 		mov	r1, #1024
 1288 00f6 1846     		mov	r0, r3
 1289 00f8 FFF7FEFF 		bl	hals_i2c_ack_config
 569:../firmware/gd32f3x0_hal_peripheral/Source/gd32f3x0_hal_i2c.c ****         /* clear ADDSEND bit */
 570:../firmware/gd32f3x0_hal_peripheral/Source/gd32f3x0_hal_i2c.c ****         hals_i2c_flag_clear(i2c_dev->periph, I2C_FLAG_ADDSEND);
 1290              		.loc 1 570 9
 1291 00fc FB68     		ldr	r3, [r7, #12]
 1292 00fe 1B68     		ldr	r3, [r3]
 1293 0100 40F20151 		movw	r1, #1281
 1294 0104 1846     		mov	r0, r3
 1295 0106 FFF7FEFF 		bl	hals_i2c_flag_clear
 571:../firmware/gd32f3x0_hal_peripheral/Source/gd32f3x0_hal_i2c.c ****     }
 572:../firmware/gd32f3x0_hal_peripheral/Source/gd32f3x0_hal_i2c.c ****     while(i2c_dev->rxbuffer.length > 0) {
 1296              		.loc 1 572 10
 1297 010a 20E1     		b	.L60
 1298              	.L72:
 573:../firmware/gd32f3x0_hal_peripheral/Source/gd32f3x0_hal_i2c.c ****         if(i2c_dev->rxbuffer.length <= 3) {
 1299              		.loc 1 573 29
 1300 010c FB68     		ldr	r3, [r7, #12]
 1301 010e 5B6A     		ldr	r3, [r3, #36]
 1302              		.loc 1 573 11
 1303 0110 032B     		cmp	r3, #3
 1304 0112 00F2FB80 		bhi	.L61
 574:../firmware/gd32f3x0_hal_peripheral/Source/gd32f3x0_hal_i2c.c ****             if(1 == i2c_dev->rxbuffer.length) {
 1305              		.loc 1 574 38
 1306 0116 FB68     		ldr	r3, [r7, #12]
 1307 0118 5B6A     		ldr	r3, [r3, #36]
 1308              		.loc 1 574 15
 1309 011a 012B     		cmp	r3, #1
 1310 011c 21D1     		bne	.L62
 575:../firmware/gd32f3x0_hal_peripheral/Source/gd32f3x0_hal_i2c.c ****                 /* wait until the RBNE bit is set */
 576:../firmware/gd32f3x0_hal_peripheral/Source/gd32f3x0_hal_i2c.c ****                 if(HAL_ERR_NONE != _i2c_wait_flag_timeout(i2c_dev->periph, I2C_FLAG_RBNE, SET, time
 1311              		.loc 1 576 36
 1312 011e FB68     		ldr	r3, [r7, #12]
 1313 0120 1868     		ldr	r0, [r3]
 1314 0122 3B68     		ldr	r3, [r7]
 1315 0124 0122     		movs	r2, #1
 1316 0126 40F20651 		movw	r1, #1286
 1317 012a FFF7FEFF 		bl	_i2c_wait_flag_timeout
 1318 012e 0346     		mov	r3, r0
 1319              		.loc 1 576 19
 1320 0130 002B     		cmp	r3, #0
 1321 0132 02D0     		beq	.L63
 577:../firmware/gd32f3x0_hal_peripheral/Source/gd32f3x0_hal_i2c.c ****                     HAL_DEBUGW("i2c get RBNE timeout");
 578:../firmware/gd32f3x0_hal_peripheral/Source/gd32f3x0_hal_i2c.c ****                     return HAL_ERR_TIMEOUT;
 1322              		.loc 1 578 28
 1323 0134 6FF00403 		mvn	r3, #4
 1324 0138 17E1     		b	.L53
 1325              	.L63:
 579:../firmware/gd32f3x0_hal_peripheral/Source/gd32f3x0_hal_i2c.c ****                 }
 580:../firmware/gd32f3x0_hal_peripheral/Source/gd32f3x0_hal_i2c.c **** 
 581:../firmware/gd32f3x0_hal_peripheral/Source/gd32f3x0_hal_i2c.c ****                 *i2c_dev->rxbuffer.buffer = hals_i2c_data_receive(i2c_dev->periph);
 1326              		.loc 1 581 45
 1327 013a FB68     		ldr	r3, [r7, #12]
 1328 013c 1A68     		ldr	r2, [r3]
 1329              		.loc 1 581 35
 1330 013e FB68     		ldr	r3, [r7, #12]
 1331 0140 1C6A     		ldr	r4, [r3, #32]
 1332              		.loc 1 581 45
 1333 0142 1046     		mov	r0, r2
 1334 0144 FFF7FEFF 		bl	hals_i2c_data_receive
 1335 0148 0346     		mov	r3, r0
 1336              		.loc 1 581 43
 1337 014a 2370     		strb	r3, [r4]
 582:../firmware/gd32f3x0_hal_peripheral/Source/gd32f3x0_hal_i2c.c ****                 i2c_dev->rxbuffer.buffer++;
 1338              		.loc 1 582 34
 1339 014c FB68     		ldr	r3, [r7, #12]
 1340 014e 1B6A     		ldr	r3, [r3, #32]
 1341              		.loc 1 582 41
 1342 0150 5A1C     		adds	r2, r3, #1
 1343 0152 FB68     		ldr	r3, [r7, #12]
 1344 0154 1A62     		str	r2, [r3, #32]
 583:../firmware/gd32f3x0_hal_peripheral/Source/gd32f3x0_hal_i2c.c ****                 i2c_dev->rxbuffer.length--;
 1345              		.loc 1 583 34
 1346 0156 FB68     		ldr	r3, [r7, #12]
 1347 0158 5B6A     		ldr	r3, [r3, #36]
 1348              		.loc 1 583 41
 1349 015a 5A1E     		subs	r2, r3, #1
 1350 015c FB68     		ldr	r3, [r7, #12]
 1351 015e 5A62     		str	r2, [r3, #36]
 1352 0160 F5E0     		b	.L60
 1353              	.L62:
 584:../firmware/gd32f3x0_hal_peripheral/Source/gd32f3x0_hal_i2c.c ****             } else if(2 == i2c_dev->rxbuffer.length) {
 1354              		.loc 1 584 45
 1355 0162 FB68     		ldr	r3, [r7, #12]
 1356 0164 5B6A     		ldr	r3, [r3, #36]
 1357              		.loc 1 584 22
 1358 0166 022B     		cmp	r3, #2
 1359 0168 5ED1     		bne	.L64
 585:../firmware/gd32f3x0_hal_peripheral/Source/gd32f3x0_hal_i2c.c ****                 hals_i2c_ack_config(i2c_dev->periph, I2C_ACK_DISABLE);
 1360              		.loc 1 585 17
 1361 016a FB68     		ldr	r3, [r7, #12]
 1362 016c 1B68     		ldr	r3, [r3]
 1363 016e 0021     		movs	r1, #0
 1364 0170 1846     		mov	r0, r3
 1365 0172 FFF7FEFF 		bl	hals_i2c_ack_config
 586:../firmware/gd32f3x0_hal_peripheral/Source/gd32f3x0_hal_i2c.c ****                 /* wait until the BTC bit is set */
 587:../firmware/gd32f3x0_hal_peripheral/Source/gd32f3x0_hal_i2c.c ****                 if(HAL_ERR_NONE != _i2c_wait_flag_timeout(i2c_dev->periph, I2C_FLAG_BTC, SET, timeo
 1366              		.loc 1 587 36
 1367 0176 FB68     		ldr	r3, [r7, #12]
 1368 0178 1868     		ldr	r0, [r3]
 1369 017a 3B68     		ldr	r3, [r7]
 1370 017c 0122     		movs	r2, #1
 1371 017e 40F20251 		movw	r1, #1282
 1372 0182 FFF7FEFF 		bl	_i2c_wait_flag_timeout
 1373 0186 0346     		mov	r3, r0
 1374              		.loc 1 587 19
 1375 0188 002B     		cmp	r3, #0
 1376 018a 02D0     		beq	.L65
 588:../firmware/gd32f3x0_hal_peripheral/Source/gd32f3x0_hal_i2c.c ****                     HAL_DEBUGW("i2c get BTC timeout");
 589:../firmware/gd32f3x0_hal_peripheral/Source/gd32f3x0_hal_i2c.c ****                     return HAL_ERR_TIMEOUT;
 1377              		.loc 1 589 28
 1378 018c 6FF00403 		mvn	r3, #4
 1379 0190 EBE0     		b	.L53
 1380              	.L65:
 590:../firmware/gd32f3x0_hal_peripheral/Source/gd32f3x0_hal_i2c.c ****                 }
 591:../firmware/gd32f3x0_hal_peripheral/Source/gd32f3x0_hal_i2c.c ****                 /* wait until the RBNE bit is set */
 592:../firmware/gd32f3x0_hal_peripheral/Source/gd32f3x0_hal_i2c.c ****                 if(HAL_ERR_NONE != _i2c_wait_flag_timeout(i2c_dev->periph, I2C_FLAG_RBNE, SET, time
 1381              		.loc 1 592 36
 1382 0192 FB68     		ldr	r3, [r7, #12]
 1383 0194 1868     		ldr	r0, [r3]
 1384 0196 3B68     		ldr	r3, [r7]
 1385 0198 0122     		movs	r2, #1
 1386 019a 40F20651 		movw	r1, #1286
 1387 019e FFF7FEFF 		bl	_i2c_wait_flag_timeout
 1388 01a2 0346     		mov	r3, r0
 1389              		.loc 1 592 19
 1390 01a4 002B     		cmp	r3, #0
 1391 01a6 02D0     		beq	.L66
 593:../firmware/gd32f3x0_hal_peripheral/Source/gd32f3x0_hal_i2c.c ****                     HAL_DEBUGW("i2c get RBNE timeout");
 594:../firmware/gd32f3x0_hal_peripheral/Source/gd32f3x0_hal_i2c.c ****                     return HAL_ERR_TIMEOUT;
 1392              		.loc 1 594 28
 1393 01a8 6FF00403 		mvn	r3, #4
 1394 01ac DDE0     		b	.L53
 1395              	.L66:
 595:../firmware/gd32f3x0_hal_peripheral/Source/gd32f3x0_hal_i2c.c ****                 }
 596:../firmware/gd32f3x0_hal_peripheral/Source/gd32f3x0_hal_i2c.c **** 
 597:../firmware/gd32f3x0_hal_peripheral/Source/gd32f3x0_hal_i2c.c ****                 *i2c_dev->rxbuffer.buffer = hals_i2c_data_receive(i2c_dev->periph);
 1396              		.loc 1 597 45
 1397 01ae FB68     		ldr	r3, [r7, #12]
 1398 01b0 1A68     		ldr	r2, [r3]
 1399              		.loc 1 597 35
 1400 01b2 FB68     		ldr	r3, [r7, #12]
 1401 01b4 1C6A     		ldr	r4, [r3, #32]
 1402              		.loc 1 597 45
 1403 01b6 1046     		mov	r0, r2
 1404 01b8 FFF7FEFF 		bl	hals_i2c_data_receive
 1405 01bc 0346     		mov	r3, r0
 1406              		.loc 1 597 43
 1407 01be 2370     		strb	r3, [r4]
 598:../firmware/gd32f3x0_hal_peripheral/Source/gd32f3x0_hal_i2c.c ****                 i2c_dev->rxbuffer.buffer++;
 1408              		.loc 1 598 34
 1409 01c0 FB68     		ldr	r3, [r7, #12]
 1410 01c2 1B6A     		ldr	r3, [r3, #32]
 1411              		.loc 1 598 41
 1412 01c4 5A1C     		adds	r2, r3, #1
 1413 01c6 FB68     		ldr	r3, [r7, #12]
 1414 01c8 1A62     		str	r2, [r3, #32]
 599:../firmware/gd32f3x0_hal_peripheral/Source/gd32f3x0_hal_i2c.c ****                 i2c_dev->rxbuffer.length--;
 1415              		.loc 1 599 34
 1416 01ca FB68     		ldr	r3, [r7, #12]
 1417 01cc 5B6A     		ldr	r3, [r3, #36]
 1418              		.loc 1 599 41
 1419 01ce 5A1E     		subs	r2, r3, #1
 1420 01d0 FB68     		ldr	r3, [r7, #12]
 1421 01d2 5A62     		str	r2, [r3, #36]
 600:../firmware/gd32f3x0_hal_peripheral/Source/gd32f3x0_hal_i2c.c ****                 /* wait until the RBNE bit is set */
 601:../firmware/gd32f3x0_hal_peripheral/Source/gd32f3x0_hal_i2c.c ****                 if(HAL_ERR_NONE != _i2c_wait_flag_timeout(i2c_dev->periph, I2C_FLAG_RBNE, SET, time
 1422              		.loc 1 601 36
 1423 01d4 FB68     		ldr	r3, [r7, #12]
 1424 01d6 1868     		ldr	r0, [r3]
 1425 01d8 3B68     		ldr	r3, [r7]
 1426 01da 0122     		movs	r2, #1
 1427 01dc 40F20651 		movw	r1, #1286
 1428 01e0 FFF7FEFF 		bl	_i2c_wait_flag_timeout
 1429 01e4 0346     		mov	r3, r0
 1430              		.loc 1 601 19
 1431 01e6 002B     		cmp	r3, #0
 1432 01e8 02D0     		beq	.L67
 602:../firmware/gd32f3x0_hal_peripheral/Source/gd32f3x0_hal_i2c.c ****                     HAL_DEBUGW("i2c get RBNE timeout");
 603:../firmware/gd32f3x0_hal_peripheral/Source/gd32f3x0_hal_i2c.c ****                     return HAL_ERR_TIMEOUT;
 1433              		.loc 1 603 28
 1434 01ea 6FF00403 		mvn	r3, #4
 1435 01ee BCE0     		b	.L53
 1436              	.L67:
 604:../firmware/gd32f3x0_hal_peripheral/Source/gd32f3x0_hal_i2c.c ****                 }
 605:../firmware/gd32f3x0_hal_peripheral/Source/gd32f3x0_hal_i2c.c **** 
 606:../firmware/gd32f3x0_hal_peripheral/Source/gd32f3x0_hal_i2c.c ****                 *i2c_dev->rxbuffer.buffer = hals_i2c_data_receive(i2c_dev->periph);
 1437              		.loc 1 606 45
 1438 01f0 FB68     		ldr	r3, [r7, #12]
 1439 01f2 1A68     		ldr	r2, [r3]
 1440              		.loc 1 606 35
 1441 01f4 FB68     		ldr	r3, [r7, #12]
 1442 01f6 1C6A     		ldr	r4, [r3, #32]
 1443              		.loc 1 606 45
 1444 01f8 1046     		mov	r0, r2
 1445 01fa FFF7FEFF 		bl	hals_i2c_data_receive
 1446 01fe 0346     		mov	r3, r0
 1447              		.loc 1 606 43
 1448 0200 2370     		strb	r3, [r4]
 607:../firmware/gd32f3x0_hal_peripheral/Source/gd32f3x0_hal_i2c.c ****                 i2c_dev->rxbuffer.buffer++;
 1449              		.loc 1 607 34
 1450 0202 FB68     		ldr	r3, [r7, #12]
 1451 0204 1B6A     		ldr	r3, [r3, #32]
 1452              		.loc 1 607 41
 1453 0206 5A1C     		adds	r2, r3, #1
 1454 0208 FB68     		ldr	r3, [r7, #12]
 1455 020a 1A62     		str	r2, [r3, #32]
 608:../firmware/gd32f3x0_hal_peripheral/Source/gd32f3x0_hal_i2c.c ****                 i2c_dev->rxbuffer.length--;
 1456              		.loc 1 608 34
 1457 020c FB68     		ldr	r3, [r7, #12]
 1458 020e 5B6A     		ldr	r3, [r3, #36]
 1459              		.loc 1 608 41
 1460 0210 5A1E     		subs	r2, r3, #1
 1461 0212 FB68     		ldr	r3, [r7, #12]
 1462 0214 5A62     		str	r2, [r3, #36]
 609:../firmware/gd32f3x0_hal_peripheral/Source/gd32f3x0_hal_i2c.c ****                 HAL_I2C_STOP_ON_BUS(i2c_dev->periph);
 1463              		.loc 1 609 17
 1464 0216 FB68     		ldr	r3, [r7, #12]
 1465 0218 1B68     		ldr	r3, [r3]
 1466 021a 1B68     		ldr	r3, [r3]
 1467 021c FA68     		ldr	r2, [r7, #12]
 1468 021e 1268     		ldr	r2, [r2]
 1469 0220 43F40073 		orr	r3, r3, #512
 1470 0224 1360     		str	r3, [r2]
 1471 0226 92E0     		b	.L60
 1472              	.L64:
 610:../firmware/gd32f3x0_hal_peripheral/Source/gd32f3x0_hal_i2c.c ****             } else {
 611:../firmware/gd32f3x0_hal_peripheral/Source/gd32f3x0_hal_i2c.c ****                 /* wait until the BTC bit is set */
 612:../firmware/gd32f3x0_hal_peripheral/Source/gd32f3x0_hal_i2c.c ****                 if(HAL_ERR_NONE != _i2c_wait_flag_timeout(i2c_dev->periph, I2C_FLAG_BTC, SET, timeo
 1473              		.loc 1 612 36
 1474 0228 FB68     		ldr	r3, [r7, #12]
 1475 022a 1868     		ldr	r0, [r3]
 1476 022c 3B68     		ldr	r3, [r7]
 1477 022e 0122     		movs	r2, #1
 1478 0230 40F20251 		movw	r1, #1282
 1479 0234 FFF7FEFF 		bl	_i2c_wait_flag_timeout
 1480 0238 0346     		mov	r3, r0
 1481              		.loc 1 612 19
 1482 023a 002B     		cmp	r3, #0
 1483 023c 02D0     		beq	.L68
 613:../firmware/gd32f3x0_hal_peripheral/Source/gd32f3x0_hal_i2c.c ****                     HAL_DEBUGW("i2c get BTC timeout");
 614:../firmware/gd32f3x0_hal_peripheral/Source/gd32f3x0_hal_i2c.c ****                     return HAL_ERR_TIMEOUT;
 1484              		.loc 1 614 28
 1485 023e 6FF00403 		mvn	r3, #4
 1486 0242 92E0     		b	.L53
 1487              	.L68:
 615:../firmware/gd32f3x0_hal_peripheral/Source/gd32f3x0_hal_i2c.c ****                 }
 616:../firmware/gd32f3x0_hal_peripheral/Source/gd32f3x0_hal_i2c.c **** 
 617:../firmware/gd32f3x0_hal_peripheral/Source/gd32f3x0_hal_i2c.c ****                 hals_i2c_ack_config(i2c_dev->periph, I2C_ACK_DISABLE);
 1488              		.loc 1 617 17
 1489 0244 FB68     		ldr	r3, [r7, #12]
 1490 0246 1B68     		ldr	r3, [r3]
 1491 0248 0021     		movs	r1, #0
 1492 024a 1846     		mov	r0, r3
 1493 024c FFF7FEFF 		bl	hals_i2c_ack_config
 618:../firmware/gd32f3x0_hal_peripheral/Source/gd32f3x0_hal_i2c.c ****                 *i2c_dev->rxbuffer.buffer = hals_i2c_data_receive(i2c_dev->periph);
 1494              		.loc 1 618 45
 1495 0250 FB68     		ldr	r3, [r7, #12]
 1496 0252 1A68     		ldr	r2, [r3]
 1497              		.loc 1 618 35
 1498 0254 FB68     		ldr	r3, [r7, #12]
 1499 0256 1C6A     		ldr	r4, [r3, #32]
 1500              		.loc 1 618 45
 1501 0258 1046     		mov	r0, r2
 1502 025a FFF7FEFF 		bl	hals_i2c_data_receive
 1503 025e 0346     		mov	r3, r0
 1504              		.loc 1 618 43
 1505 0260 2370     		strb	r3, [r4]
 619:../firmware/gd32f3x0_hal_peripheral/Source/gd32f3x0_hal_i2c.c ****                 i2c_dev->rxbuffer.buffer++;
 1506              		.loc 1 619 34
 1507 0262 FB68     		ldr	r3, [r7, #12]
 1508 0264 1B6A     		ldr	r3, [r3, #32]
 1509              		.loc 1 619 41
 1510 0266 5A1C     		adds	r2, r3, #1
 1511 0268 FB68     		ldr	r3, [r7, #12]
 1512 026a 1A62     		str	r2, [r3, #32]
 620:../firmware/gd32f3x0_hal_peripheral/Source/gd32f3x0_hal_i2c.c ****                 i2c_dev->rxbuffer.length--;
 1513              		.loc 1 620 34
 1514 026c FB68     		ldr	r3, [r7, #12]
 1515 026e 5B6A     		ldr	r3, [r3, #36]
 1516              		.loc 1 620 41
 1517 0270 5A1E     		subs	r2, r3, #1
 1518 0272 FB68     		ldr	r3, [r7, #12]
 1519 0274 5A62     		str	r2, [r3, #36]
 621:../firmware/gd32f3x0_hal_peripheral/Source/gd32f3x0_hal_i2c.c ****                 /* wait until the RBNE bit is set */
 622:../firmware/gd32f3x0_hal_peripheral/Source/gd32f3x0_hal_i2c.c ****                 if(HAL_ERR_NONE != _i2c_wait_flag_timeout(i2c_dev->periph, I2C_FLAG_RBNE, SET, time
 1520              		.loc 1 622 36
 1521 0276 FB68     		ldr	r3, [r7, #12]
 1522 0278 1868     		ldr	r0, [r3]
 1523 027a 3B68     		ldr	r3, [r7]
 1524 027c 0122     		movs	r2, #1
 1525 027e 40F20651 		movw	r1, #1286
 1526 0282 FFF7FEFF 		bl	_i2c_wait_flag_timeout
 1527 0286 0346     		mov	r3, r0
 1528              		.loc 1 622 19
 1529 0288 002B     		cmp	r3, #0
 1530 028a 02D0     		beq	.L69
 623:../firmware/gd32f3x0_hal_peripheral/Source/gd32f3x0_hal_i2c.c ****                     HAL_DEBUGW("i2c get RBNE timeout");
 624:../firmware/gd32f3x0_hal_peripheral/Source/gd32f3x0_hal_i2c.c ****                     return HAL_ERR_TIMEOUT;
 1531              		.loc 1 624 28
 1532 028c 6FF00403 		mvn	r3, #4
 1533 0290 6BE0     		b	.L53
 1534              	.L69:
 625:../firmware/gd32f3x0_hal_peripheral/Source/gd32f3x0_hal_i2c.c ****                 }
 626:../firmware/gd32f3x0_hal_peripheral/Source/gd32f3x0_hal_i2c.c **** 
 627:../firmware/gd32f3x0_hal_peripheral/Source/gd32f3x0_hal_i2c.c ****                 *i2c_dev->rxbuffer.buffer = hals_i2c_data_receive(i2c_dev->periph);
 1535              		.loc 1 627 45
 1536 0292 FB68     		ldr	r3, [r7, #12]
 1537 0294 1A68     		ldr	r2, [r3]
 1538              		.loc 1 627 35
 1539 0296 FB68     		ldr	r3, [r7, #12]
 1540 0298 1C6A     		ldr	r4, [r3, #32]
 1541              		.loc 1 627 45
 1542 029a 1046     		mov	r0, r2
 1543 029c FFF7FEFF 		bl	hals_i2c_data_receive
 1544 02a0 0346     		mov	r3, r0
 1545              		.loc 1 627 43
 1546 02a2 2370     		strb	r3, [r4]
 628:../firmware/gd32f3x0_hal_peripheral/Source/gd32f3x0_hal_i2c.c ****                 i2c_dev->rxbuffer.buffer++;
 1547              		.loc 1 628 34
 1548 02a4 FB68     		ldr	r3, [r7, #12]
 1549 02a6 1B6A     		ldr	r3, [r3, #32]
 1550              		.loc 1 628 41
 1551 02a8 5A1C     		adds	r2, r3, #1
 1552 02aa FB68     		ldr	r3, [r7, #12]
 1553 02ac 1A62     		str	r2, [r3, #32]
 629:../firmware/gd32f3x0_hal_peripheral/Source/gd32f3x0_hal_i2c.c ****                 i2c_dev->rxbuffer.length--;
 1554              		.loc 1 629 34
 1555 02ae FB68     		ldr	r3, [r7, #12]
 1556 02b0 5B6A     		ldr	r3, [r3, #36]
 1557              		.loc 1 629 41
 1558 02b2 5A1E     		subs	r2, r3, #1
 1559 02b4 FB68     		ldr	r3, [r7, #12]
 1560 02b6 5A62     		str	r2, [r3, #36]
 630:../firmware/gd32f3x0_hal_peripheral/Source/gd32f3x0_hal_i2c.c ****                 /* wait until the RBNE bit is set */
 631:../firmware/gd32f3x0_hal_peripheral/Source/gd32f3x0_hal_i2c.c ****                 if(HAL_ERR_NONE != _i2c_wait_flag_timeout(i2c_dev->periph, I2C_FLAG_RBNE, SET, time
 1561              		.loc 1 631 36
 1562 02b8 FB68     		ldr	r3, [r7, #12]
 1563 02ba 1868     		ldr	r0, [r3]
 1564 02bc 3B68     		ldr	r3, [r7]
 1565 02be 0122     		movs	r2, #1
 1566 02c0 40F20651 		movw	r1, #1286
 1567 02c4 FFF7FEFF 		bl	_i2c_wait_flag_timeout
 1568 02c8 0346     		mov	r3, r0
 1569              		.loc 1 631 19
 1570 02ca 002B     		cmp	r3, #0
 1571 02cc 02D0     		beq	.L70
 632:../firmware/gd32f3x0_hal_peripheral/Source/gd32f3x0_hal_i2c.c ****                     HAL_DEBUGW("i2c get RBNE timeout");
 633:../firmware/gd32f3x0_hal_peripheral/Source/gd32f3x0_hal_i2c.c ****                     return HAL_ERR_TIMEOUT;
 1572              		.loc 1 633 28
 1573 02ce 6FF00403 		mvn	r3, #4
 1574 02d2 4AE0     		b	.L53
 1575              	.L70:
 634:../firmware/gd32f3x0_hal_peripheral/Source/gd32f3x0_hal_i2c.c ****                 }
 635:../firmware/gd32f3x0_hal_peripheral/Source/gd32f3x0_hal_i2c.c **** 
 636:../firmware/gd32f3x0_hal_peripheral/Source/gd32f3x0_hal_i2c.c ****                 *i2c_dev->rxbuffer.buffer = hals_i2c_data_receive(i2c_dev->periph);
 1576              		.loc 1 636 45
 1577 02d4 FB68     		ldr	r3, [r7, #12]
 1578 02d6 1A68     		ldr	r2, [r3]
 1579              		.loc 1 636 35
 1580 02d8 FB68     		ldr	r3, [r7, #12]
 1581 02da 1C6A     		ldr	r4, [r3, #32]
 1582              		.loc 1 636 45
 1583 02dc 1046     		mov	r0, r2
 1584 02de FFF7FEFF 		bl	hals_i2c_data_receive
 1585 02e2 0346     		mov	r3, r0
 1586              		.loc 1 636 43
 1587 02e4 2370     		strb	r3, [r4]
 637:../firmware/gd32f3x0_hal_peripheral/Source/gd32f3x0_hal_i2c.c ****                 i2c_dev->rxbuffer.buffer++;
 1588              		.loc 1 637 34
 1589 02e6 FB68     		ldr	r3, [r7, #12]
 1590 02e8 1B6A     		ldr	r3, [r3, #32]
 1591              		.loc 1 637 41
 1592 02ea 5A1C     		adds	r2, r3, #1
 1593 02ec FB68     		ldr	r3, [r7, #12]
 1594 02ee 1A62     		str	r2, [r3, #32]
 638:../firmware/gd32f3x0_hal_peripheral/Source/gd32f3x0_hal_i2c.c ****                 i2c_dev->rxbuffer.length--;
 1595              		.loc 1 638 34
 1596 02f0 FB68     		ldr	r3, [r7, #12]
 1597 02f2 5B6A     		ldr	r3, [r3, #36]
 1598              		.loc 1 638 41
 1599 02f4 5A1E     		subs	r2, r3, #1
 1600 02f6 FB68     		ldr	r3, [r7, #12]
 1601 02f8 5A62     		str	r2, [r3, #36]
 639:../firmware/gd32f3x0_hal_peripheral/Source/gd32f3x0_hal_i2c.c ****                 /* send a stop condition to I2C bus */
 640:../firmware/gd32f3x0_hal_peripheral/Source/gd32f3x0_hal_i2c.c ****                 HAL_I2C_STOP_ON_BUS(i2c_dev->periph);
 1602              		.loc 1 640 17
 1603 02fa FB68     		ldr	r3, [r7, #12]
 1604 02fc 1B68     		ldr	r3, [r3]
 1605 02fe 1B68     		ldr	r3, [r3]
 1606 0300 FA68     		ldr	r2, [r7, #12]
 1607 0302 1268     		ldr	r2, [r2]
 1608 0304 43F40073 		orr	r3, r3, #512
 1609 0308 1360     		str	r3, [r2]
 1610 030a 20E0     		b	.L60
 1611              	.L61:
 641:../firmware/gd32f3x0_hal_peripheral/Source/gd32f3x0_hal_i2c.c ****             }
 642:../firmware/gd32f3x0_hal_peripheral/Source/gd32f3x0_hal_i2c.c ****         } else {
 643:../firmware/gd32f3x0_hal_peripheral/Source/gd32f3x0_hal_i2c.c ****             /* wait until the RBNE bit is set */
 644:../firmware/gd32f3x0_hal_peripheral/Source/gd32f3x0_hal_i2c.c ****             if(HAL_ERR_NONE != _i2c_wait_flag_timeout(i2c_dev->periph, I2C_FLAG_RBNE, SET, timeout_
 1612              		.loc 1 644 32
 1613 030c FB68     		ldr	r3, [r7, #12]
 1614 030e 1868     		ldr	r0, [r3]
 1615 0310 3B68     		ldr	r3, [r7]
 1616 0312 0122     		movs	r2, #1
 1617 0314 40F20651 		movw	r1, #1286
 1618 0318 FFF7FEFF 		bl	_i2c_wait_flag_timeout
 1619 031c 0346     		mov	r3, r0
 1620              		.loc 1 644 15
 1621 031e 002B     		cmp	r3, #0
 1622 0320 02D0     		beq	.L71
 645:../firmware/gd32f3x0_hal_peripheral/Source/gd32f3x0_hal_i2c.c ****                 HAL_DEBUGW("i2c get RBNE timeout");
 646:../firmware/gd32f3x0_hal_peripheral/Source/gd32f3x0_hal_i2c.c ****                 return HAL_ERR_TIMEOUT;
 1623              		.loc 1 646 24
 1624 0322 6FF00403 		mvn	r3, #4
 1625 0326 20E0     		b	.L53
 1626              	.L71:
 647:../firmware/gd32f3x0_hal_peripheral/Source/gd32f3x0_hal_i2c.c ****             }
 648:../firmware/gd32f3x0_hal_peripheral/Source/gd32f3x0_hal_i2c.c ****             *i2c_dev->rxbuffer.buffer = hals_i2c_data_receive(i2c_dev->periph);
 1627              		.loc 1 648 41
 1628 0328 FB68     		ldr	r3, [r7, #12]
 1629 032a 1A68     		ldr	r2, [r3]
 1630              		.loc 1 648 31
 1631 032c FB68     		ldr	r3, [r7, #12]
 1632 032e 1C6A     		ldr	r4, [r3, #32]
 1633              		.loc 1 648 41
 1634 0330 1046     		mov	r0, r2
 1635 0332 FFF7FEFF 		bl	hals_i2c_data_receive
 1636 0336 0346     		mov	r3, r0
 1637              		.loc 1 648 39
 1638 0338 2370     		strb	r3, [r4]
 649:../firmware/gd32f3x0_hal_peripheral/Source/gd32f3x0_hal_i2c.c ****             i2c_dev->rxbuffer.buffer++;
 1639              		.loc 1 649 30
 1640 033a FB68     		ldr	r3, [r7, #12]
 1641 033c 1B6A     		ldr	r3, [r3, #32]
 1642              		.loc 1 649 37
 1643 033e 5A1C     		adds	r2, r3, #1
 1644 0340 FB68     		ldr	r3, [r7, #12]
 1645 0342 1A62     		str	r2, [r3, #32]
 650:../firmware/gd32f3x0_hal_peripheral/Source/gd32f3x0_hal_i2c.c ****             i2c_dev->rxbuffer.length--;
 1646              		.loc 1 650 30
 1647 0344 FB68     		ldr	r3, [r7, #12]
 1648 0346 5B6A     		ldr	r3, [r3, #36]
 1649              		.loc 1 650 37
 1650 0348 5A1E     		subs	r2, r3, #1
 1651 034a FB68     		ldr	r3, [r7, #12]
 1652 034c 5A62     		str	r2, [r3, #36]
 1653              	.L60:
 572:../firmware/gd32f3x0_hal_peripheral/Source/gd32f3x0_hal_i2c.c ****         if(i2c_dev->rxbuffer.length <= 3) {
 1654              		.loc 1 572 28
 1655 034e FB68     		ldr	r3, [r7, #12]
 1656 0350 5B6A     		ldr	r3, [r3, #36]
 572:../firmware/gd32f3x0_hal_peripheral/Source/gd32f3x0_hal_i2c.c ****         if(i2c_dev->rxbuffer.length <= 3) {
 1657              		.loc 1 572 10
 1658 0352 002B     		cmp	r3, #0
 1659 0354 7FF4DAAE 		bne	.L72
 651:../firmware/gd32f3x0_hal_peripheral/Source/gd32f3x0_hal_i2c.c ****         }
 652:../firmware/gd32f3x0_hal_peripheral/Source/gd32f3x0_hal_i2c.c ****     }
 653:../firmware/gd32f3x0_hal_peripheral/Source/gd32f3x0_hal_i2c.c ****     i2c_dev->rx_state = HAL_I2C_STATE_READY;
 1660              		.loc 1 653 23
 1661 0358 FB68     		ldr	r3, [r7, #12]
 1662 035a 0022     		movs	r2, #0
 1663 035c 83F84120 		strb	r2, [r3, #65]
 654:../firmware/gd32f3x0_hal_peripheral/Source/gd32f3x0_hal_i2c.c ****     HAL_UNLOCK(i2c_dev);
 1664              		.loc 1 654 5
 1665 0360 FB68     		ldr	r3, [r7, #12]
 1666 0362 0022     		movs	r2, #0
 1667 0364 83F85020 		strb	r2, [r3, #80]
 655:../firmware/gd32f3x0_hal_peripheral/Source/gd32f3x0_hal_i2c.c ****     return HAL_ERR_NONE;
 1668              		.loc 1 655 12
 1669 0368 0023     		movs	r3, #0
 1670              	.L53:
 656:../firmware/gd32f3x0_hal_peripheral/Source/gd32f3x0_hal_i2c.c **** }
 1671              		.loc 1 656 1
 1672 036a 1846     		mov	r0, r3
 1673 036c 1437     		adds	r7, r7, #20
 1674              		.cfi_def_cfa_offset 12
 1675 036e BD46     		mov	sp, r7
 1676              		.cfi_def_cfa_register 13
 1677              		@ sp needed
 1678 0370 90BD     		pop	{r4, r7, pc}
 1679              		.cfi_endproc
 1680              	.LFE129:
 1682              		.section	.text.hal_i2c_slave_transmit_poll,"ax",%progbits
 1683              		.align	1
 1684              		.global	hal_i2c_slave_transmit_poll
 1685              		.syntax unified
 1686              		.thumb
 1687              		.thumb_func
 1688              		.fpu softvfp
 1690              	hal_i2c_slave_transmit_poll:
 1691              	.LFB130:
 657:../firmware/gd32f3x0_hal_peripheral/Source/gd32f3x0_hal_i2c.c **** 
 658:../firmware/gd32f3x0_hal_peripheral/Source/gd32f3x0_hal_i2c.c **** /*!
 659:../firmware/gd32f3x0_hal_peripheral/Source/gd32f3x0_hal_i2c.c ****     \brief      transmit amounts of data in slave mode, poll transmit process and completed status,
 660:../firmware/gd32f3x0_hal_peripheral/Source/gd32f3x0_hal_i2c.c ****                 the function is blocking
 661:../firmware/gd32f3x0_hal_peripheral/Source/gd32f3x0_hal_i2c.c ****     \param[in]  i2c_dev: I2C device information structrue
 662:../firmware/gd32f3x0_hal_peripheral/Source/gd32f3x0_hal_i2c.c ****                   the structure is not necessary to be reconfigured after structrue initialization,
 663:../firmware/gd32f3x0_hal_peripheral/Source/gd32f3x0_hal_i2c.c ****                   the structure parameters altering is automatically configured by core
 664:../firmware/gd32f3x0_hal_peripheral/Source/gd32f3x0_hal_i2c.c ****     \param[in]  p_buffer: pointer to txbuffer
 665:../firmware/gd32f3x0_hal_peripheral/Source/gd32f3x0_hal_i2c.c ****     \param[in]  length: length of data to be sent
 666:../firmware/gd32f3x0_hal_peripheral/Source/gd32f3x0_hal_i2c.c ****     \param[in]  timeout_ms: timeout duration
 667:../firmware/gd32f3x0_hal_peripheral/Source/gd32f3x0_hal_i2c.c ****     \param[out] none
 668:../firmware/gd32f3x0_hal_peripheral/Source/gd32f3x0_hal_i2c.c ****     \retval     error code: HAL_ERR_NONE, HAL_ERR_ADDRESS, HAL_ERR_TIMEOUT, HAL_ERR_BUSY,
 669:../firmware/gd32f3x0_hal_peripheral/Source/gd32f3x0_hal_i2c.c ****                 details refer to gd32f3x0_hal.h
 670:../firmware/gd32f3x0_hal_peripheral/Source/gd32f3x0_hal_i2c.c **** */
 671:../firmware/gd32f3x0_hal_peripheral/Source/gd32f3x0_hal_i2c.c **** int32_t hal_i2c_slave_transmit_poll(hal_i2c_dev_struct *i2c_dev, uint8_t *p_buffer, \
 672:../firmware/gd32f3x0_hal_peripheral/Source/gd32f3x0_hal_i2c.c ****                                     uint32_t length, uint32_t timeout_ms)
 673:../firmware/gd32f3x0_hal_peripheral/Source/gd32f3x0_hal_i2c.c **** {
 1692              		.loc 1 673 1
 1693              		.cfi_startproc
 1694              		@ args = 0, pretend = 0, frame = 24
 1695              		@ frame_needed = 1, uses_anonymous_args = 0
 1696 0000 80B5     		push	{r7, lr}
 1697              		.cfi_def_cfa_offset 8
 1698              		.cfi_offset 7, -8
 1699              		.cfi_offset 14, -4
 1700 0002 86B0     		sub	sp, sp, #24
 1701              		.cfi_def_cfa_offset 32
 1702 0004 00AF     		add	r7, sp, #0
 1703              		.cfi_def_cfa_register 7
 1704 0006 F860     		str	r0, [r7, #12]
 1705 0008 B960     		str	r1, [r7, #8]
 1706 000a 7A60     		str	r2, [r7, #4]
 1707 000c 3B60     		str	r3, [r7]
 674:../firmware/gd32f3x0_hal_peripheral/Source/gd32f3x0_hal_i2c.c ****     uint32_t address_format;
 675:../firmware/gd32f3x0_hal_peripheral/Source/gd32f3x0_hal_i2c.c ****     uint32_t data_length;
 676:../firmware/gd32f3x0_hal_peripheral/Source/gd32f3x0_hal_i2c.c **** 
 677:../firmware/gd32f3x0_hal_peripheral/Source/gd32f3x0_hal_i2c.c **** #if (1 == HAL_PARAMETER_CHECK)
 678:../firmware/gd32f3x0_hal_peripheral/Source/gd32f3x0_hal_i2c.c ****     /* check the parameters */
 679:../firmware/gd32f3x0_hal_peripheral/Source/gd32f3x0_hal_i2c.c ****     if((NULL == i2c_dev) || (NULL == p_buffer) || (0U == length)) {
 680:../firmware/gd32f3x0_hal_peripheral/Source/gd32f3x0_hal_i2c.c ****         HAL_DEBUGE("parameter [i2c_dev] or [p_buffer] or [length] value is invalid");
 681:../firmware/gd32f3x0_hal_peripheral/Source/gd32f3x0_hal_i2c.c ****         return HAL_ERR_ADDRESS;
 682:../firmware/gd32f3x0_hal_peripheral/Source/gd32f3x0_hal_i2c.c ****     }
 683:../firmware/gd32f3x0_hal_peripheral/Source/gd32f3x0_hal_i2c.c **** #endif /* 1 == HAL_PARAMETER_CHECK */
 684:../firmware/gd32f3x0_hal_peripheral/Source/gd32f3x0_hal_i2c.c **** 
 685:../firmware/gd32f3x0_hal_peripheral/Source/gd32f3x0_hal_i2c.c ****     HAL_LOCK(i2c_dev);
 1708              		.loc 1 685 5
 1709 000e FB68     		ldr	r3, [r7, #12]
 1710 0010 93F85030 		ldrb	r3, [r3, #80]	@ zero_extendqisi2
 1711 0014 012B     		cmp	r3, #1
 1712 0016 02D1     		bne	.L74
 1713              		.loc 1 685 5 is_stmt 0 discriminator 1
 1714 0018 6FF00103 		mvn	r3, #1
 1715 001c AEE0     		b	.L75
 1716              	.L74:
 1717              		.loc 1 685 5 discriminator 2
 1718 001e FB68     		ldr	r3, [r7, #12]
 1719 0020 0122     		movs	r2, #1
 1720 0022 83F85020 		strb	r2, [r3, #80]
 686:../firmware/gd32f3x0_hal_peripheral/Source/gd32f3x0_hal_i2c.c ****     /* check the tx_state whether it is busy or not */
 687:../firmware/gd32f3x0_hal_peripheral/Source/gd32f3x0_hal_i2c.c ****     if(HAL_I2C_STATE_BUSY == i2c_dev->tx_state) {
 1721              		.loc 1 687 37 is_stmt 1 discriminator 2
 1722 0026 FB68     		ldr	r3, [r7, #12]
 1723 0028 93F84030 		ldrb	r3, [r3, #64]
 1724 002c DBB2     		uxtb	r3, r3
 1725              		.loc 1 687 7 discriminator 2
 1726 002e 012B     		cmp	r3, #1
 1727 0030 02D1     		bne	.L76
 688:../firmware/gd32f3x0_hal_peripheral/Source/gd32f3x0_hal_i2c.c ****         HAL_DEBUGE("i2c tx has already been used, please wait until run_state change to free ");
 689:../firmware/gd32f3x0_hal_peripheral/Source/gd32f3x0_hal_i2c.c ****         return HAL_ERR_BUSY;
 1728              		.loc 1 689 16
 1729 0032 6FF00203 		mvn	r3, #2
 1730 0036 A1E0     		b	.L75
 1731              	.L76:
 690:../firmware/gd32f3x0_hal_peripheral/Source/gd32f3x0_hal_i2c.c ****     }
 691:../firmware/gd32f3x0_hal_peripheral/Source/gd32f3x0_hal_i2c.c **** 
 692:../firmware/gd32f3x0_hal_peripheral/Source/gd32f3x0_hal_i2c.c ****     /* check the address format */
 693:../firmware/gd32f3x0_hal_peripheral/Source/gd32f3x0_hal_i2c.c ****     if(I2C_SADDR0(i2c_dev->periph)&I2C_SADDR0_ADDFORMAT) {
 1732              		.loc 1 693 8
 1733 0038 FB68     		ldr	r3, [r7, #12]
 1734 003a 1B68     		ldr	r3, [r3]
 1735 003c 0833     		adds	r3, r3, #8
 1736 003e 1B68     		ldr	r3, [r3]
 1737              		.loc 1 693 35
 1738 0040 03F40043 		and	r3, r3, #32768
 1739              		.loc 1 693 7
 1740 0044 002B     		cmp	r3, #0
 1741 0046 03D0     		beq	.L77
 694:../firmware/gd32f3x0_hal_peripheral/Source/gd32f3x0_hal_i2c.c ****         address_format = I2C_ADDFORMAT_10BITS;
 1742              		.loc 1 694 24
 1743 0048 4FF40043 		mov	r3, #32768
 1744 004c 7B61     		str	r3, [r7, #20]
 1745 004e 01E0     		b	.L78
 1746              	.L77:
 695:../firmware/gd32f3x0_hal_peripheral/Source/gd32f3x0_hal_i2c.c ****     } else {
 696:../firmware/gd32f3x0_hal_peripheral/Source/gd32f3x0_hal_i2c.c ****         address_format = I2C_ADDFORMAT_7BITS;
 1747              		.loc 1 696 24
 1748 0050 0023     		movs	r3, #0
 1749 0052 7B61     		str	r3, [r7, #20]
 1750              	.L78:
 697:../firmware/gd32f3x0_hal_peripheral/Source/gd32f3x0_hal_i2c.c ****     }
 698:../firmware/gd32f3x0_hal_peripheral/Source/gd32f3x0_hal_i2c.c ****     /* initialize transmit parameters */
 699:../firmware/gd32f3x0_hal_peripheral/Source/gd32f3x0_hal_i2c.c ****     i2c_dev->txbuffer.buffer = (uint8_t *)p_buffer;
 1751              		.loc 1 699 30
 1752 0054 FB68     		ldr	r3, [r7, #12]
 1753 0056 BA68     		ldr	r2, [r7, #8]
 1754 0058 5A61     		str	r2, [r3, #20]
 700:../firmware/gd32f3x0_hal_peripheral/Source/gd32f3x0_hal_i2c.c ****     i2c_dev->txbuffer.length = length;
 1755              		.loc 1 700 30
 1756 005a FB68     		ldr	r3, [r7, #12]
 1757 005c 7A68     		ldr	r2, [r7, #4]
 1758 005e 9A61     		str	r2, [r3, #24]
 701:../firmware/gd32f3x0_hal_peripheral/Source/gd32f3x0_hal_i2c.c ****     i2c_dev->txbuffer.pos = 0;
 1759              		.loc 1 701 27
 1760 0060 FB68     		ldr	r3, [r7, #12]
 1761 0062 0022     		movs	r2, #0
 1762 0064 DA61     		str	r2, [r3, #28]
 702:../firmware/gd32f3x0_hal_peripheral/Source/gd32f3x0_hal_i2c.c ****     data_length = i2c_dev->txbuffer.length;
 1763              		.loc 1 702 17
 1764 0066 FB68     		ldr	r3, [r7, #12]
 1765 0068 9B69     		ldr	r3, [r3, #24]
 1766 006a 3B61     		str	r3, [r7, #16]
 703:../firmware/gd32f3x0_hal_peripheral/Source/gd32f3x0_hal_i2c.c **** 
 704:../firmware/gd32f3x0_hal_peripheral/Source/gd32f3x0_hal_i2c.c ****     i2c_dev->tx_state = HAL_I2C_STATE_BUSY;
 1767              		.loc 1 704 23
 1768 006c FB68     		ldr	r3, [r7, #12]
 1769 006e 0122     		movs	r2, #1
 1770 0070 83F84020 		strb	r2, [r3, #64]
 705:../firmware/gd32f3x0_hal_peripheral/Source/gd32f3x0_hal_i2c.c ****     i2c_dev->last_error = HAL_I2C_ERROR_NONE;
 1771              		.loc 1 705 25
 1772 0074 FB68     		ldr	r3, [r7, #12]
 1773 0076 0022     		movs	r2, #0
 1774 0078 5A87     		strh	r2, [r3, #58]	@ movhi
 706:../firmware/gd32f3x0_hal_peripheral/Source/gd32f3x0_hal_i2c.c ****     hals_i2c_ack_config(i2c_dev->periph, I2C_ACK_ENABLE);
 1775              		.loc 1 706 5
 1776 007a FB68     		ldr	r3, [r7, #12]
 1777 007c 1B68     		ldr	r3, [r3]
 1778 007e 4FF48061 		mov	r1, #1024
 1779 0082 1846     		mov	r0, r3
 1780 0084 FFF7FEFF 		bl	hals_i2c_ack_config
 707:../firmware/gd32f3x0_hal_peripheral/Source/gd32f3x0_hal_i2c.c ****     /* wait until ADDSEND bit is set */
 708:../firmware/gd32f3x0_hal_peripheral/Source/gd32f3x0_hal_i2c.c ****     if(HAL_ERR_NONE != _i2c_wait_flag_timeout(i2c_dev->periph, I2C_FLAG_ADDSEND, SET, timeout_ms)) 
 1781              		.loc 1 708 24
 1782 0088 FB68     		ldr	r3, [r7, #12]
 1783 008a 1868     		ldr	r0, [r3]
 1784 008c 3B68     		ldr	r3, [r7]
 1785 008e 0122     		movs	r2, #1
 1786 0090 40F20151 		movw	r1, #1281
 1787 0094 FFF7FEFF 		bl	_i2c_wait_flag_timeout
 1788 0098 0346     		mov	r3, r0
 1789              		.loc 1 708 7
 1790 009a 002B     		cmp	r3, #0
 1791 009c 02D0     		beq	.L79
 709:../firmware/gd32f3x0_hal_peripheral/Source/gd32f3x0_hal_i2c.c ****         HAL_DEBUGW("i2c get ADDSEND timeout");
 710:../firmware/gd32f3x0_hal_peripheral/Source/gd32f3x0_hal_i2c.c ****         return HAL_ERR_TIMEOUT;
 1792              		.loc 1 710 16
 1793 009e 6FF00403 		mvn	r3, #4
 1794 00a2 6BE0     		b	.L75
 1795              	.L79:
 711:../firmware/gd32f3x0_hal_peripheral/Source/gd32f3x0_hal_i2c.c ****     }
 712:../firmware/gd32f3x0_hal_peripheral/Source/gd32f3x0_hal_i2c.c ****     /* clear ADDSEND bit */
 713:../firmware/gd32f3x0_hal_peripheral/Source/gd32f3x0_hal_i2c.c ****     hals_i2c_flag_clear(i2c_dev->periph, I2C_FLAG_ADDSEND);
 1796              		.loc 1 713 5
 1797 00a4 FB68     		ldr	r3, [r7, #12]
 1798 00a6 1B68     		ldr	r3, [r3]
 1799 00a8 40F20151 		movw	r1, #1281
 1800 00ac 1846     		mov	r0, r3
 1801 00ae FFF7FEFF 		bl	hals_i2c_flag_clear
 714:../firmware/gd32f3x0_hal_peripheral/Source/gd32f3x0_hal_i2c.c ****     if(I2C_ADDFORMAT_10BITS == address_format) {
 1802              		.loc 1 714 7
 1803 00b2 7B69     		ldr	r3, [r7, #20]
 1804 00b4 B3F5004F 		cmp	r3, #32768
 1805 00b8 37D1     		bne	.L82
 715:../firmware/gd32f3x0_hal_peripheral/Source/gd32f3x0_hal_i2c.c ****         /* wait until ADDSEND bit is set */
 716:../firmware/gd32f3x0_hal_peripheral/Source/gd32f3x0_hal_i2c.c ****         if(HAL_ERR_NONE != _i2c_wait_flag_timeout(i2c_dev->periph, I2C_FLAG_ADDSEND, SET, timeout_m
 1806              		.loc 1 716 28
 1807 00ba FB68     		ldr	r3, [r7, #12]
 1808 00bc 1868     		ldr	r0, [r3]
 1809 00be 3B68     		ldr	r3, [r7]
 1810 00c0 0122     		movs	r2, #1
 1811 00c2 40F20151 		movw	r1, #1281
 1812 00c6 FFF7FEFF 		bl	_i2c_wait_flag_timeout
 1813 00ca 0346     		mov	r3, r0
 1814              		.loc 1 716 11
 1815 00cc 002B     		cmp	r3, #0
 1816 00ce 02D0     		beq	.L81
 717:../firmware/gd32f3x0_hal_peripheral/Source/gd32f3x0_hal_i2c.c ****             HAL_DEBUGW("i2c get ADDSEND timeout");
 718:../firmware/gd32f3x0_hal_peripheral/Source/gd32f3x0_hal_i2c.c ****             return HAL_ERR_TIMEOUT;
 1817              		.loc 1 718 20
 1818 00d0 6FF00403 		mvn	r3, #4
 1819 00d4 52E0     		b	.L75
 1820              	.L81:
 719:../firmware/gd32f3x0_hal_peripheral/Source/gd32f3x0_hal_i2c.c ****         }
 720:../firmware/gd32f3x0_hal_peripheral/Source/gd32f3x0_hal_i2c.c ****         /* clear ADDSEND bit */
 721:../firmware/gd32f3x0_hal_peripheral/Source/gd32f3x0_hal_i2c.c ****         hals_i2c_flag_clear(i2c_dev->periph, I2C_FLAG_ADDSEND);
 1821              		.loc 1 721 9
 1822 00d6 FB68     		ldr	r3, [r7, #12]
 1823 00d8 1B68     		ldr	r3, [r3]
 1824 00da 40F20151 		movw	r1, #1281
 1825 00de 1846     		mov	r0, r3
 1826 00e0 FFF7FEFF 		bl	hals_i2c_flag_clear
 722:../firmware/gd32f3x0_hal_peripheral/Source/gd32f3x0_hal_i2c.c ****     }
 723:../firmware/gd32f3x0_hal_peripheral/Source/gd32f3x0_hal_i2c.c ****     while(data_length > i2c_dev->txbuffer.pos) {
 1827              		.loc 1 723 10
 1828 00e4 21E0     		b	.L82
 1829              	.L84:
 724:../firmware/gd32f3x0_hal_peripheral/Source/gd32f3x0_hal_i2c.c ****         /* wait until the TBE bit is set */
 725:../firmware/gd32f3x0_hal_peripheral/Source/gd32f3x0_hal_i2c.c ****         if(HAL_ERR_NONE != _i2c_wait_flag_timeout(i2c_dev->periph, I2C_FLAG_TBE, SET, timeout_ms)) 
 1830              		.loc 1 725 28
 1831 00e6 FB68     		ldr	r3, [r7, #12]
 1832 00e8 1868     		ldr	r0, [r3]
 1833 00ea 3B68     		ldr	r3, [r7]
 1834 00ec 0122     		movs	r2, #1
 1835 00ee 40F20751 		movw	r1, #1287
 1836 00f2 FFF7FEFF 		bl	_i2c_wait_flag_timeout
 1837 00f6 0346     		mov	r3, r0
 1838              		.loc 1 725 11
 1839 00f8 002B     		cmp	r3, #0
 1840 00fa 02D0     		beq	.L83
 726:../firmware/gd32f3x0_hal_peripheral/Source/gd32f3x0_hal_i2c.c ****             HAL_DEBUGW("i2c get TBE timeout");
 727:../firmware/gd32f3x0_hal_peripheral/Source/gd32f3x0_hal_i2c.c ****             return HAL_ERR_TIMEOUT;
 1841              		.loc 1 727 20
 1842 00fc 6FF00403 		mvn	r3, #4
 1843 0100 3CE0     		b	.L75
 1844              	.L83:
 728:../firmware/gd32f3x0_hal_peripheral/Source/gd32f3x0_hal_i2c.c ****         }
 729:../firmware/gd32f3x0_hal_peripheral/Source/gd32f3x0_hal_i2c.c ****         hals_i2c_data_transmit(i2c_dev->periph, *i2c_dev->txbuffer.buffer);
 1845              		.loc 1 729 9
 1846 0102 FB68     		ldr	r3, [r7, #12]
 1847 0104 1A68     		ldr	r2, [r3]
 1848              		.loc 1 729 67
 1849 0106 FB68     		ldr	r3, [r7, #12]
 1850 0108 5B69     		ldr	r3, [r3, #20]
 1851              		.loc 1 729 9
 1852 010a 1B78     		ldrb	r3, [r3]
 1853 010c DBB2     		uxtb	r3, r3
 1854 010e 1946     		mov	r1, r3
 1855 0110 1046     		mov	r0, r2
 1856 0112 FFF7FEFF 		bl	hals_i2c_data_transmit
 730:../firmware/gd32f3x0_hal_peripheral/Source/gd32f3x0_hal_i2c.c ****         i2c_dev->txbuffer.buffer++;
 1857              		.loc 1 730 26
 1858 0116 FB68     		ldr	r3, [r7, #12]
 1859 0118 5B69     		ldr	r3, [r3, #20]
 1860              		.loc 1 730 33
 1861 011a 5A1C     		adds	r2, r3, #1
 1862 011c FB68     		ldr	r3, [r7, #12]
 1863 011e 5A61     		str	r2, [r3, #20]
 731:../firmware/gd32f3x0_hal_peripheral/Source/gd32f3x0_hal_i2c.c ****         i2c_dev->txbuffer.pos++;
 1864              		.loc 1 731 26
 1865 0120 FB68     		ldr	r3, [r7, #12]
 1866 0122 DB69     		ldr	r3, [r3, #28]
 1867              		.loc 1 731 30
 1868 0124 5A1C     		adds	r2, r3, #1
 1869 0126 FB68     		ldr	r3, [r7, #12]
 1870 0128 DA61     		str	r2, [r3, #28]
 1871              	.L82:
 723:../firmware/gd32f3x0_hal_peripheral/Source/gd32f3x0_hal_i2c.c ****         /* wait until the TBE bit is set */
 1872              		.loc 1 723 42
 1873 012a FB68     		ldr	r3, [r7, #12]
 1874 012c DB69     		ldr	r3, [r3, #28]
 723:../firmware/gd32f3x0_hal_peripheral/Source/gd32f3x0_hal_i2c.c ****         /* wait until the TBE bit is set */
 1875              		.loc 1 723 10
 1876 012e 3A69     		ldr	r2, [r7, #16]
 1877 0130 9A42     		cmp	r2, r3
 1878 0132 D8D8     		bhi	.L84
 732:../firmware/gd32f3x0_hal_peripheral/Source/gd32f3x0_hal_i2c.c ****     }
 733:../firmware/gd32f3x0_hal_peripheral/Source/gd32f3x0_hal_i2c.c ****     /* the master doesn't acknowledge for the last byte */
 734:../firmware/gd32f3x0_hal_peripheral/Source/gd32f3x0_hal_i2c.c ****     if(HAL_ERR_NONE != _i2c_wait_flag_timeout(i2c_dev->periph, I2C_FLAG_AERR, SET, timeout_ms)) {
 1879              		.loc 1 734 24
 1880 0134 FB68     		ldr	r3, [r7, #12]
 1881 0136 1868     		ldr	r0, [r3]
 1882 0138 3B68     		ldr	r3, [r7]
 1883 013a 0122     		movs	r2, #1
 1884 013c 40F20A51 		movw	r1, #1290
 1885 0140 FFF7FEFF 		bl	_i2c_wait_flag_timeout
 1886 0144 0346     		mov	r3, r0
 1887              		.loc 1 734 7
 1888 0146 002B     		cmp	r3, #0
 1889 0148 02D0     		beq	.L85
 735:../firmware/gd32f3x0_hal_peripheral/Source/gd32f3x0_hal_i2c.c ****         HAL_DEBUGW("i2c get AERR timeout");
 736:../firmware/gd32f3x0_hal_peripheral/Source/gd32f3x0_hal_i2c.c ****         return HAL_ERR_TIMEOUT;
 1890              		.loc 1 736 16
 1891 014a 6FF00403 		mvn	r3, #4
 1892 014e 15E0     		b	.L75
 1893              	.L85:
 737:../firmware/gd32f3x0_hal_peripheral/Source/gd32f3x0_hal_i2c.c ****     }
 738:../firmware/gd32f3x0_hal_peripheral/Source/gd32f3x0_hal_i2c.c ****     /* clear the bit of AERR */
 739:../firmware/gd32f3x0_hal_peripheral/Source/gd32f3x0_hal_i2c.c ****     hals_i2c_flag_clear(i2c_dev->periph, I2C_FLAG_AERR);
 1894              		.loc 1 739 5
 1895 0150 FB68     		ldr	r3, [r7, #12]
 1896 0152 1B68     		ldr	r3, [r3]
 1897 0154 40F20A51 		movw	r1, #1290
 1898 0158 1846     		mov	r0, r3
 1899 015a FFF7FEFF 		bl	hals_i2c_flag_clear
 740:../firmware/gd32f3x0_hal_peripheral/Source/gd32f3x0_hal_i2c.c ****     /* disable acknowledge */
 741:../firmware/gd32f3x0_hal_peripheral/Source/gd32f3x0_hal_i2c.c ****     hals_i2c_ack_config(i2c_dev->periph, I2C_ACK_DISABLE);
 1900              		.loc 1 741 5
 1901 015e FB68     		ldr	r3, [r7, #12]
 1902 0160 1B68     		ldr	r3, [r3]
 1903 0162 0021     		movs	r1, #0
 1904 0164 1846     		mov	r0, r3
 1905 0166 FFF7FEFF 		bl	hals_i2c_ack_config
 742:../firmware/gd32f3x0_hal_peripheral/Source/gd32f3x0_hal_i2c.c ****     i2c_dev->tx_state = HAL_I2C_STATE_READY;
 1906              		.loc 1 742 23
 1907 016a FB68     		ldr	r3, [r7, #12]
 1908 016c 0022     		movs	r2, #0
 1909 016e 83F84020 		strb	r2, [r3, #64]
 743:../firmware/gd32f3x0_hal_peripheral/Source/gd32f3x0_hal_i2c.c **** 
 744:../firmware/gd32f3x0_hal_peripheral/Source/gd32f3x0_hal_i2c.c ****     HAL_UNLOCK(i2c_dev);
 1910              		.loc 1 744 5
 1911 0172 FB68     		ldr	r3, [r7, #12]
 1912 0174 0022     		movs	r2, #0
 1913 0176 83F85020 		strb	r2, [r3, #80]
 745:../firmware/gd32f3x0_hal_peripheral/Source/gd32f3x0_hal_i2c.c ****     return HAL_ERR_NONE;
 1914              		.loc 1 745 12
 1915 017a 0023     		movs	r3, #0
 1916              	.L75:
 746:../firmware/gd32f3x0_hal_peripheral/Source/gd32f3x0_hal_i2c.c **** }
 1917              		.loc 1 746 1
 1918 017c 1846     		mov	r0, r3
 1919 017e 1837     		adds	r7, r7, #24
 1920              		.cfi_def_cfa_offset 8
 1921 0180 BD46     		mov	sp, r7
 1922              		.cfi_def_cfa_register 13
 1923              		@ sp needed
 1924 0182 80BD     		pop	{r7, pc}
 1925              		.cfi_endproc
 1926              	.LFE130:
 1928              		.section	.text.hal_i2c_slave_receive_poll,"ax",%progbits
 1929              		.align	1
 1930              		.global	hal_i2c_slave_receive_poll
 1931              		.syntax unified
 1932              		.thumb
 1933              		.thumb_func
 1934              		.fpu softvfp
 1936              	hal_i2c_slave_receive_poll:
 1937              	.LFB131:
 747:../firmware/gd32f3x0_hal_peripheral/Source/gd32f3x0_hal_i2c.c **** 
 748:../firmware/gd32f3x0_hal_peripheral/Source/gd32f3x0_hal_i2c.c **** /*!
 749:../firmware/gd32f3x0_hal_peripheral/Source/gd32f3x0_hal_i2c.c ****     \brief      receive amounts of data in slave mode, poll receive process and completed
 750:../firmware/gd32f3x0_hal_peripheral/Source/gd32f3x0_hal_i2c.c ****                 status, the function is blocking
 751:../firmware/gd32f3x0_hal_peripheral/Source/gd32f3x0_hal_i2c.c ****     \param[in]  i2c_dev: I2C device information structrue
 752:../firmware/gd32f3x0_hal_peripheral/Source/gd32f3x0_hal_i2c.c ****                   the structure is not necessary to be reconfigured after structrue initialization,
 753:../firmware/gd32f3x0_hal_peripheral/Source/gd32f3x0_hal_i2c.c ****                   the structure parameters altering is automatically configured by core
 754:../firmware/gd32f3x0_hal_peripheral/Source/gd32f3x0_hal_i2c.c ****     \param[in]  p_buffer: pointer to rxbuffer
 755:../firmware/gd32f3x0_hal_peripheral/Source/gd32f3x0_hal_i2c.c ****     \param[in]  length: length of data to be read
 756:../firmware/gd32f3x0_hal_peripheral/Source/gd32f3x0_hal_i2c.c ****     \param[in]  timeout_ms: timeout duration
 757:../firmware/gd32f3x0_hal_peripheral/Source/gd32f3x0_hal_i2c.c ****     \param[out] none
 758:../firmware/gd32f3x0_hal_peripheral/Source/gd32f3x0_hal_i2c.c ****     \retval     error code: HAL_ERR_NONE, HAL_ERR_ADDRESS, HAL_ERR_TIMEOUT, HAL_ERR_BUSY,
 759:../firmware/gd32f3x0_hal_peripheral/Source/gd32f3x0_hal_i2c.c ****                 details refer to gd32f3x0_hal.h
 760:../firmware/gd32f3x0_hal_peripheral/Source/gd32f3x0_hal_i2c.c **** */
 761:../firmware/gd32f3x0_hal_peripheral/Source/gd32f3x0_hal_i2c.c **** int32_t hal_i2c_slave_receive_poll(hal_i2c_dev_struct *i2c_dev, uint8_t *p_buffer, \
 762:../firmware/gd32f3x0_hal_peripheral/Source/gd32f3x0_hal_i2c.c ****                                    uint32_t length, uint32_t timeout_ms)
 763:../firmware/gd32f3x0_hal_peripheral/Source/gd32f3x0_hal_i2c.c **** {
 1938              		.loc 1 763 1
 1939              		.cfi_startproc
 1940              		@ args = 0, pretend = 0, frame = 24
 1941              		@ frame_needed = 1, uses_anonymous_args = 0
 1942 0000 90B5     		push	{r4, r7, lr}
 1943              		.cfi_def_cfa_offset 12
 1944              		.cfi_offset 4, -12
 1945              		.cfi_offset 7, -8
 1946              		.cfi_offset 14, -4
 1947 0002 87B0     		sub	sp, sp, #28
 1948              		.cfi_def_cfa_offset 40
 1949 0004 00AF     		add	r7, sp, #0
 1950              		.cfi_def_cfa_register 7
 1951 0006 F860     		str	r0, [r7, #12]
 1952 0008 B960     		str	r1, [r7, #8]
 1953 000a 7A60     		str	r2, [r7, #4]
 1954 000c 3B60     		str	r3, [r7]
 764:../firmware/gd32f3x0_hal_peripheral/Source/gd32f3x0_hal_i2c.c ****     uint32_t data_length;
 765:../firmware/gd32f3x0_hal_peripheral/Source/gd32f3x0_hal_i2c.c **** 
 766:../firmware/gd32f3x0_hal_peripheral/Source/gd32f3x0_hal_i2c.c **** #if (1 == HAL_PARAMETER_CHECK)
 767:../firmware/gd32f3x0_hal_peripheral/Source/gd32f3x0_hal_i2c.c ****     /* check the parameters */
 768:../firmware/gd32f3x0_hal_peripheral/Source/gd32f3x0_hal_i2c.c ****     if((NULL == i2c_dev) || (NULL == p_buffer) || (0U == length)) {
 769:../firmware/gd32f3x0_hal_peripheral/Source/gd32f3x0_hal_i2c.c ****         HAL_DEBUGE("parameter [i2c_dev] or [p_buffer] or [length] value is invalid");
 770:../firmware/gd32f3x0_hal_peripheral/Source/gd32f3x0_hal_i2c.c ****         return HAL_ERR_ADDRESS;
 771:../firmware/gd32f3x0_hal_peripheral/Source/gd32f3x0_hal_i2c.c ****     }
 772:../firmware/gd32f3x0_hal_peripheral/Source/gd32f3x0_hal_i2c.c **** #endif /* 1 == HAL_PARAMETER_CHECK */
 773:../firmware/gd32f3x0_hal_peripheral/Source/gd32f3x0_hal_i2c.c **** 
 774:../firmware/gd32f3x0_hal_peripheral/Source/gd32f3x0_hal_i2c.c ****     HAL_LOCK(i2c_dev);
 1955              		.loc 1 774 5
 1956 000e FB68     		ldr	r3, [r7, #12]
 1957 0010 93F85030 		ldrb	r3, [r3, #80]	@ zero_extendqisi2
 1958 0014 012B     		cmp	r3, #1
 1959 0016 02D1     		bne	.L87
 1960              		.loc 1 774 5 is_stmt 0 discriminator 1
 1961 0018 6FF00103 		mvn	r3, #1
 1962 001c 87E0     		b	.L88
 1963              	.L87:
 1964              		.loc 1 774 5 discriminator 2
 1965 001e FB68     		ldr	r3, [r7, #12]
 1966 0020 0122     		movs	r2, #1
 1967 0022 83F85020 		strb	r2, [r3, #80]
 775:../firmware/gd32f3x0_hal_peripheral/Source/gd32f3x0_hal_i2c.c ****     /* check the rx_state whether it is busy or not */
 776:../firmware/gd32f3x0_hal_peripheral/Source/gd32f3x0_hal_i2c.c ****     if(HAL_I2C_STATE_BUSY == i2c_dev->rx_state) {
 1968              		.loc 1 776 37 is_stmt 1 discriminator 2
 1969 0026 FB68     		ldr	r3, [r7, #12]
 1970 0028 93F84130 		ldrb	r3, [r3, #65]
 1971 002c DBB2     		uxtb	r3, r3
 1972              		.loc 1 776 7 discriminator 2
 1973 002e 012B     		cmp	r3, #1
 1974 0030 02D1     		bne	.L89
 777:../firmware/gd32f3x0_hal_peripheral/Source/gd32f3x0_hal_i2c.c ****         HAL_DEBUGE("i2c rx has already been used, please wait until run_state change to free ");
 778:../firmware/gd32f3x0_hal_peripheral/Source/gd32f3x0_hal_i2c.c ****         return HAL_ERR_BUSY;
 1975              		.loc 1 778 16
 1976 0032 6FF00203 		mvn	r3, #2
 1977 0036 7AE0     		b	.L88
 1978              	.L89:
 779:../firmware/gd32f3x0_hal_peripheral/Source/gd32f3x0_hal_i2c.c ****     }
 780:../firmware/gd32f3x0_hal_peripheral/Source/gd32f3x0_hal_i2c.c **** 
 781:../firmware/gd32f3x0_hal_peripheral/Source/gd32f3x0_hal_i2c.c ****     /* initialize receive parameters */
 782:../firmware/gd32f3x0_hal_peripheral/Source/gd32f3x0_hal_i2c.c ****     i2c_dev->rxbuffer.buffer = (uint8_t *)p_buffer;
 1979              		.loc 1 782 30
 1980 0038 FB68     		ldr	r3, [r7, #12]
 1981 003a BA68     		ldr	r2, [r7, #8]
 1982 003c 1A62     		str	r2, [r3, #32]
 783:../firmware/gd32f3x0_hal_peripheral/Source/gd32f3x0_hal_i2c.c ****     i2c_dev->rxbuffer.length = length;
 1983              		.loc 1 783 30
 1984 003e FB68     		ldr	r3, [r7, #12]
 1985 0040 7A68     		ldr	r2, [r7, #4]
 1986 0042 5A62     		str	r2, [r3, #36]
 784:../firmware/gd32f3x0_hal_peripheral/Source/gd32f3x0_hal_i2c.c ****     i2c_dev->rxbuffer.pos = 0;
 1987              		.loc 1 784 27
 1988 0044 FB68     		ldr	r3, [r7, #12]
 1989 0046 0022     		movs	r2, #0
 1990 0048 9A62     		str	r2, [r3, #40]
 785:../firmware/gd32f3x0_hal_peripheral/Source/gd32f3x0_hal_i2c.c ****     data_length = i2c_dev->rxbuffer.length;
 1991              		.loc 1 785 17
 1992 004a FB68     		ldr	r3, [r7, #12]
 1993 004c 5B6A     		ldr	r3, [r3, #36]
 1994 004e 7B61     		str	r3, [r7, #20]
 786:../firmware/gd32f3x0_hal_peripheral/Source/gd32f3x0_hal_i2c.c **** 
 787:../firmware/gd32f3x0_hal_peripheral/Source/gd32f3x0_hal_i2c.c ****     i2c_dev->rx_state = HAL_I2C_STATE_BUSY;
 1995              		.loc 1 787 23
 1996 0050 FB68     		ldr	r3, [r7, #12]
 1997 0052 0122     		movs	r2, #1
 1998 0054 83F84120 		strb	r2, [r3, #65]
 788:../firmware/gd32f3x0_hal_peripheral/Source/gd32f3x0_hal_i2c.c ****     i2c_dev->last_error = HAL_I2C_ERROR_NONE;
 1999              		.loc 1 788 25
 2000 0058 FB68     		ldr	r3, [r7, #12]
 2001 005a 0022     		movs	r2, #0
 2002 005c 5A87     		strh	r2, [r3, #58]	@ movhi
 789:../firmware/gd32f3x0_hal_peripheral/Source/gd32f3x0_hal_i2c.c ****     hals_i2c_ack_config(i2c_dev->periph, I2C_ACK_ENABLE);
 2003              		.loc 1 789 5
 2004 005e FB68     		ldr	r3, [r7, #12]
 2005 0060 1B68     		ldr	r3, [r3]
 2006 0062 4FF48061 		mov	r1, #1024
 2007 0066 1846     		mov	r0, r3
 2008 0068 FFF7FEFF 		bl	hals_i2c_ack_config
 790:../firmware/gd32f3x0_hal_peripheral/Source/gd32f3x0_hal_i2c.c ****     /* wait until ADDSEND bit is set */
 791:../firmware/gd32f3x0_hal_peripheral/Source/gd32f3x0_hal_i2c.c ****     if(HAL_ERR_NONE != _i2c_wait_flag_timeout(i2c_dev->periph, I2C_FLAG_ADDSEND, SET, timeout_ms)) 
 2009              		.loc 1 791 24
 2010 006c FB68     		ldr	r3, [r7, #12]
 2011 006e 1868     		ldr	r0, [r3]
 2012 0070 3B68     		ldr	r3, [r7]
 2013 0072 0122     		movs	r2, #1
 2014 0074 40F20151 		movw	r1, #1281
 2015 0078 FFF7FEFF 		bl	_i2c_wait_flag_timeout
 2016 007c 0346     		mov	r3, r0
 2017              		.loc 1 791 7
 2018 007e 002B     		cmp	r3, #0
 2019 0080 02D0     		beq	.L90
 792:../firmware/gd32f3x0_hal_peripheral/Source/gd32f3x0_hal_i2c.c ****         HAL_DEBUGW("i2c get ADDSEND timeout");
 793:../firmware/gd32f3x0_hal_peripheral/Source/gd32f3x0_hal_i2c.c ****         return HAL_ERR_TIMEOUT;
 2020              		.loc 1 793 16
 2021 0082 6FF00403 		mvn	r3, #4
 2022 0086 52E0     		b	.L88
 2023              	.L90:
 794:../firmware/gd32f3x0_hal_peripheral/Source/gd32f3x0_hal_i2c.c ****     }
 795:../firmware/gd32f3x0_hal_peripheral/Source/gd32f3x0_hal_i2c.c ****     /* clear ADDSEND bit */
 796:../firmware/gd32f3x0_hal_peripheral/Source/gd32f3x0_hal_i2c.c ****     hals_i2c_flag_clear(i2c_dev->periph, I2C_FLAG_ADDSEND);
 2024              		.loc 1 796 5
 2025 0088 FB68     		ldr	r3, [r7, #12]
 2026 008a 1B68     		ldr	r3, [r3]
 2027 008c 40F20151 		movw	r1, #1281
 2028 0090 1846     		mov	r0, r3
 2029 0092 FFF7FEFF 		bl	hals_i2c_flag_clear
 797:../firmware/gd32f3x0_hal_peripheral/Source/gd32f3x0_hal_i2c.c **** 
 798:../firmware/gd32f3x0_hal_peripheral/Source/gd32f3x0_hal_i2c.c ****     while(i2c_dev->rxbuffer.pos < data_length) {
 2030              		.loc 1 798 10
 2031 0096 20E0     		b	.L91
 2032              	.L93:
 799:../firmware/gd32f3x0_hal_peripheral/Source/gd32f3x0_hal_i2c.c ****         /* wait until the RBNE bit is set */
 800:../firmware/gd32f3x0_hal_peripheral/Source/gd32f3x0_hal_i2c.c ****         if(HAL_ERR_NONE != _i2c_wait_flag_timeout(i2c_dev->periph, I2C_FLAG_RBNE, SET, timeout_ms))
 2033              		.loc 1 800 28
 2034 0098 FB68     		ldr	r3, [r7, #12]
 2035 009a 1868     		ldr	r0, [r3]
 2036 009c 3B68     		ldr	r3, [r7]
 2037 009e 0122     		movs	r2, #1
 2038 00a0 40F20651 		movw	r1, #1286
 2039 00a4 FFF7FEFF 		bl	_i2c_wait_flag_timeout
 2040 00a8 0346     		mov	r3, r0
 2041              		.loc 1 800 11
 2042 00aa 002B     		cmp	r3, #0
 2043 00ac 02D0     		beq	.L92
 801:../firmware/gd32f3x0_hal_peripheral/Source/gd32f3x0_hal_i2c.c ****             HAL_DEBUGW("i2c get RBNE timeout");
 802:../firmware/gd32f3x0_hal_peripheral/Source/gd32f3x0_hal_i2c.c ****             return HAL_ERR_TIMEOUT;
 2044              		.loc 1 802 20
 2045 00ae 6FF00403 		mvn	r3, #4
 2046 00b2 3CE0     		b	.L88
 2047              	.L92:
 803:../firmware/gd32f3x0_hal_peripheral/Source/gd32f3x0_hal_i2c.c ****         }
 804:../firmware/gd32f3x0_hal_peripheral/Source/gd32f3x0_hal_i2c.c ****         *i2c_dev->rxbuffer.buffer = hals_i2c_data_receive(i2c_dev->periph);
 2048              		.loc 1 804 37
 2049 00b4 FB68     		ldr	r3, [r7, #12]
 2050 00b6 1A68     		ldr	r2, [r3]
 2051              		.loc 1 804 27
 2052 00b8 FB68     		ldr	r3, [r7, #12]
 2053 00ba 1C6A     		ldr	r4, [r3, #32]
 2054              		.loc 1 804 37
 2055 00bc 1046     		mov	r0, r2
 2056 00be FFF7FEFF 		bl	hals_i2c_data_receive
 2057 00c2 0346     		mov	r3, r0
 2058              		.loc 1 804 35
 2059 00c4 2370     		strb	r3, [r4]
 805:../firmware/gd32f3x0_hal_peripheral/Source/gd32f3x0_hal_i2c.c ****         i2c_dev->rxbuffer.buffer++;
 2060              		.loc 1 805 26
 2061 00c6 FB68     		ldr	r3, [r7, #12]
 2062 00c8 1B6A     		ldr	r3, [r3, #32]
 2063              		.loc 1 805 33
 2064 00ca 5A1C     		adds	r2, r3, #1
 2065 00cc FB68     		ldr	r3, [r7, #12]
 2066 00ce 1A62     		str	r2, [r3, #32]
 806:../firmware/gd32f3x0_hal_peripheral/Source/gd32f3x0_hal_i2c.c ****         i2c_dev->rxbuffer.pos++;
 2067              		.loc 1 806 26
 2068 00d0 FB68     		ldr	r3, [r7, #12]
 2069 00d2 9B6A     		ldr	r3, [r3, #40]
 2070              		.loc 1 806 30
 2071 00d4 5A1C     		adds	r2, r3, #1
 2072 00d6 FB68     		ldr	r3, [r7, #12]
 2073 00d8 9A62     		str	r2, [r3, #40]
 2074              	.L91:
 798:../firmware/gd32f3x0_hal_peripheral/Source/gd32f3x0_hal_i2c.c ****         /* wait until the RBNE bit is set */
 2075              		.loc 1 798 28
 2076 00da FB68     		ldr	r3, [r7, #12]
 2077 00dc 9B6A     		ldr	r3, [r3, #40]
 798:../firmware/gd32f3x0_hal_peripheral/Source/gd32f3x0_hal_i2c.c ****         /* wait until the RBNE bit is set */
 2078              		.loc 1 798 10
 2079 00de 7A69     		ldr	r2, [r7, #20]
 2080 00e0 9A42     		cmp	r2, r3
 2081 00e2 D9D8     		bhi	.L93
 807:../firmware/gd32f3x0_hal_peripheral/Source/gd32f3x0_hal_i2c.c ****     }
 808:../firmware/gd32f3x0_hal_peripheral/Source/gd32f3x0_hal_i2c.c ****     /* wait until the STPDET bit is set */
 809:../firmware/gd32f3x0_hal_peripheral/Source/gd32f3x0_hal_i2c.c ****     if(HAL_ERR_NONE != _i2c_wait_flag_timeout(i2c_dev->periph, I2C_FLAG_STPDET, SET, timeout_ms)) {
 2082              		.loc 1 809 24
 2083 00e4 FB68     		ldr	r3, [r7, #12]
 2084 00e6 1868     		ldr	r0, [r3]
 2085 00e8 3B68     		ldr	r3, [r7]
 2086 00ea 0122     		movs	r2, #1
 2087 00ec 40F20451 		movw	r1, #1284
 2088 00f0 FFF7FEFF 		bl	_i2c_wait_flag_timeout
 2089 00f4 0346     		mov	r3, r0
 2090              		.loc 1 809 7
 2091 00f6 002B     		cmp	r3, #0
 2092 00f8 02D0     		beq	.L94
 810:../firmware/gd32f3x0_hal_peripheral/Source/gd32f3x0_hal_i2c.c ****         HAL_DEBUGW("i2c get stop timeout");
 811:../firmware/gd32f3x0_hal_peripheral/Source/gd32f3x0_hal_i2c.c ****         return HAL_ERR_TIMEOUT;
 2093              		.loc 1 811 16
 2094 00fa 6FF00403 		mvn	r3, #4
 2095 00fe 16E0     		b	.L88
 2096              	.L94:
 812:../firmware/gd32f3x0_hal_peripheral/Source/gd32f3x0_hal_i2c.c ****     }
 813:../firmware/gd32f3x0_hal_peripheral/Source/gd32f3x0_hal_i2c.c ****     /* clear the STPDET bit */
 814:../firmware/gd32f3x0_hal_peripheral/Source/gd32f3x0_hal_i2c.c ****     HAL_I2C_ENABLE(i2c_dev->periph);
 2097              		.loc 1 814 5
 2098 0100 FB68     		ldr	r3, [r7, #12]
 2099 0102 1B68     		ldr	r3, [r3]
 2100 0104 1B68     		ldr	r3, [r3]
 2101 0106 FA68     		ldr	r2, [r7, #12]
 2102 0108 1268     		ldr	r2, [r2]
 2103 010a 43F00103 		orr	r3, r3, #1
 2104 010e 1360     		str	r3, [r2]
 815:../firmware/gd32f3x0_hal_peripheral/Source/gd32f3x0_hal_i2c.c **** 
 816:../firmware/gd32f3x0_hal_peripheral/Source/gd32f3x0_hal_i2c.c ****     hals_i2c_ack_config(i2c_dev->periph, I2C_ACK_DISABLE);
 2105              		.loc 1 816 5
 2106 0110 FB68     		ldr	r3, [r7, #12]
 2107 0112 1B68     		ldr	r3, [r3]
 2108 0114 0021     		movs	r1, #0
 2109 0116 1846     		mov	r0, r3
 2110 0118 FFF7FEFF 		bl	hals_i2c_ack_config
 817:../firmware/gd32f3x0_hal_peripheral/Source/gd32f3x0_hal_i2c.c ****     i2c_dev->rx_state = HAL_I2C_STATE_READY;
 2111              		.loc 1 817 23
 2112 011c FB68     		ldr	r3, [r7, #12]
 2113 011e 0022     		movs	r2, #0
 2114 0120 83F84120 		strb	r2, [r3, #65]
 818:../firmware/gd32f3x0_hal_peripheral/Source/gd32f3x0_hal_i2c.c **** 
 819:../firmware/gd32f3x0_hal_peripheral/Source/gd32f3x0_hal_i2c.c ****     HAL_UNLOCK(i2c_dev);
 2115              		.loc 1 819 5
 2116 0124 FB68     		ldr	r3, [r7, #12]
 2117 0126 0022     		movs	r2, #0
 2118 0128 83F85020 		strb	r2, [r3, #80]
 820:../firmware/gd32f3x0_hal_peripheral/Source/gd32f3x0_hal_i2c.c ****     return HAL_ERR_NONE;
 2119              		.loc 1 820 12
 2120 012c 0023     		movs	r3, #0
 2121              	.L88:
 821:../firmware/gd32f3x0_hal_peripheral/Source/gd32f3x0_hal_i2c.c **** }
 2122              		.loc 1 821 1
 2123 012e 1846     		mov	r0, r3
 2124 0130 1C37     		adds	r7, r7, #28
 2125              		.cfi_def_cfa_offset 12
 2126 0132 BD46     		mov	sp, r7
 2127              		.cfi_def_cfa_register 13
 2128              		@ sp needed
 2129 0134 90BD     		pop	{r4, r7, pc}
 2130              		.cfi_endproc
 2131              	.LFE131:
 2133              		.section	.text.hal_i2c_memory_write_poll,"ax",%progbits
 2134              		.align	1
 2135              		.global	hal_i2c_memory_write_poll
 2136              		.syntax unified
 2137              		.thumb
 2138              		.thumb_func
 2139              		.fpu softvfp
 2141              	hal_i2c_memory_write_poll:
 2142              	.LFB132:
 822:../firmware/gd32f3x0_hal_peripheral/Source/gd32f3x0_hal_i2c.c **** 
 823:../firmware/gd32f3x0_hal_peripheral/Source/gd32f3x0_hal_i2c.c **** /*!
 824:../firmware/gd32f3x0_hal_peripheral/Source/gd32f3x0_hal_i2c.c ****     \brief      write amounts of data to memory, poll transmit process and completed status,
 825:../firmware/gd32f3x0_hal_peripheral/Source/gd32f3x0_hal_i2c.c ****                 the function is blocking
 826:../firmware/gd32f3x0_hal_peripheral/Source/gd32f3x0_hal_i2c.c ****     \param[in]  i2c_dev: I2C device information structrue
 827:../firmware/gd32f3x0_hal_peripheral/Source/gd32f3x0_hal_i2c.c ****                   the structure is not necessary to be reconfigured after structrue initialization,
 828:../firmware/gd32f3x0_hal_peripheral/Source/gd32f3x0_hal_i2c.c ****                   the structure parameters altering is automatically configured by core
 829:../firmware/gd32f3x0_hal_peripheral/Source/gd32f3x0_hal_i2c.c ****     \param[in]  p_buffer: pointer to txbuffer
 830:../firmware/gd32f3x0_hal_peripheral/Source/gd32f3x0_hal_i2c.c ****     \param[in]  length: length of data to be sent
 831:../firmware/gd32f3x0_hal_peripheral/Source/gd32f3x0_hal_i2c.c ****     \param[in]  timeout_ms: timeout duration
 832:../firmware/gd32f3x0_hal_peripheral/Source/gd32f3x0_hal_i2c.c ****     \param[out] none
 833:../firmware/gd32f3x0_hal_peripheral/Source/gd32f3x0_hal_i2c.c ****     \retval     error code: HAL_ERR_NONE, HAL_ERR_ADDRESS, HAL_ERR_TIMEOUT, HAL_ERR_VAL,
 834:../firmware/gd32f3x0_hal_peripheral/Source/gd32f3x0_hal_i2c.c ****                 details refer to gd32f3x0_hal.h
 835:../firmware/gd32f3x0_hal_peripheral/Source/gd32f3x0_hal_i2c.c **** */
 836:../firmware/gd32f3x0_hal_peripheral/Source/gd32f3x0_hal_i2c.c **** int32_t hal_i2c_memory_write_poll(hal_i2c_dev_struct *i2c_dev, uint8_t *p_buffer, \
 837:../firmware/gd32f3x0_hal_peripheral/Source/gd32f3x0_hal_i2c.c ****                                   uint32_t length, uint32_t timeout_ms)
 838:../firmware/gd32f3x0_hal_peripheral/Source/gd32f3x0_hal_i2c.c **** {
 2143              		.loc 1 838 1
 2144              		.cfi_startproc
 2145              		@ args = 0, pretend = 0, frame = 24
 2146              		@ frame_needed = 1, uses_anonymous_args = 0
 2147 0000 80B5     		push	{r7, lr}
 2148              		.cfi_def_cfa_offset 8
 2149              		.cfi_offset 7, -8
 2150              		.cfi_offset 14, -4
 2151 0002 86B0     		sub	sp, sp, #24
 2152              		.cfi_def_cfa_offset 32
 2153 0004 00AF     		add	r7, sp, #0
 2154              		.cfi_def_cfa_register 7
 2155 0006 F860     		str	r0, [r7, #12]
 2156 0008 B960     		str	r1, [r7, #8]
 2157 000a 7A60     		str	r2, [r7, #4]
 2158 000c 3B60     		str	r3, [r7]
 839:../firmware/gd32f3x0_hal_peripheral/Source/gd32f3x0_hal_i2c.c ****     uint32_t data_length;
 840:../firmware/gd32f3x0_hal_peripheral/Source/gd32f3x0_hal_i2c.c **** 
 841:../firmware/gd32f3x0_hal_peripheral/Source/gd32f3x0_hal_i2c.c **** #if (1 == HAL_PARAMETER_CHECK)
 842:../firmware/gd32f3x0_hal_peripheral/Source/gd32f3x0_hal_i2c.c ****     /* check the parameters */
 843:../firmware/gd32f3x0_hal_peripheral/Source/gd32f3x0_hal_i2c.c ****     if((NULL == i2c_dev) || (NULL == p_buffer) || (0U == length)) {
 844:../firmware/gd32f3x0_hal_peripheral/Source/gd32f3x0_hal_i2c.c ****         HAL_DEBUGE("parameter [i2c_dev] or [p_buffer] or [length] value is invalid");
 845:../firmware/gd32f3x0_hal_peripheral/Source/gd32f3x0_hal_i2c.c ****         return HAL_ERR_ADDRESS;
 846:../firmware/gd32f3x0_hal_peripheral/Source/gd32f3x0_hal_i2c.c ****     }
 847:../firmware/gd32f3x0_hal_peripheral/Source/gd32f3x0_hal_i2c.c **** 
 848:../firmware/gd32f3x0_hal_peripheral/Source/gd32f3x0_hal_i2c.c ****     HAL_LOCK(i2c_dev);
 849:../firmware/gd32f3x0_hal_peripheral/Source/gd32f3x0_hal_i2c.c ****     /* check whether the address size is legal */
 850:../firmware/gd32f3x0_hal_peripheral/Source/gd32f3x0_hal_i2c.c ****     if((I2C_MEMORY_ADDRESS_8BIT != i2c_dev->slave_address.address_size) && \
 851:../firmware/gd32f3x0_hal_peripheral/Source/gd32f3x0_hal_i2c.c ****             (I2C_MEMORY_ADDRESS_16BIT != i2c_dev->slave_address.address_size)) {
 852:../firmware/gd32f3x0_hal_peripheral/Source/gd32f3x0_hal_i2c.c ****         HAL_DEBUGE("parameter [address_size] value is invalid");
 853:../firmware/gd32f3x0_hal_peripheral/Source/gd32f3x0_hal_i2c.c ****         return HAL_ERR_VAL;
 854:../firmware/gd32f3x0_hal_peripheral/Source/gd32f3x0_hal_i2c.c ****     }
 855:../firmware/gd32f3x0_hal_peripheral/Source/gd32f3x0_hal_i2c.c **** #endif /* 1 == HAL_PARAMETER_CHECK */
 856:../firmware/gd32f3x0_hal_peripheral/Source/gd32f3x0_hal_i2c.c **** 
 857:../firmware/gd32f3x0_hal_peripheral/Source/gd32f3x0_hal_i2c.c ****     /* check the tx_state whether it is busy or not */
 858:../firmware/gd32f3x0_hal_peripheral/Source/gd32f3x0_hal_i2c.c ****     if(HAL_I2C_STATE_MEMORY_BUSY_TX == i2c_dev->tx_state) {
 2159              		.loc 1 858 47
 2160 000e FB68     		ldr	r3, [r7, #12]
 2161 0010 93F84030 		ldrb	r3, [r3, #64]
 2162 0014 DBB2     		uxtb	r3, r3
 2163              		.loc 1 858 7
 2164 0016 022B     		cmp	r3, #2
 2165 0018 02D1     		bne	.L96
 859:../firmware/gd32f3x0_hal_peripheral/Source/gd32f3x0_hal_i2c.c ****         HAL_DEBUGE("i2c tx has already been used, please wait until run_state change to free ");
 860:../firmware/gd32f3x0_hal_peripheral/Source/gd32f3x0_hal_i2c.c ****         return HAL_ERR_BUSY;
 2166              		.loc 1 860 16
 2167 001a 6FF00203 		mvn	r3, #2
 2168 001e 7CE0     		b	.L97
 2169              	.L96:
 861:../firmware/gd32f3x0_hal_peripheral/Source/gd32f3x0_hal_i2c.c ****     }
 862:../firmware/gd32f3x0_hal_peripheral/Source/gd32f3x0_hal_i2c.c **** 
 863:../firmware/gd32f3x0_hal_peripheral/Source/gd32f3x0_hal_i2c.c ****     /* wait until I2C bus is idle */
 864:../firmware/gd32f3x0_hal_peripheral/Source/gd32f3x0_hal_i2c.c ****     if(HAL_ERR_NONE != _i2c_wait_flag_timeout(i2c_dev->periph, I2C_FLAG_I2CBSY, RESET, timeout_ms))
 2170              		.loc 1 864 24
 2171 0020 FB68     		ldr	r3, [r7, #12]
 2172 0022 1868     		ldr	r0, [r3]
 2173 0024 3B68     		ldr	r3, [r7]
 2174 0026 0022     		movs	r2, #0
 2175 0028 40F20161 		movw	r1, #1537
 2176 002c FFF7FEFF 		bl	_i2c_wait_flag_timeout
 2177 0030 0346     		mov	r3, r0
 2178              		.loc 1 864 7
 2179 0032 002B     		cmp	r3, #0
 2180 0034 02D0     		beq	.L98
 865:../firmware/gd32f3x0_hal_peripheral/Source/gd32f3x0_hal_i2c.c ****         HAL_DEBUGW("i2c busy timeout");
 866:../firmware/gd32f3x0_hal_peripheral/Source/gd32f3x0_hal_i2c.c ****         return HAL_ERR_TIMEOUT;
 2181              		.loc 1 866 16
 2182 0036 6FF00403 		mvn	r3, #4
 2183 003a 6EE0     		b	.L97
 2184              	.L98:
 867:../firmware/gd32f3x0_hal_peripheral/Source/gd32f3x0_hal_i2c.c ****     }
 868:../firmware/gd32f3x0_hal_peripheral/Source/gd32f3x0_hal_i2c.c ****     /* initialize transmit parameters */
 869:../firmware/gd32f3x0_hal_peripheral/Source/gd32f3x0_hal_i2c.c ****     i2c_dev->txbuffer.buffer = (uint8_t *)p_buffer;
 2185              		.loc 1 869 30
 2186 003c FB68     		ldr	r3, [r7, #12]
 2187 003e BA68     		ldr	r2, [r7, #8]
 2188 0040 5A61     		str	r2, [r3, #20]
 870:../firmware/gd32f3x0_hal_peripheral/Source/gd32f3x0_hal_i2c.c ****     i2c_dev->txbuffer.length = length;
 2189              		.loc 1 870 30
 2190 0042 FB68     		ldr	r3, [r7, #12]
 2191 0044 7A68     		ldr	r2, [r7, #4]
 2192 0046 9A61     		str	r2, [r3, #24]
 871:../firmware/gd32f3x0_hal_peripheral/Source/gd32f3x0_hal_i2c.c ****     i2c_dev->txbuffer.pos = 0;
 2193              		.loc 1 871 27
 2194 0048 FB68     		ldr	r3, [r7, #12]
 2195 004a 0022     		movs	r2, #0
 2196 004c DA61     		str	r2, [r3, #28]
 872:../firmware/gd32f3x0_hal_peripheral/Source/gd32f3x0_hal_i2c.c ****     data_length = i2c_dev->txbuffer.length;
 2197              		.loc 1 872 17
 2198 004e FB68     		ldr	r3, [r7, #12]
 2199 0050 9B69     		ldr	r3, [r3, #24]
 2200 0052 7B61     		str	r3, [r7, #20]
 873:../firmware/gd32f3x0_hal_peripheral/Source/gd32f3x0_hal_i2c.c **** 
 874:../firmware/gd32f3x0_hal_peripheral/Source/gd32f3x0_hal_i2c.c ****     i2c_dev->tx_state = HAL_I2C_STATE_MEMORY_BUSY_TX;
 2201              		.loc 1 874 23
 2202 0054 FB68     		ldr	r3, [r7, #12]
 2203 0056 0222     		movs	r2, #2
 2204 0058 83F84020 		strb	r2, [r3, #64]
 875:../firmware/gd32f3x0_hal_peripheral/Source/gd32f3x0_hal_i2c.c ****     i2c_dev->last_error = HAL_I2C_ERROR_NONE;
 2205              		.loc 1 875 25
 2206 005c FB68     		ldr	r3, [r7, #12]
 2207 005e 0022     		movs	r2, #0
 2208 0060 5A87     		strh	r2, [r3, #58]	@ movhi
 876:../firmware/gd32f3x0_hal_peripheral/Source/gd32f3x0_hal_i2c.c ****     /* master sends device address for memory write request */
 877:../firmware/gd32f3x0_hal_peripheral/Source/gd32f3x0_hal_i2c.c ****     if(HAL_ERR_NONE != _i2c_memory_write(i2c_dev, timeout_ms)) {
 2209              		.loc 1 877 24
 2210 0062 3968     		ldr	r1, [r7]
 2211 0064 F868     		ldr	r0, [r7, #12]
 2212 0066 FFF7FEFF 		bl	_i2c_memory_write
 2213 006a 0346     		mov	r3, r0
 2214              		.loc 1 877 7
 2215 006c 002B     		cmp	r3, #0
 2216 006e 36D0     		beq	.L100
 878:../firmware/gd32f3x0_hal_peripheral/Source/gd32f3x0_hal_i2c.c ****         return HAL_ERR_TIMEOUT;
 2217              		.loc 1 878 16
 2218 0070 6FF00403 		mvn	r3, #4
 2219 0074 51E0     		b	.L97
 2220              	.L102:
 879:../firmware/gd32f3x0_hal_peripheral/Source/gd32f3x0_hal_i2c.c ****     }
 880:../firmware/gd32f3x0_hal_peripheral/Source/gd32f3x0_hal_i2c.c **** 
 881:../firmware/gd32f3x0_hal_peripheral/Source/gd32f3x0_hal_i2c.c ****     while(i2c_dev->txbuffer.pos < data_length) {
 882:../firmware/gd32f3x0_hal_peripheral/Source/gd32f3x0_hal_i2c.c ****         /* wait until the transmission data register is empty */
 883:../firmware/gd32f3x0_hal_peripheral/Source/gd32f3x0_hal_i2c.c ****         if(HAL_ERR_NONE != _i2c_wait_flag_timeout(i2c_dev->periph, I2C_FLAG_TBE, SET, timeout_ms)) 
 2221              		.loc 1 883 28
 2222 0076 FB68     		ldr	r3, [r7, #12]
 2223 0078 1868     		ldr	r0, [r3]
 2224 007a 3B68     		ldr	r3, [r7]
 2225 007c 0122     		movs	r2, #1
 2226 007e 40F20751 		movw	r1, #1287
 2227 0082 FFF7FEFF 		bl	_i2c_wait_flag_timeout
 2228 0086 0346     		mov	r3, r0
 2229              		.loc 1 883 11
 2230 0088 002B     		cmp	r3, #0
 2231 008a 02D0     		beq	.L101
 884:../firmware/gd32f3x0_hal_peripheral/Source/gd32f3x0_hal_i2c.c ****             HAL_DEBUGW("i2c get TBE timeout");
 885:../firmware/gd32f3x0_hal_peripheral/Source/gd32f3x0_hal_i2c.c ****             return HAL_ERR_TIMEOUT;
 2232              		.loc 1 885 20
 2233 008c 6FF00403 		mvn	r3, #4
 2234 0090 43E0     		b	.L97
 2235              	.L101:
 886:../firmware/gd32f3x0_hal_peripheral/Source/gd32f3x0_hal_i2c.c ****         }
 887:../firmware/gd32f3x0_hal_peripheral/Source/gd32f3x0_hal_i2c.c ****         hals_i2c_data_transmit(i2c_dev->periph, *i2c_dev->txbuffer.buffer);
 2236              		.loc 1 887 9
 2237 0092 FB68     		ldr	r3, [r7, #12]
 2238 0094 1A68     		ldr	r2, [r3]
 2239              		.loc 1 887 67
 2240 0096 FB68     		ldr	r3, [r7, #12]
 2241 0098 5B69     		ldr	r3, [r3, #20]
 2242              		.loc 1 887 9
 2243 009a 1B78     		ldrb	r3, [r3]
 2244 009c DBB2     		uxtb	r3, r3
 2245 009e 1946     		mov	r1, r3
 2246 00a0 1046     		mov	r0, r2
 2247 00a2 FFF7FEFF 		bl	hals_i2c_data_transmit
 888:../firmware/gd32f3x0_hal_peripheral/Source/gd32f3x0_hal_i2c.c ****         i2c_dev->txbuffer.buffer++;
 2248              		.loc 1 888 26
 2249 00a6 FB68     		ldr	r3, [r7, #12]
 2250 00a8 5B69     		ldr	r3, [r3, #20]
 2251              		.loc 1 888 33
 2252 00aa 5A1C     		adds	r2, r3, #1
 2253 00ac FB68     		ldr	r3, [r7, #12]
 2254 00ae 5A61     		str	r2, [r3, #20]
 889:../firmware/gd32f3x0_hal_peripheral/Source/gd32f3x0_hal_i2c.c ****         i2c_dev->txbuffer.pos++;
 2255              		.loc 1 889 26
 2256 00b0 FB68     		ldr	r3, [r7, #12]
 2257 00b2 DB69     		ldr	r3, [r3, #28]
 2258              		.loc 1 889 30
 2259 00b4 5A1C     		adds	r2, r3, #1
 2260 00b6 FB68     		ldr	r3, [r7, #12]
 2261 00b8 DA61     		str	r2, [r3, #28]
 890:../firmware/gd32f3x0_hal_peripheral/Source/gd32f3x0_hal_i2c.c ****         /* wait until BTC bit is set */
 891:../firmware/gd32f3x0_hal_peripheral/Source/gd32f3x0_hal_i2c.c ****         if((SET == hals_i2c_flag_get(i2c_dev->periph, I2C_FLAG_BTC)) && (i2c_dev->txbuffer.pos != d
 2262              		.loc 1 891 20
 2263 00ba FB68     		ldr	r3, [r7, #12]
 2264 00bc 1B68     		ldr	r3, [r3]
 2265 00be 40F20251 		movw	r1, #1282
 2266 00c2 1846     		mov	r0, r3
 2267 00c4 FFF7FEFF 		bl	hals_i2c_flag_get
 2268 00c8 0346     		mov	r3, r0
 2269              		.loc 1 891 11
 2270 00ca 012B     		cmp	r3, #1
 2271 00cc 07D1     		bne	.L100
 2272              		.loc 1 891 91 discriminator 1
 2273 00ce FB68     		ldr	r3, [r7, #12]
 2274 00d0 DB69     		ldr	r3, [r3, #28]
 2275              		.loc 1 891 70 discriminator 1
 2276 00d2 7A69     		ldr	r2, [r7, #20]
 2277 00d4 9A42     		cmp	r2, r3
 2278 00d6 02D0     		beq	.L100
 892:../firmware/gd32f3x0_hal_peripheral/Source/gd32f3x0_hal_i2c.c ****             HAL_DEBUGW("i2c get BTC timeout");
 893:../firmware/gd32f3x0_hal_peripheral/Source/gd32f3x0_hal_i2c.c ****             return HAL_ERR_TIMEOUT;
 2279              		.loc 1 893 20
 2280 00d8 6FF00403 		mvn	r3, #4
 2281 00dc 1DE0     		b	.L97
 2282              	.L100:
 881:../firmware/gd32f3x0_hal_peripheral/Source/gd32f3x0_hal_i2c.c ****         /* wait until the transmission data register is empty */
 2283              		.loc 1 881 28
 2284 00de FB68     		ldr	r3, [r7, #12]
 2285 00e0 DB69     		ldr	r3, [r3, #28]
 881:../firmware/gd32f3x0_hal_peripheral/Source/gd32f3x0_hal_i2c.c ****         /* wait until the transmission data register is empty */
 2286              		.loc 1 881 10
 2287 00e2 7A69     		ldr	r2, [r7, #20]
 2288 00e4 9A42     		cmp	r2, r3
 2289 00e6 C6D8     		bhi	.L102
 894:../firmware/gd32f3x0_hal_peripheral/Source/gd32f3x0_hal_i2c.c ****         }
 895:../firmware/gd32f3x0_hal_peripheral/Source/gd32f3x0_hal_i2c.c ****     }
 896:../firmware/gd32f3x0_hal_peripheral/Source/gd32f3x0_hal_i2c.c ****     /* send a stop condition to I2C bus */
 897:../firmware/gd32f3x0_hal_peripheral/Source/gd32f3x0_hal_i2c.c ****     HAL_I2C_STOP_ON_BUS(i2c_dev->periph);
 2290              		.loc 1 897 5
 2291 00e8 FB68     		ldr	r3, [r7, #12]
 2292 00ea 1B68     		ldr	r3, [r3]
 2293 00ec 1B68     		ldr	r3, [r3]
 2294 00ee FA68     		ldr	r2, [r7, #12]
 2295 00f0 1268     		ldr	r2, [r2]
 2296 00f2 43F40073 		orr	r3, r3, #512
 2297 00f6 1360     		str	r3, [r2]
 898:../firmware/gd32f3x0_hal_peripheral/Source/gd32f3x0_hal_i2c.c ****     while(I2C_CTL0(i2c_dev->periph) & 0x0200);
 2298              		.loc 1 898 10
 2299 00f8 00BF     		nop
 2300              	.L103:
 2301              		.loc 1 898 11 discriminator 1
 2302 00fa FB68     		ldr	r3, [r7, #12]
 2303 00fc 1B68     		ldr	r3, [r3]
 2304 00fe 1B68     		ldr	r3, [r3]
 2305              		.loc 1 898 37 discriminator 1
 2306 0100 03F40073 		and	r3, r3, #512
 2307              		.loc 1 898 10 discriminator 1
 2308 0104 002B     		cmp	r3, #0
 2309 0106 F8D1     		bne	.L103
 899:../firmware/gd32f3x0_hal_peripheral/Source/gd32f3x0_hal_i2c.c ****     i2c_dev->tx_state = HAL_I2C_STATE_READY;
 2310              		.loc 1 899 23
 2311 0108 FB68     		ldr	r3, [r7, #12]
 2312 010a 0022     		movs	r2, #0
 2313 010c 83F84020 		strb	r2, [r3, #64]
 900:../firmware/gd32f3x0_hal_peripheral/Source/gd32f3x0_hal_i2c.c **** 
 901:../firmware/gd32f3x0_hal_peripheral/Source/gd32f3x0_hal_i2c.c ****     HAL_UNLOCK(i2c_dev);
 2314              		.loc 1 901 5
 2315 0110 FB68     		ldr	r3, [r7, #12]
 2316 0112 0022     		movs	r2, #0
 2317 0114 83F85020 		strb	r2, [r3, #80]
 902:../firmware/gd32f3x0_hal_peripheral/Source/gd32f3x0_hal_i2c.c ****     return HAL_ERR_NONE;
 2318              		.loc 1 902 12
 2319 0118 0023     		movs	r3, #0
 2320              	.L97:
 903:../firmware/gd32f3x0_hal_peripheral/Source/gd32f3x0_hal_i2c.c **** }
 2321              		.loc 1 903 1
 2322 011a 1846     		mov	r0, r3
 2323 011c 1837     		adds	r7, r7, #24
 2324              		.cfi_def_cfa_offset 8
 2325 011e BD46     		mov	sp, r7
 2326              		.cfi_def_cfa_register 13
 2327              		@ sp needed
 2328 0120 80BD     		pop	{r7, pc}
 2329              		.cfi_endproc
 2330              	.LFE132:
 2332              		.section	.text.hal_i2c_memory_read_poll,"ax",%progbits
 2333              		.align	1
 2334              		.global	hal_i2c_memory_read_poll
 2335              		.syntax unified
 2336              		.thumb
 2337              		.thumb_func
 2338              		.fpu softvfp
 2340              	hal_i2c_memory_read_poll:
 2341              	.LFB133:
 904:../firmware/gd32f3x0_hal_peripheral/Source/gd32f3x0_hal_i2c.c **** 
 905:../firmware/gd32f3x0_hal_peripheral/Source/gd32f3x0_hal_i2c.c **** /*!
 906:../firmware/gd32f3x0_hal_peripheral/Source/gd32f3x0_hal_i2c.c ****     \brief      read amounts of data from memory, poll receive process and completed status,
 907:../firmware/gd32f3x0_hal_peripheral/Source/gd32f3x0_hal_i2c.c ****                 the function is blocking
 908:../firmware/gd32f3x0_hal_peripheral/Source/gd32f3x0_hal_i2c.c ****     \param[in]  i2c_dev: I2C device information structrue
 909:../firmware/gd32f3x0_hal_peripheral/Source/gd32f3x0_hal_i2c.c ****                   the structure is not necessary to be reconfigured after structrue initialization,
 910:../firmware/gd32f3x0_hal_peripheral/Source/gd32f3x0_hal_i2c.c ****                   the structure parameters altering is automatically configured by core
 911:../firmware/gd32f3x0_hal_peripheral/Source/gd32f3x0_hal_i2c.c ****     \param[in]  p_buffer: pointer to rxbuffer
 912:../firmware/gd32f3x0_hal_peripheral/Source/gd32f3x0_hal_i2c.c ****     \param[in]  length: length of data to be read
 913:../firmware/gd32f3x0_hal_peripheral/Source/gd32f3x0_hal_i2c.c ****     \param[in]  timeout_ms: timeout duration
 914:../firmware/gd32f3x0_hal_peripheral/Source/gd32f3x0_hal_i2c.c ****     \param[out] none
 915:../firmware/gd32f3x0_hal_peripheral/Source/gd32f3x0_hal_i2c.c ****     \retval     error code: HAL_ERR_NONE, HAL_ERR_ADDRESS, HAL_ERR_TIMEOUT, HAL_ERR_VAL,
 916:../firmware/gd32f3x0_hal_peripheral/Source/gd32f3x0_hal_i2c.c ****                 details refer to gd32f3x0_hal.h
 917:../firmware/gd32f3x0_hal_peripheral/Source/gd32f3x0_hal_i2c.c **** */
 918:../firmware/gd32f3x0_hal_peripheral/Source/gd32f3x0_hal_i2c.c **** int32_t hal_i2c_memory_read_poll(hal_i2c_dev_struct *i2c_dev, uint8_t *p_buffer, \
 919:../firmware/gd32f3x0_hal_peripheral/Source/gd32f3x0_hal_i2c.c ****                                  uint32_t length, uint32_t timeout_ms)
 920:../firmware/gd32f3x0_hal_peripheral/Source/gd32f3x0_hal_i2c.c **** {
 2342              		.loc 1 920 1
 2343              		.cfi_startproc
 2344              		@ args = 0, pretend = 0, frame = 16
 2345              		@ frame_needed = 1, uses_anonymous_args = 0
 2346 0000 90B5     		push	{r4, r7, lr}
 2347              		.cfi_def_cfa_offset 12
 2348              		.cfi_offset 4, -12
 2349              		.cfi_offset 7, -8
 2350              		.cfi_offset 14, -4
 2351 0002 85B0     		sub	sp, sp, #20
 2352              		.cfi_def_cfa_offset 32
 2353 0004 00AF     		add	r7, sp, #0
 2354              		.cfi_def_cfa_register 7
 2355 0006 F860     		str	r0, [r7, #12]
 2356 0008 B960     		str	r1, [r7, #8]
 2357 000a 7A60     		str	r2, [r7, #4]
 2358 000c 3B60     		str	r3, [r7]
 921:../firmware/gd32f3x0_hal_peripheral/Source/gd32f3x0_hal_i2c.c **** #if (1 == HAL_PARAMETER_CHECK)
 922:../firmware/gd32f3x0_hal_peripheral/Source/gd32f3x0_hal_i2c.c ****     /* check the parameters */
 923:../firmware/gd32f3x0_hal_peripheral/Source/gd32f3x0_hal_i2c.c ****     if((NULL == i2c_dev) || (NULL == p_buffer) || (0U == length)) {
 924:../firmware/gd32f3x0_hal_peripheral/Source/gd32f3x0_hal_i2c.c ****         HAL_DEBUGE("parameter [i2c_dev] or [p_buffer] or [length] value is invalid");
 925:../firmware/gd32f3x0_hal_peripheral/Source/gd32f3x0_hal_i2c.c ****         return HAL_ERR_ADDRESS;
 926:../firmware/gd32f3x0_hal_peripheral/Source/gd32f3x0_hal_i2c.c ****     }
 927:../firmware/gd32f3x0_hal_peripheral/Source/gd32f3x0_hal_i2c.c **** 
 928:../firmware/gd32f3x0_hal_peripheral/Source/gd32f3x0_hal_i2c.c ****     /* check whether the address size is legal */
 929:../firmware/gd32f3x0_hal_peripheral/Source/gd32f3x0_hal_i2c.c ****     if((I2C_MEMORY_ADDRESS_8BIT != i2c_dev->slave_address.address_size) && \
 930:../firmware/gd32f3x0_hal_peripheral/Source/gd32f3x0_hal_i2c.c ****             (I2C_MEMORY_ADDRESS_16BIT != i2c_dev->slave_address.address_size)) {
 931:../firmware/gd32f3x0_hal_peripheral/Source/gd32f3x0_hal_i2c.c ****         HAL_DEBUGE("parameter [address_size] value is invalid");
 932:../firmware/gd32f3x0_hal_peripheral/Source/gd32f3x0_hal_i2c.c ****         return HAL_ERR_VAL;
 933:../firmware/gd32f3x0_hal_peripheral/Source/gd32f3x0_hal_i2c.c ****     }
 934:../firmware/gd32f3x0_hal_peripheral/Source/gd32f3x0_hal_i2c.c **** #endif /* 1 == HAL_PARAMETER_CHECK */
 935:../firmware/gd32f3x0_hal_peripheral/Source/gd32f3x0_hal_i2c.c **** 
 936:../firmware/gd32f3x0_hal_peripheral/Source/gd32f3x0_hal_i2c.c ****     HAL_LOCK(i2c_dev);
 2359              		.loc 1 936 5
 2360 000e FB68     		ldr	r3, [r7, #12]
 2361 0010 93F85030 		ldrb	r3, [r3, #80]	@ zero_extendqisi2
 2362 0014 012B     		cmp	r3, #1
 2363 0016 02D1     		bne	.L105
 2364              		.loc 1 936 5 is_stmt 0 discriminator 1
 2365 0018 6FF00103 		mvn	r3, #1
 2366 001c 59E1     		b	.L106
 2367              	.L105:
 2368              		.loc 1 936 5 discriminator 2
 2369 001e FB68     		ldr	r3, [r7, #12]
 2370 0020 0122     		movs	r2, #1
 2371 0022 83F85020 		strb	r2, [r3, #80]
 937:../firmware/gd32f3x0_hal_peripheral/Source/gd32f3x0_hal_i2c.c ****     /* check the rx_state whether it is busy or not */
 938:../firmware/gd32f3x0_hal_peripheral/Source/gd32f3x0_hal_i2c.c ****     if(HAL_I2C_STATE_MEMORY_BUSY_RX == i2c_dev->rx_state) {
 2372              		.loc 1 938 47 is_stmt 1 discriminator 2
 2373 0026 FB68     		ldr	r3, [r7, #12]
 2374 0028 93F84130 		ldrb	r3, [r3, #65]
 2375 002c DBB2     		uxtb	r3, r3
 2376              		.loc 1 938 7 discriminator 2
 2377 002e 032B     		cmp	r3, #3
 2378 0030 02D1     		bne	.L107
 939:../firmware/gd32f3x0_hal_peripheral/Source/gd32f3x0_hal_i2c.c ****         HAL_DEBUGE("i2c rx has already been used, please wait until run_state change to free ");
 940:../firmware/gd32f3x0_hal_peripheral/Source/gd32f3x0_hal_i2c.c ****         return HAL_ERR_BUSY;
 2379              		.loc 1 940 16
 2380 0032 6FF00203 		mvn	r3, #2
 2381 0036 4CE1     		b	.L106
 2382              	.L107:
 941:../firmware/gd32f3x0_hal_peripheral/Source/gd32f3x0_hal_i2c.c ****     }
 942:../firmware/gd32f3x0_hal_peripheral/Source/gd32f3x0_hal_i2c.c **** 
 943:../firmware/gd32f3x0_hal_peripheral/Source/gd32f3x0_hal_i2c.c ****     /* wait until I2C bus is idle */
 944:../firmware/gd32f3x0_hal_peripheral/Source/gd32f3x0_hal_i2c.c ****     if(HAL_ERR_NONE != _i2c_wait_flag_timeout(i2c_dev->periph, I2C_FLAG_I2CBSY, RESET, timeout_ms))
 2383              		.loc 1 944 24
 2384 0038 FB68     		ldr	r3, [r7, #12]
 2385 003a 1868     		ldr	r0, [r3]
 2386 003c 3B68     		ldr	r3, [r7]
 2387 003e 0022     		movs	r2, #0
 2388 0040 40F20161 		movw	r1, #1537
 2389 0044 FFF7FEFF 		bl	_i2c_wait_flag_timeout
 2390 0048 0346     		mov	r3, r0
 2391              		.loc 1 944 7
 2392 004a 002B     		cmp	r3, #0
 2393 004c 02D0     		beq	.L108
 945:../firmware/gd32f3x0_hal_peripheral/Source/gd32f3x0_hal_i2c.c ****         HAL_DEBUGW("i2c busy timeout");
 946:../firmware/gd32f3x0_hal_peripheral/Source/gd32f3x0_hal_i2c.c ****         return HAL_ERR_TIMEOUT;
 2394              		.loc 1 946 16
 2395 004e 6FF00403 		mvn	r3, #4
 2396 0052 3EE1     		b	.L106
 2397              	.L108:
 947:../firmware/gd32f3x0_hal_peripheral/Source/gd32f3x0_hal_i2c.c ****     }
 948:../firmware/gd32f3x0_hal_peripheral/Source/gd32f3x0_hal_i2c.c **** 
 949:../firmware/gd32f3x0_hal_peripheral/Source/gd32f3x0_hal_i2c.c ****     i2c_dev->rx_state = HAL_I2C_STATE_MEMORY_BUSY_RX;
 2398              		.loc 1 949 23
 2399 0054 FB68     		ldr	r3, [r7, #12]
 2400 0056 0322     		movs	r2, #3
 2401 0058 83F84120 		strb	r2, [r3, #65]
 950:../firmware/gd32f3x0_hal_peripheral/Source/gd32f3x0_hal_i2c.c ****     i2c_dev->last_error = HAL_I2C_ERROR_NONE;
 2402              		.loc 1 950 25
 2403 005c FB68     		ldr	r3, [r7, #12]
 2404 005e 0022     		movs	r2, #0
 2405 0060 5A87     		strh	r2, [r3, #58]	@ movhi
 951:../firmware/gd32f3x0_hal_peripheral/Source/gd32f3x0_hal_i2c.c ****     if(2 == length) {
 2406              		.loc 1 951 7
 2407 0062 7B68     		ldr	r3, [r7, #4]
 2408 0064 022B     		cmp	r3, #2
 2409 0066 06D1     		bne	.L109
 952:../firmware/gd32f3x0_hal_peripheral/Source/gd32f3x0_hal_i2c.c ****         /* send a NACK for the next data byte which will be received into the shift register */
 953:../firmware/gd32f3x0_hal_peripheral/Source/gd32f3x0_hal_i2c.c ****         hals_i2c_ackpos_config(i2c_dev->periph, I2C_ACKPOS_NEXT);
 2410              		.loc 1 953 9
 2411 0068 FB68     		ldr	r3, [r7, #12]
 2412 006a 1B68     		ldr	r3, [r3]
 2413 006c 4FF40061 		mov	r1, #2048
 2414 0070 1846     		mov	r0, r3
 2415 0072 FFF7FEFF 		bl	hals_i2c_ackpos_config
 2416              	.L109:
 954:../firmware/gd32f3x0_hal_peripheral/Source/gd32f3x0_hal_i2c.c ****     }
 955:../firmware/gd32f3x0_hal_peripheral/Source/gd32f3x0_hal_i2c.c ****     /* master sends device address for memory read request */
 956:../firmware/gd32f3x0_hal_peripheral/Source/gd32f3x0_hal_i2c.c ****     if(HAL_ERR_NONE != _i2c_memory_read(i2c_dev, timeout_ms)) {
 2417              		.loc 1 956 24
 2418 0076 3968     		ldr	r1, [r7]
 2419 0078 F868     		ldr	r0, [r7, #12]
 2420 007a FFF7FEFF 		bl	_i2c_memory_read
 2421 007e 0346     		mov	r3, r0
 2422              		.loc 1 956 7
 2423 0080 002B     		cmp	r3, #0
 2424 0082 02D0     		beq	.L110
 957:../firmware/gd32f3x0_hal_peripheral/Source/gd32f3x0_hal_i2c.c ****         return HAL_ERR_TIMEOUT;
 2425              		.loc 1 957 16
 2426 0084 6FF00403 		mvn	r3, #4
 2427 0088 23E1     		b	.L106
 2428              	.L110:
 958:../firmware/gd32f3x0_hal_peripheral/Source/gd32f3x0_hal_i2c.c ****     }
 959:../firmware/gd32f3x0_hal_peripheral/Source/gd32f3x0_hal_i2c.c **** 
 960:../firmware/gd32f3x0_hal_peripheral/Source/gd32f3x0_hal_i2c.c ****     if(1 == length) {
 2429              		.loc 1 960 7
 2430 008a 7B68     		ldr	r3, [r7, #4]
 2431 008c 012B     		cmp	r3, #1
 2432 008e 15D1     		bne	.L111
 961:../firmware/gd32f3x0_hal_peripheral/Source/gd32f3x0_hal_i2c.c ****         /* disable acknowledge */
 962:../firmware/gd32f3x0_hal_peripheral/Source/gd32f3x0_hal_i2c.c ****         hals_i2c_ack_config(i2c_dev->periph, I2C_ACK_DISABLE);
 2433              		.loc 1 962 9
 2434 0090 FB68     		ldr	r3, [r7, #12]
 2435 0092 1B68     		ldr	r3, [r3]
 2436 0094 0021     		movs	r1, #0
 2437 0096 1846     		mov	r0, r3
 2438 0098 FFF7FEFF 		bl	hals_i2c_ack_config
 963:../firmware/gd32f3x0_hal_peripheral/Source/gd32f3x0_hal_i2c.c ****         /* clear ADDSEND bit */
 964:../firmware/gd32f3x0_hal_peripheral/Source/gd32f3x0_hal_i2c.c ****         hals_i2c_flag_clear(i2c_dev->periph, I2C_FLAG_ADDSEND);
 2439              		.loc 1 964 9
 2440 009c FB68     		ldr	r3, [r7, #12]
 2441 009e 1B68     		ldr	r3, [r3]
 2442 00a0 40F20151 		movw	r1, #1281
 2443 00a4 1846     		mov	r0, r3
 2444 00a6 FFF7FEFF 		bl	hals_i2c_flag_clear
 965:../firmware/gd32f3x0_hal_peripheral/Source/gd32f3x0_hal_i2c.c ****         /* send a stop condition to I2C bus */
 966:../firmware/gd32f3x0_hal_peripheral/Source/gd32f3x0_hal_i2c.c ****         HAL_I2C_STOP_ON_BUS(i2c_dev->periph);
 2445              		.loc 1 966 9
 2446 00aa FB68     		ldr	r3, [r7, #12]
 2447 00ac 1B68     		ldr	r3, [r3]
 2448 00ae 1B68     		ldr	r3, [r3]
 2449 00b0 FA68     		ldr	r2, [r7, #12]
 2450 00b2 1268     		ldr	r2, [r2]
 2451 00b4 43F40073 		orr	r3, r3, #512
 2452 00b8 1360     		str	r3, [r2]
 2453 00ba FDE0     		b	.L114
 2454              	.L111:
 967:../firmware/gd32f3x0_hal_peripheral/Source/gd32f3x0_hal_i2c.c ****     } else if(2 == length) {
 2455              		.loc 1 967 14
 2456 00bc 7B68     		ldr	r3, [r7, #4]
 2457 00be 022B     		cmp	r3, #2
 2458 00c0 0DD1     		bne	.L113
 968:../firmware/gd32f3x0_hal_peripheral/Source/gd32f3x0_hal_i2c.c ****         /* disable acknowledge */
 969:../firmware/gd32f3x0_hal_peripheral/Source/gd32f3x0_hal_i2c.c ****         hals_i2c_ack_config(i2c_dev->periph, I2C_ACK_DISABLE);
 2459              		.loc 1 969 9
 2460 00c2 FB68     		ldr	r3, [r7, #12]
 2461 00c4 1B68     		ldr	r3, [r3]
 2462 00c6 0021     		movs	r1, #0
 2463 00c8 1846     		mov	r0, r3
 2464 00ca FFF7FEFF 		bl	hals_i2c_ack_config
 970:../firmware/gd32f3x0_hal_peripheral/Source/gd32f3x0_hal_i2c.c ****         /* clear ADDSEND bit */
 971:../firmware/gd32f3x0_hal_peripheral/Source/gd32f3x0_hal_i2c.c ****         hals_i2c_flag_clear(i2c_dev->periph, I2C_FLAG_ADDSEND);
 2465              		.loc 1 971 9
 2466 00ce FB68     		ldr	r3, [r7, #12]
 2467 00d0 1B68     		ldr	r3, [r3]
 2468 00d2 40F20151 		movw	r1, #1281
 2469 00d6 1846     		mov	r0, r3
 2470 00d8 FFF7FEFF 		bl	hals_i2c_flag_clear
 2471 00dc ECE0     		b	.L114
 2472              	.L113:
 972:../firmware/gd32f3x0_hal_peripheral/Source/gd32f3x0_hal_i2c.c ****     } else {
 973:../firmware/gd32f3x0_hal_peripheral/Source/gd32f3x0_hal_i2c.c ****         /* clear ADDSEND bit */
 974:../firmware/gd32f3x0_hal_peripheral/Source/gd32f3x0_hal_i2c.c ****         hals_i2c_flag_clear(i2c_dev->periph, I2C_FLAG_ADDSEND);
 2473              		.loc 1 974 9
 2474 00de FB68     		ldr	r3, [r7, #12]
 2475 00e0 1B68     		ldr	r3, [r3]
 2476 00e2 40F20151 		movw	r1, #1281
 2477 00e6 1846     		mov	r0, r3
 2478 00e8 FFF7FEFF 		bl	hals_i2c_flag_clear
 975:../firmware/gd32f3x0_hal_peripheral/Source/gd32f3x0_hal_i2c.c ****     }
 976:../firmware/gd32f3x0_hal_peripheral/Source/gd32f3x0_hal_i2c.c ****     while(length > 0) {
 2479              		.loc 1 976 10
 2480 00ec E4E0     		b	.L114
 2481              	.L124:
 977:../firmware/gd32f3x0_hal_peripheral/Source/gd32f3x0_hal_i2c.c ****         if(length <= 3) {
 2482              		.loc 1 977 11
 2483 00ee 7B68     		ldr	r3, [r7, #4]
 2484 00f0 032B     		cmp	r3, #3
 2485 00f2 00F2AB80 		bhi	.L115
 978:../firmware/gd32f3x0_hal_peripheral/Source/gd32f3x0_hal_i2c.c ****             if(1 == length) {
 2486              		.loc 1 978 15
 2487 00f6 7B68     		ldr	r3, [r7, #4]
 2488 00f8 012B     		cmp	r3, #1
 2489 00fa 1BD1     		bne	.L116
 979:../firmware/gd32f3x0_hal_peripheral/Source/gd32f3x0_hal_i2c.c ****                 /* wait until RBNE bit is set */
 980:../firmware/gd32f3x0_hal_peripheral/Source/gd32f3x0_hal_i2c.c ****                 if(HAL_ERR_NONE != _i2c_wait_flag_timeout(i2c_dev->periph, I2C_FLAG_RBNE, SET, time
 2490              		.loc 1 980 36
 2491 00fc FB68     		ldr	r3, [r7, #12]
 2492 00fe 1868     		ldr	r0, [r3]
 2493 0100 3B68     		ldr	r3, [r7]
 2494 0102 0122     		movs	r2, #1
 2495 0104 40F20651 		movw	r1, #1286
 2496 0108 FFF7FEFF 		bl	_i2c_wait_flag_timeout
 2497 010c 0346     		mov	r3, r0
 2498              		.loc 1 980 19
 2499 010e 002B     		cmp	r3, #0
 2500 0110 02D0     		beq	.L117
 981:../firmware/gd32f3x0_hal_peripheral/Source/gd32f3x0_hal_i2c.c ****                     HAL_DEBUGW("i2c get RBNE timeout");
 982:../firmware/gd32f3x0_hal_peripheral/Source/gd32f3x0_hal_i2c.c ****                     return HAL_ERR_TIMEOUT;
 2501              		.loc 1 982 28
 2502 0112 6FF00403 		mvn	r3, #4
 2503 0116 DCE0     		b	.L106
 2504              	.L117:
 983:../firmware/gd32f3x0_hal_peripheral/Source/gd32f3x0_hal_i2c.c ****                 }
 984:../firmware/gd32f3x0_hal_peripheral/Source/gd32f3x0_hal_i2c.c **** 
 985:../firmware/gd32f3x0_hal_peripheral/Source/gd32f3x0_hal_i2c.c ****                 (*p_buffer++) = hals_i2c_data_receive(i2c_dev->periph);
 2505              		.loc 1 985 33
 2506 0118 FB68     		ldr	r3, [r7, #12]
 2507 011a 1A68     		ldr	r2, [r3]
 2508              		.loc 1 985 27
 2509 011c BC68     		ldr	r4, [r7, #8]
 2510 011e 631C     		adds	r3, r4, #1
 2511 0120 BB60     		str	r3, [r7, #8]
 2512              		.loc 1 985 33
 2513 0122 1046     		mov	r0, r2
 2514 0124 FFF7FEFF 		bl	hals_i2c_data_receive
 2515 0128 0346     		mov	r3, r0
 2516              		.loc 1 985 31
 2517 012a 2370     		strb	r3, [r4]
 986:../firmware/gd32f3x0_hal_peripheral/Source/gd32f3x0_hal_i2c.c ****                 length--;
 2518              		.loc 1 986 23
 2519 012c 7B68     		ldr	r3, [r7, #4]
 2520 012e 013B     		subs	r3, r3, #1
 2521 0130 7B60     		str	r3, [r7, #4]
 2522 0132 C1E0     		b	.L114
 2523              	.L116:
 987:../firmware/gd32f3x0_hal_peripheral/Source/gd32f3x0_hal_i2c.c ****             } else if(2 == length) {
 2524              		.loc 1 987 22
 2525 0134 7B68     		ldr	r3, [r7, #4]
 2526 0136 022B     		cmp	r3, #2
 2527 0138 36D1     		bne	.L118
 988:../firmware/gd32f3x0_hal_peripheral/Source/gd32f3x0_hal_i2c.c ****                 hals_i2c_ack_config(i2c_dev->periph, I2C_ACK_DISABLE);
 2528              		.loc 1 988 17
 2529 013a FB68     		ldr	r3, [r7, #12]
 2530 013c 1B68     		ldr	r3, [r3]
 2531 013e 0021     		movs	r1, #0
 2532 0140 1846     		mov	r0, r3
 2533 0142 FFF7FEFF 		bl	hals_i2c_ack_config
 989:../firmware/gd32f3x0_hal_peripheral/Source/gd32f3x0_hal_i2c.c ****                 /* wait until BTC bit is set */
 990:../firmware/gd32f3x0_hal_peripheral/Source/gd32f3x0_hal_i2c.c ****                 if(HAL_ERR_NONE != _i2c_wait_flag_timeout(i2c_dev->periph, I2C_FLAG_BTC, SET, timeo
 2534              		.loc 1 990 36
 2535 0146 FB68     		ldr	r3, [r7, #12]
 2536 0148 1868     		ldr	r0, [r3]
 2537 014a 3B68     		ldr	r3, [r7]
 2538 014c 0122     		movs	r2, #1
 2539 014e 40F20251 		movw	r1, #1282
 2540 0152 FFF7FEFF 		bl	_i2c_wait_flag_timeout
 2541 0156 0346     		mov	r3, r0
 2542              		.loc 1 990 19
 2543 0158 002B     		cmp	r3, #0
 2544 015a 02D0     		beq	.L119
 991:../firmware/gd32f3x0_hal_peripheral/Source/gd32f3x0_hal_i2c.c ****                     HAL_DEBUGW("i2c get BTC timeout");
 992:../firmware/gd32f3x0_hal_peripheral/Source/gd32f3x0_hal_i2c.c ****                     return HAL_ERR_TIMEOUT;
 2545              		.loc 1 992 28
 2546 015c 6FF00403 		mvn	r3, #4
 2547 0160 B7E0     		b	.L106
 2548              	.L119:
 993:../firmware/gd32f3x0_hal_peripheral/Source/gd32f3x0_hal_i2c.c ****                 }
 994:../firmware/gd32f3x0_hal_peripheral/Source/gd32f3x0_hal_i2c.c ****                 /* send a stop condition to I2C bus */
 995:../firmware/gd32f3x0_hal_peripheral/Source/gd32f3x0_hal_i2c.c ****                 HAL_I2C_STOP_ON_BUS(i2c_dev->periph);
 2549              		.loc 1 995 17
 2550 0162 FB68     		ldr	r3, [r7, #12]
 2551 0164 1B68     		ldr	r3, [r3]
 2552 0166 1B68     		ldr	r3, [r3]
 2553 0168 FA68     		ldr	r2, [r7, #12]
 2554 016a 1268     		ldr	r2, [r2]
 2555 016c 43F40073 		orr	r3, r3, #512
 2556 0170 1360     		str	r3, [r2]
 996:../firmware/gd32f3x0_hal_peripheral/Source/gd32f3x0_hal_i2c.c ****                 (*p_buffer++) = hals_i2c_data_receive(i2c_dev->periph);
 2557              		.loc 1 996 33
 2558 0172 FB68     		ldr	r3, [r7, #12]
 2559 0174 1A68     		ldr	r2, [r3]
 2560              		.loc 1 996 27
 2561 0176 BC68     		ldr	r4, [r7, #8]
 2562 0178 631C     		adds	r3, r4, #1
 2563 017a BB60     		str	r3, [r7, #8]
 2564              		.loc 1 996 33
 2565 017c 1046     		mov	r0, r2
 2566 017e FFF7FEFF 		bl	hals_i2c_data_receive
 2567 0182 0346     		mov	r3, r0
 2568              		.loc 1 996 31
 2569 0184 2370     		strb	r3, [r4]
 997:../firmware/gd32f3x0_hal_peripheral/Source/gd32f3x0_hal_i2c.c ****                 length--;
 2570              		.loc 1 997 23
 2571 0186 7B68     		ldr	r3, [r7, #4]
 2572 0188 013B     		subs	r3, r3, #1
 2573 018a 7B60     		str	r3, [r7, #4]
 998:../firmware/gd32f3x0_hal_peripheral/Source/gd32f3x0_hal_i2c.c ****                 (*p_buffer++) = hals_i2c_data_receive(i2c_dev->periph);
 2574              		.loc 1 998 33
 2575 018c FB68     		ldr	r3, [r7, #12]
 2576 018e 1A68     		ldr	r2, [r3]
 2577              		.loc 1 998 27
 2578 0190 BC68     		ldr	r4, [r7, #8]
 2579 0192 631C     		adds	r3, r4, #1
 2580 0194 BB60     		str	r3, [r7, #8]
 2581              		.loc 1 998 33
 2582 0196 1046     		mov	r0, r2
 2583 0198 FFF7FEFF 		bl	hals_i2c_data_receive
 2584 019c 0346     		mov	r3, r0
 2585              		.loc 1 998 31
 2586 019e 2370     		strb	r3, [r4]
 999:../firmware/gd32f3x0_hal_peripheral/Source/gd32f3x0_hal_i2c.c ****                 length--;
 2587              		.loc 1 999 23
 2588 01a0 7B68     		ldr	r3, [r7, #4]
 2589 01a2 013B     		subs	r3, r3, #1
 2590 01a4 7B60     		str	r3, [r7, #4]
 2591 01a6 87E0     		b	.L114
 2592              	.L118:
1000:../firmware/gd32f3x0_hal_peripheral/Source/gd32f3x0_hal_i2c.c ****             } else {
1001:../firmware/gd32f3x0_hal_peripheral/Source/gd32f3x0_hal_i2c.c ****                 /* wait until BTC bit is set */
1002:../firmware/gd32f3x0_hal_peripheral/Source/gd32f3x0_hal_i2c.c ****                 if(HAL_ERR_NONE != _i2c_wait_flag_timeout(i2c_dev->periph, I2C_FLAG_BTC, SET, timeo
 2593              		.loc 1 1002 36
 2594 01a8 FB68     		ldr	r3, [r7, #12]
 2595 01aa 1868     		ldr	r0, [r3]
 2596 01ac 3B68     		ldr	r3, [r7]
 2597 01ae 0122     		movs	r2, #1
 2598 01b0 40F20251 		movw	r1, #1282
 2599 01b4 FFF7FEFF 		bl	_i2c_wait_flag_timeout
 2600 01b8 0346     		mov	r3, r0
 2601              		.loc 1 1002 19
 2602 01ba 002B     		cmp	r3, #0
 2603 01bc 02D0     		beq	.L120
1003:../firmware/gd32f3x0_hal_peripheral/Source/gd32f3x0_hal_i2c.c ****                     HAL_DEBUGW("i2c get BTC timeout");
1004:../firmware/gd32f3x0_hal_peripheral/Source/gd32f3x0_hal_i2c.c ****                     return HAL_ERR_TIMEOUT;
 2604              		.loc 1 1004 28
 2605 01be 6FF00403 		mvn	r3, #4
 2606 01c2 86E0     		b	.L106
 2607              	.L120:
1005:../firmware/gd32f3x0_hal_peripheral/Source/gd32f3x0_hal_i2c.c ****                 }
1006:../firmware/gd32f3x0_hal_peripheral/Source/gd32f3x0_hal_i2c.c ****                 /* disable acknowledge */
1007:../firmware/gd32f3x0_hal_peripheral/Source/gd32f3x0_hal_i2c.c ****                 hals_i2c_ack_config(i2c_dev->periph, I2C_ACK_DISABLE);
 2608              		.loc 1 1007 17
 2609 01c4 FB68     		ldr	r3, [r7, #12]
 2610 01c6 1B68     		ldr	r3, [r3]
 2611 01c8 0021     		movs	r1, #0
 2612 01ca 1846     		mov	r0, r3
 2613 01cc FFF7FEFF 		bl	hals_i2c_ack_config
1008:../firmware/gd32f3x0_hal_peripheral/Source/gd32f3x0_hal_i2c.c ****                 (*p_buffer++) = hals_i2c_data_receive(i2c_dev->periph);
 2614              		.loc 1 1008 33
 2615 01d0 FB68     		ldr	r3, [r7, #12]
 2616 01d2 1A68     		ldr	r2, [r3]
 2617              		.loc 1 1008 27
 2618 01d4 BC68     		ldr	r4, [r7, #8]
 2619 01d6 631C     		adds	r3, r4, #1
 2620 01d8 BB60     		str	r3, [r7, #8]
 2621              		.loc 1 1008 33
 2622 01da 1046     		mov	r0, r2
 2623 01dc FFF7FEFF 		bl	hals_i2c_data_receive
 2624 01e0 0346     		mov	r3, r0
 2625              		.loc 1 1008 31
 2626 01e2 2370     		strb	r3, [r4]
1009:../firmware/gd32f3x0_hal_peripheral/Source/gd32f3x0_hal_i2c.c ****                 length--;
 2627              		.loc 1 1009 23
 2628 01e4 7B68     		ldr	r3, [r7, #4]
 2629 01e6 013B     		subs	r3, r3, #1
 2630 01e8 7B60     		str	r3, [r7, #4]
1010:../firmware/gd32f3x0_hal_peripheral/Source/gd32f3x0_hal_i2c.c ****                 /* wait until BTC bit is set */
1011:../firmware/gd32f3x0_hal_peripheral/Source/gd32f3x0_hal_i2c.c ****                 if(HAL_ERR_NONE != _i2c_wait_flag_timeout(i2c_dev->periph, I2C_FLAG_BTC, SET, timeo
 2631              		.loc 1 1011 36
 2632 01ea FB68     		ldr	r3, [r7, #12]
 2633 01ec 1868     		ldr	r0, [r3]
 2634 01ee 3B68     		ldr	r3, [r7]
 2635 01f0 0122     		movs	r2, #1
 2636 01f2 40F20251 		movw	r1, #1282
 2637 01f6 FFF7FEFF 		bl	_i2c_wait_flag_timeout
 2638 01fa 0346     		mov	r3, r0
 2639              		.loc 1 1011 19
 2640 01fc 002B     		cmp	r3, #0
 2641 01fe 02D0     		beq	.L121
1012:../firmware/gd32f3x0_hal_peripheral/Source/gd32f3x0_hal_i2c.c ****                     HAL_DEBUGW("i2c get BTC timeout");
1013:../firmware/gd32f3x0_hal_peripheral/Source/gd32f3x0_hal_i2c.c ****                     return HAL_ERR_TIMEOUT;
 2642              		.loc 1 1013 28
 2643 0200 6FF00403 		mvn	r3, #4
 2644 0204 65E0     		b	.L106
 2645              	.L121:
1014:../firmware/gd32f3x0_hal_peripheral/Source/gd32f3x0_hal_i2c.c ****                 }
1015:../firmware/gd32f3x0_hal_peripheral/Source/gd32f3x0_hal_i2c.c ****                 /* send a stop condition to I2C bus */
1016:../firmware/gd32f3x0_hal_peripheral/Source/gd32f3x0_hal_i2c.c ****                 HAL_I2C_STOP_ON_BUS(i2c_dev->periph);
 2646              		.loc 1 1016 17
 2647 0206 FB68     		ldr	r3, [r7, #12]
 2648 0208 1B68     		ldr	r3, [r3]
 2649 020a 1B68     		ldr	r3, [r3]
 2650 020c FA68     		ldr	r2, [r7, #12]
 2651 020e 1268     		ldr	r2, [r2]
 2652 0210 43F40073 		orr	r3, r3, #512
 2653 0214 1360     		str	r3, [r2]
1017:../firmware/gd32f3x0_hal_peripheral/Source/gd32f3x0_hal_i2c.c ****                 (*p_buffer++) = hals_i2c_data_receive(i2c_dev->periph);
 2654              		.loc 1 1017 33
 2655 0216 FB68     		ldr	r3, [r7, #12]
 2656 0218 1A68     		ldr	r2, [r3]
 2657              		.loc 1 1017 27
 2658 021a BC68     		ldr	r4, [r7, #8]
 2659 021c 631C     		adds	r3, r4, #1
 2660 021e BB60     		str	r3, [r7, #8]
 2661              		.loc 1 1017 33
 2662 0220 1046     		mov	r0, r2
 2663 0222 FFF7FEFF 		bl	hals_i2c_data_receive
 2664 0226 0346     		mov	r3, r0
 2665              		.loc 1 1017 31
 2666 0228 2370     		strb	r3, [r4]
1018:../firmware/gd32f3x0_hal_peripheral/Source/gd32f3x0_hal_i2c.c ****                 length--;
 2667              		.loc 1 1018 23
 2668 022a 7B68     		ldr	r3, [r7, #4]
 2669 022c 013B     		subs	r3, r3, #1
 2670 022e 7B60     		str	r3, [r7, #4]
1019:../firmware/gd32f3x0_hal_peripheral/Source/gd32f3x0_hal_i2c.c ****                 (*p_buffer++) = hals_i2c_data_receive(i2c_dev->periph);
 2671              		.loc 1 1019 33
 2672 0230 FB68     		ldr	r3, [r7, #12]
 2673 0232 1A68     		ldr	r2, [r3]
 2674              		.loc 1 1019 27
 2675 0234 BC68     		ldr	r4, [r7, #8]
 2676 0236 631C     		adds	r3, r4, #1
 2677 0238 BB60     		str	r3, [r7, #8]
 2678              		.loc 1 1019 33
 2679 023a 1046     		mov	r0, r2
 2680 023c FFF7FEFF 		bl	hals_i2c_data_receive
 2681 0240 0346     		mov	r3, r0
 2682              		.loc 1 1019 31
 2683 0242 2370     		strb	r3, [r4]
1020:../firmware/gd32f3x0_hal_peripheral/Source/gd32f3x0_hal_i2c.c ****                 length--;
 2684              		.loc 1 1020 23
 2685 0244 7B68     		ldr	r3, [r7, #4]
 2686 0246 013B     		subs	r3, r3, #1
 2687 0248 7B60     		str	r3, [r7, #4]
 2688 024a 35E0     		b	.L114
 2689              	.L115:
1021:../firmware/gd32f3x0_hal_peripheral/Source/gd32f3x0_hal_i2c.c ****             }
1022:../firmware/gd32f3x0_hal_peripheral/Source/gd32f3x0_hal_i2c.c ****         } else {
1023:../firmware/gd32f3x0_hal_peripheral/Source/gd32f3x0_hal_i2c.c ****             /* wait until RBNE bit is set */
1024:../firmware/gd32f3x0_hal_peripheral/Source/gd32f3x0_hal_i2c.c ****             if(HAL_ERR_NONE != _i2c_wait_flag_timeout(i2c_dev->periph, I2C_FLAG_RBNE, SET, timeout_
 2690              		.loc 1 1024 32
 2691 024c FB68     		ldr	r3, [r7, #12]
 2692 024e 1868     		ldr	r0, [r3]
 2693 0250 3B68     		ldr	r3, [r7]
 2694 0252 0122     		movs	r2, #1
 2695 0254 40F20651 		movw	r1, #1286
 2696 0258 FFF7FEFF 		bl	_i2c_wait_flag_timeout
 2697 025c 0346     		mov	r3, r0
 2698              		.loc 1 1024 15
 2699 025e 002B     		cmp	r3, #0
 2700 0260 02D0     		beq	.L122
1025:../firmware/gd32f3x0_hal_peripheral/Source/gd32f3x0_hal_i2c.c ****                 HAL_DEBUGW("i2c get RBNE timeout");
1026:../firmware/gd32f3x0_hal_peripheral/Source/gd32f3x0_hal_i2c.c ****                 return HAL_ERR_TIMEOUT;
 2701              		.loc 1 1026 24
 2702 0262 6FF00403 		mvn	r3, #4
 2703 0266 34E0     		b	.L106
 2704              	.L122:
1027:../firmware/gd32f3x0_hal_peripheral/Source/gd32f3x0_hal_i2c.c ****             }
1028:../firmware/gd32f3x0_hal_peripheral/Source/gd32f3x0_hal_i2c.c ****             (*p_buffer++) = hals_i2c_data_receive(i2c_dev->periph);
 2705              		.loc 1 1028 29
 2706 0268 FB68     		ldr	r3, [r7, #12]
 2707 026a 1A68     		ldr	r2, [r3]
 2708              		.loc 1 1028 23
 2709 026c BC68     		ldr	r4, [r7, #8]
 2710 026e 631C     		adds	r3, r4, #1
 2711 0270 BB60     		str	r3, [r7, #8]
 2712              		.loc 1 1028 29
 2713 0272 1046     		mov	r0, r2
 2714 0274 FFF7FEFF 		bl	hals_i2c_data_receive
 2715 0278 0346     		mov	r3, r0
 2716              		.loc 1 1028 27
 2717 027a 2370     		strb	r3, [r4]
1029:../firmware/gd32f3x0_hal_peripheral/Source/gd32f3x0_hal_i2c.c ****             length--;
 2718              		.loc 1 1029 19
 2719 027c 7B68     		ldr	r3, [r7, #4]
 2720 027e 013B     		subs	r3, r3, #1
 2721 0280 7B60     		str	r3, [r7, #4]
1030:../firmware/gd32f3x0_hal_peripheral/Source/gd32f3x0_hal_i2c.c ****             /* wait until BTC bit is set */
1031:../firmware/gd32f3x0_hal_peripheral/Source/gd32f3x0_hal_i2c.c ****             if(HAL_ERR_NONE != _i2c_wait_flag_timeout(i2c_dev->periph, I2C_FLAG_BTC, SET, timeout_m
 2722              		.loc 1 1031 32
 2723 0282 FB68     		ldr	r3, [r7, #12]
 2724 0284 1868     		ldr	r0, [r3]
 2725 0286 3B68     		ldr	r3, [r7]
 2726 0288 0122     		movs	r2, #1
 2727 028a 40F20251 		movw	r1, #1282
 2728 028e FFF7FEFF 		bl	_i2c_wait_flag_timeout
 2729 0292 0346     		mov	r3, r0
 2730              		.loc 1 1031 15
 2731 0294 002B     		cmp	r3, #0
 2732 0296 02D0     		beq	.L123
1032:../firmware/gd32f3x0_hal_peripheral/Source/gd32f3x0_hal_i2c.c ****                 HAL_DEBUGW("i2c get BTC timeout");
1033:../firmware/gd32f3x0_hal_peripheral/Source/gd32f3x0_hal_i2c.c ****                 return HAL_ERR_TIMEOUT;
 2733              		.loc 1 1033 24
 2734 0298 6FF00403 		mvn	r3, #4
 2735 029c 19E0     		b	.L106
 2736              	.L123:
1034:../firmware/gd32f3x0_hal_peripheral/Source/gd32f3x0_hal_i2c.c ****             }
1035:../firmware/gd32f3x0_hal_peripheral/Source/gd32f3x0_hal_i2c.c ****             (*p_buffer++) = hals_i2c_data_receive(i2c_dev->periph);
 2737              		.loc 1 1035 29
 2738 029e FB68     		ldr	r3, [r7, #12]
 2739 02a0 1A68     		ldr	r2, [r3]
 2740              		.loc 1 1035 23
 2741 02a2 BC68     		ldr	r4, [r7, #8]
 2742 02a4 631C     		adds	r3, r4, #1
 2743 02a6 BB60     		str	r3, [r7, #8]
 2744              		.loc 1 1035 29
 2745 02a8 1046     		mov	r0, r2
 2746 02aa FFF7FEFF 		bl	hals_i2c_data_receive
 2747 02ae 0346     		mov	r3, r0
 2748              		.loc 1 1035 27
 2749 02b0 2370     		strb	r3, [r4]
1036:../firmware/gd32f3x0_hal_peripheral/Source/gd32f3x0_hal_i2c.c ****             length--;
 2750              		.loc 1 1036 19
 2751 02b2 7B68     		ldr	r3, [r7, #4]
 2752 02b4 013B     		subs	r3, r3, #1
 2753 02b6 7B60     		str	r3, [r7, #4]
 2754              	.L114:
 976:../firmware/gd32f3x0_hal_peripheral/Source/gd32f3x0_hal_i2c.c ****         if(length <= 3) {
 2755              		.loc 1 976 10
 2756 02b8 7B68     		ldr	r3, [r7, #4]
 2757 02ba 002B     		cmp	r3, #0
 2758 02bc 7FF417AF 		bne	.L124
1037:../firmware/gd32f3x0_hal_peripheral/Source/gd32f3x0_hal_i2c.c ****         }
1038:../firmware/gd32f3x0_hal_peripheral/Source/gd32f3x0_hal_i2c.c ****     }
1039:../firmware/gd32f3x0_hal_peripheral/Source/gd32f3x0_hal_i2c.c ****     i2c_dev->rx_state = HAL_I2C_STATE_READY;
 2759              		.loc 1 1039 23
 2760 02c0 FB68     		ldr	r3, [r7, #12]
 2761 02c2 0022     		movs	r2, #0
 2762 02c4 83F84120 		strb	r2, [r3, #65]
1040:../firmware/gd32f3x0_hal_peripheral/Source/gd32f3x0_hal_i2c.c **** 
1041:../firmware/gd32f3x0_hal_peripheral/Source/gd32f3x0_hal_i2c.c ****     HAL_UNLOCK(i2c_dev);
 2763              		.loc 1 1041 5
 2764 02c8 FB68     		ldr	r3, [r7, #12]
 2765 02ca 0022     		movs	r2, #0
 2766 02cc 83F85020 		strb	r2, [r3, #80]
1042:../firmware/gd32f3x0_hal_peripheral/Source/gd32f3x0_hal_i2c.c ****     return HAL_ERR_NONE;
 2767              		.loc 1 1042 12
 2768 02d0 0023     		movs	r3, #0
 2769              	.L106:
1043:../firmware/gd32f3x0_hal_peripheral/Source/gd32f3x0_hal_i2c.c **** }
 2770              		.loc 1 1043 1
 2771 02d2 1846     		mov	r0, r3
 2772 02d4 1437     		adds	r7, r7, #20
 2773              		.cfi_def_cfa_offset 12
 2774 02d6 BD46     		mov	sp, r7
 2775              		.cfi_def_cfa_register 13
 2776              		@ sp needed
 2777 02d8 90BD     		pop	{r4, r7, pc}
 2778              		.cfi_endproc
 2779              	.LFE133:
 2781              		.section	.text.hal_i2c_master_transmit_interrupt,"ax",%progbits
 2782              		.align	1
 2783              		.global	hal_i2c_master_transmit_interrupt
 2784              		.syntax unified
 2785              		.thumb
 2786              		.thumb_func
 2787              		.fpu softvfp
 2789              	hal_i2c_master_transmit_interrupt:
 2790              	.LFB134:
1044:../firmware/gd32f3x0_hal_peripheral/Source/gd32f3x0_hal_i2c.c **** 
1045:../firmware/gd32f3x0_hal_peripheral/Source/gd32f3x0_hal_i2c.c **** /*!
1046:../firmware/gd32f3x0_hal_peripheral/Source/gd32f3x0_hal_i2c.c ****     \brief      transmit amounts of data in master mode by interrupt method, the function
1047:../firmware/gd32f3x0_hal_peripheral/Source/gd32f3x0_hal_i2c.c ****                 is non-blocking
1048:../firmware/gd32f3x0_hal_peripheral/Source/gd32f3x0_hal_i2c.c ****     \param[in]  i2c_dev: I2C device information structrue
1049:../firmware/gd32f3x0_hal_peripheral/Source/gd32f3x0_hal_i2c.c ****                   the structure is not necessary to be reconfigured after structrue initialization,
1050:../firmware/gd32f3x0_hal_peripheral/Source/gd32f3x0_hal_i2c.c ****                   the structure parameters altering is automatically configured by core
1051:../firmware/gd32f3x0_hal_peripheral/Source/gd32f3x0_hal_i2c.c ****     \param[in]  p_buffer: pointer to txbuffer
1052:../firmware/gd32f3x0_hal_peripheral/Source/gd32f3x0_hal_i2c.c ****     \param[in]  length: length of data to be sent
1053:../firmware/gd32f3x0_hal_peripheral/Source/gd32f3x0_hal_i2c.c ****     \param[in]  p_user_func: call back function for user
1054:../firmware/gd32f3x0_hal_peripheral/Source/gd32f3x0_hal_i2c.c ****     \param[out] none
1055:../firmware/gd32f3x0_hal_peripheral/Source/gd32f3x0_hal_i2c.c ****     \retval     error code: HAL_ERR_NONE, HAL_ERR_ADDRESS, HAL_ERR_TIMEOUT, HAL_ERR_BUSY,
1056:../firmware/gd32f3x0_hal_peripheral/Source/gd32f3x0_hal_i2c.c ****                 details refer to gd32f3x0_hal.h
1057:../firmware/gd32f3x0_hal_peripheral/Source/gd32f3x0_hal_i2c.c **** */
1058:../firmware/gd32f3x0_hal_peripheral/Source/gd32f3x0_hal_i2c.c **** int32_t hal_i2c_master_transmit_interrupt(hal_i2c_dev_struct *i2c_dev, uint8_t *p_buffer, \
1059:../firmware/gd32f3x0_hal_peripheral/Source/gd32f3x0_hal_i2c.c ****         uint32_t length, hal_i2c_user_cb p_user_func)
1060:../firmware/gd32f3x0_hal_peripheral/Source/gd32f3x0_hal_i2c.c **** {
 2791              		.loc 1 1060 1
 2792              		.cfi_startproc
 2793              		@ args = 0, pretend = 0, frame = 16
 2794              		@ frame_needed = 1, uses_anonymous_args = 0
 2795 0000 80B5     		push	{r7, lr}
 2796              		.cfi_def_cfa_offset 8
 2797              		.cfi_offset 7, -8
 2798              		.cfi_offset 14, -4
 2799 0002 84B0     		sub	sp, sp, #16
 2800              		.cfi_def_cfa_offset 24
 2801 0004 00AF     		add	r7, sp, #0
 2802              		.cfi_def_cfa_register 7
 2803 0006 F860     		str	r0, [r7, #12]
 2804 0008 B960     		str	r1, [r7, #8]
 2805 000a 7A60     		str	r2, [r7, #4]
 2806 000c 3B60     		str	r3, [r7]
1061:../firmware/gd32f3x0_hal_peripheral/Source/gd32f3x0_hal_i2c.c **** #if (1 == HAL_PARAMETER_CHECK)
1062:../firmware/gd32f3x0_hal_peripheral/Source/gd32f3x0_hal_i2c.c ****     /* check the parameters */
1063:../firmware/gd32f3x0_hal_peripheral/Source/gd32f3x0_hal_i2c.c ****     if((NULL == i2c_dev) || (NULL == p_buffer) || (0U == length)) {
1064:../firmware/gd32f3x0_hal_peripheral/Source/gd32f3x0_hal_i2c.c ****         HAL_DEBUGE("parameter [i2c_dev] or [p_buffer] or [length] value is invalid");
1065:../firmware/gd32f3x0_hal_peripheral/Source/gd32f3x0_hal_i2c.c ****         return HAL_ERR_ADDRESS;
1066:../firmware/gd32f3x0_hal_peripheral/Source/gd32f3x0_hal_i2c.c ****     }
1067:../firmware/gd32f3x0_hal_peripheral/Source/gd32f3x0_hal_i2c.c **** #endif /* 1 == HAL_PARAMETER_CHECK */
1068:../firmware/gd32f3x0_hal_peripheral/Source/gd32f3x0_hal_i2c.c **** 
1069:../firmware/gd32f3x0_hal_peripheral/Source/gd32f3x0_hal_i2c.c ****     HAL_LOCK(i2c_dev);
 2807              		.loc 1 1069 5
 2808 000e FB68     		ldr	r3, [r7, #12]
 2809 0010 93F85030 		ldrb	r3, [r3, #80]	@ zero_extendqisi2
 2810 0014 012B     		cmp	r3, #1
 2811 0016 02D1     		bne	.L126
 2812              		.loc 1 1069 5 is_stmt 0 discriminator 1
 2813 0018 6FF00103 		mvn	r3, #1
 2814 001c 53E0     		b	.L127
 2815              	.L126:
 2816              		.loc 1 1069 5 discriminator 2
 2817 001e FB68     		ldr	r3, [r7, #12]
 2818 0020 0122     		movs	r2, #1
 2819 0022 83F85020 		strb	r2, [r3, #80]
1070:../firmware/gd32f3x0_hal_peripheral/Source/gd32f3x0_hal_i2c.c ****     /* check the tx_state whether it is busy or not */
1071:../firmware/gd32f3x0_hal_peripheral/Source/gd32f3x0_hal_i2c.c ****     if(HAL_I2C_STATE_BUSY == i2c_dev->tx_state) {
 2820              		.loc 1 1071 37 is_stmt 1 discriminator 2
 2821 0026 FB68     		ldr	r3, [r7, #12]
 2822 0028 93F84030 		ldrb	r3, [r3, #64]
 2823 002c DBB2     		uxtb	r3, r3
 2824              		.loc 1 1071 7 discriminator 2
 2825 002e 012B     		cmp	r3, #1
 2826 0030 02D1     		bne	.L128
1072:../firmware/gd32f3x0_hal_peripheral/Source/gd32f3x0_hal_i2c.c ****         HAL_DEBUGE("i2c tx has already been used, please wait until run_state change to free ");
1073:../firmware/gd32f3x0_hal_peripheral/Source/gd32f3x0_hal_i2c.c ****         return HAL_ERR_BUSY;
 2827              		.loc 1 1073 16
 2828 0032 6FF00203 		mvn	r3, #2
 2829 0036 46E0     		b	.L127
 2830              	.L128:
1074:../firmware/gd32f3x0_hal_peripheral/Source/gd32f3x0_hal_i2c.c ****     }
1075:../firmware/gd32f3x0_hal_peripheral/Source/gd32f3x0_hal_i2c.c **** 
1076:../firmware/gd32f3x0_hal_peripheral/Source/gd32f3x0_hal_i2c.c ****     /* the master waits until the I2C bus is idle */
1077:../firmware/gd32f3x0_hal_peripheral/Source/gd32f3x0_hal_i2c.c ****     if(HAL_ERR_NONE != _i2c_wait_flag_timeout(i2c_dev->periph, I2C_FLAG_I2CBSY, RESET, I2C_BUSY_TIM
 2831              		.loc 1 1077 24
 2832 0038 FB68     		ldr	r3, [r7, #12]
 2833 003a 1868     		ldr	r0, [r3]
 2834 003c 42F21073 		movw	r3, #10000
 2835 0040 0022     		movs	r2, #0
 2836 0042 40F20161 		movw	r1, #1537
 2837 0046 FFF7FEFF 		bl	_i2c_wait_flag_timeout
 2838 004a 0346     		mov	r3, r0
 2839              		.loc 1 1077 7
 2840 004c 002B     		cmp	r3, #0
 2841 004e 02D0     		beq	.L129
1078:../firmware/gd32f3x0_hal_peripheral/Source/gd32f3x0_hal_i2c.c ****         HAL_DEBUGW("i2c busy timeout");
1079:../firmware/gd32f3x0_hal_peripheral/Source/gd32f3x0_hal_i2c.c ****         return HAL_ERR_TIMEOUT;
 2842              		.loc 1 1079 16
 2843 0050 6FF00403 		mvn	r3, #4
 2844 0054 37E0     		b	.L127
 2845              	.L129:
1080:../firmware/gd32f3x0_hal_peripheral/Source/gd32f3x0_hal_i2c.c ****     }
1081:../firmware/gd32f3x0_hal_peripheral/Source/gd32f3x0_hal_i2c.c ****     /* initialize transmit parameters */
1082:../firmware/gd32f3x0_hal_peripheral/Source/gd32f3x0_hal_i2c.c ****     i2c_dev->tx_state = HAL_I2C_STATE_BUSY;
 2846              		.loc 1 1082 23
 2847 0056 FB68     		ldr	r3, [r7, #12]
 2848 0058 0122     		movs	r2, #1
 2849 005a 83F84020 		strb	r2, [r3, #64]
1083:../firmware/gd32f3x0_hal_peripheral/Source/gd32f3x0_hal_i2c.c ****     i2c_dev->error_state = HAL_I2C_ERROR_NONE;
 2850              		.loc 1 1083 26
 2851 005e FB68     		ldr	r3, [r7, #12]
 2852 0060 0022     		movs	r2, #0
 2853 0062 DA63     		str	r2, [r3, #60]
1084:../firmware/gd32f3x0_hal_peripheral/Source/gd32f3x0_hal_i2c.c ****     i2c_dev->txbuffer.buffer = (uint8_t *)p_buffer;
 2854              		.loc 1 1084 30
 2855 0064 FB68     		ldr	r3, [r7, #12]
 2856 0066 BA68     		ldr	r2, [r7, #8]
 2857 0068 5A61     		str	r2, [r3, #20]
1085:../firmware/gd32f3x0_hal_peripheral/Source/gd32f3x0_hal_i2c.c ****     i2c_dev->txbuffer.length = length;
 2858              		.loc 1 1085 30
 2859 006a FB68     		ldr	r3, [r7, #12]
 2860 006c 7A68     		ldr	r2, [r7, #4]
 2861 006e 9A61     		str	r2, [r3, #24]
1086:../firmware/gd32f3x0_hal_peripheral/Source/gd32f3x0_hal_i2c.c ****     i2c_dev->txbuffer.pos = 0;
 2862              		.loc 1 1086 27
 2863 0070 FB68     		ldr	r3, [r7, #12]
 2864 0072 0022     		movs	r2, #0
 2865 0074 DA61     		str	r2, [r3, #28]
1087:../firmware/gd32f3x0_hal_peripheral/Source/gd32f3x0_hal_i2c.c ****     i2c_dev->tx_callback = (void *)p_user_func;
 2866              		.loc 1 1087 26
 2867 0076 FB68     		ldr	r3, [r7, #12]
 2868 0078 3A68     		ldr	r2, [r7]
 2869 007a DA64     		str	r2, [r3, #76]
1088:../firmware/gd32f3x0_hal_peripheral/Source/gd32f3x0_hal_i2c.c ****     i2c_dev->i2c_irq.event_handle = _i2c_master_transmit_interrupt;
 2870              		.loc 1 1088 35
 2871 007c FB68     		ldr	r3, [r7, #12]
 2872 007e 144A     		ldr	r2, .L130
 2873 0080 5A60     		str	r2, [r3, #4]
1089:../firmware/gd32f3x0_hal_peripheral/Source/gd32f3x0_hal_i2c.c **** 
1090:../firmware/gd32f3x0_hal_peripheral/Source/gd32f3x0_hal_i2c.c ****     /* the master sends a start condition to I2C bus */
1091:../firmware/gd32f3x0_hal_peripheral/Source/gd32f3x0_hal_i2c.c ****     HAL_I2C_START_ON_BUS(i2c_dev->periph);
 2874              		.loc 1 1091 5
 2875 0082 FB68     		ldr	r3, [r7, #12]
 2876 0084 1B68     		ldr	r3, [r3]
 2877 0086 1B68     		ldr	r3, [r3]
 2878 0088 FA68     		ldr	r2, [r7, #12]
 2879 008a 1268     		ldr	r2, [r2]
 2880 008c 43F48073 		orr	r3, r3, #256
 2881 0090 1360     		str	r3, [r2]
1092:../firmware/gd32f3x0_hal_peripheral/Source/gd32f3x0_hal_i2c.c ****     /* enable the I2C interrupt */
1093:../firmware/gd32f3x0_hal_peripheral/Source/gd32f3x0_hal_i2c.c ****     hals_i2c_interrupt_enable(i2c_dev->periph, I2C_INT_ERR);
 2882              		.loc 1 1093 5
 2883 0092 FB68     		ldr	r3, [r7, #12]
 2884 0094 1B68     		ldr	r3, [r3]
 2885 0096 4FF48471 		mov	r1, #264
 2886 009a 1846     		mov	r0, r3
 2887 009c FFF7FEFF 		bl	hals_i2c_interrupt_enable
1094:../firmware/gd32f3x0_hal_peripheral/Source/gd32f3x0_hal_i2c.c ****     hals_i2c_interrupt_enable(i2c_dev->periph, I2C_INT_BUF);
 2888              		.loc 1 1094 5
 2889 00a0 FB68     		ldr	r3, [r7, #12]
 2890 00a2 1B68     		ldr	r3, [r3]
 2891 00a4 4FF48571 		mov	r1, #266
 2892 00a8 1846     		mov	r0, r3
 2893 00aa FFF7FEFF 		bl	hals_i2c_interrupt_enable
1095:../firmware/gd32f3x0_hal_peripheral/Source/gd32f3x0_hal_i2c.c ****     hals_i2c_interrupt_enable(i2c_dev->periph, I2C_INT_EV);
 2894              		.loc 1 1095 5
 2895 00ae FB68     		ldr	r3, [r7, #12]
 2896 00b0 1B68     		ldr	r3, [r3]
 2897 00b2 40F20911 		movw	r1, #265
 2898 00b6 1846     		mov	r0, r3
 2899 00b8 FFF7FEFF 		bl	hals_i2c_interrupt_enable
1096:../firmware/gd32f3x0_hal_peripheral/Source/gd32f3x0_hal_i2c.c **** 
1097:../firmware/gd32f3x0_hal_peripheral/Source/gd32f3x0_hal_i2c.c ****     HAL_UNLOCK(i2c_dev);
 2900              		.loc 1 1097 5
 2901 00bc FB68     		ldr	r3, [r7, #12]
 2902 00be 0022     		movs	r2, #0
 2903 00c0 83F85020 		strb	r2, [r3, #80]
1098:../firmware/gd32f3x0_hal_peripheral/Source/gd32f3x0_hal_i2c.c ****     return HAL_ERR_NONE;
 2904              		.loc 1 1098 12
 2905 00c4 0023     		movs	r3, #0
 2906              	.L127:
1099:../firmware/gd32f3x0_hal_peripheral/Source/gd32f3x0_hal_i2c.c **** }
 2907              		.loc 1 1099 1
 2908 00c6 1846     		mov	r0, r3
 2909 00c8 1037     		adds	r7, r7, #16
 2910              		.cfi_def_cfa_offset 8
 2911 00ca BD46     		mov	sp, r7
 2912              		.cfi_def_cfa_register 13
 2913              		@ sp needed
 2914 00cc 80BD     		pop	{r7, pc}
 2915              	.L131:
 2916 00ce 00BF     		.align	2
 2917              	.L130:
 2918 00d0 00000000 		.word	_i2c_master_transmit_interrupt
 2919              		.cfi_endproc
 2920              	.LFE134:
 2922              		.section	.text.hal_i2c_master_receive_interrupt,"ax",%progbits
 2923              		.align	1
 2924              		.global	hal_i2c_master_receive_interrupt
 2925              		.syntax unified
 2926              		.thumb
 2927              		.thumb_func
 2928              		.fpu softvfp
 2930              	hal_i2c_master_receive_interrupt:
 2931              	.LFB135:
1100:../firmware/gd32f3x0_hal_peripheral/Source/gd32f3x0_hal_i2c.c **** 
1101:../firmware/gd32f3x0_hal_peripheral/Source/gd32f3x0_hal_i2c.c **** /*!
1102:../firmware/gd32f3x0_hal_peripheral/Source/gd32f3x0_hal_i2c.c ****     \brief      receive amounts of data in master mode by interrupt method, the function
1103:../firmware/gd32f3x0_hal_peripheral/Source/gd32f3x0_hal_i2c.c ****                 is non-blocking
1104:../firmware/gd32f3x0_hal_peripheral/Source/gd32f3x0_hal_i2c.c ****     \param[in]  i2c_dev: I2C device information structrue
1105:../firmware/gd32f3x0_hal_peripheral/Source/gd32f3x0_hal_i2c.c ****                   the structure is not necessary to be reconfigured after structrue initialization,
1106:../firmware/gd32f3x0_hal_peripheral/Source/gd32f3x0_hal_i2c.c ****                   the structure parameters altering is automatically configured by core
1107:../firmware/gd32f3x0_hal_peripheral/Source/gd32f3x0_hal_i2c.c ****     \param[in]  p_buffer: pointer to rxbuffer
1108:../firmware/gd32f3x0_hal_peripheral/Source/gd32f3x0_hal_i2c.c ****     \param[in]  length: length of data to be read
1109:../firmware/gd32f3x0_hal_peripheral/Source/gd32f3x0_hal_i2c.c ****     \param[in]  p_user_func: call back function for user
1110:../firmware/gd32f3x0_hal_peripheral/Source/gd32f3x0_hal_i2c.c ****     \param[out] none
1111:../firmware/gd32f3x0_hal_peripheral/Source/gd32f3x0_hal_i2c.c ****     \retval     error code: HAL_ERR_NONE, HAL_ERR_ADDRESS, HAL_ERR_TIMEOUT, HAL_ERR_BUSY,
1112:../firmware/gd32f3x0_hal_peripheral/Source/gd32f3x0_hal_i2c.c ****                 details refer to gd32f3x0_hal.h
1113:../firmware/gd32f3x0_hal_peripheral/Source/gd32f3x0_hal_i2c.c **** */
1114:../firmware/gd32f3x0_hal_peripheral/Source/gd32f3x0_hal_i2c.c **** int32_t hal_i2c_master_receive_interrupt(hal_i2c_dev_struct *i2c_dev, uint8_t *p_buffer, \
1115:../firmware/gd32f3x0_hal_peripheral/Source/gd32f3x0_hal_i2c.c ****         uint32_t length, hal_i2c_user_cb p_user_func)
1116:../firmware/gd32f3x0_hal_peripheral/Source/gd32f3x0_hal_i2c.c **** {
 2932              		.loc 1 1116 1
 2933              		.cfi_startproc
 2934              		@ args = 0, pretend = 0, frame = 16
 2935              		@ frame_needed = 1, uses_anonymous_args = 0
 2936 0000 80B5     		push	{r7, lr}
 2937              		.cfi_def_cfa_offset 8
 2938              		.cfi_offset 7, -8
 2939              		.cfi_offset 14, -4
 2940 0002 84B0     		sub	sp, sp, #16
 2941              		.cfi_def_cfa_offset 24
 2942 0004 00AF     		add	r7, sp, #0
 2943              		.cfi_def_cfa_register 7
 2944 0006 F860     		str	r0, [r7, #12]
 2945 0008 B960     		str	r1, [r7, #8]
 2946 000a 7A60     		str	r2, [r7, #4]
 2947 000c 3B60     		str	r3, [r7]
1117:../firmware/gd32f3x0_hal_peripheral/Source/gd32f3x0_hal_i2c.c **** #if (1 == HAL_PARAMETER_CHECK)
1118:../firmware/gd32f3x0_hal_peripheral/Source/gd32f3x0_hal_i2c.c ****     /* check the parameters */
1119:../firmware/gd32f3x0_hal_peripheral/Source/gd32f3x0_hal_i2c.c ****     if((NULL == i2c_dev) || (NULL == p_buffer) || (0U == length)) {
1120:../firmware/gd32f3x0_hal_peripheral/Source/gd32f3x0_hal_i2c.c ****         HAL_DEBUGE("parameter [i2c_dev] or [p_buffer] or [length] value is invalid");
1121:../firmware/gd32f3x0_hal_peripheral/Source/gd32f3x0_hal_i2c.c ****         return HAL_ERR_ADDRESS;
1122:../firmware/gd32f3x0_hal_peripheral/Source/gd32f3x0_hal_i2c.c ****     }
1123:../firmware/gd32f3x0_hal_peripheral/Source/gd32f3x0_hal_i2c.c **** #endif /* 1 == HAL_PARAMETER_CHECK */
1124:../firmware/gd32f3x0_hal_peripheral/Source/gd32f3x0_hal_i2c.c **** 
1125:../firmware/gd32f3x0_hal_peripheral/Source/gd32f3x0_hal_i2c.c ****     HAL_LOCK(i2c_dev);
 2948              		.loc 1 1125 5
 2949 000e FB68     		ldr	r3, [r7, #12]
 2950 0010 93F85030 		ldrb	r3, [r3, #80]	@ zero_extendqisi2
 2951 0014 012B     		cmp	r3, #1
 2952 0016 02D1     		bne	.L133
 2953              		.loc 1 1125 5 is_stmt 0 discriminator 1
 2954 0018 6FF00103 		mvn	r3, #1
 2955 001c 5EE0     		b	.L134
 2956              	.L133:
 2957              		.loc 1 1125 5 discriminator 2
 2958 001e FB68     		ldr	r3, [r7, #12]
 2959 0020 0122     		movs	r2, #1
 2960 0022 83F85020 		strb	r2, [r3, #80]
1126:../firmware/gd32f3x0_hal_peripheral/Source/gd32f3x0_hal_i2c.c ****     /* check the rx_state whether it is busy or not */
1127:../firmware/gd32f3x0_hal_peripheral/Source/gd32f3x0_hal_i2c.c ****     if(HAL_I2C_STATE_BUSY == i2c_dev->rx_state) {
 2961              		.loc 1 1127 37 is_stmt 1 discriminator 2
 2962 0026 FB68     		ldr	r3, [r7, #12]
 2963 0028 93F84130 		ldrb	r3, [r3, #65]
 2964 002c DBB2     		uxtb	r3, r3
 2965              		.loc 1 1127 7 discriminator 2
 2966 002e 012B     		cmp	r3, #1
 2967 0030 02D1     		bne	.L135
1128:../firmware/gd32f3x0_hal_peripheral/Source/gd32f3x0_hal_i2c.c ****         HAL_DEBUGE("i2c rx has already been used, please wait until run_state change to free ");
1129:../firmware/gd32f3x0_hal_peripheral/Source/gd32f3x0_hal_i2c.c ****         return HAL_ERR_BUSY;
 2968              		.loc 1 1129 16
 2969 0032 6FF00203 		mvn	r3, #2
 2970 0036 51E0     		b	.L134
 2971              	.L135:
1130:../firmware/gd32f3x0_hal_peripheral/Source/gd32f3x0_hal_i2c.c ****     }
1131:../firmware/gd32f3x0_hal_peripheral/Source/gd32f3x0_hal_i2c.c **** 
1132:../firmware/gd32f3x0_hal_peripheral/Source/gd32f3x0_hal_i2c.c ****     /* wait until I2C bus is idle */
1133:../firmware/gd32f3x0_hal_peripheral/Source/gd32f3x0_hal_i2c.c ****     if(HAL_ERR_NONE != _i2c_wait_flag_timeout(i2c_dev->periph, I2C_FLAG_I2CBSY, RESET, I2C_BUSY_TIM
 2972              		.loc 1 1133 24
 2973 0038 FB68     		ldr	r3, [r7, #12]
 2974 003a 1868     		ldr	r0, [r3]
 2975 003c 42F21073 		movw	r3, #10000
 2976 0040 0022     		movs	r2, #0
 2977 0042 40F20161 		movw	r1, #1537
 2978 0046 FFF7FEFF 		bl	_i2c_wait_flag_timeout
 2979 004a 0346     		mov	r3, r0
 2980              		.loc 1 1133 7
 2981 004c 002B     		cmp	r3, #0
 2982 004e 02D0     		beq	.L136
1134:../firmware/gd32f3x0_hal_peripheral/Source/gd32f3x0_hal_i2c.c ****         HAL_DEBUGW("i2c busy timeout");
1135:../firmware/gd32f3x0_hal_peripheral/Source/gd32f3x0_hal_i2c.c ****         return HAL_ERR_TIMEOUT;
 2983              		.loc 1 1135 16
 2984 0050 6FF00403 		mvn	r3, #4
 2985 0054 42E0     		b	.L134
 2986              	.L136:
1136:../firmware/gd32f3x0_hal_peripheral/Source/gd32f3x0_hal_i2c.c ****     }
1137:../firmware/gd32f3x0_hal_peripheral/Source/gd32f3x0_hal_i2c.c ****     /* initialize receive parameters */
1138:../firmware/gd32f3x0_hal_peripheral/Source/gd32f3x0_hal_i2c.c ****     i2c_dev->rx_state = HAL_I2C_STATE_BUSY;
 2987              		.loc 1 1138 23
 2988 0056 FB68     		ldr	r3, [r7, #12]
 2989 0058 0122     		movs	r2, #1
 2990 005a 83F84120 		strb	r2, [r3, #65]
1139:../firmware/gd32f3x0_hal_peripheral/Source/gd32f3x0_hal_i2c.c ****     i2c_dev->last_error = HAL_I2C_ERROR_NONE;
 2991              		.loc 1 1139 25
 2992 005e FB68     		ldr	r3, [r7, #12]
 2993 0060 0022     		movs	r2, #0
 2994 0062 5A87     		strh	r2, [r3, #58]	@ movhi
1140:../firmware/gd32f3x0_hal_peripheral/Source/gd32f3x0_hal_i2c.c ****     i2c_dev->rxbuffer.buffer = (uint8_t *)p_buffer;
 2995              		.loc 1 1140 30
 2996 0064 FB68     		ldr	r3, [r7, #12]
 2997 0066 BA68     		ldr	r2, [r7, #8]
 2998 0068 1A62     		str	r2, [r3, #32]
1141:../firmware/gd32f3x0_hal_peripheral/Source/gd32f3x0_hal_i2c.c ****     i2c_dev->rxbuffer.length = length;
 2999              		.loc 1 1141 30
 3000 006a FB68     		ldr	r3, [r7, #12]
 3001 006c 7A68     		ldr	r2, [r7, #4]
 3002 006e 5A62     		str	r2, [r3, #36]
1142:../firmware/gd32f3x0_hal_peripheral/Source/gd32f3x0_hal_i2c.c ****     i2c_dev->rxbuffer.pos = 0;
 3003              		.loc 1 1142 27
 3004 0070 FB68     		ldr	r3, [r7, #12]
 3005 0072 0022     		movs	r2, #0
 3006 0074 9A62     		str	r2, [r3, #40]
1143:../firmware/gd32f3x0_hal_peripheral/Source/gd32f3x0_hal_i2c.c ****     i2c_dev->rx_callback = (void *)p_user_func;
 3007              		.loc 1 1143 26
 3008 0076 FB68     		ldr	r3, [r7, #12]
 3009 0078 3A68     		ldr	r2, [r7]
 3010 007a 9A64     		str	r2, [r3, #72]
1144:../firmware/gd32f3x0_hal_peripheral/Source/gd32f3x0_hal_i2c.c ****     i2c_dev->i2c_irq.event_handle = _i2c_master_receive_interrupt;
 3011              		.loc 1 1144 35
 3012 007c FB68     		ldr	r3, [r7, #12]
 3013 007e 194A     		ldr	r2, .L138
 3014 0080 5A60     		str	r2, [r3, #4]
1145:../firmware/gd32f3x0_hal_peripheral/Source/gd32f3x0_hal_i2c.c ****     if(2 == i2c_dev->rxbuffer.length) {
 3015              		.loc 1 1145 30
 3016 0082 FB68     		ldr	r3, [r7, #12]
 3017 0084 5B6A     		ldr	r3, [r3, #36]
 3018              		.loc 1 1145 7
 3019 0086 022B     		cmp	r3, #2
 3020 0088 06D1     		bne	.L137
1146:../firmware/gd32f3x0_hal_peripheral/Source/gd32f3x0_hal_i2c.c ****         /* send a NACK for the next data byte which will be received into the shift register */
1147:../firmware/gd32f3x0_hal_peripheral/Source/gd32f3x0_hal_i2c.c ****         hals_i2c_ackpos_config(i2c_dev->periph, I2C_ACKPOS_NEXT);
 3021              		.loc 1 1147 9
 3022 008a FB68     		ldr	r3, [r7, #12]
 3023 008c 1B68     		ldr	r3, [r3]
 3024 008e 4FF40061 		mov	r1, #2048
 3025 0092 1846     		mov	r0, r3
 3026 0094 FFF7FEFF 		bl	hals_i2c_ackpos_config
 3027              	.L137:
1148:../firmware/gd32f3x0_hal_peripheral/Source/gd32f3x0_hal_i2c.c ****     }
1149:../firmware/gd32f3x0_hal_peripheral/Source/gd32f3x0_hal_i2c.c **** 
1150:../firmware/gd32f3x0_hal_peripheral/Source/gd32f3x0_hal_i2c.c ****     /* enable the I2C interrupt */
1151:../firmware/gd32f3x0_hal_peripheral/Source/gd32f3x0_hal_i2c.c ****     hals_i2c_interrupt_enable(i2c_dev->periph, I2C_INT_ERR);
 3028              		.loc 1 1151 5
 3029 0098 FB68     		ldr	r3, [r7, #12]
 3030 009a 1B68     		ldr	r3, [r3]
 3031 009c 4FF48471 		mov	r1, #264
 3032 00a0 1846     		mov	r0, r3
 3033 00a2 FFF7FEFF 		bl	hals_i2c_interrupt_enable
1152:../firmware/gd32f3x0_hal_peripheral/Source/gd32f3x0_hal_i2c.c ****     hals_i2c_interrupt_enable(i2c_dev->periph, I2C_INT_BUF);
 3034              		.loc 1 1152 5
 3035 00a6 FB68     		ldr	r3, [r7, #12]
 3036 00a8 1B68     		ldr	r3, [r3]
 3037 00aa 4FF48571 		mov	r1, #266
 3038 00ae 1846     		mov	r0, r3
 3039 00b0 FFF7FEFF 		bl	hals_i2c_interrupt_enable
1153:../firmware/gd32f3x0_hal_peripheral/Source/gd32f3x0_hal_i2c.c ****     hals_i2c_interrupt_enable(i2c_dev->periph, I2C_INT_EV);
 3040              		.loc 1 1153 5
 3041 00b4 FB68     		ldr	r3, [r7, #12]
 3042 00b6 1B68     		ldr	r3, [r3]
 3043 00b8 40F20911 		movw	r1, #265
 3044 00bc 1846     		mov	r0, r3
 3045 00be FFF7FEFF 		bl	hals_i2c_interrupt_enable
1154:../firmware/gd32f3x0_hal_peripheral/Source/gd32f3x0_hal_i2c.c ****     /* the master sends a start condition to I2C bus */
1155:../firmware/gd32f3x0_hal_peripheral/Source/gd32f3x0_hal_i2c.c ****     HAL_I2C_START_ON_BUS(i2c_dev->periph);
 3046              		.loc 1 1155 5
 3047 00c2 FB68     		ldr	r3, [r7, #12]
 3048 00c4 1B68     		ldr	r3, [r3]
 3049 00c6 1B68     		ldr	r3, [r3]
 3050 00c8 FA68     		ldr	r2, [r7, #12]
 3051 00ca 1268     		ldr	r2, [r2]
 3052 00cc 43F48073 		orr	r3, r3, #256
 3053 00d0 1360     		str	r3, [r2]
1156:../firmware/gd32f3x0_hal_peripheral/Source/gd32f3x0_hal_i2c.c **** 
1157:../firmware/gd32f3x0_hal_peripheral/Source/gd32f3x0_hal_i2c.c ****     HAL_UNLOCK(i2c_dev);
 3054              		.loc 1 1157 5
 3055 00d2 FB68     		ldr	r3, [r7, #12]
 3056 00d4 0022     		movs	r2, #0
 3057 00d6 83F85020 		strb	r2, [r3, #80]
1158:../firmware/gd32f3x0_hal_peripheral/Source/gd32f3x0_hal_i2c.c ****     return HAL_ERR_NONE;
 3058              		.loc 1 1158 12
 3059 00da 0023     		movs	r3, #0
 3060              	.L134:
1159:../firmware/gd32f3x0_hal_peripheral/Source/gd32f3x0_hal_i2c.c **** }
 3061              		.loc 1 1159 1
 3062 00dc 1846     		mov	r0, r3
 3063 00de 1037     		adds	r7, r7, #16
 3064              		.cfi_def_cfa_offset 8
 3065 00e0 BD46     		mov	sp, r7
 3066              		.cfi_def_cfa_register 13
 3067              		@ sp needed
 3068 00e2 80BD     		pop	{r7, pc}
 3069              	.L139:
 3070              		.align	2
 3071              	.L138:
 3072 00e4 00000000 		.word	_i2c_master_receive_interrupt
 3073              		.cfi_endproc
 3074              	.LFE135:
 3076              		.section	.text.hal_i2c_slave_transmit_interrupt,"ax",%progbits
 3077              		.align	1
 3078              		.global	hal_i2c_slave_transmit_interrupt
 3079              		.syntax unified
 3080              		.thumb
 3081              		.thumb_func
 3082              		.fpu softvfp
 3084              	hal_i2c_slave_transmit_interrupt:
 3085              	.LFB136:
1160:../firmware/gd32f3x0_hal_peripheral/Source/gd32f3x0_hal_i2c.c **** 
1161:../firmware/gd32f3x0_hal_peripheral/Source/gd32f3x0_hal_i2c.c **** /*!
1162:../firmware/gd32f3x0_hal_peripheral/Source/gd32f3x0_hal_i2c.c ****     \brief      transmit amounts of data in slave mode by interrupt method, the function is
1163:../firmware/gd32f3x0_hal_peripheral/Source/gd32f3x0_hal_i2c.c ****                 non-blocking
1164:../firmware/gd32f3x0_hal_peripheral/Source/gd32f3x0_hal_i2c.c ****     \param[in]  i2c_dev: I2C device information structrue
1165:../firmware/gd32f3x0_hal_peripheral/Source/gd32f3x0_hal_i2c.c ****                   the structure is not necessary to be reconfigured after structrue initialization,
1166:../firmware/gd32f3x0_hal_peripheral/Source/gd32f3x0_hal_i2c.c ****                   the structure parameters altering is automatically configured by core
1167:../firmware/gd32f3x0_hal_peripheral/Source/gd32f3x0_hal_i2c.c ****     \param[in]  p_buffer: pointer to txbuffer
1168:../firmware/gd32f3x0_hal_peripheral/Source/gd32f3x0_hal_i2c.c ****     \param[in]  length: length of data to be sent
1169:../firmware/gd32f3x0_hal_peripheral/Source/gd32f3x0_hal_i2c.c ****     \param[in]  p_user_func: call back function for user
1170:../firmware/gd32f3x0_hal_peripheral/Source/gd32f3x0_hal_i2c.c ****     \param[out] none
1171:../firmware/gd32f3x0_hal_peripheral/Source/gd32f3x0_hal_i2c.c ****     \retval     error code: HAL_ERR_NONE, HAL_ERR_ADDRESS, HAL_ERR_BUSY, details refer to gd32f3x0_
1172:../firmware/gd32f3x0_hal_peripheral/Source/gd32f3x0_hal_i2c.c **** */
1173:../firmware/gd32f3x0_hal_peripheral/Source/gd32f3x0_hal_i2c.c **** int32_t hal_i2c_slave_transmit_interrupt(hal_i2c_dev_struct *i2c_dev, uint8_t *p_buffer, \
1174:../firmware/gd32f3x0_hal_peripheral/Source/gd32f3x0_hal_i2c.c ****         uint32_t length, hal_i2c_user_cb p_user_func)
1175:../firmware/gd32f3x0_hal_peripheral/Source/gd32f3x0_hal_i2c.c **** {
 3086              		.loc 1 1175 1
 3087              		.cfi_startproc
 3088              		@ args = 0, pretend = 0, frame = 16
 3089              		@ frame_needed = 1, uses_anonymous_args = 0
 3090 0000 80B5     		push	{r7, lr}
 3091              		.cfi_def_cfa_offset 8
 3092              		.cfi_offset 7, -8
 3093              		.cfi_offset 14, -4
 3094 0002 84B0     		sub	sp, sp, #16
 3095              		.cfi_def_cfa_offset 24
 3096 0004 00AF     		add	r7, sp, #0
 3097              		.cfi_def_cfa_register 7
 3098 0006 F860     		str	r0, [r7, #12]
 3099 0008 B960     		str	r1, [r7, #8]
 3100 000a 7A60     		str	r2, [r7, #4]
 3101 000c 3B60     		str	r3, [r7]
1176:../firmware/gd32f3x0_hal_peripheral/Source/gd32f3x0_hal_i2c.c **** #if (1 == HAL_PARAMETER_CHECK)
1177:../firmware/gd32f3x0_hal_peripheral/Source/gd32f3x0_hal_i2c.c ****     /* check the parameters */
1178:../firmware/gd32f3x0_hal_peripheral/Source/gd32f3x0_hal_i2c.c ****     if((NULL == i2c_dev) || (NULL == p_buffer) || (0U == length)) {
1179:../firmware/gd32f3x0_hal_peripheral/Source/gd32f3x0_hal_i2c.c ****         HAL_DEBUGE("parameter [i2c_dev] or [p_buffer] or [length] value is invalid");
1180:../firmware/gd32f3x0_hal_peripheral/Source/gd32f3x0_hal_i2c.c ****         return HAL_ERR_ADDRESS;
1181:../firmware/gd32f3x0_hal_peripheral/Source/gd32f3x0_hal_i2c.c ****     }
1182:../firmware/gd32f3x0_hal_peripheral/Source/gd32f3x0_hal_i2c.c **** #endif /* 1 == HAL_PARAMETER_CHECK */
1183:../firmware/gd32f3x0_hal_peripheral/Source/gd32f3x0_hal_i2c.c **** 
1184:../firmware/gd32f3x0_hal_peripheral/Source/gd32f3x0_hal_i2c.c ****     HAL_LOCK(i2c_dev);
 3102              		.loc 1 1184 5
 3103 000e FB68     		ldr	r3, [r7, #12]
 3104 0010 93F85030 		ldrb	r3, [r3, #80]	@ zero_extendqisi2
 3105 0014 012B     		cmp	r3, #1
 3106 0016 02D1     		bne	.L141
 3107              		.loc 1 1184 5 is_stmt 0 discriminator 1
 3108 0018 6FF00103 		mvn	r3, #1
 3109 001c 3CE0     		b	.L142
 3110              	.L141:
 3111              		.loc 1 1184 5 discriminator 2
 3112 001e FB68     		ldr	r3, [r7, #12]
 3113 0020 0122     		movs	r2, #1
 3114 0022 83F85020 		strb	r2, [r3, #80]
1185:../firmware/gd32f3x0_hal_peripheral/Source/gd32f3x0_hal_i2c.c ****     /* check the tx_state whether it is busy or not */
1186:../firmware/gd32f3x0_hal_peripheral/Source/gd32f3x0_hal_i2c.c ****     if(HAL_I2C_STATE_BUSY == i2c_dev->tx_state) {
 3115              		.loc 1 1186 37 is_stmt 1 discriminator 2
 3116 0026 FB68     		ldr	r3, [r7, #12]
 3117 0028 93F84030 		ldrb	r3, [r3, #64]
 3118 002c DBB2     		uxtb	r3, r3
 3119              		.loc 1 1186 7 discriminator 2
 3120 002e 012B     		cmp	r3, #1
 3121 0030 02D1     		bne	.L143
1187:../firmware/gd32f3x0_hal_peripheral/Source/gd32f3x0_hal_i2c.c ****         HAL_DEBUGE("i2c tx has already been used, please wait until run_state change to free ");
1188:../firmware/gd32f3x0_hal_peripheral/Source/gd32f3x0_hal_i2c.c ****         return HAL_ERR_BUSY;
 3122              		.loc 1 1188 16
 3123 0032 6FF00203 		mvn	r3, #2
 3124 0036 2FE0     		b	.L142
 3125              	.L143:
1189:../firmware/gd32f3x0_hal_peripheral/Source/gd32f3x0_hal_i2c.c ****     }
1190:../firmware/gd32f3x0_hal_peripheral/Source/gd32f3x0_hal_i2c.c **** 
1191:../firmware/gd32f3x0_hal_peripheral/Source/gd32f3x0_hal_i2c.c ****     /* initialize transmit parameters */
1192:../firmware/gd32f3x0_hal_peripheral/Source/gd32f3x0_hal_i2c.c ****     i2c_dev->tx_state = HAL_I2C_STATE_BUSY;
 3126              		.loc 1 1192 23
 3127 0038 FB68     		ldr	r3, [r7, #12]
 3128 003a 0122     		movs	r2, #1
 3129 003c 83F84020 		strb	r2, [r3, #64]
1193:../firmware/gd32f3x0_hal_peripheral/Source/gd32f3x0_hal_i2c.c ****     i2c_dev->error_state = HAL_I2C_ERROR_NONE;
 3130              		.loc 1 1193 26
 3131 0040 FB68     		ldr	r3, [r7, #12]
 3132 0042 0022     		movs	r2, #0
 3133 0044 DA63     		str	r2, [r3, #60]
1194:../firmware/gd32f3x0_hal_peripheral/Source/gd32f3x0_hal_i2c.c ****     i2c_dev->txbuffer.buffer = (uint8_t *)p_buffer;
 3134              		.loc 1 1194 30
 3135 0046 FB68     		ldr	r3, [r7, #12]
 3136 0048 BA68     		ldr	r2, [r7, #8]
 3137 004a 5A61     		str	r2, [r3, #20]
1195:../firmware/gd32f3x0_hal_peripheral/Source/gd32f3x0_hal_i2c.c ****     i2c_dev->txbuffer.length = length;
 3138              		.loc 1 1195 30
 3139 004c FB68     		ldr	r3, [r7, #12]
 3140 004e 7A68     		ldr	r2, [r7, #4]
 3141 0050 9A61     		str	r2, [r3, #24]
1196:../firmware/gd32f3x0_hal_peripheral/Source/gd32f3x0_hal_i2c.c ****     i2c_dev->txbuffer.pos = 0;
 3142              		.loc 1 1196 27
 3143 0052 FB68     		ldr	r3, [r7, #12]
 3144 0054 0022     		movs	r2, #0
 3145 0056 DA61     		str	r2, [r3, #28]
1197:../firmware/gd32f3x0_hal_peripheral/Source/gd32f3x0_hal_i2c.c ****     i2c_dev->tx_callback = (void *)p_user_func;
 3146              		.loc 1 1197 26
 3147 0058 FB68     		ldr	r3, [r7, #12]
 3148 005a 3A68     		ldr	r2, [r7]
 3149 005c DA64     		str	r2, [r3, #76]
1198:../firmware/gd32f3x0_hal_peripheral/Source/gd32f3x0_hal_i2c.c ****     i2c_dev->i2c_irq.event_handle = _i2c_slave_transmit_interrupt;
 3150              		.loc 1 1198 35
 3151 005e FB68     		ldr	r3, [r7, #12]
 3152 0060 0F4A     		ldr	r2, .L144
 3153 0062 5A60     		str	r2, [r3, #4]
1199:../firmware/gd32f3x0_hal_peripheral/Source/gd32f3x0_hal_i2c.c **** 
1200:../firmware/gd32f3x0_hal_peripheral/Source/gd32f3x0_hal_i2c.c ****     /* enable I2C interrupt */
1201:../firmware/gd32f3x0_hal_peripheral/Source/gd32f3x0_hal_i2c.c ****     hals_i2c_interrupt_enable(i2c_dev->periph, I2C_INT_ERR);
 3154              		.loc 1 1201 5
 3155 0064 FB68     		ldr	r3, [r7, #12]
 3156 0066 1B68     		ldr	r3, [r3]
 3157 0068 4FF48471 		mov	r1, #264
 3158 006c 1846     		mov	r0, r3
 3159 006e FFF7FEFF 		bl	hals_i2c_interrupt_enable
1202:../firmware/gd32f3x0_hal_peripheral/Source/gd32f3x0_hal_i2c.c ****     hals_i2c_interrupt_enable(i2c_dev->periph, I2C_INT_BUF);
 3160              		.loc 1 1202 5
 3161 0072 FB68     		ldr	r3, [r7, #12]
 3162 0074 1B68     		ldr	r3, [r3]
 3163 0076 4FF48571 		mov	r1, #266
 3164 007a 1846     		mov	r0, r3
 3165 007c FFF7FEFF 		bl	hals_i2c_interrupt_enable
1203:../firmware/gd32f3x0_hal_peripheral/Source/gd32f3x0_hal_i2c.c ****     hals_i2c_interrupt_enable(i2c_dev->periph, I2C_INT_EV);
 3166              		.loc 1 1203 5
 3167 0080 FB68     		ldr	r3, [r7, #12]
 3168 0082 1B68     		ldr	r3, [r3]
 3169 0084 40F20911 		movw	r1, #265
 3170 0088 1846     		mov	r0, r3
 3171 008a FFF7FEFF 		bl	hals_i2c_interrupt_enable
1204:../firmware/gd32f3x0_hal_peripheral/Source/gd32f3x0_hal_i2c.c **** 
1205:../firmware/gd32f3x0_hal_peripheral/Source/gd32f3x0_hal_i2c.c ****     HAL_UNLOCK(i2c_dev);
 3172              		.loc 1 1205 5
 3173 008e FB68     		ldr	r3, [r7, #12]
 3174 0090 0022     		movs	r2, #0
 3175 0092 83F85020 		strb	r2, [r3, #80]
1206:../firmware/gd32f3x0_hal_peripheral/Source/gd32f3x0_hal_i2c.c ****     return HAL_ERR_NONE;
 3176              		.loc 1 1206 12
 3177 0096 0023     		movs	r3, #0
 3178              	.L142:
1207:../firmware/gd32f3x0_hal_peripheral/Source/gd32f3x0_hal_i2c.c **** }
 3179              		.loc 1 1207 1
 3180 0098 1846     		mov	r0, r3
 3181 009a 1037     		adds	r7, r7, #16
 3182              		.cfi_def_cfa_offset 8
 3183 009c BD46     		mov	sp, r7
 3184              		.cfi_def_cfa_register 13
 3185              		@ sp needed
 3186 009e 80BD     		pop	{r7, pc}
 3187              	.L145:
 3188              		.align	2
 3189              	.L144:
 3190 00a0 00000000 		.word	_i2c_slave_transmit_interrupt
 3191              		.cfi_endproc
 3192              	.LFE136:
 3194              		.section	.text.hal_i2c_slave_receive_interrupt,"ax",%progbits
 3195              		.align	1
 3196              		.global	hal_i2c_slave_receive_interrupt
 3197              		.syntax unified
 3198              		.thumb
 3199              		.thumb_func
 3200              		.fpu softvfp
 3202              	hal_i2c_slave_receive_interrupt:
 3203              	.LFB137:
1208:../firmware/gd32f3x0_hal_peripheral/Source/gd32f3x0_hal_i2c.c **** 
1209:../firmware/gd32f3x0_hal_peripheral/Source/gd32f3x0_hal_i2c.c **** /*!
1210:../firmware/gd32f3x0_hal_peripheral/Source/gd32f3x0_hal_i2c.c ****     \brief      receive amounts of data in slave mode by interrupt method, the function
1211:../firmware/gd32f3x0_hal_peripheral/Source/gd32f3x0_hal_i2c.c ****                 is non-blocking
1212:../firmware/gd32f3x0_hal_peripheral/Source/gd32f3x0_hal_i2c.c ****     \param[in]  i2c_dev: I2C device information structrue
1213:../firmware/gd32f3x0_hal_peripheral/Source/gd32f3x0_hal_i2c.c ****                   the structure is not necessary to be reconfigured after structrue initialization,
1214:../firmware/gd32f3x0_hal_peripheral/Source/gd32f3x0_hal_i2c.c ****                   the structure parameters altering is automatically configured by core
1215:../firmware/gd32f3x0_hal_peripheral/Source/gd32f3x0_hal_i2c.c ****     \param[in]  p_buffer: pointer to rxbuffer
1216:../firmware/gd32f3x0_hal_peripheral/Source/gd32f3x0_hal_i2c.c ****     \param[in]  length: length of data to be receive
1217:../firmware/gd32f3x0_hal_peripheral/Source/gd32f3x0_hal_i2c.c ****     \param[in]  p_user_func: call back function for user
1218:../firmware/gd32f3x0_hal_peripheral/Source/gd32f3x0_hal_i2c.c ****     \param[out] none
1219:../firmware/gd32f3x0_hal_peripheral/Source/gd32f3x0_hal_i2c.c ****     \retval     error code: HAL_ERR_NONE, HAL_ERR_ADDRESS, HAL_ERR_BUSY, details refer to gd32f3x0_
1220:../firmware/gd32f3x0_hal_peripheral/Source/gd32f3x0_hal_i2c.c **** */
1221:../firmware/gd32f3x0_hal_peripheral/Source/gd32f3x0_hal_i2c.c **** int32_t hal_i2c_slave_receive_interrupt(hal_i2c_dev_struct *i2c_dev, uint8_t *p_buffer, \
1222:../firmware/gd32f3x0_hal_peripheral/Source/gd32f3x0_hal_i2c.c ****                                         uint32_t length, hal_i2c_user_cb p_user_func)
1223:../firmware/gd32f3x0_hal_peripheral/Source/gd32f3x0_hal_i2c.c **** {
 3204              		.loc 1 1223 1
 3205              		.cfi_startproc
 3206              		@ args = 0, pretend = 0, frame = 16
 3207              		@ frame_needed = 1, uses_anonymous_args = 0
 3208 0000 80B5     		push	{r7, lr}
 3209              		.cfi_def_cfa_offset 8
 3210              		.cfi_offset 7, -8
 3211              		.cfi_offset 14, -4
 3212 0002 84B0     		sub	sp, sp, #16
 3213              		.cfi_def_cfa_offset 24
 3214 0004 00AF     		add	r7, sp, #0
 3215              		.cfi_def_cfa_register 7
 3216 0006 F860     		str	r0, [r7, #12]
 3217 0008 B960     		str	r1, [r7, #8]
 3218 000a 7A60     		str	r2, [r7, #4]
 3219 000c 3B60     		str	r3, [r7]
1224:../firmware/gd32f3x0_hal_peripheral/Source/gd32f3x0_hal_i2c.c **** #if (1 == HAL_PARAMETER_CHECK)
1225:../firmware/gd32f3x0_hal_peripheral/Source/gd32f3x0_hal_i2c.c ****     /* check the parameters */
1226:../firmware/gd32f3x0_hal_peripheral/Source/gd32f3x0_hal_i2c.c ****     if((NULL == i2c_dev) || (NULL == p_buffer) || (0U == length)) {
1227:../firmware/gd32f3x0_hal_peripheral/Source/gd32f3x0_hal_i2c.c ****         HAL_DEBUGE("parameter [i2c_dev] or [p_buffer] or [length] value is invalid");
1228:../firmware/gd32f3x0_hal_peripheral/Source/gd32f3x0_hal_i2c.c ****         return HAL_ERR_ADDRESS;
1229:../firmware/gd32f3x0_hal_peripheral/Source/gd32f3x0_hal_i2c.c ****     }
1230:../firmware/gd32f3x0_hal_peripheral/Source/gd32f3x0_hal_i2c.c **** #endif /* 1 == HAL_PARAMETER_CHECK */
1231:../firmware/gd32f3x0_hal_peripheral/Source/gd32f3x0_hal_i2c.c **** 
1232:../firmware/gd32f3x0_hal_peripheral/Source/gd32f3x0_hal_i2c.c ****     HAL_LOCK(i2c_dev);
 3220              		.loc 1 1232 5
 3221 000e FB68     		ldr	r3, [r7, #12]
 3222 0010 93F85030 		ldrb	r3, [r3, #80]	@ zero_extendqisi2
 3223 0014 012B     		cmp	r3, #1
 3224 0016 02D1     		bne	.L147
 3225              		.loc 1 1232 5 is_stmt 0 discriminator 1
 3226 0018 6FF00103 		mvn	r3, #1
 3227 001c 3CE0     		b	.L148
 3228              	.L147:
 3229              		.loc 1 1232 5 discriminator 2
 3230 001e FB68     		ldr	r3, [r7, #12]
 3231 0020 0122     		movs	r2, #1
 3232 0022 83F85020 		strb	r2, [r3, #80]
1233:../firmware/gd32f3x0_hal_peripheral/Source/gd32f3x0_hal_i2c.c ****     /* check the rx_state whether it is busy or not */
1234:../firmware/gd32f3x0_hal_peripheral/Source/gd32f3x0_hal_i2c.c ****     if(HAL_I2C_STATE_BUSY == i2c_dev->rx_state) {
 3233              		.loc 1 1234 37 is_stmt 1 discriminator 2
 3234 0026 FB68     		ldr	r3, [r7, #12]
 3235 0028 93F84130 		ldrb	r3, [r3, #65]
 3236 002c DBB2     		uxtb	r3, r3
 3237              		.loc 1 1234 7 discriminator 2
 3238 002e 012B     		cmp	r3, #1
 3239 0030 02D1     		bne	.L149
1235:../firmware/gd32f3x0_hal_peripheral/Source/gd32f3x0_hal_i2c.c ****         HAL_DEBUGE("i2c rx has already been used, please wait until run_state change to free ");
1236:../firmware/gd32f3x0_hal_peripheral/Source/gd32f3x0_hal_i2c.c ****         return HAL_ERR_BUSY;
 3240              		.loc 1 1236 16
 3241 0032 6FF00203 		mvn	r3, #2
 3242 0036 2FE0     		b	.L148
 3243              	.L149:
1237:../firmware/gd32f3x0_hal_peripheral/Source/gd32f3x0_hal_i2c.c ****     }
1238:../firmware/gd32f3x0_hal_peripheral/Source/gd32f3x0_hal_i2c.c **** 
1239:../firmware/gd32f3x0_hal_peripheral/Source/gd32f3x0_hal_i2c.c ****     /* initialize transmit parameters */
1240:../firmware/gd32f3x0_hal_peripheral/Source/gd32f3x0_hal_i2c.c ****     i2c_dev->rx_state = HAL_I2C_STATE_BUSY;
 3244              		.loc 1 1240 23
 3245 0038 FB68     		ldr	r3, [r7, #12]
 3246 003a 0122     		movs	r2, #1
 3247 003c 83F84120 		strb	r2, [r3, #65]
1241:../firmware/gd32f3x0_hal_peripheral/Source/gd32f3x0_hal_i2c.c ****     i2c_dev->last_error = HAL_I2C_ERROR_NONE;
 3248              		.loc 1 1241 25
 3249 0040 FB68     		ldr	r3, [r7, #12]
 3250 0042 0022     		movs	r2, #0
 3251 0044 5A87     		strh	r2, [r3, #58]	@ movhi
1242:../firmware/gd32f3x0_hal_peripheral/Source/gd32f3x0_hal_i2c.c ****     i2c_dev->rxbuffer.buffer = (uint8_t *)p_buffer;
 3252              		.loc 1 1242 30
 3253 0046 FB68     		ldr	r3, [r7, #12]
 3254 0048 BA68     		ldr	r2, [r7, #8]
 3255 004a 1A62     		str	r2, [r3, #32]
1243:../firmware/gd32f3x0_hal_peripheral/Source/gd32f3x0_hal_i2c.c ****     i2c_dev->rxbuffer.length = length;
 3256              		.loc 1 1243 30
 3257 004c FB68     		ldr	r3, [r7, #12]
 3258 004e 7A68     		ldr	r2, [r7, #4]
 3259 0050 5A62     		str	r2, [r3, #36]
1244:../firmware/gd32f3x0_hal_peripheral/Source/gd32f3x0_hal_i2c.c ****     i2c_dev->rxbuffer.pos = 0;
 3260              		.loc 1 1244 27
 3261 0052 FB68     		ldr	r3, [r7, #12]
 3262 0054 0022     		movs	r2, #0
 3263 0056 9A62     		str	r2, [r3, #40]
1245:../firmware/gd32f3x0_hal_peripheral/Source/gd32f3x0_hal_i2c.c ****     i2c_dev->rx_callback = (void *)p_user_func;
 3264              		.loc 1 1245 26
 3265 0058 FB68     		ldr	r3, [r7, #12]
 3266 005a 3A68     		ldr	r2, [r7]
 3267 005c 9A64     		str	r2, [r3, #72]
1246:../firmware/gd32f3x0_hal_peripheral/Source/gd32f3x0_hal_i2c.c ****     i2c_dev->i2c_irq.event_handle = _i2c_slave_receive_interrupt;
 3268              		.loc 1 1246 35
 3269 005e FB68     		ldr	r3, [r7, #12]
 3270 0060 0F4A     		ldr	r2, .L150
 3271 0062 5A60     		str	r2, [r3, #4]
1247:../firmware/gd32f3x0_hal_peripheral/Source/gd32f3x0_hal_i2c.c ****     /* enable I2C interrupt */
1248:../firmware/gd32f3x0_hal_peripheral/Source/gd32f3x0_hal_i2c.c ****     hals_i2c_interrupt_enable(i2c_dev->periph, I2C_INT_ERR);
 3272              		.loc 1 1248 5
 3273 0064 FB68     		ldr	r3, [r7, #12]
 3274 0066 1B68     		ldr	r3, [r3]
 3275 0068 4FF48471 		mov	r1, #264
 3276 006c 1846     		mov	r0, r3
 3277 006e FFF7FEFF 		bl	hals_i2c_interrupt_enable
1249:../firmware/gd32f3x0_hal_peripheral/Source/gd32f3x0_hal_i2c.c ****     hals_i2c_interrupt_enable(i2c_dev->periph, I2C_INT_BUF);
 3278              		.loc 1 1249 5
 3279 0072 FB68     		ldr	r3, [r7, #12]
 3280 0074 1B68     		ldr	r3, [r3]
 3281 0076 4FF48571 		mov	r1, #266
 3282 007a 1846     		mov	r0, r3
 3283 007c FFF7FEFF 		bl	hals_i2c_interrupt_enable
1250:../firmware/gd32f3x0_hal_peripheral/Source/gd32f3x0_hal_i2c.c ****     hals_i2c_interrupt_enable(i2c_dev->periph, I2C_INT_EV);
 3284              		.loc 1 1250 5
 3285 0080 FB68     		ldr	r3, [r7, #12]
 3286 0082 1B68     		ldr	r3, [r3]
 3287 0084 40F20911 		movw	r1, #265
 3288 0088 1846     		mov	r0, r3
 3289 008a FFF7FEFF 		bl	hals_i2c_interrupt_enable
1251:../firmware/gd32f3x0_hal_peripheral/Source/gd32f3x0_hal_i2c.c **** 
1252:../firmware/gd32f3x0_hal_peripheral/Source/gd32f3x0_hal_i2c.c ****     HAL_UNLOCK(i2c_dev);
 3290              		.loc 1 1252 5
 3291 008e FB68     		ldr	r3, [r7, #12]
 3292 0090 0022     		movs	r2, #0
 3293 0092 83F85020 		strb	r2, [r3, #80]
1253:../firmware/gd32f3x0_hal_peripheral/Source/gd32f3x0_hal_i2c.c ****     return HAL_ERR_NONE;
 3294              		.loc 1 1253 12
 3295 0096 0023     		movs	r3, #0
 3296              	.L148:
1254:../firmware/gd32f3x0_hal_peripheral/Source/gd32f3x0_hal_i2c.c **** }
 3297              		.loc 1 1254 1
 3298 0098 1846     		mov	r0, r3
 3299 009a 1037     		adds	r7, r7, #16
 3300              		.cfi_def_cfa_offset 8
 3301 009c BD46     		mov	sp, r7
 3302              		.cfi_def_cfa_register 13
 3303              		@ sp needed
 3304 009e 80BD     		pop	{r7, pc}
 3305              	.L151:
 3306              		.align	2
 3307              	.L150:
 3308 00a0 00000000 		.word	_i2c_slave_receive_interrupt
 3309              		.cfi_endproc
 3310              	.LFE137:
 3312              		.section	.text.hal_i2c_memory_write_interrupt,"ax",%progbits
 3313              		.align	1
 3314              		.global	hal_i2c_memory_write_interrupt
 3315              		.syntax unified
 3316              		.thumb
 3317              		.thumb_func
 3318              		.fpu softvfp
 3320              	hal_i2c_memory_write_interrupt:
 3321              	.LFB138:
1255:../firmware/gd32f3x0_hal_peripheral/Source/gd32f3x0_hal_i2c.c **** 
1256:../firmware/gd32f3x0_hal_peripheral/Source/gd32f3x0_hal_i2c.c **** /*!
1257:../firmware/gd32f3x0_hal_peripheral/Source/gd32f3x0_hal_i2c.c ****     \brief      write amounts of data to memory by interrupt method, the function is non-blocking
1258:../firmware/gd32f3x0_hal_peripheral/Source/gd32f3x0_hal_i2c.c ****     \param[in]  i2c_dev: I2C device information structrue
1259:../firmware/gd32f3x0_hal_peripheral/Source/gd32f3x0_hal_i2c.c ****                   the structure is not necessary to be reconfigured after structrue initialization,
1260:../firmware/gd32f3x0_hal_peripheral/Source/gd32f3x0_hal_i2c.c ****                   the structure parameters altering is automatically configured by core
1261:../firmware/gd32f3x0_hal_peripheral/Source/gd32f3x0_hal_i2c.c ****     \param[in]  p_buffer: pointer to txbuffer
1262:../firmware/gd32f3x0_hal_peripheral/Source/gd32f3x0_hal_i2c.c ****     \param[in]  length: length of data to be write
1263:../firmware/gd32f3x0_hal_peripheral/Source/gd32f3x0_hal_i2c.c ****     \param[in]  p_user_func: call back function for user
1264:../firmware/gd32f3x0_hal_peripheral/Source/gd32f3x0_hal_i2c.c ****     \param[out] none
1265:../firmware/gd32f3x0_hal_peripheral/Source/gd32f3x0_hal_i2c.c ****     \retval     error code: HAL_ERR_NONE, HAL_ERR_ADDRESS, HAL_ERR_TIMEOUT, HAL_ERR_VAL,
1266:../firmware/gd32f3x0_hal_peripheral/Source/gd32f3x0_hal_i2c.c ****                 details refer to gd32f3x0_hal.h
1267:../firmware/gd32f3x0_hal_peripheral/Source/gd32f3x0_hal_i2c.c **** */
1268:../firmware/gd32f3x0_hal_peripheral/Source/gd32f3x0_hal_i2c.c **** int32_t hal_i2c_memory_write_interrupt(hal_i2c_dev_struct *i2c_dev, uint8_t *p_buffer, \
1269:../firmware/gd32f3x0_hal_peripheral/Source/gd32f3x0_hal_i2c.c ****                                        uint32_t length, hal_i2c_user_cb p_user_func)
1270:../firmware/gd32f3x0_hal_peripheral/Source/gd32f3x0_hal_i2c.c **** {
 3322              		.loc 1 1270 1
 3323              		.cfi_startproc
 3324              		@ args = 0, pretend = 0, frame = 16
 3325              		@ frame_needed = 1, uses_anonymous_args = 0
 3326 0000 80B5     		push	{r7, lr}
 3327              		.cfi_def_cfa_offset 8
 3328              		.cfi_offset 7, -8
 3329              		.cfi_offset 14, -4
 3330 0002 84B0     		sub	sp, sp, #16
 3331              		.cfi_def_cfa_offset 24
 3332 0004 00AF     		add	r7, sp, #0
 3333              		.cfi_def_cfa_register 7
 3334 0006 F860     		str	r0, [r7, #12]
 3335 0008 B960     		str	r1, [r7, #8]
 3336 000a 7A60     		str	r2, [r7, #4]
 3337 000c 3B60     		str	r3, [r7]
1271:../firmware/gd32f3x0_hal_peripheral/Source/gd32f3x0_hal_i2c.c **** #if (1 == HAL_PARAMETER_CHECK)
1272:../firmware/gd32f3x0_hal_peripheral/Source/gd32f3x0_hal_i2c.c ****     /* check i2c pointer, p_buffer address and length */
1273:../firmware/gd32f3x0_hal_peripheral/Source/gd32f3x0_hal_i2c.c ****     if((NULL == i2c_dev) || (NULL == p_buffer) || (0 == length)) {
1274:../firmware/gd32f3x0_hal_peripheral/Source/gd32f3x0_hal_i2c.c ****         HAL_DEBUGE("parameter [i2c_dev] or [p_buffer] or [length] value is invalid");
1275:../firmware/gd32f3x0_hal_peripheral/Source/gd32f3x0_hal_i2c.c ****         return HAL_ERR_ADDRESS;
1276:../firmware/gd32f3x0_hal_peripheral/Source/gd32f3x0_hal_i2c.c ****     }
1277:../firmware/gd32f3x0_hal_peripheral/Source/gd32f3x0_hal_i2c.c **** 
1278:../firmware/gd32f3x0_hal_peripheral/Source/gd32f3x0_hal_i2c.c ****     /* check whether the address size is legal */
1279:../firmware/gd32f3x0_hal_peripheral/Source/gd32f3x0_hal_i2c.c ****     if((I2C_MEMORY_ADDRESS_8BIT != i2c_dev->slave_address.address_size) && \
1280:../firmware/gd32f3x0_hal_peripheral/Source/gd32f3x0_hal_i2c.c ****             (I2C_MEMORY_ADDRESS_16BIT != i2c_dev->slave_address.address_size)) {
1281:../firmware/gd32f3x0_hal_peripheral/Source/gd32f3x0_hal_i2c.c ****         HAL_DEBUGE("parameter [address_size] value is invalid");
1282:../firmware/gd32f3x0_hal_peripheral/Source/gd32f3x0_hal_i2c.c ****         return HAL_ERR_VAL;
1283:../firmware/gd32f3x0_hal_peripheral/Source/gd32f3x0_hal_i2c.c ****     }
1284:../firmware/gd32f3x0_hal_peripheral/Source/gd32f3x0_hal_i2c.c **** #endif /* 1 == HAL_PARAMETER_CHECK */
1285:../firmware/gd32f3x0_hal_peripheral/Source/gd32f3x0_hal_i2c.c **** 
1286:../firmware/gd32f3x0_hal_peripheral/Source/gd32f3x0_hal_i2c.c ****     HAL_LOCK(i2c_dev);
 3338              		.loc 1 1286 5
 3339 000e FB68     		ldr	r3, [r7, #12]
 3340 0010 93F85030 		ldrb	r3, [r3, #80]	@ zero_extendqisi2
 3341 0014 012B     		cmp	r3, #1
 3342 0016 02D1     		bne	.L153
 3343              		.loc 1 1286 5 is_stmt 0 discriminator 1
 3344 0018 6FF00103 		mvn	r3, #1
 3345 001c 53E0     		b	.L154
 3346              	.L153:
 3347              		.loc 1 1286 5 discriminator 2
 3348 001e FB68     		ldr	r3, [r7, #12]
 3349 0020 0122     		movs	r2, #1
 3350 0022 83F85020 		strb	r2, [r3, #80]
1287:../firmware/gd32f3x0_hal_peripheral/Source/gd32f3x0_hal_i2c.c ****     /* check the tx_state whether it is busy or not */
1288:../firmware/gd32f3x0_hal_peripheral/Source/gd32f3x0_hal_i2c.c ****     if(HAL_I2C_STATE_MEMORY_BUSY_TX == i2c_dev->tx_state) {
 3351              		.loc 1 1288 47 is_stmt 1 discriminator 2
 3352 0026 FB68     		ldr	r3, [r7, #12]
 3353 0028 93F84030 		ldrb	r3, [r3, #64]
 3354 002c DBB2     		uxtb	r3, r3
 3355              		.loc 1 1288 7 discriminator 2
 3356 002e 022B     		cmp	r3, #2
 3357 0030 02D1     		bne	.L155
1289:../firmware/gd32f3x0_hal_peripheral/Source/gd32f3x0_hal_i2c.c ****         HAL_DEBUGE("i2c tx has already been used, please wait until run_state change to free ");
1290:../firmware/gd32f3x0_hal_peripheral/Source/gd32f3x0_hal_i2c.c ****         return HAL_ERR_BUSY;
 3358              		.loc 1 1290 16
 3359 0032 6FF00203 		mvn	r3, #2
 3360 0036 46E0     		b	.L154
 3361              	.L155:
1291:../firmware/gd32f3x0_hal_peripheral/Source/gd32f3x0_hal_i2c.c ****     }
1292:../firmware/gd32f3x0_hal_peripheral/Source/gd32f3x0_hal_i2c.c ****     /* initialize transmit parameters */
1293:../firmware/gd32f3x0_hal_peripheral/Source/gd32f3x0_hal_i2c.c ****     i2c_dev->tx_state = HAL_I2C_STATE_MEMORY_BUSY_TX;
 3362              		.loc 1 1293 23
 3363 0038 FB68     		ldr	r3, [r7, #12]
 3364 003a 0222     		movs	r2, #2
 3365 003c 83F84020 		strb	r2, [r3, #64]
1294:../firmware/gd32f3x0_hal_peripheral/Source/gd32f3x0_hal_i2c.c ****     i2c_dev->last_error = HAL_I2C_ERROR_NONE;
 3366              		.loc 1 1294 25
 3367 0040 FB68     		ldr	r3, [r7, #12]
 3368 0042 0022     		movs	r2, #0
 3369 0044 5A87     		strh	r2, [r3, #58]	@ movhi
1295:../firmware/gd32f3x0_hal_peripheral/Source/gd32f3x0_hal_i2c.c ****     i2c_dev->txbuffer.buffer = (uint8_t *)p_buffer;
 3370              		.loc 1 1295 30
 3371 0046 FB68     		ldr	r3, [r7, #12]
 3372 0048 BA68     		ldr	r2, [r7, #8]
 3373 004a 5A61     		str	r2, [r3, #20]
1296:../firmware/gd32f3x0_hal_peripheral/Source/gd32f3x0_hal_i2c.c ****     i2c_dev->txbuffer.length = length;
 3374              		.loc 1 1296 30
 3375 004c FB68     		ldr	r3, [r7, #12]
 3376 004e 7A68     		ldr	r2, [r7, #4]
 3377 0050 9A61     		str	r2, [r3, #24]
1297:../firmware/gd32f3x0_hal_peripheral/Source/gd32f3x0_hal_i2c.c ****     i2c_dev->txbuffer.pos = 0;
 3378              		.loc 1 1297 27
 3379 0052 FB68     		ldr	r3, [r7, #12]
 3380 0054 0022     		movs	r2, #0
 3381 0056 DA61     		str	r2, [r3, #28]
1298:../firmware/gd32f3x0_hal_peripheral/Source/gd32f3x0_hal_i2c.c ****     i2c_dev->tx_callback = (void *)p_user_func;
 3382              		.loc 1 1298 26
 3383 0058 FB68     		ldr	r3, [r7, #12]
 3384 005a 3A68     		ldr	r2, [r7]
 3385 005c DA64     		str	r2, [r3, #76]
1299:../firmware/gd32f3x0_hal_peripheral/Source/gd32f3x0_hal_i2c.c ****     i2c_dev->i2c_irq.event_handle = _i2c_memmory_write_interrupt;
 3386              		.loc 1 1299 35
 3387 005e FB68     		ldr	r3, [r7, #12]
 3388 0060 1B4A     		ldr	r2, .L157
 3389 0062 5A60     		str	r2, [r3, #4]
1300:../firmware/gd32f3x0_hal_peripheral/Source/gd32f3x0_hal_i2c.c **** 
1301:../firmware/gd32f3x0_hal_peripheral/Source/gd32f3x0_hal_i2c.c ****     /* send a start condition to I2C bus */
1302:../firmware/gd32f3x0_hal_peripheral/Source/gd32f3x0_hal_i2c.c ****     HAL_I2C_START_ON_BUS(i2c_dev->periph);
 3390              		.loc 1 1302 5
 3391 0064 FB68     		ldr	r3, [r7, #12]
 3392 0066 1B68     		ldr	r3, [r3]
 3393 0068 1B68     		ldr	r3, [r3]
 3394 006a FA68     		ldr	r2, [r7, #12]
 3395 006c 1268     		ldr	r2, [r2]
 3396 006e 43F48073 		orr	r3, r3, #256
 3397 0072 1360     		str	r3, [r2]
1303:../firmware/gd32f3x0_hal_peripheral/Source/gd32f3x0_hal_i2c.c ****     /* enable I2C interrupt */
1304:../firmware/gd32f3x0_hal_peripheral/Source/gd32f3x0_hal_i2c.c ****     hals_i2c_interrupt_enable(i2c_dev->periph, I2C_INT_ERR);
 3398              		.loc 1 1304 5
 3399 0074 FB68     		ldr	r3, [r7, #12]
 3400 0076 1B68     		ldr	r3, [r3]
 3401 0078 4FF48471 		mov	r1, #264
 3402 007c 1846     		mov	r0, r3
 3403 007e FFF7FEFF 		bl	hals_i2c_interrupt_enable
1305:../firmware/gd32f3x0_hal_peripheral/Source/gd32f3x0_hal_i2c.c ****     hals_i2c_interrupt_enable(i2c_dev->periph, I2C_INT_BUF);
 3404              		.loc 1 1305 5
 3405 0082 FB68     		ldr	r3, [r7, #12]
 3406 0084 1B68     		ldr	r3, [r3]
 3407 0086 4FF48571 		mov	r1, #266
 3408 008a 1846     		mov	r0, r3
 3409 008c FFF7FEFF 		bl	hals_i2c_interrupt_enable
1306:../firmware/gd32f3x0_hal_peripheral/Source/gd32f3x0_hal_i2c.c ****     hals_i2c_interrupt_enable(i2c_dev->periph, I2C_INT_EV);
 3410              		.loc 1 1306 5
 3411 0090 FB68     		ldr	r3, [r7, #12]
 3412 0092 1B68     		ldr	r3, [r3]
 3413 0094 40F20911 		movw	r1, #265
 3414 0098 1846     		mov	r0, r3
 3415 009a FFF7FEFF 		bl	hals_i2c_interrupt_enable
1307:../firmware/gd32f3x0_hal_peripheral/Source/gd32f3x0_hal_i2c.c ****     /* wait until I2C bus is idle */
1308:../firmware/gd32f3x0_hal_peripheral/Source/gd32f3x0_hal_i2c.c ****     if(HAL_ERR_NONE != _i2c_wait_flag_timeout(i2c_dev->periph, I2C_FLAG_I2CBSY, RESET, I2C_BUSY_TIM
 3416              		.loc 1 1308 24
 3417 009e FB68     		ldr	r3, [r7, #12]
 3418 00a0 1868     		ldr	r0, [r3]
 3419 00a2 42F21073 		movw	r3, #10000
 3420 00a6 0022     		movs	r2, #0
 3421 00a8 40F20161 		movw	r1, #1537
 3422 00ac FFF7FEFF 		bl	_i2c_wait_flag_timeout
 3423 00b0 0346     		mov	r3, r0
 3424              		.loc 1 1308 7
 3425 00b2 002B     		cmp	r3, #0
 3426 00b4 02D0     		beq	.L156
1309:../firmware/gd32f3x0_hal_peripheral/Source/gd32f3x0_hal_i2c.c ****         HAL_DEBUGW("i2c busy timeout");
1310:../firmware/gd32f3x0_hal_peripheral/Source/gd32f3x0_hal_i2c.c ****         return HAL_ERR_TIMEOUT;
 3427              		.loc 1 1310 16
 3428 00b6 6FF00403 		mvn	r3, #4
 3429 00ba 04E0     		b	.L154
 3430              	.L156:
1311:../firmware/gd32f3x0_hal_peripheral/Source/gd32f3x0_hal_i2c.c ****     }
1312:../firmware/gd32f3x0_hal_peripheral/Source/gd32f3x0_hal_i2c.c **** 
1313:../firmware/gd32f3x0_hal_peripheral/Source/gd32f3x0_hal_i2c.c ****     HAL_UNLOCK(i2c_dev);
 3431              		.loc 1 1313 5
 3432 00bc FB68     		ldr	r3, [r7, #12]
 3433 00be 0022     		movs	r2, #0
 3434 00c0 83F85020 		strb	r2, [r3, #80]
1314:../firmware/gd32f3x0_hal_peripheral/Source/gd32f3x0_hal_i2c.c ****     return HAL_ERR_NONE;
 3435              		.loc 1 1314 12
 3436 00c4 0023     		movs	r3, #0
 3437              	.L154:
1315:../firmware/gd32f3x0_hal_peripheral/Source/gd32f3x0_hal_i2c.c **** }
 3438              		.loc 1 1315 1
 3439 00c6 1846     		mov	r0, r3
 3440 00c8 1037     		adds	r7, r7, #16
 3441              		.cfi_def_cfa_offset 8
 3442 00ca BD46     		mov	sp, r7
 3443              		.cfi_def_cfa_register 13
 3444              		@ sp needed
 3445 00cc 80BD     		pop	{r7, pc}
 3446              	.L158:
 3447 00ce 00BF     		.align	2
 3448              	.L157:
 3449 00d0 00000000 		.word	_i2c_memmory_write_interrupt
 3450              		.cfi_endproc
 3451              	.LFE138:
 3453              		.section	.text.hal_i2c_memory_read_interrupt,"ax",%progbits
 3454              		.align	1
 3455              		.global	hal_i2c_memory_read_interrupt
 3456              		.syntax unified
 3457              		.thumb
 3458              		.thumb_func
 3459              		.fpu softvfp
 3461              	hal_i2c_memory_read_interrupt:
 3462              	.LFB139:
1316:../firmware/gd32f3x0_hal_peripheral/Source/gd32f3x0_hal_i2c.c **** 
1317:../firmware/gd32f3x0_hal_peripheral/Source/gd32f3x0_hal_i2c.c **** /*!
1318:../firmware/gd32f3x0_hal_peripheral/Source/gd32f3x0_hal_i2c.c ****     \brief      read amounts of data from memory by interrupt method, the function is non-blocking
1319:../firmware/gd32f3x0_hal_peripheral/Source/gd32f3x0_hal_i2c.c ****     \param[in]  i2c_dev: I2C device information structrue
1320:../firmware/gd32f3x0_hal_peripheral/Source/gd32f3x0_hal_i2c.c ****                   the structure is not necessary to be reconfigured after structrue initialization,
1321:../firmware/gd32f3x0_hal_peripheral/Source/gd32f3x0_hal_i2c.c ****                   the structure parameters altering is automatically configured by core
1322:../firmware/gd32f3x0_hal_peripheral/Source/gd32f3x0_hal_i2c.c ****     \param[in]  p_buffer: pointer to rxbuffer
1323:../firmware/gd32f3x0_hal_peripheral/Source/gd32f3x0_hal_i2c.c ****     \param[in]  length: length of data to be read
1324:../firmware/gd32f3x0_hal_peripheral/Source/gd32f3x0_hal_i2c.c ****     \param[in]  p_user_func: call back function for user
1325:../firmware/gd32f3x0_hal_peripheral/Source/gd32f3x0_hal_i2c.c ****     \param[out] none
1326:../firmware/gd32f3x0_hal_peripheral/Source/gd32f3x0_hal_i2c.c ****     \retval     error code: HAL_ERR_NONE, HAL_ERR_ADDRESS, HAL_ERR_TIMEOUT, details refer to gd32f3
1327:../firmware/gd32f3x0_hal_peripheral/Source/gd32f3x0_hal_i2c.c **** */
1328:../firmware/gd32f3x0_hal_peripheral/Source/gd32f3x0_hal_i2c.c **** int32_t hal_i2c_memory_read_interrupt(hal_i2c_dev_struct *i2c_dev, uint8_t *p_buffer, \
1329:../firmware/gd32f3x0_hal_peripheral/Source/gd32f3x0_hal_i2c.c ****                                       uint32_t length, hal_i2c_user_cb p_user_func)
1330:../firmware/gd32f3x0_hal_peripheral/Source/gd32f3x0_hal_i2c.c **** {
 3463              		.loc 1 1330 1
 3464              		.cfi_startproc
 3465              		@ args = 0, pretend = 0, frame = 16
 3466              		@ frame_needed = 1, uses_anonymous_args = 0
 3467 0000 80B5     		push	{r7, lr}
 3468              		.cfi_def_cfa_offset 8
 3469              		.cfi_offset 7, -8
 3470              		.cfi_offset 14, -4
 3471 0002 84B0     		sub	sp, sp, #16
 3472              		.cfi_def_cfa_offset 24
 3473 0004 00AF     		add	r7, sp, #0
 3474              		.cfi_def_cfa_register 7
 3475 0006 F860     		str	r0, [r7, #12]
 3476 0008 B960     		str	r1, [r7, #8]
 3477 000a 7A60     		str	r2, [r7, #4]
 3478 000c 3B60     		str	r3, [r7]
1331:../firmware/gd32f3x0_hal_peripheral/Source/gd32f3x0_hal_i2c.c **** #if (1 == HAL_PARAMETER_CHECK)
1332:../firmware/gd32f3x0_hal_peripheral/Source/gd32f3x0_hal_i2c.c ****     /* check i2c pointer, p_buffer address and length */
1333:../firmware/gd32f3x0_hal_peripheral/Source/gd32f3x0_hal_i2c.c ****     if((NULL == i2c_dev) || (NULL == p_buffer) || (0 == length)) {
1334:../firmware/gd32f3x0_hal_peripheral/Source/gd32f3x0_hal_i2c.c ****         HAL_DEBUGE("parameter [i2c_dev] or [p_buffer] or [length] value is invalid");
1335:../firmware/gd32f3x0_hal_peripheral/Source/gd32f3x0_hal_i2c.c ****         return HAL_ERR_ADDRESS;
1336:../firmware/gd32f3x0_hal_peripheral/Source/gd32f3x0_hal_i2c.c ****     }
1337:../firmware/gd32f3x0_hal_peripheral/Source/gd32f3x0_hal_i2c.c **** 
1338:../firmware/gd32f3x0_hal_peripheral/Source/gd32f3x0_hal_i2c.c ****     /* check whether the address size is legal */
1339:../firmware/gd32f3x0_hal_peripheral/Source/gd32f3x0_hal_i2c.c ****     if((I2C_MEMORY_ADDRESS_8BIT != i2c_dev->slave_address.address_size) && \
1340:../firmware/gd32f3x0_hal_peripheral/Source/gd32f3x0_hal_i2c.c ****             (I2C_MEMORY_ADDRESS_16BIT != i2c_dev->slave_address.address_size)) {
1341:../firmware/gd32f3x0_hal_peripheral/Source/gd32f3x0_hal_i2c.c ****         HAL_DEBUGE("parameter [address_size] value is invalid");
1342:../firmware/gd32f3x0_hal_peripheral/Source/gd32f3x0_hal_i2c.c ****         return HAL_ERR_ADDRESS;
1343:../firmware/gd32f3x0_hal_peripheral/Source/gd32f3x0_hal_i2c.c ****     }
1344:../firmware/gd32f3x0_hal_peripheral/Source/gd32f3x0_hal_i2c.c **** #endif /* 1 == HAL_PARAMETER_CHECK */
1345:../firmware/gd32f3x0_hal_peripheral/Source/gd32f3x0_hal_i2c.c **** 
1346:../firmware/gd32f3x0_hal_peripheral/Source/gd32f3x0_hal_i2c.c ****     HAL_LOCK(i2c_dev);
 3479              		.loc 1 1346 5
 3480 000e FB68     		ldr	r3, [r7, #12]
 3481 0010 93F85030 		ldrb	r3, [r3, #80]	@ zero_extendqisi2
 3482 0014 012B     		cmp	r3, #1
 3483 0016 02D1     		bne	.L160
 3484              		.loc 1 1346 5 is_stmt 0 discriminator 1
 3485 0018 6FF00103 		mvn	r3, #1
 3486 001c 5EE0     		b	.L161
 3487              	.L160:
 3488              		.loc 1 1346 5 discriminator 2
 3489 001e FB68     		ldr	r3, [r7, #12]
 3490 0020 0122     		movs	r2, #1
 3491 0022 83F85020 		strb	r2, [r3, #80]
1347:../firmware/gd32f3x0_hal_peripheral/Source/gd32f3x0_hal_i2c.c ****     /* check the rx_state whether it is busy or not */
1348:../firmware/gd32f3x0_hal_peripheral/Source/gd32f3x0_hal_i2c.c ****     if(HAL_I2C_STATE_MEMORY_BUSY_RX == i2c_dev->rx_state) {
 3492              		.loc 1 1348 47 is_stmt 1 discriminator 2
 3493 0026 FB68     		ldr	r3, [r7, #12]
 3494 0028 93F84130 		ldrb	r3, [r3, #65]
 3495 002c DBB2     		uxtb	r3, r3
 3496              		.loc 1 1348 7 discriminator 2
 3497 002e 032B     		cmp	r3, #3
 3498 0030 02D1     		bne	.L162
1349:../firmware/gd32f3x0_hal_peripheral/Source/gd32f3x0_hal_i2c.c ****         HAL_DEBUGE("i2c rx has already been used, please wait until run_state change to free ");
1350:../firmware/gd32f3x0_hal_peripheral/Source/gd32f3x0_hal_i2c.c ****         return HAL_ERR_BUSY;
 3499              		.loc 1 1350 16
 3500 0032 6FF00203 		mvn	r3, #2
 3501 0036 51E0     		b	.L161
 3502              	.L162:
1351:../firmware/gd32f3x0_hal_peripheral/Source/gd32f3x0_hal_i2c.c ****     }
1352:../firmware/gd32f3x0_hal_peripheral/Source/gd32f3x0_hal_i2c.c **** 
1353:../firmware/gd32f3x0_hal_peripheral/Source/gd32f3x0_hal_i2c.c ****     /* initialize transmit parameters */
1354:../firmware/gd32f3x0_hal_peripheral/Source/gd32f3x0_hal_i2c.c ****     i2c_dev->rxbuffer.buffer = (uint8_t *)p_buffer;
 3503              		.loc 1 1354 30
 3504 0038 FB68     		ldr	r3, [r7, #12]
 3505 003a BA68     		ldr	r2, [r7, #8]
 3506 003c 1A62     		str	r2, [r3, #32]
1355:../firmware/gd32f3x0_hal_peripheral/Source/gd32f3x0_hal_i2c.c ****     i2c_dev->rxbuffer.length = length;
 3507              		.loc 1 1355 30
 3508 003e FB68     		ldr	r3, [r7, #12]
 3509 0040 7A68     		ldr	r2, [r7, #4]
 3510 0042 5A62     		str	r2, [r3, #36]
1356:../firmware/gd32f3x0_hal_peripheral/Source/gd32f3x0_hal_i2c.c ****     i2c_dev->rxbuffer.pos = 0;
 3511              		.loc 1 1356 27
 3512 0044 FB68     		ldr	r3, [r7, #12]
 3513 0046 0022     		movs	r2, #0
 3514 0048 9A62     		str	r2, [r3, #40]
1357:../firmware/gd32f3x0_hal_peripheral/Source/gd32f3x0_hal_i2c.c ****     i2c_dev->rx_state = HAL_I2C_STATE_MEMORY_BUSY_RX;
 3515              		.loc 1 1357 23
 3516 004a FB68     		ldr	r3, [r7, #12]
 3517 004c 0322     		movs	r2, #3
 3518 004e 83F84120 		strb	r2, [r3, #65]
1358:../firmware/gd32f3x0_hal_peripheral/Source/gd32f3x0_hal_i2c.c ****     i2c_dev->last_error = HAL_I2C_ERROR_NONE;
 3519              		.loc 1 1358 25
 3520 0052 FB68     		ldr	r3, [r7, #12]
 3521 0054 0022     		movs	r2, #0
 3522 0056 5A87     		strh	r2, [r3, #58]	@ movhi
1359:../firmware/gd32f3x0_hal_peripheral/Source/gd32f3x0_hal_i2c.c ****     i2c_dev->rx_callback = (void *)p_user_func;
 3523              		.loc 1 1359 26
 3524 0058 FB68     		ldr	r3, [r7, #12]
 3525 005a 3A68     		ldr	r2, [r7]
 3526 005c 9A64     		str	r2, [r3, #72]
1360:../firmware/gd32f3x0_hal_peripheral/Source/gd32f3x0_hal_i2c.c ****     i2c_dev->i2c_irq.event_handle = _i2c_memory_read_interrupt;
 3527              		.loc 1 1360 35
 3528 005e FB68     		ldr	r3, [r7, #12]
 3529 0060 204A     		ldr	r2, .L165
 3530 0062 5A60     		str	r2, [r3, #4]
1361:../firmware/gd32f3x0_hal_peripheral/Source/gd32f3x0_hal_i2c.c ****     if(2 == i2c_dev->rxbuffer.length) {
 3531              		.loc 1 1361 30
 3532 0064 FB68     		ldr	r3, [r7, #12]
 3533 0066 5B6A     		ldr	r3, [r3, #36]
 3534              		.loc 1 1361 7
 3535 0068 022B     		cmp	r3, #2
 3536 006a 06D1     		bne	.L163
1362:../firmware/gd32f3x0_hal_peripheral/Source/gd32f3x0_hal_i2c.c ****         hals_i2c_ackpos_config(i2c_dev->periph, I2C_ACKPOS_NEXT);
 3537              		.loc 1 1362 9
 3538 006c FB68     		ldr	r3, [r7, #12]
 3539 006e 1B68     		ldr	r3, [r3]
 3540 0070 4FF40061 		mov	r1, #2048
 3541 0074 1846     		mov	r0, r3
 3542 0076 FFF7FEFF 		bl	hals_i2c_ackpos_config
 3543              	.L163:
1363:../firmware/gd32f3x0_hal_peripheral/Source/gd32f3x0_hal_i2c.c ****     }
1364:../firmware/gd32f3x0_hal_peripheral/Source/gd32f3x0_hal_i2c.c **** 
1365:../firmware/gd32f3x0_hal_peripheral/Source/gd32f3x0_hal_i2c.c ****     /* send a start condition to I2C bus */
1366:../firmware/gd32f3x0_hal_peripheral/Source/gd32f3x0_hal_i2c.c ****     HAL_I2C_START_ON_BUS(i2c_dev->periph);
 3544              		.loc 1 1366 5
 3545 007a FB68     		ldr	r3, [r7, #12]
 3546 007c 1B68     		ldr	r3, [r3]
 3547 007e 1B68     		ldr	r3, [r3]
 3548 0080 FA68     		ldr	r2, [r7, #12]
 3549 0082 1268     		ldr	r2, [r2]
 3550 0084 43F48073 		orr	r3, r3, #256
 3551 0088 1360     		str	r3, [r2]
1367:../firmware/gd32f3x0_hal_peripheral/Source/gd32f3x0_hal_i2c.c ****     /* enable I2C interrupt */
1368:../firmware/gd32f3x0_hal_peripheral/Source/gd32f3x0_hal_i2c.c ****     hals_i2c_interrupt_enable(i2c_dev->periph, I2C_INT_ERR);
 3552              		.loc 1 1368 5
 3553 008a FB68     		ldr	r3, [r7, #12]
 3554 008c 1B68     		ldr	r3, [r3]
 3555 008e 4FF48471 		mov	r1, #264
 3556 0092 1846     		mov	r0, r3
 3557 0094 FFF7FEFF 		bl	hals_i2c_interrupt_enable
1369:../firmware/gd32f3x0_hal_peripheral/Source/gd32f3x0_hal_i2c.c ****     hals_i2c_interrupt_enable(i2c_dev->periph, I2C_INT_BUF);
 3558              		.loc 1 1369 5
 3559 0098 FB68     		ldr	r3, [r7, #12]
 3560 009a 1B68     		ldr	r3, [r3]
 3561 009c 4FF48571 		mov	r1, #266
 3562 00a0 1846     		mov	r0, r3
 3563 00a2 FFF7FEFF 		bl	hals_i2c_interrupt_enable
1370:../firmware/gd32f3x0_hal_peripheral/Source/gd32f3x0_hal_i2c.c ****     hals_i2c_interrupt_enable(i2c_dev->periph, I2C_INT_EV);
 3564              		.loc 1 1370 5
 3565 00a6 FB68     		ldr	r3, [r7, #12]
 3566 00a8 1B68     		ldr	r3, [r3]
 3567 00aa 40F20911 		movw	r1, #265
 3568 00ae 1846     		mov	r0, r3
 3569 00b0 FFF7FEFF 		bl	hals_i2c_interrupt_enable
1371:../firmware/gd32f3x0_hal_peripheral/Source/gd32f3x0_hal_i2c.c ****     /* wait until I2C bus is idle */
1372:../firmware/gd32f3x0_hal_peripheral/Source/gd32f3x0_hal_i2c.c ****     if(HAL_ERR_NONE != _i2c_wait_flag_timeout(i2c_dev->periph, I2C_FLAG_I2CBSY, RESET, I2C_BUSY_TIM
 3570              		.loc 1 1372 24
 3571 00b4 FB68     		ldr	r3, [r7, #12]
 3572 00b6 1868     		ldr	r0, [r3]
 3573 00b8 42F21073 		movw	r3, #10000
 3574 00bc 0022     		movs	r2, #0
 3575 00be 40F20161 		movw	r1, #1537
 3576 00c2 FFF7FEFF 		bl	_i2c_wait_flag_timeout
 3577 00c6 0346     		mov	r3, r0
 3578              		.loc 1 1372 7
 3579 00c8 002B     		cmp	r3, #0
 3580 00ca 02D0     		beq	.L164
1373:../firmware/gd32f3x0_hal_peripheral/Source/gd32f3x0_hal_i2c.c ****         HAL_DEBUGW("i2c busy timeout");
1374:../firmware/gd32f3x0_hal_peripheral/Source/gd32f3x0_hal_i2c.c ****         return HAL_ERR_TIMEOUT;
 3581              		.loc 1 1374 16
 3582 00cc 6FF00403 		mvn	r3, #4
 3583 00d0 04E0     		b	.L161
 3584              	.L164:
1375:../firmware/gd32f3x0_hal_peripheral/Source/gd32f3x0_hal_i2c.c ****     }
1376:../firmware/gd32f3x0_hal_peripheral/Source/gd32f3x0_hal_i2c.c **** 
1377:../firmware/gd32f3x0_hal_peripheral/Source/gd32f3x0_hal_i2c.c ****     HAL_UNLOCK(i2c_dev);
 3585              		.loc 1 1377 5
 3586 00d2 FB68     		ldr	r3, [r7, #12]
 3587 00d4 0022     		movs	r2, #0
 3588 00d6 83F85020 		strb	r2, [r3, #80]
1378:../firmware/gd32f3x0_hal_peripheral/Source/gd32f3x0_hal_i2c.c ****     return HAL_ERR_NONE;
 3589              		.loc 1 1378 12
 3590 00da 0023     		movs	r3, #0
 3591              	.L161:
1379:../firmware/gd32f3x0_hal_peripheral/Source/gd32f3x0_hal_i2c.c **** }
 3592              		.loc 1 1379 1
 3593 00dc 1846     		mov	r0, r3
 3594 00de 1037     		adds	r7, r7, #16
 3595              		.cfi_def_cfa_offset 8
 3596 00e0 BD46     		mov	sp, r7
 3597              		.cfi_def_cfa_register 13
 3598              		@ sp needed
 3599 00e2 80BD     		pop	{r7, pc}
 3600              	.L166:
 3601              		.align	2
 3602              	.L165:
 3603 00e4 00000000 		.word	_i2c_memory_read_interrupt
 3604              		.cfi_endproc
 3605              	.LFE139:
 3607              		.section	.text.hal_i2c_master_transmit_dma,"ax",%progbits
 3608              		.align	1
 3609              		.global	hal_i2c_master_transmit_dma
 3610              		.syntax unified
 3611              		.thumb
 3612              		.thumb_func
 3613              		.fpu softvfp
 3615              	hal_i2c_master_transmit_dma:
 3616              	.LFB140:
1380:../firmware/gd32f3x0_hal_peripheral/Source/gd32f3x0_hal_i2c.c **** 
1381:../firmware/gd32f3x0_hal_peripheral/Source/gd32f3x0_hal_i2c.c **** /*!
1382:../firmware/gd32f3x0_hal_peripheral/Source/gd32f3x0_hal_i2c.c ****     \brief      transmit amounts of data in master mode by dma method, the function
1383:../firmware/gd32f3x0_hal_peripheral/Source/gd32f3x0_hal_i2c.c ****                 is non-blocking
1384:../firmware/gd32f3x0_hal_peripheral/Source/gd32f3x0_hal_i2c.c ****     \param[in]  i2c_dev: I2C device information structrue
1385:../firmware/gd32f3x0_hal_peripheral/Source/gd32f3x0_hal_i2c.c ****                   the structure is not necessary to be reconfigured after structrue initialization,
1386:../firmware/gd32f3x0_hal_peripheral/Source/gd32f3x0_hal_i2c.c ****                   the structure parameters altering is automatically configured by core
1387:../firmware/gd32f3x0_hal_peripheral/Source/gd32f3x0_hal_i2c.c ****     \param[in]  p_buffer: pointer to txbuffer
1388:../firmware/gd32f3x0_hal_peripheral/Source/gd32f3x0_hal_i2c.c ****     \param[in]  length: length of data to be sent
1389:../firmware/gd32f3x0_hal_peripheral/Source/gd32f3x0_hal_i2c.c ****     \param[in]  p_user_func: call back function for user
1390:../firmware/gd32f3x0_hal_peripheral/Source/gd32f3x0_hal_i2c.c ****     \param[out] none
1391:../firmware/gd32f3x0_hal_peripheral/Source/gd32f3x0_hal_i2c.c ****     \retval     error code: HAL_ERR_NONE, HAL_ERR_ADDRESS, HAL_ERR_TIMEOUT, HAL_ERR_BUSY,
1392:../firmware/gd32f3x0_hal_peripheral/Source/gd32f3x0_hal_i2c.c ****                 details refer to gd32f3x0_hal.h
1393:../firmware/gd32f3x0_hal_peripheral/Source/gd32f3x0_hal_i2c.c **** */
1394:../firmware/gd32f3x0_hal_peripheral/Source/gd32f3x0_hal_i2c.c **** int32_t hal_i2c_master_transmit_dma(hal_i2c_dev_struct *i2c_dev, uint8_t *p_buffer, \
1395:../firmware/gd32f3x0_hal_peripheral/Source/gd32f3x0_hal_i2c.c ****                                     uint32_t length, hal_i2c_user_cb p_user_func)
1396:../firmware/gd32f3x0_hal_peripheral/Source/gd32f3x0_hal_i2c.c **** {
 3617              		.loc 1 1396 1
 3618              		.cfi_startproc
 3619              		@ args = 0, pretend = 0, frame = 32
 3620              		@ frame_needed = 1, uses_anonymous_args = 0
 3621 0000 90B5     		push	{r4, r7, lr}
 3622              		.cfi_def_cfa_offset 12
 3623              		.cfi_offset 4, -12
 3624              		.cfi_offset 7, -8
 3625              		.cfi_offset 14, -4
 3626 0002 8BB0     		sub	sp, sp, #44
 3627              		.cfi_def_cfa_offset 56
 3628 0004 02AF     		add	r7, sp, #8
 3629              		.cfi_def_cfa 7, 48
 3630 0006 F860     		str	r0, [r7, #12]
 3631 0008 B960     		str	r1, [r7, #8]
 3632 000a 7A60     		str	r2, [r7, #4]
 3633 000c 3B60     		str	r3, [r7]
1397:../firmware/gd32f3x0_hal_peripheral/Source/gd32f3x0_hal_i2c.c ****     hal_dma_irq_struct dma_irq;
1398:../firmware/gd32f3x0_hal_peripheral/Source/gd32f3x0_hal_i2c.c **** 
1399:../firmware/gd32f3x0_hal_peripheral/Source/gd32f3x0_hal_i2c.c **** #if (1 == HAL_PARAMETER_CHECK)
1400:../firmware/gd32f3x0_hal_peripheral/Source/gd32f3x0_hal_i2c.c ****     /* check i2c pointer, p_buffer address and length */
1401:../firmware/gd32f3x0_hal_peripheral/Source/gd32f3x0_hal_i2c.c ****     if((NULL == i2c_dev) || (NULL == p_buffer) || (0 == length)) {
1402:../firmware/gd32f3x0_hal_peripheral/Source/gd32f3x0_hal_i2c.c ****         HAL_DEBUGE("parameter [i2c_dev] or [p_buffer] or [length] value is invalid");
1403:../firmware/gd32f3x0_hal_peripheral/Source/gd32f3x0_hal_i2c.c ****         return HAL_ERR_ADDRESS;
1404:../firmware/gd32f3x0_hal_peripheral/Source/gd32f3x0_hal_i2c.c ****     }
1405:../firmware/gd32f3x0_hal_peripheral/Source/gd32f3x0_hal_i2c.c **** 
1406:../firmware/gd32f3x0_hal_peripheral/Source/gd32f3x0_hal_i2c.c ****     /* check whether the pointer of DMA tx is NULL */
1407:../firmware/gd32f3x0_hal_peripheral/Source/gd32f3x0_hal_i2c.c ****     if(NULL == i2c_dev->p_dma_tx) {
1408:../firmware/gd32f3x0_hal_peripheral/Source/gd32f3x0_hal_i2c.c ****         HAL_DEBUGE("parameter [i2c_dev->p_dma_tx] value is invalid");
1409:../firmware/gd32f3x0_hal_peripheral/Source/gd32f3x0_hal_i2c.c ****         return HAL_ERR_ADDRESS;
1410:../firmware/gd32f3x0_hal_peripheral/Source/gd32f3x0_hal_i2c.c ****     }
1411:../firmware/gd32f3x0_hal_peripheral/Source/gd32f3x0_hal_i2c.c **** #endif /* 1 == HAL_PARAMETER_CHECK */
1412:../firmware/gd32f3x0_hal_peripheral/Source/gd32f3x0_hal_i2c.c **** 
1413:../firmware/gd32f3x0_hal_peripheral/Source/gd32f3x0_hal_i2c.c ****     HAL_LOCK(i2c_dev);
 3634              		.loc 1 1413 5
 3635 000e FB68     		ldr	r3, [r7, #12]
 3636 0010 93F85030 		ldrb	r3, [r3, #80]	@ zero_extendqisi2
 3637 0014 012B     		cmp	r3, #1
 3638 0016 02D1     		bne	.L168
 3639              		.loc 1 1413 5 is_stmt 0 discriminator 1
 3640 0018 6FF00103 		mvn	r3, #1
 3641 001c 77E0     		b	.L174
 3642              	.L168:
 3643              		.loc 1 1413 5 discriminator 2
 3644 001e FB68     		ldr	r3, [r7, #12]
 3645 0020 0122     		movs	r2, #1
 3646 0022 83F85020 		strb	r2, [r3, #80]
1414:../firmware/gd32f3x0_hal_peripheral/Source/gd32f3x0_hal_i2c.c ****     /* check whether the tx state is ready */
1415:../firmware/gd32f3x0_hal_peripheral/Source/gd32f3x0_hal_i2c.c ****     if(HAL_I2C_STATE_BUSY == i2c_dev->tx_state) {
 3647              		.loc 1 1415 37 is_stmt 1 discriminator 2
 3648 0026 FB68     		ldr	r3, [r7, #12]
 3649 0028 93F84030 		ldrb	r3, [r3, #64]
 3650 002c DBB2     		uxtb	r3, r3
 3651              		.loc 1 1415 7 discriminator 2
 3652 002e 012B     		cmp	r3, #1
 3653 0030 02D1     		bne	.L170
1416:../firmware/gd32f3x0_hal_peripheral/Source/gd32f3x0_hal_i2c.c ****         HAL_DEBUGE("i2c tx has already been used, please wait until run_state change to free ");
1417:../firmware/gd32f3x0_hal_peripheral/Source/gd32f3x0_hal_i2c.c ****         return HAL_ERR_BUSY;
 3654              		.loc 1 1417 16
 3655 0032 6FF00203 		mvn	r3, #2
 3656 0036 6AE0     		b	.L174
 3657              	.L170:
1418:../firmware/gd32f3x0_hal_peripheral/Source/gd32f3x0_hal_i2c.c ****     }
1419:../firmware/gd32f3x0_hal_peripheral/Source/gd32f3x0_hal_i2c.c ****     /* wait until I2C bus is idle */
1420:../firmware/gd32f3x0_hal_peripheral/Source/gd32f3x0_hal_i2c.c ****     if(HAL_ERR_NONE != _i2c_wait_flag_timeout(i2c_dev->periph, I2C_FLAG_I2CBSY, RESET, I2C_BUSY_TIM
 3658              		.loc 1 1420 24
 3659 0038 FB68     		ldr	r3, [r7, #12]
 3660 003a 1868     		ldr	r0, [r3]
 3661 003c 42F21073 		movw	r3, #10000
 3662 0040 0022     		movs	r2, #0
 3663 0042 40F20161 		movw	r1, #1537
 3664 0046 FFF7FEFF 		bl	_i2c_wait_flag_timeout
 3665 004a 0346     		mov	r3, r0
 3666              		.loc 1 1420 7
 3667 004c 002B     		cmp	r3, #0
 3668 004e 02D0     		beq	.L171
1421:../firmware/gd32f3x0_hal_peripheral/Source/gd32f3x0_hal_i2c.c ****         HAL_DEBUGW("i2c busy timeout");
1422:../firmware/gd32f3x0_hal_peripheral/Source/gd32f3x0_hal_i2c.c ****         return HAL_ERR_TIMEOUT;
 3669              		.loc 1 1422 16
 3670 0050 6FF00403 		mvn	r3, #4
 3671 0054 5BE0     		b	.L174
 3672              	.L171:
1423:../firmware/gd32f3x0_hal_peripheral/Source/gd32f3x0_hal_i2c.c ****     }
1424:../firmware/gd32f3x0_hal_peripheral/Source/gd32f3x0_hal_i2c.c ****     /* initialize DMA interrupt callback function structure with default value */
1425:../firmware/gd32f3x0_hal_peripheral/Source/gd32f3x0_hal_i2c.c ****     hal_dma_struct_init(HAL_DMA_IRQ_STRUCT, &dma_irq);
 3673              		.loc 1 1425 5
 3674 0056 07F11403 		add	r3, r7, #20
 3675 005a 1946     		mov	r1, r3
 3676 005c 0220     		movs	r0, #2
 3677 005e FFF7FEFF 		bl	hal_dma_struct_init
1426:../firmware/gd32f3x0_hal_peripheral/Source/gd32f3x0_hal_i2c.c ****     /* initialize transmit parameters */
1427:../firmware/gd32f3x0_hal_peripheral/Source/gd32f3x0_hal_i2c.c ****     i2c_dev->tx_state = HAL_I2C_STATE_BUSY;
 3678              		.loc 1 1427 23
 3679 0062 FB68     		ldr	r3, [r7, #12]
 3680 0064 0122     		movs	r2, #1
 3681 0066 83F84020 		strb	r2, [r3, #64]
1428:../firmware/gd32f3x0_hal_peripheral/Source/gd32f3x0_hal_i2c.c ****     i2c_dev->error_state = HAL_I2C_ERROR_NONE;
 3682              		.loc 1 1428 26
 3683 006a FB68     		ldr	r3, [r7, #12]
 3684 006c 0022     		movs	r2, #0
 3685 006e DA63     		str	r2, [r3, #60]
1429:../firmware/gd32f3x0_hal_peripheral/Source/gd32f3x0_hal_i2c.c ****     i2c_dev->txbuffer.buffer = (uint8_t *)p_buffer;
 3686              		.loc 1 1429 30
 3687 0070 FB68     		ldr	r3, [r7, #12]
 3688 0072 BA68     		ldr	r2, [r7, #8]
 3689 0074 5A61     		str	r2, [r3, #20]
1430:../firmware/gd32f3x0_hal_peripheral/Source/gd32f3x0_hal_i2c.c ****     i2c_dev->txbuffer.length = length;
 3690              		.loc 1 1430 30
 3691 0076 FB68     		ldr	r3, [r7, #12]
 3692 0078 7A68     		ldr	r2, [r7, #4]
 3693 007a 9A61     		str	r2, [r3, #24]
1431:../firmware/gd32f3x0_hal_peripheral/Source/gd32f3x0_hal_i2c.c ****     i2c_dev->txbuffer.pos = 0;
 3694              		.loc 1 1431 27
 3695 007c FB68     		ldr	r3, [r7, #12]
 3696 007e 0022     		movs	r2, #0
 3697 0080 DA61     		str	r2, [r3, #28]
1432:../firmware/gd32f3x0_hal_peripheral/Source/gd32f3x0_hal_i2c.c ****     i2c_dev->tx_callback = (void *)p_user_func;
 3698              		.loc 1 1432 26
 3699 0082 FB68     		ldr	r3, [r7, #12]
 3700 0084 3A68     		ldr	r2, [r7]
 3701 0086 DA64     		str	r2, [r3, #76]
1433:../firmware/gd32f3x0_hal_peripheral/Source/gd32f3x0_hal_i2c.c ****     /* configure DMA interrupt interrupt callback function */
1434:../firmware/gd32f3x0_hal_peripheral/Source/gd32f3x0_hal_i2c.c ****     dma_irq.full_finish_handle = _i2c_transmit_dma;
 3702              		.loc 1 1434 32
 3703 0088 234B     		ldr	r3, .L175
 3704 008a FB61     		str	r3, [r7, #28]
1435:../firmware/gd32f3x0_hal_peripheral/Source/gd32f3x0_hal_i2c.c ****     dma_irq.error_handle = _i2c_dma_error;
 3705              		.loc 1 1435 26
 3706 008c 234B     		ldr	r3, .L175+4
 3707 008e 7B61     		str	r3, [r7, #20]
1436:../firmware/gd32f3x0_hal_peripheral/Source/gd32f3x0_hal_i2c.c ****     if(NULL != i2c_dev->p_dma_tx->dma_irq.half_finish_handle) {
 3708              		.loc 1 1436 23
 3709 0090 FB68     		ldr	r3, [r7, #12]
 3710 0092 1B69     		ldr	r3, [r3, #16]
 3711              		.loc 1 1436 42
 3712 0094 9B68     		ldr	r3, [r3, #8]
 3713              		.loc 1 1436 7
 3714 0096 002B     		cmp	r3, #0
 3715 0098 03D0     		beq	.L172
1437:../firmware/gd32f3x0_hal_peripheral/Source/gd32f3x0_hal_i2c.c ****         dma_irq.half_finish_handle = i2c_dev->p_dma_tx->dma_irq.half_finish_handle;
 3716              		.loc 1 1437 45
 3717 009a FB68     		ldr	r3, [r7, #12]
 3718 009c 1B69     		ldr	r3, [r3, #16]
 3719              		.loc 1 1437 64
 3720 009e 9B68     		ldr	r3, [r3, #8]
 3721              		.loc 1 1437 36
 3722 00a0 BB61     		str	r3, [r7, #24]
 3723              	.L172:
1438:../firmware/gd32f3x0_hal_peripheral/Source/gd32f3x0_hal_i2c.c ****     }
1439:../firmware/gd32f3x0_hal_peripheral/Source/gd32f3x0_hal_i2c.c ****     /* master sends device address for write request */
1440:../firmware/gd32f3x0_hal_peripheral/Source/gd32f3x0_hal_i2c.c ****     if(HAL_ERR_NONE != _i2c_master_write(i2c_dev, I2C_TIMEOUT)) {
 3724              		.loc 1 1440 24
 3725 00a2 1F49     		ldr	r1, .L175+8
 3726 00a4 F868     		ldr	r0, [r7, #12]
 3727 00a6 FFF7FEFF 		bl	_i2c_master_write
 3728 00aa 0346     		mov	r3, r0
 3729              		.loc 1 1440 7
 3730 00ac 002B     		cmp	r3, #0
 3731 00ae 02D0     		beq	.L173
1441:../firmware/gd32f3x0_hal_peripheral/Source/gd32f3x0_hal_i2c.c ****         return HAL_ERR_TIMEOUT;
 3732              		.loc 1 1441 16
 3733 00b0 6FF00403 		mvn	r3, #4
 3734 00b4 2BE0     		b	.L174
 3735              	.L173:
1442:../firmware/gd32f3x0_hal_peripheral/Source/gd32f3x0_hal_i2c.c ****     }
1443:../firmware/gd32f3x0_hal_peripheral/Source/gd32f3x0_hal_i2c.c ****     /* clear ADDSEND bit */
1444:../firmware/gd32f3x0_hal_peripheral/Source/gd32f3x0_hal_i2c.c ****     hals_i2c_flag_clear(i2c_dev->periph, I2C_FLAG_ADDSEND);
 3736              		.loc 1 1444 5
 3737 00b6 FB68     		ldr	r3, [r7, #12]
 3738 00b8 1B68     		ldr	r3, [r3]
 3739 00ba 40F20151 		movw	r1, #1281
 3740 00be 1846     		mov	r0, r3
 3741 00c0 FFF7FEFF 		bl	hals_i2c_flag_clear
1445:../firmware/gd32f3x0_hal_peripheral/Source/gd32f3x0_hal_i2c.c ****     /* enable I2C DMA */
1446:../firmware/gd32f3x0_hal_peripheral/Source/gd32f3x0_hal_i2c.c ****     hals_i2c_dma_config(i2c_dev->periph, I2C_DMA_ON);
 3742              		.loc 1 1446 5
 3743 00c4 FB68     		ldr	r3, [r7, #12]
 3744 00c6 1B68     		ldr	r3, [r3]
 3745 00c8 4FF40061 		mov	r1, #2048
 3746 00cc 1846     		mov	r0, r3
 3747 00ce FFF7FEFF 		bl	hals_i2c_dma_config
1447:../firmware/gd32f3x0_hal_peripheral/Source/gd32f3x0_hal_i2c.c ****     /* start DMA interrupt mode transfer */
1448:../firmware/gd32f3x0_hal_peripheral/Source/gd32f3x0_hal_i2c.c ****     hal_dma_start_interrupt(i2c_dev->p_dma_tx, (uint32_t)i2c_dev->txbuffer.buffer, \
 3748              		.loc 1 1448 5
 3749 00d2 FB68     		ldr	r3, [r7, #12]
 3750 00d4 1869     		ldr	r0, [r3, #16]
 3751              		.loc 1 1448 75
 3752 00d6 FB68     		ldr	r3, [r7, #12]
 3753 00d8 5B69     		ldr	r3, [r3, #20]
 3754              		.loc 1 1448 5
 3755 00da 1C46     		mov	r4, r3
1449:../firmware/gd32f3x0_hal_peripheral/Source/gd32f3x0_hal_i2c.c ****                             (uint32_t)&I2C_DATA(i2c_dev->periph), length, &dma_irq);
 3756              		.loc 1 1449 40
 3757 00dc FB68     		ldr	r3, [r7, #12]
 3758 00de 1B68     		ldr	r3, [r3]
1448:../firmware/gd32f3x0_hal_peripheral/Source/gd32f3x0_hal_i2c.c ****                             (uint32_t)&I2C_DATA(i2c_dev->periph), length, &dma_irq);
 3759              		.loc 1 1448 5
 3760 00e0 03F11002 		add	r2, r3, #16
 3761 00e4 7B68     		ldr	r3, [r7, #4]
 3762 00e6 99B2     		uxth	r1, r3
 3763 00e8 07F11403 		add	r3, r7, #20
 3764 00ec 0093     		str	r3, [sp]
 3765 00ee 0B46     		mov	r3, r1
 3766 00f0 2146     		mov	r1, r4
 3767 00f2 FFF7FEFF 		bl	hal_dma_start_interrupt
1450:../firmware/gd32f3x0_hal_peripheral/Source/gd32f3x0_hal_i2c.c ****     /* clear DMA global interrupt flag */
1451:../firmware/gd32f3x0_hal_peripheral/Source/gd32f3x0_hal_i2c.c ****     hals_dma_flag_clear(i2c_dev->p_dma_tx->channel, DMA_INTF_GIF);
 3768              		.loc 1 1451 32
 3769 00f6 FB68     		ldr	r3, [r7, #12]
 3770 00f8 1B69     		ldr	r3, [r3, #16]
 3771              		.loc 1 1451 5
 3772 00fa 1B78     		ldrb	r3, [r3]	@ zero_extendqisi2
 3773 00fc 0121     		movs	r1, #1
 3774 00fe 1846     		mov	r0, r3
 3775 0100 FFF7FEFF 		bl	hals_dma_flag_clear
1452:../firmware/gd32f3x0_hal_peripheral/Source/gd32f3x0_hal_i2c.c **** 
1453:../firmware/gd32f3x0_hal_peripheral/Source/gd32f3x0_hal_i2c.c ****     HAL_UNLOCK(i2c_dev);
 3776              		.loc 1 1453 5
 3777 0104 FB68     		ldr	r3, [r7, #12]
 3778 0106 0022     		movs	r2, #0
 3779 0108 83F85020 		strb	r2, [r3, #80]
1454:../firmware/gd32f3x0_hal_peripheral/Source/gd32f3x0_hal_i2c.c ****     return HAL_ERR_NONE;
 3780              		.loc 1 1454 12
 3781 010c 0023     		movs	r3, #0
 3782              	.L174:
1455:../firmware/gd32f3x0_hal_peripheral/Source/gd32f3x0_hal_i2c.c **** }
 3783              		.loc 1 1455 1 discriminator 1
 3784 010e 1846     		mov	r0, r3
 3785 0110 2437     		adds	r7, r7, #36
 3786              		.cfi_def_cfa_offset 12
 3787 0112 BD46     		mov	sp, r7
 3788              		.cfi_def_cfa_register 13
 3789              		@ sp needed
 3790 0114 90BD     		pop	{r4, r7, pc}
 3791              	.L176:
 3792 0116 00BF     		.align	2
 3793              	.L175:
 3794 0118 00000000 		.word	_i2c_transmit_dma
 3795 011c 00000000 		.word	_i2c_dma_error
 3796 0120 A0860100 		.word	100000
 3797              		.cfi_endproc
 3798              	.LFE140:
 3800              		.section	.text.hal_i2c_master_receive_dma,"ax",%progbits
 3801              		.align	1
 3802              		.global	hal_i2c_master_receive_dma
 3803              		.syntax unified
 3804              		.thumb
 3805              		.thumb_func
 3806              		.fpu softvfp
 3808              	hal_i2c_master_receive_dma:
 3809              	.LFB141:
1456:../firmware/gd32f3x0_hal_peripheral/Source/gd32f3x0_hal_i2c.c **** 
1457:../firmware/gd32f3x0_hal_peripheral/Source/gd32f3x0_hal_i2c.c **** /*!
1458:../firmware/gd32f3x0_hal_peripheral/Source/gd32f3x0_hal_i2c.c ****     \brief      receive amounts of data in master mode by dma method, the function is non-blocking
1459:../firmware/gd32f3x0_hal_peripheral/Source/gd32f3x0_hal_i2c.c ****     \param[in]  i2c_dev: I2C device information structrue
1460:../firmware/gd32f3x0_hal_peripheral/Source/gd32f3x0_hal_i2c.c ****                   the structure is not necessary to be reconfigured after structrue initialization,
1461:../firmware/gd32f3x0_hal_peripheral/Source/gd32f3x0_hal_i2c.c ****                   the structure parameters altering is automatically configured by core
1462:../firmware/gd32f3x0_hal_peripheral/Source/gd32f3x0_hal_i2c.c ****     \param[in]  p_buffer: pointer to rxbuffer
1463:../firmware/gd32f3x0_hal_peripheral/Source/gd32f3x0_hal_i2c.c ****     \param[in]  length: length of data to be receive
1464:../firmware/gd32f3x0_hal_peripheral/Source/gd32f3x0_hal_i2c.c ****     \param[in]  p_user_func: call back function for user
1465:../firmware/gd32f3x0_hal_peripheral/Source/gd32f3x0_hal_i2c.c ****     \param[out] none
1466:../firmware/gd32f3x0_hal_peripheral/Source/gd32f3x0_hal_i2c.c ****     \retval     error code: HAL_ERR_NONE, HAL_ERR_ADDRESS, HAL_ERR_TIMEOUT, HAL_ERR_BUSY,
1467:../firmware/gd32f3x0_hal_peripheral/Source/gd32f3x0_hal_i2c.c ****                 details refer to gd32f3x0_hal.h
1468:../firmware/gd32f3x0_hal_peripheral/Source/gd32f3x0_hal_i2c.c **** */
1469:../firmware/gd32f3x0_hal_peripheral/Source/gd32f3x0_hal_i2c.c **** int32_t hal_i2c_master_receive_dma(hal_i2c_dev_struct *i2c_dev, uint8_t *p_buffer, \
1470:../firmware/gd32f3x0_hal_peripheral/Source/gd32f3x0_hal_i2c.c ****                                    uint32_t length, hal_i2c_user_cb p_user_func)
1471:../firmware/gd32f3x0_hal_peripheral/Source/gd32f3x0_hal_i2c.c **** {
 3810              		.loc 1 1471 1
 3811              		.cfi_startproc
 3812              		@ args = 0, pretend = 0, frame = 32
 3813              		@ frame_needed = 1, uses_anonymous_args = 0
 3814 0000 90B5     		push	{r4, r7, lr}
 3815              		.cfi_def_cfa_offset 12
 3816              		.cfi_offset 4, -12
 3817              		.cfi_offset 7, -8
 3818              		.cfi_offset 14, -4
 3819 0002 8BB0     		sub	sp, sp, #44
 3820              		.cfi_def_cfa_offset 56
 3821 0004 02AF     		add	r7, sp, #8
 3822              		.cfi_def_cfa 7, 48
 3823 0006 F860     		str	r0, [r7, #12]
 3824 0008 B960     		str	r1, [r7, #8]
 3825 000a 7A60     		str	r2, [r7, #4]
 3826 000c 3B60     		str	r3, [r7]
1472:../firmware/gd32f3x0_hal_peripheral/Source/gd32f3x0_hal_i2c.c ****     hal_dma_irq_struct dma_irq;
1473:../firmware/gd32f3x0_hal_peripheral/Source/gd32f3x0_hal_i2c.c **** #if (1 == HAL_PARAMETER_CHECK)
1474:../firmware/gd32f3x0_hal_peripheral/Source/gd32f3x0_hal_i2c.c ****     /* check i2c pointer, p_buffer address and length */
1475:../firmware/gd32f3x0_hal_peripheral/Source/gd32f3x0_hal_i2c.c ****     if((NULL == i2c_dev) || (NULL == p_buffer) || (0 == length)) {
1476:../firmware/gd32f3x0_hal_peripheral/Source/gd32f3x0_hal_i2c.c ****         HAL_DEBUGE("parameter [i2c_dev] or [p_buffer] or [length] value is invalid");
1477:../firmware/gd32f3x0_hal_peripheral/Source/gd32f3x0_hal_i2c.c ****         return HAL_ERR_ADDRESS;
1478:../firmware/gd32f3x0_hal_peripheral/Source/gd32f3x0_hal_i2c.c ****     }
1479:../firmware/gd32f3x0_hal_peripheral/Source/gd32f3x0_hal_i2c.c **** 
1480:../firmware/gd32f3x0_hal_peripheral/Source/gd32f3x0_hal_i2c.c ****     /* check whether the pointer of DMA tx is NULL */
1481:../firmware/gd32f3x0_hal_peripheral/Source/gd32f3x0_hal_i2c.c ****     if(NULL == i2c_dev->p_dma_rx) {
1482:../firmware/gd32f3x0_hal_peripheral/Source/gd32f3x0_hal_i2c.c ****         HAL_DEBUGE("parameter [i2c_dev->p_dma_rx] value is invalid");
1483:../firmware/gd32f3x0_hal_peripheral/Source/gd32f3x0_hal_i2c.c ****         return HAL_ERR_ADDRESS;
1484:../firmware/gd32f3x0_hal_peripheral/Source/gd32f3x0_hal_i2c.c ****     }
1485:../firmware/gd32f3x0_hal_peripheral/Source/gd32f3x0_hal_i2c.c **** #endif /* 1 == HAL_PARAMETER_CHECK */
1486:../firmware/gd32f3x0_hal_peripheral/Source/gd32f3x0_hal_i2c.c **** 
1487:../firmware/gd32f3x0_hal_peripheral/Source/gd32f3x0_hal_i2c.c ****     HAL_LOCK(i2c_dev);
 3827              		.loc 1 1487 5
 3828 000e FB68     		ldr	r3, [r7, #12]
 3829 0010 93F85030 		ldrb	r3, [r3, #80]	@ zero_extendqisi2
 3830 0014 012B     		cmp	r3, #1
 3831 0016 02D1     		bne	.L178
 3832              		.loc 1 1487 5 is_stmt 0 discriminator 1
 3833 0018 6FF00103 		mvn	r3, #1
 3834 001c 88E0     		b	.L186
 3835              	.L178:
 3836              		.loc 1 1487 5 discriminator 2
 3837 001e FB68     		ldr	r3, [r7, #12]
 3838 0020 0122     		movs	r2, #1
 3839 0022 83F85020 		strb	r2, [r3, #80]
1488:../firmware/gd32f3x0_hal_peripheral/Source/gd32f3x0_hal_i2c.c ****     /* check whether the rx state is ready */
1489:../firmware/gd32f3x0_hal_peripheral/Source/gd32f3x0_hal_i2c.c ****     if(HAL_I2C_STATE_BUSY == i2c_dev->rx_state) {
 3840              		.loc 1 1489 37 is_stmt 1 discriminator 2
 3841 0026 FB68     		ldr	r3, [r7, #12]
 3842 0028 93F84130 		ldrb	r3, [r3, #65]
 3843 002c DBB2     		uxtb	r3, r3
 3844              		.loc 1 1489 7 discriminator 2
 3845 002e 012B     		cmp	r3, #1
 3846 0030 02D1     		bne	.L180
1490:../firmware/gd32f3x0_hal_peripheral/Source/gd32f3x0_hal_i2c.c ****         HAL_DEBUGE("i2c rx has already been used, please wait until run_state change to free ");
1491:../firmware/gd32f3x0_hal_peripheral/Source/gd32f3x0_hal_i2c.c ****         return HAL_ERR_BUSY;
 3847              		.loc 1 1491 16
 3848 0032 6FF00203 		mvn	r3, #2
 3849 0036 7BE0     		b	.L186
 3850              	.L180:
1492:../firmware/gd32f3x0_hal_peripheral/Source/gd32f3x0_hal_i2c.c ****     }
1493:../firmware/gd32f3x0_hal_peripheral/Source/gd32f3x0_hal_i2c.c **** 
1494:../firmware/gd32f3x0_hal_peripheral/Source/gd32f3x0_hal_i2c.c ****     /* wait until I2C bus is idle */
1495:../firmware/gd32f3x0_hal_peripheral/Source/gd32f3x0_hal_i2c.c ****     if(HAL_ERR_NONE != _i2c_wait_flag_timeout(i2c_dev->periph, I2C_FLAG_I2CBSY, RESET, I2C_BUSY_TIM
 3851              		.loc 1 1495 24
 3852 0038 FB68     		ldr	r3, [r7, #12]
 3853 003a 1868     		ldr	r0, [r3]
 3854 003c 42F21073 		movw	r3, #10000
 3855 0040 0022     		movs	r2, #0
 3856 0042 40F20161 		movw	r1, #1537
 3857 0046 FFF7FEFF 		bl	_i2c_wait_flag_timeout
 3858 004a 0346     		mov	r3, r0
 3859              		.loc 1 1495 7
 3860 004c 002B     		cmp	r3, #0
 3861 004e 02D0     		beq	.L181
1496:../firmware/gd32f3x0_hal_peripheral/Source/gd32f3x0_hal_i2c.c ****         HAL_DEBUGW("i2c busy timeout");
1497:../firmware/gd32f3x0_hal_peripheral/Source/gd32f3x0_hal_i2c.c ****         return HAL_ERR_TIMEOUT;
 3862              		.loc 1 1497 16
 3863 0050 6FF00403 		mvn	r3, #4
 3864 0054 6CE0     		b	.L186
 3865              	.L181:
1498:../firmware/gd32f3x0_hal_peripheral/Source/gd32f3x0_hal_i2c.c ****     }
1499:../firmware/gd32f3x0_hal_peripheral/Source/gd32f3x0_hal_i2c.c ****     /* initialize DMA interrupt callback function structure with default value */
1500:../firmware/gd32f3x0_hal_peripheral/Source/gd32f3x0_hal_i2c.c ****     hal_dma_struct_init(HAL_DMA_IRQ_STRUCT, &dma_irq);
 3866              		.loc 1 1500 5
 3867 0056 07F11403 		add	r3, r7, #20
 3868 005a 1946     		mov	r1, r3
 3869 005c 0220     		movs	r0, #2
 3870 005e FFF7FEFF 		bl	hal_dma_struct_init
1501:../firmware/gd32f3x0_hal_peripheral/Source/gd32f3x0_hal_i2c.c ****     /* initialize receive parameters */
1502:../firmware/gd32f3x0_hal_peripheral/Source/gd32f3x0_hal_i2c.c ****     i2c_dev->rx_state = HAL_I2C_STATE_BUSY;
 3871              		.loc 1 1502 23
 3872 0062 FB68     		ldr	r3, [r7, #12]
 3873 0064 0122     		movs	r2, #1
 3874 0066 83F84120 		strb	r2, [r3, #65]
1503:../firmware/gd32f3x0_hal_peripheral/Source/gd32f3x0_hal_i2c.c ****     i2c_dev->error_state = HAL_I2C_ERROR_NONE;
 3875              		.loc 1 1503 26
 3876 006a FB68     		ldr	r3, [r7, #12]
 3877 006c 0022     		movs	r2, #0
 3878 006e DA63     		str	r2, [r3, #60]
1504:../firmware/gd32f3x0_hal_peripheral/Source/gd32f3x0_hal_i2c.c ****     i2c_dev->rxbuffer.buffer = (uint8_t *)p_buffer;
 3879              		.loc 1 1504 30
 3880 0070 FB68     		ldr	r3, [r7, #12]
 3881 0072 BA68     		ldr	r2, [r7, #8]
 3882 0074 1A62     		str	r2, [r3, #32]
1505:../firmware/gd32f3x0_hal_peripheral/Source/gd32f3x0_hal_i2c.c ****     i2c_dev->rxbuffer.length = length;
 3883              		.loc 1 1505 30
 3884 0076 FB68     		ldr	r3, [r7, #12]
 3885 0078 7A68     		ldr	r2, [r7, #4]
 3886 007a 5A62     		str	r2, [r3, #36]
1506:../firmware/gd32f3x0_hal_peripheral/Source/gd32f3x0_hal_i2c.c ****     i2c_dev->rxbuffer.pos = 0;
 3887              		.loc 1 1506 27
 3888 007c FB68     		ldr	r3, [r7, #12]
 3889 007e 0022     		movs	r2, #0
 3890 0080 9A62     		str	r2, [r3, #40]
1507:../firmware/gd32f3x0_hal_peripheral/Source/gd32f3x0_hal_i2c.c ****     i2c_dev->rx_callback = (void *)p_user_func;
 3891              		.loc 1 1507 26
 3892 0082 FB68     		ldr	r3, [r7, #12]
 3893 0084 3A68     		ldr	r2, [r7]
 3894 0086 9A64     		str	r2, [r3, #72]
1508:../firmware/gd32f3x0_hal_peripheral/Source/gd32f3x0_hal_i2c.c ****     /* configure DMA interrupt interrupt callback function */
1509:../firmware/gd32f3x0_hal_peripheral/Source/gd32f3x0_hal_i2c.c ****     dma_irq.full_finish_handle = _i2c_receive_dma;
 3895              		.loc 1 1509 32
 3896 0088 2B4B     		ldr	r3, .L187
 3897 008a FB61     		str	r3, [r7, #28]
1510:../firmware/gd32f3x0_hal_peripheral/Source/gd32f3x0_hal_i2c.c ****     dma_irq.error_handle = _i2c_dma_error;
 3898              		.loc 1 1510 26
 3899 008c 2B4B     		ldr	r3, .L187+4
 3900 008e 7B61     		str	r3, [r7, #20]
1511:../firmware/gd32f3x0_hal_peripheral/Source/gd32f3x0_hal_i2c.c ****     if(NULL != i2c_dev->p_dma_rx->dma_irq.half_finish_handle) {
 3901              		.loc 1 1511 23
 3902 0090 FB68     		ldr	r3, [r7, #12]
 3903 0092 DB68     		ldr	r3, [r3, #12]
 3904              		.loc 1 1511 42
 3905 0094 9B68     		ldr	r3, [r3, #8]
 3906              		.loc 1 1511 7
 3907 0096 002B     		cmp	r3, #0
 3908 0098 03D0     		beq	.L182
1512:../firmware/gd32f3x0_hal_peripheral/Source/gd32f3x0_hal_i2c.c ****         dma_irq.half_finish_handle = i2c_dev->p_dma_rx->dma_irq.half_finish_handle;
 3909              		.loc 1 1512 45
 3910 009a FB68     		ldr	r3, [r7, #12]
 3911 009c DB68     		ldr	r3, [r3, #12]
 3912              		.loc 1 1512 64
 3913 009e 9B68     		ldr	r3, [r3, #8]
 3914              		.loc 1 1512 36
 3915 00a0 BB61     		str	r3, [r7, #24]
 3916              	.L182:
1513:../firmware/gd32f3x0_hal_peripheral/Source/gd32f3x0_hal_i2c.c ****     }
1514:../firmware/gd32f3x0_hal_peripheral/Source/gd32f3x0_hal_i2c.c ****     /* master sends device address for read request */
1515:../firmware/gd32f3x0_hal_peripheral/Source/gd32f3x0_hal_i2c.c ****     if(HAL_ERR_NONE != _i2c_master_read(i2c_dev, I2C_TIMEOUT)) {
 3917              		.loc 1 1515 24
 3918 00a2 2749     		ldr	r1, .L187+8
 3919 00a4 F868     		ldr	r0, [r7, #12]
 3920 00a6 FFF7FEFF 		bl	_i2c_master_read
 3921 00aa 0346     		mov	r3, r0
 3922              		.loc 1 1515 7
 3923 00ac 002B     		cmp	r3, #0
 3924 00ae 02D0     		beq	.L183
1516:../firmware/gd32f3x0_hal_peripheral/Source/gd32f3x0_hal_i2c.c ****         return HAL_ERR_TIMEOUT;
 3925              		.loc 1 1516 16
 3926 00b0 6FF00403 		mvn	r3, #4
 3927 00b4 3CE0     		b	.L186
 3928              	.L183:
1517:../firmware/gd32f3x0_hal_peripheral/Source/gd32f3x0_hal_i2c.c ****     }
1518:../firmware/gd32f3x0_hal_peripheral/Source/gd32f3x0_hal_i2c.c ****     if(1 == length) {
 3929              		.loc 1 1518 7
 3930 00b6 7B68     		ldr	r3, [r7, #4]
 3931 00b8 012B     		cmp	r3, #1
 3932 00ba 06D1     		bne	.L184
1519:../firmware/gd32f3x0_hal_peripheral/Source/gd32f3x0_hal_i2c.c ****         /* disable acknowledge */
1520:../firmware/gd32f3x0_hal_peripheral/Source/gd32f3x0_hal_i2c.c ****         hals_i2c_ack_config(i2c_dev->periph, I2C_ACK_DISABLE);
 3933              		.loc 1 1520 9
 3934 00bc FB68     		ldr	r3, [r7, #12]
 3935 00be 1B68     		ldr	r3, [r3]
 3936 00c0 0021     		movs	r1, #0
 3937 00c2 1846     		mov	r0, r3
 3938 00c4 FFF7FEFF 		bl	hals_i2c_ack_config
 3939 00c8 06E0     		b	.L185
 3940              	.L184:
1521:../firmware/gd32f3x0_hal_peripheral/Source/gd32f3x0_hal_i2c.c ****     } else {
1522:../firmware/gd32f3x0_hal_peripheral/Source/gd32f3x0_hal_i2c.c ****         /* configure the next DMA EOT is DMA last transfer */
1523:../firmware/gd32f3x0_hal_peripheral/Source/gd32f3x0_hal_i2c.c ****         hals_i2c_dma_last_transfer_config(i2c_dev->periph, I2C_DMALST_ON);
 3941              		.loc 1 1523 9
 3942 00ca FB68     		ldr	r3, [r7, #12]
 3943 00cc 1B68     		ldr	r3, [r3]
 3944 00ce 4FF48051 		mov	r1, #4096
 3945 00d2 1846     		mov	r0, r3
 3946 00d4 FFF7FEFF 		bl	hals_i2c_dma_last_transfer_config
 3947              	.L185:
1524:../firmware/gd32f3x0_hal_peripheral/Source/gd32f3x0_hal_i2c.c ****     }
1525:../firmware/gd32f3x0_hal_peripheral/Source/gd32f3x0_hal_i2c.c ****     /* clear ADDSEND bit */
1526:../firmware/gd32f3x0_hal_peripheral/Source/gd32f3x0_hal_i2c.c ****     hals_i2c_flag_clear(i2c_dev->periph, I2C_FLAG_ADDSEND);
 3948              		.loc 1 1526 5
 3949 00d8 FB68     		ldr	r3, [r7, #12]
 3950 00da 1B68     		ldr	r3, [r3]
 3951 00dc 40F20151 		movw	r1, #1281
 3952 00e0 1846     		mov	r0, r3
 3953 00e2 FFF7FEFF 		bl	hals_i2c_flag_clear
1527:../firmware/gd32f3x0_hal_peripheral/Source/gd32f3x0_hal_i2c.c ****     /* enable I2C DMA */
1528:../firmware/gd32f3x0_hal_peripheral/Source/gd32f3x0_hal_i2c.c ****     hals_i2c_dma_config(i2c_dev->periph, I2C_DMA_ON);
 3954              		.loc 1 1528 5
 3955 00e6 FB68     		ldr	r3, [r7, #12]
 3956 00e8 1B68     		ldr	r3, [r3]
 3957 00ea 4FF40061 		mov	r1, #2048
 3958 00ee 1846     		mov	r0, r3
 3959 00f0 FFF7FEFF 		bl	hals_i2c_dma_config
1529:../firmware/gd32f3x0_hal_peripheral/Source/gd32f3x0_hal_i2c.c ****     /* start DMA interrupt mode transfer */
1530:../firmware/gd32f3x0_hal_peripheral/Source/gd32f3x0_hal_i2c.c ****     hal_dma_start_interrupt(i2c_dev->p_dma_rx, (uint32_t)&I2C_DATA(i2c_dev->periph), \
 3960              		.loc 1 1530 5
 3961 00f4 FB68     		ldr	r3, [r7, #12]
 3962 00f6 D868     		ldr	r0, [r3, #12]
 3963              		.loc 1 1530 59
 3964 00f8 FB68     		ldr	r3, [r7, #12]
 3965 00fa 1B68     		ldr	r3, [r3]
 3966              		.loc 1 1530 5
 3967 00fc 03F11001 		add	r1, r3, #16
1531:../firmware/gd32f3x0_hal_peripheral/Source/gd32f3x0_hal_i2c.c ****                             (uint32_t)i2c_dev->rxbuffer.buffer, length, &dma_irq);
 3968              		.loc 1 1531 56
 3969 0100 FB68     		ldr	r3, [r7, #12]
 3970 0102 1B6A     		ldr	r3, [r3, #32]
1530:../firmware/gd32f3x0_hal_peripheral/Source/gd32f3x0_hal_i2c.c ****                             (uint32_t)i2c_dev->rxbuffer.buffer, length, &dma_irq);
 3971              		.loc 1 1530 5
 3972 0104 1C46     		mov	r4, r3
 3973 0106 7B68     		ldr	r3, [r7, #4]
 3974 0108 9AB2     		uxth	r2, r3
 3975 010a 07F11403 		add	r3, r7, #20
 3976 010e 0093     		str	r3, [sp]
 3977 0110 1346     		mov	r3, r2
 3978 0112 2246     		mov	r2, r4
 3979 0114 FFF7FEFF 		bl	hal_dma_start_interrupt
1532:../firmware/gd32f3x0_hal_peripheral/Source/gd32f3x0_hal_i2c.c ****     /* clear DMA global interrupt flag */
1533:../firmware/gd32f3x0_hal_peripheral/Source/gd32f3x0_hal_i2c.c ****     hals_dma_flag_clear(i2c_dev->p_dma_rx->channel, DMA_INTF_GIF);
 3980              		.loc 1 1533 32
 3981 0118 FB68     		ldr	r3, [r7, #12]
 3982 011a DB68     		ldr	r3, [r3, #12]
 3983              		.loc 1 1533 5
 3984 011c 1B78     		ldrb	r3, [r3]	@ zero_extendqisi2
 3985 011e 0121     		movs	r1, #1
 3986 0120 1846     		mov	r0, r3
 3987 0122 FFF7FEFF 		bl	hals_dma_flag_clear
1534:../firmware/gd32f3x0_hal_peripheral/Source/gd32f3x0_hal_i2c.c **** 
1535:../firmware/gd32f3x0_hal_peripheral/Source/gd32f3x0_hal_i2c.c ****     HAL_UNLOCK(i2c_dev);
 3988              		.loc 1 1535 5
 3989 0126 FB68     		ldr	r3, [r7, #12]
 3990 0128 0022     		movs	r2, #0
 3991 012a 83F85020 		strb	r2, [r3, #80]
1536:../firmware/gd32f3x0_hal_peripheral/Source/gd32f3x0_hal_i2c.c ****     return HAL_ERR_NONE;
 3992              		.loc 1 1536 12
 3993 012e 0023     		movs	r3, #0
 3994              	.L186:
1537:../firmware/gd32f3x0_hal_peripheral/Source/gd32f3x0_hal_i2c.c **** }
 3995              		.loc 1 1537 1 discriminator 1
 3996 0130 1846     		mov	r0, r3
 3997 0132 2437     		adds	r7, r7, #36
 3998              		.cfi_def_cfa_offset 12
 3999 0134 BD46     		mov	sp, r7
 4000              		.cfi_def_cfa_register 13
 4001              		@ sp needed
 4002 0136 90BD     		pop	{r4, r7, pc}
 4003              	.L188:
 4004              		.align	2
 4005              	.L187:
 4006 0138 00000000 		.word	_i2c_receive_dma
 4007 013c 00000000 		.word	_i2c_dma_error
 4008 0140 A0860100 		.word	100000
 4009              		.cfi_endproc
 4010              	.LFE141:
 4012              		.section	.text.hal_i2c_slave_transmit_dma,"ax",%progbits
 4013              		.align	1
 4014              		.global	hal_i2c_slave_transmit_dma
 4015              		.syntax unified
 4016              		.thumb
 4017              		.thumb_func
 4018              		.fpu softvfp
 4020              	hal_i2c_slave_transmit_dma:
 4021              	.LFB142:
1538:../firmware/gd32f3x0_hal_peripheral/Source/gd32f3x0_hal_i2c.c **** 
1539:../firmware/gd32f3x0_hal_peripheral/Source/gd32f3x0_hal_i2c.c **** /*!
1540:../firmware/gd32f3x0_hal_peripheral/Source/gd32f3x0_hal_i2c.c ****     \brief      transmit amounts of data in slave mode by dma method, the function is non-blocking
1541:../firmware/gd32f3x0_hal_peripheral/Source/gd32f3x0_hal_i2c.c ****     \param[in]  i2c_dev: I2C device information structrue
1542:../firmware/gd32f3x0_hal_peripheral/Source/gd32f3x0_hal_i2c.c ****                   the structure is not necessary to be reconfigured after structrue initialization,
1543:../firmware/gd32f3x0_hal_peripheral/Source/gd32f3x0_hal_i2c.c ****                   the structure parameters altering is automatically configured by core
1544:../firmware/gd32f3x0_hal_peripheral/Source/gd32f3x0_hal_i2c.c ****     \param[in]  p_buffer: pointer to txbuffer
1545:../firmware/gd32f3x0_hal_peripheral/Source/gd32f3x0_hal_i2c.c ****     \param[in]  length: length of data to be sent
1546:../firmware/gd32f3x0_hal_peripheral/Source/gd32f3x0_hal_i2c.c ****     \param[in]  p_user_func: call back function for user
1547:../firmware/gd32f3x0_hal_peripheral/Source/gd32f3x0_hal_i2c.c ****     \param[out] none
1548:../firmware/gd32f3x0_hal_peripheral/Source/gd32f3x0_hal_i2c.c ****     \retval     error code: HAL_ERR_NONE, HAL_ERR_ADDRESS, HAL_ERR_TIMEOUT, HAL_ERR_BUSY,
1549:../firmware/gd32f3x0_hal_peripheral/Source/gd32f3x0_hal_i2c.c ****                 details refer to gd32f3x0_hal.h
1550:../firmware/gd32f3x0_hal_peripheral/Source/gd32f3x0_hal_i2c.c **** */
1551:../firmware/gd32f3x0_hal_peripheral/Source/gd32f3x0_hal_i2c.c **** int32_t hal_i2c_slave_transmit_dma(hal_i2c_dev_struct *i2c_dev, uint8_t *p_buffer, \
1552:../firmware/gd32f3x0_hal_peripheral/Source/gd32f3x0_hal_i2c.c ****                                    uint32_t length, hal_i2c_user_cb p_user_func)
1553:../firmware/gd32f3x0_hal_peripheral/Source/gd32f3x0_hal_i2c.c **** {
 4022              		.loc 1 1553 1
 4023              		.cfi_startproc
 4024              		@ args = 0, pretend = 0, frame = 32
 4025              		@ frame_needed = 1, uses_anonymous_args = 0
 4026 0000 90B5     		push	{r4, r7, lr}
 4027              		.cfi_def_cfa_offset 12
 4028              		.cfi_offset 4, -12
 4029              		.cfi_offset 7, -8
 4030              		.cfi_offset 14, -4
 4031 0002 8BB0     		sub	sp, sp, #44
 4032              		.cfi_def_cfa_offset 56
 4033 0004 02AF     		add	r7, sp, #8
 4034              		.cfi_def_cfa 7, 48
 4035 0006 F860     		str	r0, [r7, #12]
 4036 0008 B960     		str	r1, [r7, #8]
 4037 000a 7A60     		str	r2, [r7, #4]
 4038 000c 3B60     		str	r3, [r7]
1554:../firmware/gd32f3x0_hal_peripheral/Source/gd32f3x0_hal_i2c.c ****     hal_dma_irq_struct dma_irq;
1555:../firmware/gd32f3x0_hal_peripheral/Source/gd32f3x0_hal_i2c.c ****     uint32_t address_format;
1556:../firmware/gd32f3x0_hal_peripheral/Source/gd32f3x0_hal_i2c.c **** 
1557:../firmware/gd32f3x0_hal_peripheral/Source/gd32f3x0_hal_i2c.c **** #if (1 == HAL_PARAMETER_CHECK)
1558:../firmware/gd32f3x0_hal_peripheral/Source/gd32f3x0_hal_i2c.c ****     /* check i2c pointer, p_buffer address and length */
1559:../firmware/gd32f3x0_hal_peripheral/Source/gd32f3x0_hal_i2c.c ****     if((NULL == i2c_dev) || (NULL == p_buffer) || (0 == length)) {
1560:../firmware/gd32f3x0_hal_peripheral/Source/gd32f3x0_hal_i2c.c ****         HAL_DEBUGE("parameter [i2c_dev] or [p_buffer] or [length] value is invalid");
1561:../firmware/gd32f3x0_hal_peripheral/Source/gd32f3x0_hal_i2c.c ****         return HAL_ERR_ADDRESS;
1562:../firmware/gd32f3x0_hal_peripheral/Source/gd32f3x0_hal_i2c.c ****     }
1563:../firmware/gd32f3x0_hal_peripheral/Source/gd32f3x0_hal_i2c.c **** 
1564:../firmware/gd32f3x0_hal_peripheral/Source/gd32f3x0_hal_i2c.c ****     /* check whether the pointer of DMA tx is NULL */
1565:../firmware/gd32f3x0_hal_peripheral/Source/gd32f3x0_hal_i2c.c ****     if(NULL == i2c_dev->p_dma_tx) {
1566:../firmware/gd32f3x0_hal_peripheral/Source/gd32f3x0_hal_i2c.c ****         HAL_DEBUGE("parameter [i2c_dev->p_dma_tx] value is invalid");
1567:../firmware/gd32f3x0_hal_peripheral/Source/gd32f3x0_hal_i2c.c ****         return HAL_ERR_ADDRESS;
1568:../firmware/gd32f3x0_hal_peripheral/Source/gd32f3x0_hal_i2c.c ****     }
1569:../firmware/gd32f3x0_hal_peripheral/Source/gd32f3x0_hal_i2c.c **** #endif /* 1 == HAL_PARAMETER_CHECK */
1570:../firmware/gd32f3x0_hal_peripheral/Source/gd32f3x0_hal_i2c.c **** 
1571:../firmware/gd32f3x0_hal_peripheral/Source/gd32f3x0_hal_i2c.c ****     /* check the address format */
1572:../firmware/gd32f3x0_hal_peripheral/Source/gd32f3x0_hal_i2c.c ****     if(I2C_SADDR0(i2c_dev->periph)&I2C_SADDR0_ADDFORMAT) {
 4039              		.loc 1 1572 8
 4040 000e FB68     		ldr	r3, [r7, #12]
 4041 0010 1B68     		ldr	r3, [r3]
 4042 0012 0833     		adds	r3, r3, #8
 4043 0014 1B68     		ldr	r3, [r3]
 4044              		.loc 1 1572 35
 4045 0016 03F40043 		and	r3, r3, #32768
 4046              		.loc 1 1572 7
 4047 001a 002B     		cmp	r3, #0
 4048 001c 03D0     		beq	.L190
1573:../firmware/gd32f3x0_hal_peripheral/Source/gd32f3x0_hal_i2c.c ****         address_format = I2C_ADDFORMAT_10BITS;
 4049              		.loc 1 1573 24
 4050 001e 4FF40043 		mov	r3, #32768
 4051 0022 FB61     		str	r3, [r7, #28]
 4052 0024 01E0     		b	.L191
 4053              	.L190:
1574:../firmware/gd32f3x0_hal_peripheral/Source/gd32f3x0_hal_i2c.c ****     } else {
1575:../firmware/gd32f3x0_hal_peripheral/Source/gd32f3x0_hal_i2c.c ****         address_format = I2C_ADDFORMAT_7BITS;
 4054              		.loc 1 1575 24
 4055 0026 0023     		movs	r3, #0
 4056 0028 FB61     		str	r3, [r7, #28]
 4057              	.L191:
1576:../firmware/gd32f3x0_hal_peripheral/Source/gd32f3x0_hal_i2c.c ****     }
1577:../firmware/gd32f3x0_hal_peripheral/Source/gd32f3x0_hal_i2c.c **** 
1578:../firmware/gd32f3x0_hal_peripheral/Source/gd32f3x0_hal_i2c.c ****     HAL_LOCK(i2c_dev);
 4058              		.loc 1 1578 5
 4059 002a FB68     		ldr	r3, [r7, #12]
 4060 002c 93F85030 		ldrb	r3, [r3, #80]	@ zero_extendqisi2
 4061 0030 012B     		cmp	r3, #1
 4062 0032 02D1     		bne	.L192
 4063              		.loc 1 1578 5 is_stmt 0 discriminator 1
 4064 0034 6FF00103 		mvn	r3, #1
 4065 0038 8EE0     		b	.L199
 4066              	.L192:
 4067              		.loc 1 1578 5 discriminator 2
 4068 003a FB68     		ldr	r3, [r7, #12]
 4069 003c 0122     		movs	r2, #1
 4070 003e 83F85020 		strb	r2, [r3, #80]
1579:../firmware/gd32f3x0_hal_peripheral/Source/gd32f3x0_hal_i2c.c ****     /* check whether the tx state is ready */
1580:../firmware/gd32f3x0_hal_peripheral/Source/gd32f3x0_hal_i2c.c ****     if(HAL_I2C_STATE_BUSY == i2c_dev->tx_state) {
 4071              		.loc 1 1580 37 is_stmt 1 discriminator 2
 4072 0042 FB68     		ldr	r3, [r7, #12]
 4073 0044 93F84030 		ldrb	r3, [r3, #64]
 4074 0048 DBB2     		uxtb	r3, r3
 4075              		.loc 1 1580 7 discriminator 2
 4076 004a 012B     		cmp	r3, #1
 4077 004c 02D1     		bne	.L194
1581:../firmware/gd32f3x0_hal_peripheral/Source/gd32f3x0_hal_i2c.c ****         HAL_DEBUGE("i2c tx has already been used, please wait until run_state change to free ");
1582:../firmware/gd32f3x0_hal_peripheral/Source/gd32f3x0_hal_i2c.c ****         return HAL_ERR_BUSY;
 4078              		.loc 1 1582 16
 4079 004e 6FF00203 		mvn	r3, #2
 4080 0052 81E0     		b	.L199
 4081              	.L194:
1583:../firmware/gd32f3x0_hal_peripheral/Source/gd32f3x0_hal_i2c.c ****     }
1584:../firmware/gd32f3x0_hal_peripheral/Source/gd32f3x0_hal_i2c.c ****     /* initialize DMA interrupt callback function structure with default value */
1585:../firmware/gd32f3x0_hal_peripheral/Source/gd32f3x0_hal_i2c.c ****     hal_dma_struct_init(HAL_DMA_IRQ_STRUCT, &dma_irq);
 4082              		.loc 1 1585 5
 4083 0054 07F11003 		add	r3, r7, #16
 4084 0058 1946     		mov	r1, r3
 4085 005a 0220     		movs	r0, #2
 4086 005c FFF7FEFF 		bl	hal_dma_struct_init
1586:../firmware/gd32f3x0_hal_peripheral/Source/gd32f3x0_hal_i2c.c ****     /* initialize transmit parameters */
1587:../firmware/gd32f3x0_hal_peripheral/Source/gd32f3x0_hal_i2c.c ****     i2c_dev->tx_state = HAL_I2C_STATE_BUSY;
 4087              		.loc 1 1587 23
 4088 0060 FB68     		ldr	r3, [r7, #12]
 4089 0062 0122     		movs	r2, #1
 4090 0064 83F84020 		strb	r2, [r3, #64]
1588:../firmware/gd32f3x0_hal_peripheral/Source/gd32f3x0_hal_i2c.c ****     i2c_dev->error_state = HAL_I2C_ERROR_NONE;
 4091              		.loc 1 1588 26
 4092 0068 FB68     		ldr	r3, [r7, #12]
 4093 006a 0022     		movs	r2, #0
 4094 006c DA63     		str	r2, [r3, #60]
1589:../firmware/gd32f3x0_hal_peripheral/Source/gd32f3x0_hal_i2c.c ****     i2c_dev->txbuffer.buffer = (uint8_t *)p_buffer;
 4095              		.loc 1 1589 30
 4096 006e FB68     		ldr	r3, [r7, #12]
 4097 0070 BA68     		ldr	r2, [r7, #8]
 4098 0072 5A61     		str	r2, [r3, #20]
1590:../firmware/gd32f3x0_hal_peripheral/Source/gd32f3x0_hal_i2c.c ****     i2c_dev->txbuffer.length = length;
 4099              		.loc 1 1590 30
 4100 0074 FB68     		ldr	r3, [r7, #12]
 4101 0076 7A68     		ldr	r2, [r7, #4]
 4102 0078 9A61     		str	r2, [r3, #24]
1591:../firmware/gd32f3x0_hal_peripheral/Source/gd32f3x0_hal_i2c.c ****     i2c_dev->txbuffer.pos = 0;
 4103              		.loc 1 1591 27
 4104 007a FB68     		ldr	r3, [r7, #12]
 4105 007c 0022     		movs	r2, #0
 4106 007e DA61     		str	r2, [r3, #28]
1592:../firmware/gd32f3x0_hal_peripheral/Source/gd32f3x0_hal_i2c.c ****     i2c_dev->tx_callback = (void *)p_user_func;
 4107              		.loc 1 1592 26
 4108 0080 FB68     		ldr	r3, [r7, #12]
 4109 0082 3A68     		ldr	r2, [r7]
 4110 0084 DA64     		str	r2, [r3, #76]
1593:../firmware/gd32f3x0_hal_peripheral/Source/gd32f3x0_hal_i2c.c ****     /* configure DMA interrupt interrupt callback function */
1594:../firmware/gd32f3x0_hal_peripheral/Source/gd32f3x0_hal_i2c.c ****     dma_irq.full_finish_handle = _i2c_transmit_dma;
 4111              		.loc 1 1594 32
 4112 0086 364B     		ldr	r3, .L200
 4113 0088 BB61     		str	r3, [r7, #24]
1595:../firmware/gd32f3x0_hal_peripheral/Source/gd32f3x0_hal_i2c.c ****     dma_irq.error_handle = _i2c_dma_error;
 4114              		.loc 1 1595 26
 4115 008a 364B     		ldr	r3, .L200+4
 4116 008c 3B61     		str	r3, [r7, #16]
1596:../firmware/gd32f3x0_hal_peripheral/Source/gd32f3x0_hal_i2c.c ****     if(NULL != i2c_dev->p_dma_tx->dma_irq.half_finish_handle) {
 4117              		.loc 1 1596 23
 4118 008e FB68     		ldr	r3, [r7, #12]
 4119 0090 1B69     		ldr	r3, [r3, #16]
 4120              		.loc 1 1596 42
 4121 0092 9B68     		ldr	r3, [r3, #8]
 4122              		.loc 1 1596 7
 4123 0094 002B     		cmp	r3, #0
 4124 0096 03D0     		beq	.L195
1597:../firmware/gd32f3x0_hal_peripheral/Source/gd32f3x0_hal_i2c.c ****         dma_irq.half_finish_handle = i2c_dev->p_dma_tx->dma_irq.half_finish_handle;
 4125              		.loc 1 1597 45
 4126 0098 FB68     		ldr	r3, [r7, #12]
 4127 009a 1B69     		ldr	r3, [r3, #16]
 4128              		.loc 1 1597 64
 4129 009c 9B68     		ldr	r3, [r3, #8]
 4130              		.loc 1 1597 36
 4131 009e 7B61     		str	r3, [r7, #20]
 4132              	.L195:
1598:../firmware/gd32f3x0_hal_peripheral/Source/gd32f3x0_hal_i2c.c ****     }
1599:../firmware/gd32f3x0_hal_peripheral/Source/gd32f3x0_hal_i2c.c ****     /* enable acknowledge */
1600:../firmware/gd32f3x0_hal_peripheral/Source/gd32f3x0_hal_i2c.c ****     hals_i2c_ack_config(i2c_dev->periph, I2C_ACK_ENABLE);
 4133              		.loc 1 1600 5
 4134 00a0 FB68     		ldr	r3, [r7, #12]
 4135 00a2 1B68     		ldr	r3, [r3]
 4136 00a4 4FF48061 		mov	r1, #1024
 4137 00a8 1846     		mov	r0, r3
 4138 00aa FFF7FEFF 		bl	hals_i2c_ack_config
1601:../firmware/gd32f3x0_hal_peripheral/Source/gd32f3x0_hal_i2c.c ****     /* wait until ADDSEND bit is set */
1602:../firmware/gd32f3x0_hal_peripheral/Source/gd32f3x0_hal_i2c.c ****     if(HAL_ERR_NONE != _i2c_wait_flag_timeout(i2c_dev->periph, I2C_FLAG_ADDSEND, SET, I2C_ADDR_TIME
 4139              		.loc 1 1602 24
 4140 00ae FB68     		ldr	r3, [r7, #12]
 4141 00b0 1868     		ldr	r0, [r3]
 4142 00b2 42F21073 		movw	r3, #10000
 4143 00b6 0122     		movs	r2, #1
 4144 00b8 40F20151 		movw	r1, #1281
 4145 00bc FFF7FEFF 		bl	_i2c_wait_flag_timeout
 4146 00c0 0346     		mov	r3, r0
 4147              		.loc 1 1602 7
 4148 00c2 002B     		cmp	r3, #0
 4149 00c4 02D0     		beq	.L196
1603:../firmware/gd32f3x0_hal_peripheral/Source/gd32f3x0_hal_i2c.c ****         HAL_DEBUGW("i2c get ADDSEND timeout");
1604:../firmware/gd32f3x0_hal_peripheral/Source/gd32f3x0_hal_i2c.c ****         return HAL_ERR_TIMEOUT;
 4150              		.loc 1 1604 16
 4151 00c6 6FF00403 		mvn	r3, #4
 4152 00ca 45E0     		b	.L199
 4153              	.L196:
1605:../firmware/gd32f3x0_hal_peripheral/Source/gd32f3x0_hal_i2c.c ****     }
1606:../firmware/gd32f3x0_hal_peripheral/Source/gd32f3x0_hal_i2c.c ****     /* clear ADDSEND bit */
1607:../firmware/gd32f3x0_hal_peripheral/Source/gd32f3x0_hal_i2c.c ****     hals_i2c_flag_clear(i2c_dev->periph, I2C_FLAG_ADDSEND);
 4154              		.loc 1 1607 5
 4155 00cc FB68     		ldr	r3, [r7, #12]
 4156 00ce 1B68     		ldr	r3, [r3]
 4157 00d0 40F20151 		movw	r1, #1281
 4158 00d4 1846     		mov	r0, r3
 4159 00d6 FFF7FEFF 		bl	hals_i2c_flag_clear
1608:../firmware/gd32f3x0_hal_peripheral/Source/gd32f3x0_hal_i2c.c ****     /* wait until ADDSEND bit is set */
1609:../firmware/gd32f3x0_hal_peripheral/Source/gd32f3x0_hal_i2c.c ****     if(I2C_ADDFORMAT_10BITS == address_format) {
 4160              		.loc 1 1609 7
 4161 00da FB69     		ldr	r3, [r7, #28]
 4162 00dc B3F5004F 		cmp	r3, #32768
 4163 00e0 15D1     		bne	.L197
1610:../firmware/gd32f3x0_hal_peripheral/Source/gd32f3x0_hal_i2c.c ****         if(HAL_ERR_NONE != _i2c_wait_flag_timeout(i2c_dev->periph, I2C_FLAG_ADDSEND, SET, I2C_ADDR_
 4164              		.loc 1 1610 28
 4165 00e2 FB68     		ldr	r3, [r7, #12]
 4166 00e4 1868     		ldr	r0, [r3]
 4167 00e6 42F21073 		movw	r3, #10000
 4168 00ea 0122     		movs	r2, #1
 4169 00ec 40F20151 		movw	r1, #1281
 4170 00f0 FFF7FEFF 		bl	_i2c_wait_flag_timeout
 4171 00f4 0346     		mov	r3, r0
 4172              		.loc 1 1610 11
 4173 00f6 002B     		cmp	r3, #0
 4174 00f8 02D0     		beq	.L198
1611:../firmware/gd32f3x0_hal_peripheral/Source/gd32f3x0_hal_i2c.c ****             HAL_DEBUGW("i2c get ADDSEND timeout");
1612:../firmware/gd32f3x0_hal_peripheral/Source/gd32f3x0_hal_i2c.c ****             return HAL_ERR_TIMEOUT;
 4175              		.loc 1 1612 20
 4176 00fa 6FF00403 		mvn	r3, #4
 4177 00fe 2BE0     		b	.L199
 4178              	.L198:
1613:../firmware/gd32f3x0_hal_peripheral/Source/gd32f3x0_hal_i2c.c ****         }
1614:../firmware/gd32f3x0_hal_peripheral/Source/gd32f3x0_hal_i2c.c ****         /* clear ADDSEND bit */
1615:../firmware/gd32f3x0_hal_peripheral/Source/gd32f3x0_hal_i2c.c ****         hals_i2c_flag_clear(i2c_dev->periph, I2C_FLAG_ADDSEND);
 4179              		.loc 1 1615 9
 4180 0100 FB68     		ldr	r3, [r7, #12]
 4181 0102 1B68     		ldr	r3, [r3]
 4182 0104 40F20151 		movw	r1, #1281
 4183 0108 1846     		mov	r0, r3
 4184 010a FFF7FEFF 		bl	hals_i2c_flag_clear
 4185              	.L197:
1616:../firmware/gd32f3x0_hal_peripheral/Source/gd32f3x0_hal_i2c.c ****     }
1617:../firmware/gd32f3x0_hal_peripheral/Source/gd32f3x0_hal_i2c.c ****     /* enable I2C DMA */
1618:../firmware/gd32f3x0_hal_peripheral/Source/gd32f3x0_hal_i2c.c ****     hals_i2c_dma_config(i2c_dev->periph, I2C_DMA_ON);
 4186              		.loc 1 1618 5
 4187 010e FB68     		ldr	r3, [r7, #12]
 4188 0110 1B68     		ldr	r3, [r3]
 4189 0112 4FF40061 		mov	r1, #2048
 4190 0116 1846     		mov	r0, r3
 4191 0118 FFF7FEFF 		bl	hals_i2c_dma_config
1619:../firmware/gd32f3x0_hal_peripheral/Source/gd32f3x0_hal_i2c.c ****     /* start DMA interrupt mode transfer */
1620:../firmware/gd32f3x0_hal_peripheral/Source/gd32f3x0_hal_i2c.c ****     hal_dma_start_interrupt(i2c_dev->p_dma_tx, (uint32_t)i2c_dev->txbuffer.buffer, \
 4192              		.loc 1 1620 5
 4193 011c FB68     		ldr	r3, [r7, #12]
 4194 011e 1869     		ldr	r0, [r3, #16]
 4195              		.loc 1 1620 75
 4196 0120 FB68     		ldr	r3, [r7, #12]
 4197 0122 5B69     		ldr	r3, [r3, #20]
 4198              		.loc 1 1620 5
 4199 0124 1C46     		mov	r4, r3
1621:../firmware/gd32f3x0_hal_peripheral/Source/gd32f3x0_hal_i2c.c ****                             (uint32_t)&I2C_DATA(i2c_dev->periph), length, &dma_irq);
 4200              		.loc 1 1621 40
 4201 0126 FB68     		ldr	r3, [r7, #12]
 4202 0128 1B68     		ldr	r3, [r3]
1620:../firmware/gd32f3x0_hal_peripheral/Source/gd32f3x0_hal_i2c.c ****                             (uint32_t)&I2C_DATA(i2c_dev->periph), length, &dma_irq);
 4203              		.loc 1 1620 5
 4204 012a 03F11002 		add	r2, r3, #16
 4205 012e 7B68     		ldr	r3, [r7, #4]
 4206 0130 99B2     		uxth	r1, r3
 4207 0132 07F11003 		add	r3, r7, #16
 4208 0136 0093     		str	r3, [sp]
 4209 0138 0B46     		mov	r3, r1
 4210 013a 2146     		mov	r1, r4
 4211 013c FFF7FEFF 		bl	hal_dma_start_interrupt
1622:../firmware/gd32f3x0_hal_peripheral/Source/gd32f3x0_hal_i2c.c ****     /* clear DMA global interrupt flag */
1623:../firmware/gd32f3x0_hal_peripheral/Source/gd32f3x0_hal_i2c.c ****     hals_dma_flag_clear(i2c_dev->p_dma_tx->channel, DMA_INTF_GIF);
 4212              		.loc 1 1623 32
 4213 0140 FB68     		ldr	r3, [r7, #12]
 4214 0142 1B69     		ldr	r3, [r3, #16]
 4215              		.loc 1 1623 5
 4216 0144 1B78     		ldrb	r3, [r3]	@ zero_extendqisi2
 4217 0146 0121     		movs	r1, #1
 4218 0148 1846     		mov	r0, r3
 4219 014a FFF7FEFF 		bl	hals_dma_flag_clear
1624:../firmware/gd32f3x0_hal_peripheral/Source/gd32f3x0_hal_i2c.c **** 
1625:../firmware/gd32f3x0_hal_peripheral/Source/gd32f3x0_hal_i2c.c ****     HAL_UNLOCK(i2c_dev);
 4220              		.loc 1 1625 5
 4221 014e FB68     		ldr	r3, [r7, #12]
 4222 0150 0022     		movs	r2, #0
 4223 0152 83F85020 		strb	r2, [r3, #80]
1626:../firmware/gd32f3x0_hal_peripheral/Source/gd32f3x0_hal_i2c.c ****     return HAL_ERR_NONE;
 4224              		.loc 1 1626 12
 4225 0156 0023     		movs	r3, #0
 4226              	.L199:
1627:../firmware/gd32f3x0_hal_peripheral/Source/gd32f3x0_hal_i2c.c **** }
 4227              		.loc 1 1627 1 discriminator 1
 4228 0158 1846     		mov	r0, r3
 4229 015a 2437     		adds	r7, r7, #36
 4230              		.cfi_def_cfa_offset 12
 4231 015c BD46     		mov	sp, r7
 4232              		.cfi_def_cfa_register 13
 4233              		@ sp needed
 4234 015e 90BD     		pop	{r4, r7, pc}
 4235              	.L201:
 4236              		.align	2
 4237              	.L200:
 4238 0160 00000000 		.word	_i2c_transmit_dma
 4239 0164 00000000 		.word	_i2c_dma_error
 4240              		.cfi_endproc
 4241              	.LFE142:
 4243              		.section	.text.hal_i2c_slave_receive_dma,"ax",%progbits
 4244              		.align	1
 4245              		.global	hal_i2c_slave_receive_dma
 4246              		.syntax unified
 4247              		.thumb
 4248              		.thumb_func
 4249              		.fpu softvfp
 4251              	hal_i2c_slave_receive_dma:
 4252              	.LFB143:
1628:../firmware/gd32f3x0_hal_peripheral/Source/gd32f3x0_hal_i2c.c **** 
1629:../firmware/gd32f3x0_hal_peripheral/Source/gd32f3x0_hal_i2c.c **** /*!
1630:../firmware/gd32f3x0_hal_peripheral/Source/gd32f3x0_hal_i2c.c ****     \brief      receive amounts of data in slave mode by dma method, the function is non-blocking
1631:../firmware/gd32f3x0_hal_peripheral/Source/gd32f3x0_hal_i2c.c ****     \param[in]  i2c_dev: I2C device information structrue
1632:../firmware/gd32f3x0_hal_peripheral/Source/gd32f3x0_hal_i2c.c ****                   the structure is not necessary to be reconfigured after structrue initialization,
1633:../firmware/gd32f3x0_hal_peripheral/Source/gd32f3x0_hal_i2c.c ****                   the structure parameters altering is automatically configured by core
1634:../firmware/gd32f3x0_hal_peripheral/Source/gd32f3x0_hal_i2c.c ****     \param[in]  p_buffer: pointer to rxbuffer
1635:../firmware/gd32f3x0_hal_peripheral/Source/gd32f3x0_hal_i2c.c ****     \param[in]  length: length of data to be receive
1636:../firmware/gd32f3x0_hal_peripheral/Source/gd32f3x0_hal_i2c.c ****     \param[in]  p_user_func: call back function for user
1637:../firmware/gd32f3x0_hal_peripheral/Source/gd32f3x0_hal_i2c.c ****     \param[out] none
1638:../firmware/gd32f3x0_hal_peripheral/Source/gd32f3x0_hal_i2c.c ****     \retval     error code: HAL_ERR_NONE, HAL_ERR_ADDRESS, HAL_ERR_TIMEOUT, HAL_ERR_BUSY,
1639:../firmware/gd32f3x0_hal_peripheral/Source/gd32f3x0_hal_i2c.c ****                 details refer to gd32f3x0_hal.h
1640:../firmware/gd32f3x0_hal_peripheral/Source/gd32f3x0_hal_i2c.c **** */
1641:../firmware/gd32f3x0_hal_peripheral/Source/gd32f3x0_hal_i2c.c **** int32_t hal_i2c_slave_receive_dma(hal_i2c_dev_struct *i2c_dev, uint8_t *p_buffer, \
1642:../firmware/gd32f3x0_hal_peripheral/Source/gd32f3x0_hal_i2c.c ****                                   uint32_t length, hal_i2c_user_cb p_user_func)
1643:../firmware/gd32f3x0_hal_peripheral/Source/gd32f3x0_hal_i2c.c **** {
 4253              		.loc 1 1643 1
 4254              		.cfi_startproc
 4255              		@ args = 0, pretend = 0, frame = 32
 4256              		@ frame_needed = 1, uses_anonymous_args = 0
 4257 0000 90B5     		push	{r4, r7, lr}
 4258              		.cfi_def_cfa_offset 12
 4259              		.cfi_offset 4, -12
 4260              		.cfi_offset 7, -8
 4261              		.cfi_offset 14, -4
 4262 0002 8BB0     		sub	sp, sp, #44
 4263              		.cfi_def_cfa_offset 56
 4264 0004 02AF     		add	r7, sp, #8
 4265              		.cfi_def_cfa 7, 48
 4266 0006 F860     		str	r0, [r7, #12]
 4267 0008 B960     		str	r1, [r7, #8]
 4268 000a 7A60     		str	r2, [r7, #4]
 4269 000c 3B60     		str	r3, [r7]
1644:../firmware/gd32f3x0_hal_peripheral/Source/gd32f3x0_hal_i2c.c ****     hal_dma_irq_struct dma_irq;
1645:../firmware/gd32f3x0_hal_peripheral/Source/gd32f3x0_hal_i2c.c **** 
1646:../firmware/gd32f3x0_hal_peripheral/Source/gd32f3x0_hal_i2c.c **** #if (1 == HAL_PARAMETER_CHECK)
1647:../firmware/gd32f3x0_hal_peripheral/Source/gd32f3x0_hal_i2c.c ****     /* check i2c pointer, p_buffer address and length */
1648:../firmware/gd32f3x0_hal_peripheral/Source/gd32f3x0_hal_i2c.c ****     if((NULL == i2c_dev) || (NULL == p_buffer) || (0 == length)) {
1649:../firmware/gd32f3x0_hal_peripheral/Source/gd32f3x0_hal_i2c.c ****         HAL_DEBUGE("parameter [i2c_dev] or [p_buffer] or [length] value is invalid");
1650:../firmware/gd32f3x0_hal_peripheral/Source/gd32f3x0_hal_i2c.c ****         return HAL_ERR_ADDRESS;
1651:../firmware/gd32f3x0_hal_peripheral/Source/gd32f3x0_hal_i2c.c ****     }
1652:../firmware/gd32f3x0_hal_peripheral/Source/gd32f3x0_hal_i2c.c **** 
1653:../firmware/gd32f3x0_hal_peripheral/Source/gd32f3x0_hal_i2c.c ****     /* check whether the pointer of DMA tx is NULL */
1654:../firmware/gd32f3x0_hal_peripheral/Source/gd32f3x0_hal_i2c.c ****     if(NULL == i2c_dev->p_dma_rx) {
1655:../firmware/gd32f3x0_hal_peripheral/Source/gd32f3x0_hal_i2c.c ****         HAL_DEBUGE("parameter [i2c_dev->p_dma_rx] value is invalid");
1656:../firmware/gd32f3x0_hal_peripheral/Source/gd32f3x0_hal_i2c.c ****         return HAL_ERR_ADDRESS;
1657:../firmware/gd32f3x0_hal_peripheral/Source/gd32f3x0_hal_i2c.c ****     }
1658:../firmware/gd32f3x0_hal_peripheral/Source/gd32f3x0_hal_i2c.c **** #endif /* 1 == HAL_PARAMETER_CHECK */
1659:../firmware/gd32f3x0_hal_peripheral/Source/gd32f3x0_hal_i2c.c **** 
1660:../firmware/gd32f3x0_hal_peripheral/Source/gd32f3x0_hal_i2c.c ****     HAL_LOCK(i2c_dev);
 4270              		.loc 1 1660 5
 4271 000e FB68     		ldr	r3, [r7, #12]
 4272 0010 93F85030 		ldrb	r3, [r3, #80]	@ zero_extendqisi2
 4273 0014 012B     		cmp	r3, #1
 4274 0016 02D1     		bne	.L203
 4275              		.loc 1 1660 5 is_stmt 0 discriminator 1
 4276 0018 6FF00103 		mvn	r3, #1
 4277 001c 74E0     		b	.L208
 4278              	.L203:
 4279              		.loc 1 1660 5 discriminator 2
 4280 001e FB68     		ldr	r3, [r7, #12]
 4281 0020 0122     		movs	r2, #1
 4282 0022 83F85020 		strb	r2, [r3, #80]
1661:../firmware/gd32f3x0_hal_peripheral/Source/gd32f3x0_hal_i2c.c ****     /* check whether the rx state is ready */
1662:../firmware/gd32f3x0_hal_peripheral/Source/gd32f3x0_hal_i2c.c ****     if(HAL_I2C_STATE_BUSY == i2c_dev->rx_state) {
 4283              		.loc 1 1662 37 is_stmt 1 discriminator 2
 4284 0026 FB68     		ldr	r3, [r7, #12]
 4285 0028 93F84130 		ldrb	r3, [r3, #65]
 4286 002c DBB2     		uxtb	r3, r3
 4287              		.loc 1 1662 7 discriminator 2
 4288 002e 012B     		cmp	r3, #1
 4289 0030 02D1     		bne	.L205
1663:../firmware/gd32f3x0_hal_peripheral/Source/gd32f3x0_hal_i2c.c ****         HAL_DEBUGE("i2c rx has already been used, please wait until run_state change to free ");
1664:../firmware/gd32f3x0_hal_peripheral/Source/gd32f3x0_hal_i2c.c ****         return HAL_ERR_BUSY;
 4290              		.loc 1 1664 16
 4291 0032 6FF00203 		mvn	r3, #2
 4292 0036 67E0     		b	.L208
 4293              	.L205:
1665:../firmware/gd32f3x0_hal_peripheral/Source/gd32f3x0_hal_i2c.c ****     }
1666:../firmware/gd32f3x0_hal_peripheral/Source/gd32f3x0_hal_i2c.c **** 
1667:../firmware/gd32f3x0_hal_peripheral/Source/gd32f3x0_hal_i2c.c ****     /* initialize DMA interrupt callback function structure with default value */
1668:../firmware/gd32f3x0_hal_peripheral/Source/gd32f3x0_hal_i2c.c ****     hal_dma_struct_init(HAL_DMA_IRQ_STRUCT, &dma_irq);
 4294              		.loc 1 1668 5
 4295 0038 07F11403 		add	r3, r7, #20
 4296 003c 1946     		mov	r1, r3
 4297 003e 0220     		movs	r0, #2
 4298 0040 FFF7FEFF 		bl	hal_dma_struct_init
1669:../firmware/gd32f3x0_hal_peripheral/Source/gd32f3x0_hal_i2c.c ****     /* initialize receive parameters */
1670:../firmware/gd32f3x0_hal_peripheral/Source/gd32f3x0_hal_i2c.c ****     i2c_dev->rx_state = HAL_I2C_STATE_BUSY;
 4299              		.loc 1 1670 23
 4300 0044 FB68     		ldr	r3, [r7, #12]
 4301 0046 0122     		movs	r2, #1
 4302 0048 83F84120 		strb	r2, [r3, #65]
1671:../firmware/gd32f3x0_hal_peripheral/Source/gd32f3x0_hal_i2c.c ****     i2c_dev->error_state = HAL_I2C_ERROR_NONE;
 4303              		.loc 1 1671 26
 4304 004c FB68     		ldr	r3, [r7, #12]
 4305 004e 0022     		movs	r2, #0
 4306 0050 DA63     		str	r2, [r3, #60]
1672:../firmware/gd32f3x0_hal_peripheral/Source/gd32f3x0_hal_i2c.c ****     i2c_dev->rxbuffer.buffer = (uint8_t *)p_buffer;
 4307              		.loc 1 1672 30
 4308 0052 FB68     		ldr	r3, [r7, #12]
 4309 0054 BA68     		ldr	r2, [r7, #8]
 4310 0056 1A62     		str	r2, [r3, #32]
1673:../firmware/gd32f3x0_hal_peripheral/Source/gd32f3x0_hal_i2c.c ****     i2c_dev->rxbuffer.length = length;
 4311              		.loc 1 1673 30
 4312 0058 FB68     		ldr	r3, [r7, #12]
 4313 005a 7A68     		ldr	r2, [r7, #4]
 4314 005c 5A62     		str	r2, [r3, #36]
1674:../firmware/gd32f3x0_hal_peripheral/Source/gd32f3x0_hal_i2c.c ****     i2c_dev->rxbuffer.pos = 0;
 4315              		.loc 1 1674 27
 4316 005e FB68     		ldr	r3, [r7, #12]
 4317 0060 0022     		movs	r2, #0
 4318 0062 9A62     		str	r2, [r3, #40]
1675:../firmware/gd32f3x0_hal_peripheral/Source/gd32f3x0_hal_i2c.c ****     i2c_dev->rx_callback = (void *)p_user_func;
 4319              		.loc 1 1675 26
 4320 0064 FB68     		ldr	r3, [r7, #12]
 4321 0066 3A68     		ldr	r2, [r7]
 4322 0068 9A64     		str	r2, [r3, #72]
1676:../firmware/gd32f3x0_hal_peripheral/Source/gd32f3x0_hal_i2c.c ****     /* configure DMA interrupt interrupt callback function */
1677:../firmware/gd32f3x0_hal_peripheral/Source/gd32f3x0_hal_i2c.c ****     dma_irq.full_finish_handle = _i2c_receive_dma;
 4323              		.loc 1 1677 32
 4324 006a 294B     		ldr	r3, .L209
 4325 006c FB61     		str	r3, [r7, #28]
1678:../firmware/gd32f3x0_hal_peripheral/Source/gd32f3x0_hal_i2c.c ****     dma_irq.error_handle = _i2c_dma_error;
 4326              		.loc 1 1678 26
 4327 006e 294B     		ldr	r3, .L209+4
 4328 0070 7B61     		str	r3, [r7, #20]
1679:../firmware/gd32f3x0_hal_peripheral/Source/gd32f3x0_hal_i2c.c ****     if(NULL != i2c_dev->p_dma_rx->dma_irq.half_finish_handle) {
 4329              		.loc 1 1679 23
 4330 0072 FB68     		ldr	r3, [r7, #12]
 4331 0074 DB68     		ldr	r3, [r3, #12]
 4332              		.loc 1 1679 42
 4333 0076 9B68     		ldr	r3, [r3, #8]
 4334              		.loc 1 1679 7
 4335 0078 002B     		cmp	r3, #0
 4336 007a 03D0     		beq	.L206
1680:../firmware/gd32f3x0_hal_peripheral/Source/gd32f3x0_hal_i2c.c ****         dma_irq.half_finish_handle = i2c_dev->p_dma_rx->dma_irq.half_finish_handle;
 4337              		.loc 1 1680 45
 4338 007c FB68     		ldr	r3, [r7, #12]
 4339 007e DB68     		ldr	r3, [r3, #12]
 4340              		.loc 1 1680 64
 4341 0080 9B68     		ldr	r3, [r3, #8]
 4342              		.loc 1 1680 36
 4343 0082 BB61     		str	r3, [r7, #24]
 4344              	.L206:
1681:../firmware/gd32f3x0_hal_peripheral/Source/gd32f3x0_hal_i2c.c ****     }
1682:../firmware/gd32f3x0_hal_peripheral/Source/gd32f3x0_hal_i2c.c **** 
1683:../firmware/gd32f3x0_hal_peripheral/Source/gd32f3x0_hal_i2c.c ****     /* enable acknowledge */
1684:../firmware/gd32f3x0_hal_peripheral/Source/gd32f3x0_hal_i2c.c ****     hals_i2c_ack_config(i2c_dev->periph, I2C_ACK_ENABLE);
 4345              		.loc 1 1684 5
 4346 0084 FB68     		ldr	r3, [r7, #12]
 4347 0086 1B68     		ldr	r3, [r3]
 4348 0088 4FF48061 		mov	r1, #1024
 4349 008c 1846     		mov	r0, r3
 4350 008e FFF7FEFF 		bl	hals_i2c_ack_config
1685:../firmware/gd32f3x0_hal_peripheral/Source/gd32f3x0_hal_i2c.c ****     /* wait until ADDSEND bit is set */
1686:../firmware/gd32f3x0_hal_peripheral/Source/gd32f3x0_hal_i2c.c ****     if(HAL_ERR_NONE != _i2c_wait_flag_timeout(i2c_dev->periph, I2C_FLAG_ADDSEND, SET, I2C_ADDR_TIME
 4351              		.loc 1 1686 24
 4352 0092 FB68     		ldr	r3, [r7, #12]
 4353 0094 1868     		ldr	r0, [r3]
 4354 0096 42F21073 		movw	r3, #10000
 4355 009a 0122     		movs	r2, #1
 4356 009c 40F20151 		movw	r1, #1281
 4357 00a0 FFF7FEFF 		bl	_i2c_wait_flag_timeout
 4358 00a4 0346     		mov	r3, r0
 4359              		.loc 1 1686 7
 4360 00a6 002B     		cmp	r3, #0
 4361 00a8 02D0     		beq	.L207
1687:../firmware/gd32f3x0_hal_peripheral/Source/gd32f3x0_hal_i2c.c ****         HAL_DEBUGW("i2c get ADDSEND timeout");
1688:../firmware/gd32f3x0_hal_peripheral/Source/gd32f3x0_hal_i2c.c ****         return HAL_ERR_TIMEOUT;
 4362              		.loc 1 1688 16
 4363 00aa 6FF00403 		mvn	r3, #4
 4364 00ae 2BE0     		b	.L208
 4365              	.L207:
1689:../firmware/gd32f3x0_hal_peripheral/Source/gd32f3x0_hal_i2c.c ****     }
1690:../firmware/gd32f3x0_hal_peripheral/Source/gd32f3x0_hal_i2c.c ****     /* clear ADDSEND bit */
1691:../firmware/gd32f3x0_hal_peripheral/Source/gd32f3x0_hal_i2c.c ****     hals_i2c_flag_clear(i2c_dev->periph, I2C_FLAG_ADDSEND);
 4366              		.loc 1 1691 5
 4367 00b0 FB68     		ldr	r3, [r7, #12]
 4368 00b2 1B68     		ldr	r3, [r3]
 4369 00b4 40F20151 		movw	r1, #1281
 4370 00b8 1846     		mov	r0, r3
 4371 00ba FFF7FEFF 		bl	hals_i2c_flag_clear
1692:../firmware/gd32f3x0_hal_peripheral/Source/gd32f3x0_hal_i2c.c ****     /* enable I2C DMA */
1693:../firmware/gd32f3x0_hal_peripheral/Source/gd32f3x0_hal_i2c.c ****     hals_i2c_dma_config(i2c_dev->periph, I2C_DMA_ON);
 4372              		.loc 1 1693 5
 4373 00be FB68     		ldr	r3, [r7, #12]
 4374 00c0 1B68     		ldr	r3, [r3]
 4375 00c2 4FF40061 		mov	r1, #2048
 4376 00c6 1846     		mov	r0, r3
 4377 00c8 FFF7FEFF 		bl	hals_i2c_dma_config
1694:../firmware/gd32f3x0_hal_peripheral/Source/gd32f3x0_hal_i2c.c ****     /* start DMA interrupt mode transfer */
1695:../firmware/gd32f3x0_hal_peripheral/Source/gd32f3x0_hal_i2c.c ****     hal_dma_start_interrupt(i2c_dev->p_dma_rx, (uint32_t)&I2C_DATA(i2c_dev->periph), \
 4378              		.loc 1 1695 5
 4379 00cc FB68     		ldr	r3, [r7, #12]
 4380 00ce D868     		ldr	r0, [r3, #12]
 4381              		.loc 1 1695 59
 4382 00d0 FB68     		ldr	r3, [r7, #12]
 4383 00d2 1B68     		ldr	r3, [r3]
 4384              		.loc 1 1695 5
 4385 00d4 03F11001 		add	r1, r3, #16
1696:../firmware/gd32f3x0_hal_peripheral/Source/gd32f3x0_hal_i2c.c ****                             (uint32_t)i2c_dev->rxbuffer.buffer, length, &dma_irq);
 4386              		.loc 1 1696 56
 4387 00d8 FB68     		ldr	r3, [r7, #12]
 4388 00da 1B6A     		ldr	r3, [r3, #32]
1695:../firmware/gd32f3x0_hal_peripheral/Source/gd32f3x0_hal_i2c.c ****                             (uint32_t)i2c_dev->rxbuffer.buffer, length, &dma_irq);
 4389              		.loc 1 1695 5
 4390 00dc 1C46     		mov	r4, r3
 4391 00de 7B68     		ldr	r3, [r7, #4]
 4392 00e0 9AB2     		uxth	r2, r3
 4393 00e2 07F11403 		add	r3, r7, #20
 4394 00e6 0093     		str	r3, [sp]
 4395 00e8 1346     		mov	r3, r2
 4396 00ea 2246     		mov	r2, r4
 4397 00ec FFF7FEFF 		bl	hal_dma_start_interrupt
1697:../firmware/gd32f3x0_hal_peripheral/Source/gd32f3x0_hal_i2c.c ****     /* clear DMA global interrupt flag */
1698:../firmware/gd32f3x0_hal_peripheral/Source/gd32f3x0_hal_i2c.c ****     hals_dma_flag_clear(i2c_dev->p_dma_rx->channel, DMA_INTF_GIF);
 4398              		.loc 1 1698 32
 4399 00f0 FB68     		ldr	r3, [r7, #12]
 4400 00f2 DB68     		ldr	r3, [r3, #12]
 4401              		.loc 1 1698 5
 4402 00f4 1B78     		ldrb	r3, [r3]	@ zero_extendqisi2
 4403 00f6 0121     		movs	r1, #1
 4404 00f8 1846     		mov	r0, r3
 4405 00fa FFF7FEFF 		bl	hals_dma_flag_clear
1699:../firmware/gd32f3x0_hal_peripheral/Source/gd32f3x0_hal_i2c.c **** 
1700:../firmware/gd32f3x0_hal_peripheral/Source/gd32f3x0_hal_i2c.c ****     HAL_UNLOCK(i2c_dev);
 4406              		.loc 1 1700 5
 4407 00fe FB68     		ldr	r3, [r7, #12]
 4408 0100 0022     		movs	r2, #0
 4409 0102 83F85020 		strb	r2, [r3, #80]
1701:../firmware/gd32f3x0_hal_peripheral/Source/gd32f3x0_hal_i2c.c ****     return HAL_ERR_NONE;
 4410              		.loc 1 1701 12
 4411 0106 0023     		movs	r3, #0
 4412              	.L208:
1702:../firmware/gd32f3x0_hal_peripheral/Source/gd32f3x0_hal_i2c.c **** }
 4413              		.loc 1 1702 1 discriminator 1
 4414 0108 1846     		mov	r0, r3
 4415 010a 2437     		adds	r7, r7, #36
 4416              		.cfi_def_cfa_offset 12
 4417 010c BD46     		mov	sp, r7
 4418              		.cfi_def_cfa_register 13
 4419              		@ sp needed
 4420 010e 90BD     		pop	{r4, r7, pc}
 4421              	.L210:
 4422              		.align	2
 4423              	.L209:
 4424 0110 00000000 		.word	_i2c_receive_dma
 4425 0114 00000000 		.word	_i2c_dma_error
 4426              		.cfi_endproc
 4427              	.LFE143:
 4429              		.section	.text.hal_i2c_memory_write_dma,"ax",%progbits
 4430              		.align	1
 4431              		.global	hal_i2c_memory_write_dma
 4432              		.syntax unified
 4433              		.thumb
 4434              		.thumb_func
 4435              		.fpu softvfp
 4437              	hal_i2c_memory_write_dma:
 4438              	.LFB144:
1703:../firmware/gd32f3x0_hal_peripheral/Source/gd32f3x0_hal_i2c.c **** 
1704:../firmware/gd32f3x0_hal_peripheral/Source/gd32f3x0_hal_i2c.c **** /*!
1705:../firmware/gd32f3x0_hal_peripheral/Source/gd32f3x0_hal_i2c.c ****     \brief      write amounts of data to memory by dma method, the function is non-blocking
1706:../firmware/gd32f3x0_hal_peripheral/Source/gd32f3x0_hal_i2c.c ****     \param[in]  i2c: I2C device information structrue
1707:../firmware/gd32f3x0_hal_peripheral/Source/gd32f3x0_hal_i2c.c ****                   the structure is not necessary to be reconfigured after structrue initialization,
1708:../firmware/gd32f3x0_hal_peripheral/Source/gd32f3x0_hal_i2c.c ****                   the structure parameters altering is automatically configured by core
1709:../firmware/gd32f3x0_hal_peripheral/Source/gd32f3x0_hal_i2c.c ****     \param[in]  p_buffer: pointer to txbuffer
1710:../firmware/gd32f3x0_hal_peripheral/Source/gd32f3x0_hal_i2c.c ****     \param[in]  length: length of data to be write
1711:../firmware/gd32f3x0_hal_peripheral/Source/gd32f3x0_hal_i2c.c ****     \param[in]  p_user_func: call back function for user
1712:../firmware/gd32f3x0_hal_peripheral/Source/gd32f3x0_hal_i2c.c ****     \param[out] none
1713:../firmware/gd32f3x0_hal_peripheral/Source/gd32f3x0_hal_i2c.c ****     \retval     error code: HAL_ERR_NONE, HAL_ERR_ADDRESS, HAL_ERR_TIMEOUT, details refer to gd32f3
1714:../firmware/gd32f3x0_hal_peripheral/Source/gd32f3x0_hal_i2c.c **** */
1715:../firmware/gd32f3x0_hal_peripheral/Source/gd32f3x0_hal_i2c.c **** int32_t hal_i2c_memory_write_dma(hal_i2c_dev_struct *i2c_dev, uint8_t *p_buffer, \
1716:../firmware/gd32f3x0_hal_peripheral/Source/gd32f3x0_hal_i2c.c ****                                  uint32_t length, hal_i2c_user_cb p_user_func)
1717:../firmware/gd32f3x0_hal_peripheral/Source/gd32f3x0_hal_i2c.c **** {
 4439              		.loc 1 1717 1
 4440              		.cfi_startproc
 4441              		@ args = 0, pretend = 0, frame = 32
 4442              		@ frame_needed = 1, uses_anonymous_args = 0
 4443 0000 90B5     		push	{r4, r7, lr}
 4444              		.cfi_def_cfa_offset 12
 4445              		.cfi_offset 4, -12
 4446              		.cfi_offset 7, -8
 4447              		.cfi_offset 14, -4
 4448 0002 8BB0     		sub	sp, sp, #44
 4449              		.cfi_def_cfa_offset 56
 4450 0004 02AF     		add	r7, sp, #8
 4451              		.cfi_def_cfa 7, 48
 4452 0006 F860     		str	r0, [r7, #12]
 4453 0008 B960     		str	r1, [r7, #8]
 4454 000a 7A60     		str	r2, [r7, #4]
 4455 000c 3B60     		str	r3, [r7]
1718:../firmware/gd32f3x0_hal_peripheral/Source/gd32f3x0_hal_i2c.c ****     hal_dma_irq_struct dma_irq;
1719:../firmware/gd32f3x0_hal_peripheral/Source/gd32f3x0_hal_i2c.c **** 
1720:../firmware/gd32f3x0_hal_peripheral/Source/gd32f3x0_hal_i2c.c **** #if (1 == HAL_PARAMETER_CHECK)
1721:../firmware/gd32f3x0_hal_peripheral/Source/gd32f3x0_hal_i2c.c ****     /* check i2c pointer, p_buffer address and length */
1722:../firmware/gd32f3x0_hal_peripheral/Source/gd32f3x0_hal_i2c.c ****     if((NULL == i2c_dev) || (NULL == p_buffer) || (0 == length)) {
1723:../firmware/gd32f3x0_hal_peripheral/Source/gd32f3x0_hal_i2c.c ****         HAL_DEBUGE("parameter [i2c_dev] or [p_buffer] or [length] value is invalid");
1724:../firmware/gd32f3x0_hal_peripheral/Source/gd32f3x0_hal_i2c.c ****         return HAL_ERR_ADDRESS;
1725:../firmware/gd32f3x0_hal_peripheral/Source/gd32f3x0_hal_i2c.c ****     }
1726:../firmware/gd32f3x0_hal_peripheral/Source/gd32f3x0_hal_i2c.c ****     /* check whether the address size is legal */
1727:../firmware/gd32f3x0_hal_peripheral/Source/gd32f3x0_hal_i2c.c ****     if((I2C_MEMORY_ADDRESS_8BIT != i2c_dev->slave_address.address_size) && \
1728:../firmware/gd32f3x0_hal_peripheral/Source/gd32f3x0_hal_i2c.c ****             (I2C_MEMORY_ADDRESS_16BIT != i2c_dev->slave_address.address_size)) {
1729:../firmware/gd32f3x0_hal_peripheral/Source/gd32f3x0_hal_i2c.c ****         HAL_DEBUGE("parameter [address_size] value is invalid");
1730:../firmware/gd32f3x0_hal_peripheral/Source/gd32f3x0_hal_i2c.c ****         return HAL_ERR_ADDRESS;
1731:../firmware/gd32f3x0_hal_peripheral/Source/gd32f3x0_hal_i2c.c ****     }
1732:../firmware/gd32f3x0_hal_peripheral/Source/gd32f3x0_hal_i2c.c **** #endif /* 1 == HAL_PARAMETER_CHECK */
1733:../firmware/gd32f3x0_hal_peripheral/Source/gd32f3x0_hal_i2c.c **** 
1734:../firmware/gd32f3x0_hal_peripheral/Source/gd32f3x0_hal_i2c.c ****     HAL_LOCK(i2c_dev);
 4456              		.loc 1 1734 5
 4457 000e FB68     		ldr	r3, [r7, #12]
 4458 0010 93F85030 		ldrb	r3, [r3, #80]	@ zero_extendqisi2
 4459 0014 012B     		cmp	r3, #1
 4460 0016 02D1     		bne	.L212
 4461              		.loc 1 1734 5 is_stmt 0 discriminator 1
 4462 0018 6FF00103 		mvn	r3, #1
 4463 001c 67E0     		b	.L217
 4464              	.L212:
 4465              		.loc 1 1734 5 discriminator 2
 4466 001e FB68     		ldr	r3, [r7, #12]
 4467 0020 0122     		movs	r2, #1
 4468 0022 83F85020 		strb	r2, [r3, #80]
1735:../firmware/gd32f3x0_hal_peripheral/Source/gd32f3x0_hal_i2c.c ****     /* wait until I2C bus is idle */
1736:../firmware/gd32f3x0_hal_peripheral/Source/gd32f3x0_hal_i2c.c ****     if(HAL_ERR_NONE != _i2c_wait_flag_timeout(i2c_dev->periph, I2C_FLAG_I2CBSY, RESET, I2C_BUSY_TIM
 4469              		.loc 1 1736 24 is_stmt 1 discriminator 2
 4470 0026 FB68     		ldr	r3, [r7, #12]
 4471 0028 1868     		ldr	r0, [r3]
 4472 002a 42F21073 		movw	r3, #10000
 4473 002e 0022     		movs	r2, #0
 4474 0030 40F20161 		movw	r1, #1537
 4475 0034 FFF7FEFF 		bl	_i2c_wait_flag_timeout
 4476 0038 0346     		mov	r3, r0
 4477              		.loc 1 1736 7 discriminator 2
 4478 003a 002B     		cmp	r3, #0
 4479 003c 02D0     		beq	.L214
1737:../firmware/gd32f3x0_hal_peripheral/Source/gd32f3x0_hal_i2c.c ****         HAL_DEBUGW("i2c busy timeout");
1738:../firmware/gd32f3x0_hal_peripheral/Source/gd32f3x0_hal_i2c.c ****         return HAL_ERR_TIMEOUT;
 4480              		.loc 1 1738 16
 4481 003e 6FF00403 		mvn	r3, #4
 4482 0042 54E0     		b	.L217
 4483              	.L214:
1739:../firmware/gd32f3x0_hal_peripheral/Source/gd32f3x0_hal_i2c.c ****     }
1740:../firmware/gd32f3x0_hal_peripheral/Source/gd32f3x0_hal_i2c.c ****     /* initialize DMA interrupt callback function structure with default value */
1741:../firmware/gd32f3x0_hal_peripheral/Source/gd32f3x0_hal_i2c.c ****     hal_dma_struct_init(HAL_DMA_IRQ_STRUCT, &dma_irq);
 4484              		.loc 1 1741 5
 4485 0044 07F11403 		add	r3, r7, #20
 4486 0048 1946     		mov	r1, r3
 4487 004a 0220     		movs	r0, #2
 4488 004c FFF7FEFF 		bl	hal_dma_struct_init
1742:../firmware/gd32f3x0_hal_peripheral/Source/gd32f3x0_hal_i2c.c ****     /* initialize transmit parameters */
1743:../firmware/gd32f3x0_hal_peripheral/Source/gd32f3x0_hal_i2c.c ****     i2c_dev->tx_state = HAL_I2C_STATE_MEMORY_BUSY_TX;
 4489              		.loc 1 1743 23
 4490 0050 FB68     		ldr	r3, [r7, #12]
 4491 0052 0222     		movs	r2, #2
 4492 0054 83F84020 		strb	r2, [r3, #64]
1744:../firmware/gd32f3x0_hal_peripheral/Source/gd32f3x0_hal_i2c.c ****     i2c_dev->last_error = HAL_I2C_ERROR_NONE;
 4493              		.loc 1 1744 25
 4494 0058 FB68     		ldr	r3, [r7, #12]
 4495 005a 0022     		movs	r2, #0
 4496 005c 5A87     		strh	r2, [r3, #58]	@ movhi
1745:../firmware/gd32f3x0_hal_peripheral/Source/gd32f3x0_hal_i2c.c ****     i2c_dev->txbuffer.buffer = (uint8_t *)p_buffer;
 4497              		.loc 1 1745 30
 4498 005e FB68     		ldr	r3, [r7, #12]
 4499 0060 BA68     		ldr	r2, [r7, #8]
 4500 0062 5A61     		str	r2, [r3, #20]
1746:../firmware/gd32f3x0_hal_peripheral/Source/gd32f3x0_hal_i2c.c ****     i2c_dev->txbuffer.length = length;
 4501              		.loc 1 1746 30
 4502 0064 FB68     		ldr	r3, [r7, #12]
 4503 0066 7A68     		ldr	r2, [r7, #4]
 4504 0068 9A61     		str	r2, [r3, #24]
1747:../firmware/gd32f3x0_hal_peripheral/Source/gd32f3x0_hal_i2c.c ****     i2c_dev->txbuffer.pos = 0;
 4505              		.loc 1 1747 27
 4506 006a FB68     		ldr	r3, [r7, #12]
 4507 006c 0022     		movs	r2, #0
 4508 006e DA61     		str	r2, [r3, #28]
1748:../firmware/gd32f3x0_hal_peripheral/Source/gd32f3x0_hal_i2c.c ****     i2c_dev->tx_callback = (void *)p_user_func;
 4509              		.loc 1 1748 26
 4510 0070 FB68     		ldr	r3, [r7, #12]
 4511 0072 3A68     		ldr	r2, [r7]
 4512 0074 DA64     		str	r2, [r3, #76]
1749:../firmware/gd32f3x0_hal_peripheral/Source/gd32f3x0_hal_i2c.c ****     /* configure DMA interrupt interrupt callback function */
1750:../firmware/gd32f3x0_hal_peripheral/Source/gd32f3x0_hal_i2c.c ****     dma_irq.full_finish_handle = _i2c_transmit_dma;
 4513              		.loc 1 1750 32
 4514 0076 204B     		ldr	r3, .L218
 4515 0078 FB61     		str	r3, [r7, #28]
1751:../firmware/gd32f3x0_hal_peripheral/Source/gd32f3x0_hal_i2c.c ****     dma_irq.error_handle = _i2c_dma_error;
 4516              		.loc 1 1751 26
 4517 007a 204B     		ldr	r3, .L218+4
 4518 007c 7B61     		str	r3, [r7, #20]
1752:../firmware/gd32f3x0_hal_peripheral/Source/gd32f3x0_hal_i2c.c ****     if(NULL != i2c_dev->p_dma_tx->dma_irq.half_finish_handle) {
 4519              		.loc 1 1752 23
 4520 007e FB68     		ldr	r3, [r7, #12]
 4521 0080 1B69     		ldr	r3, [r3, #16]
 4522              		.loc 1 1752 42
 4523 0082 9B68     		ldr	r3, [r3, #8]
 4524              		.loc 1 1752 7
 4525 0084 002B     		cmp	r3, #0
 4526 0086 03D0     		beq	.L215
1753:../firmware/gd32f3x0_hal_peripheral/Source/gd32f3x0_hal_i2c.c ****         dma_irq.half_finish_handle = i2c_dev->p_dma_tx->dma_irq.half_finish_handle;
 4527              		.loc 1 1753 45
 4528 0088 FB68     		ldr	r3, [r7, #12]
 4529 008a 1B69     		ldr	r3, [r3, #16]
 4530              		.loc 1 1753 64
 4531 008c 9B68     		ldr	r3, [r3, #8]
 4532              		.loc 1 1753 36
 4533 008e BB61     		str	r3, [r7, #24]
 4534              	.L215:
1754:../firmware/gd32f3x0_hal_peripheral/Source/gd32f3x0_hal_i2c.c ****     }
1755:../firmware/gd32f3x0_hal_peripheral/Source/gd32f3x0_hal_i2c.c ****     /* master sends device address for memory write request */
1756:../firmware/gd32f3x0_hal_peripheral/Source/gd32f3x0_hal_i2c.c ****     if(HAL_ERR_NONE != _i2c_memory_write(i2c_dev, I2C_TIMEOUT)) {
 4535              		.loc 1 1756 24
 4536 0090 1B49     		ldr	r1, .L218+8
 4537 0092 F868     		ldr	r0, [r7, #12]
 4538 0094 FFF7FEFF 		bl	_i2c_memory_write
 4539 0098 0346     		mov	r3, r0
 4540              		.loc 1 1756 7
 4541 009a 002B     		cmp	r3, #0
 4542 009c 02D0     		beq	.L216
1757:../firmware/gd32f3x0_hal_peripheral/Source/gd32f3x0_hal_i2c.c ****         return HAL_ERR_TIMEOUT;
 4543              		.loc 1 1757 16
 4544 009e 6FF00403 		mvn	r3, #4
 4545 00a2 24E0     		b	.L217
 4546              	.L216:
1758:../firmware/gd32f3x0_hal_peripheral/Source/gd32f3x0_hal_i2c.c ****     }
1759:../firmware/gd32f3x0_hal_peripheral/Source/gd32f3x0_hal_i2c.c **** 
1760:../firmware/gd32f3x0_hal_peripheral/Source/gd32f3x0_hal_i2c.c ****     /* enable I2C DMA */
1761:../firmware/gd32f3x0_hal_peripheral/Source/gd32f3x0_hal_i2c.c ****     hals_i2c_dma_config(i2c_dev->periph, I2C_DMA_ON);
 4547              		.loc 1 1761 5
 4548 00a4 FB68     		ldr	r3, [r7, #12]
 4549 00a6 1B68     		ldr	r3, [r3]
 4550 00a8 4FF40061 		mov	r1, #2048
 4551 00ac 1846     		mov	r0, r3
 4552 00ae FFF7FEFF 		bl	hals_i2c_dma_config
1762:../firmware/gd32f3x0_hal_peripheral/Source/gd32f3x0_hal_i2c.c ****     /* start DMA interrupt mode transfer */
1763:../firmware/gd32f3x0_hal_peripheral/Source/gd32f3x0_hal_i2c.c ****     hal_dma_start_interrupt(i2c_dev->p_dma_tx, (uint32_t)i2c_dev->txbuffer.buffer, \
 4553              		.loc 1 1763 5
 4554 00b2 FB68     		ldr	r3, [r7, #12]
 4555 00b4 1869     		ldr	r0, [r3, #16]
 4556              		.loc 1 1763 75
 4557 00b6 FB68     		ldr	r3, [r7, #12]
 4558 00b8 5B69     		ldr	r3, [r3, #20]
 4559              		.loc 1 1763 5
 4560 00ba 1C46     		mov	r4, r3
1764:../firmware/gd32f3x0_hal_peripheral/Source/gd32f3x0_hal_i2c.c ****                             (uint32_t)&I2C_DATA(i2c_dev->periph), length, &dma_irq);
 4561              		.loc 1 1764 40
 4562 00bc FB68     		ldr	r3, [r7, #12]
 4563 00be 1B68     		ldr	r3, [r3]
1763:../firmware/gd32f3x0_hal_peripheral/Source/gd32f3x0_hal_i2c.c ****                             (uint32_t)&I2C_DATA(i2c_dev->periph), length, &dma_irq);
 4564              		.loc 1 1763 5
 4565 00c0 03F11002 		add	r2, r3, #16
 4566 00c4 7B68     		ldr	r3, [r7, #4]
 4567 00c6 99B2     		uxth	r1, r3
 4568 00c8 07F11403 		add	r3, r7, #20
 4569 00cc 0093     		str	r3, [sp]
 4570 00ce 0B46     		mov	r3, r1
 4571 00d0 2146     		mov	r1, r4
 4572 00d2 FFF7FEFF 		bl	hal_dma_start_interrupt
1765:../firmware/gd32f3x0_hal_peripheral/Source/gd32f3x0_hal_i2c.c ****     /* clear DMA global interrupt flag */
1766:../firmware/gd32f3x0_hal_peripheral/Source/gd32f3x0_hal_i2c.c ****     hals_dma_flag_clear(i2c_dev->p_dma_tx->channel, DMA_INTF_GIF);
 4573              		.loc 1 1766 32
 4574 00d6 FB68     		ldr	r3, [r7, #12]
 4575 00d8 1B69     		ldr	r3, [r3, #16]
 4576              		.loc 1 1766 5
 4577 00da 1B78     		ldrb	r3, [r3]	@ zero_extendqisi2
 4578 00dc 0121     		movs	r1, #1
 4579 00de 1846     		mov	r0, r3
 4580 00e0 FFF7FEFF 		bl	hals_dma_flag_clear
1767:../firmware/gd32f3x0_hal_peripheral/Source/gd32f3x0_hal_i2c.c **** 
1768:../firmware/gd32f3x0_hal_peripheral/Source/gd32f3x0_hal_i2c.c ****     HAL_UNLOCK(i2c_dev);
 4581              		.loc 1 1768 5
 4582 00e4 FB68     		ldr	r3, [r7, #12]
 4583 00e6 0022     		movs	r2, #0
 4584 00e8 83F85020 		strb	r2, [r3, #80]
1769:../firmware/gd32f3x0_hal_peripheral/Source/gd32f3x0_hal_i2c.c ****     return HAL_ERR_NONE;
 4585              		.loc 1 1769 12
 4586 00ec 0023     		movs	r3, #0
 4587              	.L217:
1770:../firmware/gd32f3x0_hal_peripheral/Source/gd32f3x0_hal_i2c.c **** }
 4588              		.loc 1 1770 1 discriminator 1
 4589 00ee 1846     		mov	r0, r3
 4590 00f0 2437     		adds	r7, r7, #36
 4591              		.cfi_def_cfa_offset 12
 4592 00f2 BD46     		mov	sp, r7
 4593              		.cfi_def_cfa_register 13
 4594              		@ sp needed
 4595 00f4 90BD     		pop	{r4, r7, pc}
 4596              	.L219:
 4597 00f6 00BF     		.align	2
 4598              	.L218:
 4599 00f8 00000000 		.word	_i2c_transmit_dma
 4600 00fc 00000000 		.word	_i2c_dma_error
 4601 0100 A0860100 		.word	100000
 4602              		.cfi_endproc
 4603              	.LFE144:
 4605              		.section	.text.hal_i2c_memory_read_dma,"ax",%progbits
 4606              		.align	1
 4607              		.global	hal_i2c_memory_read_dma
 4608              		.syntax unified
 4609              		.thumb
 4610              		.thumb_func
 4611              		.fpu softvfp
 4613              	hal_i2c_memory_read_dma:
 4614              	.LFB145:
1771:../firmware/gd32f3x0_hal_peripheral/Source/gd32f3x0_hal_i2c.c **** 
1772:../firmware/gd32f3x0_hal_peripheral/Source/gd32f3x0_hal_i2c.c **** /*!
1773:../firmware/gd32f3x0_hal_peripheral/Source/gd32f3x0_hal_i2c.c ****     \brief      read amounts of data from memory by dma method, the function is non-blocking
1774:../firmware/gd32f3x0_hal_peripheral/Source/gd32f3x0_hal_i2c.c ****     \param[in]  i2c_dev: I2C device information structrue
1775:../firmware/gd32f3x0_hal_peripheral/Source/gd32f3x0_hal_i2c.c ****                   the structure is not necessary to be reconfigured after structrue initialization,
1776:../firmware/gd32f3x0_hal_peripheral/Source/gd32f3x0_hal_i2c.c ****                   the structure parameters altering is automatically configured by core
1777:../firmware/gd32f3x0_hal_peripheral/Source/gd32f3x0_hal_i2c.c ****     \param[in]  p_buffer: pointer to rxbuffer
1778:../firmware/gd32f3x0_hal_peripheral/Source/gd32f3x0_hal_i2c.c ****     \param[in]  length: length of data to be read
1779:../firmware/gd32f3x0_hal_peripheral/Source/gd32f3x0_hal_i2c.c ****     \param[in]  p_user_func: call back function for user
1780:../firmware/gd32f3x0_hal_peripheral/Source/gd32f3x0_hal_i2c.c ****     \param[out] none
1781:../firmware/gd32f3x0_hal_peripheral/Source/gd32f3x0_hal_i2c.c ****     \retval     error code: HAL_ERR_NONE, HAL_ERR_ADDRESS, HAL_ERR_TIMEOUT, details refer to gd32f3
1782:../firmware/gd32f3x0_hal_peripheral/Source/gd32f3x0_hal_i2c.c **** */
1783:../firmware/gd32f3x0_hal_peripheral/Source/gd32f3x0_hal_i2c.c **** int32_t hal_i2c_memory_read_dma(hal_i2c_dev_struct *i2c_dev, uint8_t *p_buffer, \
1784:../firmware/gd32f3x0_hal_peripheral/Source/gd32f3x0_hal_i2c.c ****                                 uint32_t length, hal_i2c_user_cb p_user_func)
1785:../firmware/gd32f3x0_hal_peripheral/Source/gd32f3x0_hal_i2c.c **** {
 4615              		.loc 1 1785 1
 4616              		.cfi_startproc
 4617              		@ args = 0, pretend = 0, frame = 32
 4618              		@ frame_needed = 1, uses_anonymous_args = 0
 4619 0000 90B5     		push	{r4, r7, lr}
 4620              		.cfi_def_cfa_offset 12
 4621              		.cfi_offset 4, -12
 4622              		.cfi_offset 7, -8
 4623              		.cfi_offset 14, -4
 4624 0002 8BB0     		sub	sp, sp, #44
 4625              		.cfi_def_cfa_offset 56
 4626 0004 02AF     		add	r7, sp, #8
 4627              		.cfi_def_cfa 7, 48
 4628 0006 F860     		str	r0, [r7, #12]
 4629 0008 B960     		str	r1, [r7, #8]
 4630 000a 7A60     		str	r2, [r7, #4]
 4631 000c 3B60     		str	r3, [r7]
1786:../firmware/gd32f3x0_hal_peripheral/Source/gd32f3x0_hal_i2c.c ****     hal_dma_irq_struct dma_irq;
1787:../firmware/gd32f3x0_hal_peripheral/Source/gd32f3x0_hal_i2c.c **** 
1788:../firmware/gd32f3x0_hal_peripheral/Source/gd32f3x0_hal_i2c.c **** #if (1 == HAL_PARAMETER_CHECK)
1789:../firmware/gd32f3x0_hal_peripheral/Source/gd32f3x0_hal_i2c.c ****     /* check i2c pointer, p_buffer address and length */
1790:../firmware/gd32f3x0_hal_peripheral/Source/gd32f3x0_hal_i2c.c ****     if((NULL == i2c_dev) || (NULL == p_buffer) || (0 == length)) {
1791:../firmware/gd32f3x0_hal_peripheral/Source/gd32f3x0_hal_i2c.c ****         HAL_DEBUGE("parameter [i2c_dev] or [p_buffer] or [length] value is invalid");
1792:../firmware/gd32f3x0_hal_peripheral/Source/gd32f3x0_hal_i2c.c ****         return HAL_ERR_ADDRESS;
1793:../firmware/gd32f3x0_hal_peripheral/Source/gd32f3x0_hal_i2c.c ****     }
1794:../firmware/gd32f3x0_hal_peripheral/Source/gd32f3x0_hal_i2c.c ****     /* check whether the address size is legal */
1795:../firmware/gd32f3x0_hal_peripheral/Source/gd32f3x0_hal_i2c.c ****     if((I2C_MEMORY_ADDRESS_8BIT != i2c_dev->slave_address.address_size) && \
1796:../firmware/gd32f3x0_hal_peripheral/Source/gd32f3x0_hal_i2c.c ****             (I2C_MEMORY_ADDRESS_16BIT != i2c_dev->slave_address.address_size)) {
1797:../firmware/gd32f3x0_hal_peripheral/Source/gd32f3x0_hal_i2c.c ****         HAL_DEBUGE("parameter [address_size] value is invalid");
1798:../firmware/gd32f3x0_hal_peripheral/Source/gd32f3x0_hal_i2c.c ****         return HAL_ERR_ADDRESS;
1799:../firmware/gd32f3x0_hal_peripheral/Source/gd32f3x0_hal_i2c.c ****     }
1800:../firmware/gd32f3x0_hal_peripheral/Source/gd32f3x0_hal_i2c.c **** #endif /* 1 == HAL_PARAMETER_CHECK */
1801:../firmware/gd32f3x0_hal_peripheral/Source/gd32f3x0_hal_i2c.c **** 
1802:../firmware/gd32f3x0_hal_peripheral/Source/gd32f3x0_hal_i2c.c ****     HAL_LOCK(i2c_dev);
 4632              		.loc 1 1802 5
 4633 000e FB68     		ldr	r3, [r7, #12]
 4634 0010 93F85030 		ldrb	r3, [r3, #80]	@ zero_extendqisi2
 4635 0014 012B     		cmp	r3, #1
 4636 0016 02D1     		bne	.L221
 4637              		.loc 1 1802 5 is_stmt 0 discriminator 1
 4638 0018 6FF00103 		mvn	r3, #1
 4639 001c 89E0     		b	.L229
 4640              	.L221:
 4641              		.loc 1 1802 5 discriminator 2
 4642 001e FB68     		ldr	r3, [r7, #12]
 4643 0020 0122     		movs	r2, #1
 4644 0022 83F85020 		strb	r2, [r3, #80]
1803:../firmware/gd32f3x0_hal_peripheral/Source/gd32f3x0_hal_i2c.c ****     /* wait until I2C bus is idle */
1804:../firmware/gd32f3x0_hal_peripheral/Source/gd32f3x0_hal_i2c.c ****     if(HAL_ERR_NONE != _i2c_wait_flag_timeout(i2c_dev->periph, I2C_FLAG_I2CBSY, RESET, I2C_BUSY_TIM
 4645              		.loc 1 1804 24 is_stmt 1 discriminator 2
 4646 0026 FB68     		ldr	r3, [r7, #12]
 4647 0028 1868     		ldr	r0, [r3]
 4648 002a 42F21073 		movw	r3, #10000
 4649 002e 0022     		movs	r2, #0
 4650 0030 40F20161 		movw	r1, #1537
 4651 0034 FFF7FEFF 		bl	_i2c_wait_flag_timeout
 4652 0038 0346     		mov	r3, r0
 4653              		.loc 1 1804 7 discriminator 2
 4654 003a 002B     		cmp	r3, #0
 4655 003c 02D0     		beq	.L223
1805:../firmware/gd32f3x0_hal_peripheral/Source/gd32f3x0_hal_i2c.c ****         HAL_DEBUGW("i2c busy timeout");
1806:../firmware/gd32f3x0_hal_peripheral/Source/gd32f3x0_hal_i2c.c ****         return HAL_ERR_TIMEOUT;
 4656              		.loc 1 1806 16
 4657 003e 6FF00403 		mvn	r3, #4
 4658 0042 76E0     		b	.L229
 4659              	.L223:
1807:../firmware/gd32f3x0_hal_peripheral/Source/gd32f3x0_hal_i2c.c ****     }
1808:../firmware/gd32f3x0_hal_peripheral/Source/gd32f3x0_hal_i2c.c ****     /* initialize DMA interrupt callback function structure with default value */
1809:../firmware/gd32f3x0_hal_peripheral/Source/gd32f3x0_hal_i2c.c ****     hal_dma_struct_init(HAL_DMA_IRQ_STRUCT, &dma_irq);
 4660              		.loc 1 1809 5
 4661 0044 07F11403 		add	r3, r7, #20
 4662 0048 1946     		mov	r1, r3
 4663 004a 0220     		movs	r0, #2
 4664 004c FFF7FEFF 		bl	hal_dma_struct_init
1810:../firmware/gd32f3x0_hal_peripheral/Source/gd32f3x0_hal_i2c.c ****     /* initialize receive parameters */
1811:../firmware/gd32f3x0_hal_peripheral/Source/gd32f3x0_hal_i2c.c ****     i2c_dev->rx_state = HAL_I2C_STATE_MEMORY_BUSY_RX;
 4665              		.loc 1 1811 23
 4666 0050 FB68     		ldr	r3, [r7, #12]
 4667 0052 0322     		movs	r2, #3
 4668 0054 83F84120 		strb	r2, [r3, #65]
1812:../firmware/gd32f3x0_hal_peripheral/Source/gd32f3x0_hal_i2c.c ****     i2c_dev->last_error = HAL_I2C_ERROR_NONE;
 4669              		.loc 1 1812 25
 4670 0058 FB68     		ldr	r3, [r7, #12]
 4671 005a 0022     		movs	r2, #0
 4672 005c 5A87     		strh	r2, [r3, #58]	@ movhi
1813:../firmware/gd32f3x0_hal_peripheral/Source/gd32f3x0_hal_i2c.c ****     i2c_dev->rxbuffer.buffer = (uint8_t *)p_buffer;
 4673              		.loc 1 1813 30
 4674 005e FB68     		ldr	r3, [r7, #12]
 4675 0060 BA68     		ldr	r2, [r7, #8]
 4676 0062 1A62     		str	r2, [r3, #32]
1814:../firmware/gd32f3x0_hal_peripheral/Source/gd32f3x0_hal_i2c.c ****     i2c_dev->rxbuffer.length = length;
 4677              		.loc 1 1814 30
 4678 0064 FB68     		ldr	r3, [r7, #12]
 4679 0066 7A68     		ldr	r2, [r7, #4]
 4680 0068 5A62     		str	r2, [r3, #36]
1815:../firmware/gd32f3x0_hal_peripheral/Source/gd32f3x0_hal_i2c.c ****     i2c_dev->rxbuffer.pos = 0;
 4681              		.loc 1 1815 27
 4682 006a FB68     		ldr	r3, [r7, #12]
 4683 006c 0022     		movs	r2, #0
 4684 006e 9A62     		str	r2, [r3, #40]
1816:../firmware/gd32f3x0_hal_peripheral/Source/gd32f3x0_hal_i2c.c ****     i2c_dev->rx_callback = (void *)p_user_func;
 4685              		.loc 1 1816 26
 4686 0070 FB68     		ldr	r3, [r7, #12]
 4687 0072 3A68     		ldr	r2, [r7]
 4688 0074 9A64     		str	r2, [r3, #72]
1817:../firmware/gd32f3x0_hal_peripheral/Source/gd32f3x0_hal_i2c.c ****     /* configure DMA interrupt interrupt callback function */
1818:../firmware/gd32f3x0_hal_peripheral/Source/gd32f3x0_hal_i2c.c ****     dma_irq.full_finish_handle = _i2c_transmit_dma;
 4689              		.loc 1 1818 32
 4690 0076 314B     		ldr	r3, .L230
 4691 0078 FB61     		str	r3, [r7, #28]
1819:../firmware/gd32f3x0_hal_peripheral/Source/gd32f3x0_hal_i2c.c ****     dma_irq.error_handle = _i2c_dma_error;
 4692              		.loc 1 1819 26
 4693 007a 314B     		ldr	r3, .L230+4
 4694 007c 7B61     		str	r3, [r7, #20]
1820:../firmware/gd32f3x0_hal_peripheral/Source/gd32f3x0_hal_i2c.c ****     if(NULL != i2c_dev->p_dma_rx->dma_irq.half_finish_handle) {
 4695              		.loc 1 1820 23
 4696 007e FB68     		ldr	r3, [r7, #12]
 4697 0080 DB68     		ldr	r3, [r3, #12]
 4698              		.loc 1 1820 42
 4699 0082 9B68     		ldr	r3, [r3, #8]
 4700              		.loc 1 1820 7
 4701 0084 002B     		cmp	r3, #0
 4702 0086 03D0     		beq	.L224
1821:../firmware/gd32f3x0_hal_peripheral/Source/gd32f3x0_hal_i2c.c ****         dma_irq.half_finish_handle = i2c_dev->p_dma_rx->dma_irq.half_finish_handle;
 4703              		.loc 1 1821 45
 4704 0088 FB68     		ldr	r3, [r7, #12]
 4705 008a DB68     		ldr	r3, [r3, #12]
 4706              		.loc 1 1821 64
 4707 008c 9B68     		ldr	r3, [r3, #8]
 4708              		.loc 1 1821 36
 4709 008e BB61     		str	r3, [r7, #24]
 4710              	.L224:
1822:../firmware/gd32f3x0_hal_peripheral/Source/gd32f3x0_hal_i2c.c ****     }
1823:../firmware/gd32f3x0_hal_peripheral/Source/gd32f3x0_hal_i2c.c **** 
1824:../firmware/gd32f3x0_hal_peripheral/Source/gd32f3x0_hal_i2c.c ****     /* master sends device address for memory read request */
1825:../firmware/gd32f3x0_hal_peripheral/Source/gd32f3x0_hal_i2c.c ****     if(HAL_ERR_NONE != _i2c_memory_read(i2c_dev, I2C_TIMEOUT)) {
 4711              		.loc 1 1825 24
 4712 0090 2C49     		ldr	r1, .L230+8
 4713 0092 F868     		ldr	r0, [r7, #12]
 4714 0094 FFF7FEFF 		bl	_i2c_memory_read
 4715 0098 0346     		mov	r3, r0
 4716              		.loc 1 1825 7
 4717 009a 002B     		cmp	r3, #0
 4718 009c 02D0     		beq	.L225
1826:../firmware/gd32f3x0_hal_peripheral/Source/gd32f3x0_hal_i2c.c ****         return HAL_ERR_TIMEOUT;
 4719              		.loc 1 1826 16
 4720 009e 6FF00403 		mvn	r3, #4
 4721 00a2 46E0     		b	.L229
 4722              	.L225:
1827:../firmware/gd32f3x0_hal_peripheral/Source/gd32f3x0_hal_i2c.c ****     }
1828:../firmware/gd32f3x0_hal_peripheral/Source/gd32f3x0_hal_i2c.c ****     if(2 == length) {
 4723              		.loc 1 1828 7
 4724 00a4 7B68     		ldr	r3, [r7, #4]
 4725 00a6 022B     		cmp	r3, #2
 4726 00a8 06D1     		bne	.L226
1829:../firmware/gd32f3x0_hal_peripheral/Source/gd32f3x0_hal_i2c.c ****         /* send a NACK for the next data byte which will be received into the shift register */
1830:../firmware/gd32f3x0_hal_peripheral/Source/gd32f3x0_hal_i2c.c ****         hals_i2c_ackpos_config(i2c_dev->periph, I2C_ACKPOS_NEXT);
 4727              		.loc 1 1830 9
 4728 00aa FB68     		ldr	r3, [r7, #12]
 4729 00ac 1B68     		ldr	r3, [r3]
 4730 00ae 4FF40061 		mov	r1, #2048
 4731 00b2 1846     		mov	r0, r3
 4732 00b4 FFF7FEFF 		bl	hals_i2c_ackpos_config
 4733              	.L226:
1831:../firmware/gd32f3x0_hal_peripheral/Source/gd32f3x0_hal_i2c.c ****     }
1832:../firmware/gd32f3x0_hal_peripheral/Source/gd32f3x0_hal_i2c.c ****     if(1 == length) {
 4734              		.loc 1 1832 7
 4735 00b8 7B68     		ldr	r3, [r7, #4]
 4736 00ba 012B     		cmp	r3, #1
 4737 00bc 06D1     		bne	.L227
1833:../firmware/gd32f3x0_hal_peripheral/Source/gd32f3x0_hal_i2c.c ****         /* disable acknowledge */
1834:../firmware/gd32f3x0_hal_peripheral/Source/gd32f3x0_hal_i2c.c ****         hals_i2c_ack_config(i2c_dev->periph, I2C_ACK_DISABLE);
 4738              		.loc 1 1834 9
 4739 00be FB68     		ldr	r3, [r7, #12]
 4740 00c0 1B68     		ldr	r3, [r3]
 4741 00c2 0021     		movs	r1, #0
 4742 00c4 1846     		mov	r0, r3
 4743 00c6 FFF7FEFF 		bl	hals_i2c_ack_config
 4744 00ca 06E0     		b	.L228
 4745              	.L227:
1835:../firmware/gd32f3x0_hal_peripheral/Source/gd32f3x0_hal_i2c.c ****     } else {
1836:../firmware/gd32f3x0_hal_peripheral/Source/gd32f3x0_hal_i2c.c ****         /* configure the next DMA EOT as the DMA last transfer */
1837:../firmware/gd32f3x0_hal_peripheral/Source/gd32f3x0_hal_i2c.c ****         hals_i2c_dma_last_transfer_config(i2c_dev->periph, I2C_DMALST_ON);
 4746              		.loc 1 1837 9
 4747 00cc FB68     		ldr	r3, [r7, #12]
 4748 00ce 1B68     		ldr	r3, [r3]
 4749 00d0 4FF48051 		mov	r1, #4096
 4750 00d4 1846     		mov	r0, r3
 4751 00d6 FFF7FEFF 		bl	hals_i2c_dma_last_transfer_config
 4752              	.L228:
1838:../firmware/gd32f3x0_hal_peripheral/Source/gd32f3x0_hal_i2c.c ****     }
1839:../firmware/gd32f3x0_hal_peripheral/Source/gd32f3x0_hal_i2c.c ****     /* clear ADDSEND bit */
1840:../firmware/gd32f3x0_hal_peripheral/Source/gd32f3x0_hal_i2c.c ****     hals_i2c_flag_clear(i2c_dev->periph, I2C_FLAG_ADDSEND);
 4753              		.loc 1 1840 5
 4754 00da FB68     		ldr	r3, [r7, #12]
 4755 00dc 1B68     		ldr	r3, [r3]
 4756 00de 40F20151 		movw	r1, #1281
 4757 00e2 1846     		mov	r0, r3
 4758 00e4 FFF7FEFF 		bl	hals_i2c_flag_clear
1841:../firmware/gd32f3x0_hal_peripheral/Source/gd32f3x0_hal_i2c.c ****     /* enable I2C DMA */
1842:../firmware/gd32f3x0_hal_peripheral/Source/gd32f3x0_hal_i2c.c ****     hals_i2c_dma_config(i2c_dev->periph, I2C_DMA_ON);
 4759              		.loc 1 1842 5
 4760 00e8 FB68     		ldr	r3, [r7, #12]
 4761 00ea 1B68     		ldr	r3, [r3]
 4762 00ec 4FF40061 		mov	r1, #2048
 4763 00f0 1846     		mov	r0, r3
 4764 00f2 FFF7FEFF 		bl	hals_i2c_dma_config
1843:../firmware/gd32f3x0_hal_peripheral/Source/gd32f3x0_hal_i2c.c ****     /* start DMA interrupt mode transfer */
1844:../firmware/gd32f3x0_hal_peripheral/Source/gd32f3x0_hal_i2c.c ****     hal_dma_start_interrupt(i2c_dev->p_dma_rx, (uint32_t)&I2C_DATA(i2c_dev->periph), \
 4765              		.loc 1 1844 5
 4766 00f6 FB68     		ldr	r3, [r7, #12]
 4767 00f8 D868     		ldr	r0, [r3, #12]
 4768              		.loc 1 1844 59
 4769 00fa FB68     		ldr	r3, [r7, #12]
 4770 00fc 1B68     		ldr	r3, [r3]
 4771              		.loc 1 1844 5
 4772 00fe 03F11001 		add	r1, r3, #16
1845:../firmware/gd32f3x0_hal_peripheral/Source/gd32f3x0_hal_i2c.c ****                             (uint32_t)i2c_dev->rxbuffer.buffer, length, &dma_irq);
 4773              		.loc 1 1845 56
 4774 0102 FB68     		ldr	r3, [r7, #12]
 4775 0104 1B6A     		ldr	r3, [r3, #32]
1844:../firmware/gd32f3x0_hal_peripheral/Source/gd32f3x0_hal_i2c.c ****                             (uint32_t)i2c_dev->rxbuffer.buffer, length, &dma_irq);
 4776              		.loc 1 1844 5
 4777 0106 1C46     		mov	r4, r3
 4778 0108 7B68     		ldr	r3, [r7, #4]
 4779 010a 9AB2     		uxth	r2, r3
 4780 010c 07F11403 		add	r3, r7, #20
 4781 0110 0093     		str	r3, [sp]
 4782 0112 1346     		mov	r3, r2
 4783 0114 2246     		mov	r2, r4
 4784 0116 FFF7FEFF 		bl	hal_dma_start_interrupt
1846:../firmware/gd32f3x0_hal_peripheral/Source/gd32f3x0_hal_i2c.c ****     /* clear DMA global interrupt flag */
1847:../firmware/gd32f3x0_hal_peripheral/Source/gd32f3x0_hal_i2c.c ****     hals_dma_flag_clear(i2c_dev->p_dma_rx->channel, DMA_INTF_GIF);
 4785              		.loc 1 1847 32
 4786 011a FB68     		ldr	r3, [r7, #12]
 4787 011c DB68     		ldr	r3, [r3, #12]
 4788              		.loc 1 1847 5
 4789 011e 1B78     		ldrb	r3, [r3]	@ zero_extendqisi2
 4790 0120 0121     		movs	r1, #1
 4791 0122 1846     		mov	r0, r3
 4792 0124 FFF7FEFF 		bl	hals_dma_flag_clear
1848:../firmware/gd32f3x0_hal_peripheral/Source/gd32f3x0_hal_i2c.c **** 
1849:../firmware/gd32f3x0_hal_peripheral/Source/gd32f3x0_hal_i2c.c ****     HAL_UNLOCK(i2c_dev);
 4793              		.loc 1 1849 5
 4794 0128 FB68     		ldr	r3, [r7, #12]
 4795 012a 0022     		movs	r2, #0
 4796 012c 83F85020 		strb	r2, [r3, #80]
1850:../firmware/gd32f3x0_hal_peripheral/Source/gd32f3x0_hal_i2c.c ****     return HAL_ERR_NONE;
 4797              		.loc 1 1850 12
 4798 0130 0023     		movs	r3, #0
 4799              	.L229:
1851:../firmware/gd32f3x0_hal_peripheral/Source/gd32f3x0_hal_i2c.c **** }
 4800              		.loc 1 1851 1 discriminator 1
 4801 0132 1846     		mov	r0, r3
 4802 0134 2437     		adds	r7, r7, #36
 4803              		.cfi_def_cfa_offset 12
 4804 0136 BD46     		mov	sp, r7
 4805              		.cfi_def_cfa_register 13
 4806              		@ sp needed
 4807 0138 90BD     		pop	{r4, r7, pc}
 4808              	.L231:
 4809 013a 00BF     		.align	2
 4810              	.L230:
 4811 013c 00000000 		.word	_i2c_transmit_dma
 4812 0140 00000000 		.word	_i2c_dma_error
 4813 0144 A0860100 		.word	100000
 4814              		.cfi_endproc
 4815              	.LFE145:
 4817              		.section	.text.hal_i2c_device_ready_check,"ax",%progbits
 4818              		.align	1
 4819              		.global	hal_i2c_device_ready_check
 4820              		.syntax unified
 4821              		.thumb
 4822              		.thumb_func
 4823              		.fpu softvfp
 4825              	hal_i2c_device_ready_check:
 4826              	.LFB146:
1852:../firmware/gd32f3x0_hal_peripheral/Source/gd32f3x0_hal_i2c.c **** 
1853:../firmware/gd32f3x0_hal_peripheral/Source/gd32f3x0_hal_i2c.c **** /*!
1854:../firmware/gd32f3x0_hal_peripheral/Source/gd32f3x0_hal_i2c.c ****     \brief      check whether the device is ready for access
1855:../firmware/gd32f3x0_hal_peripheral/Source/gd32f3x0_hal_i2c.c ****     \param[in]  i2c_dev: I2C device information structrue
1856:../firmware/gd32f3x0_hal_peripheral/Source/gd32f3x0_hal_i2c.c ****                   the structure is not necessary to be reconfigured after structrue initialization,
1857:../firmware/gd32f3x0_hal_peripheral/Source/gd32f3x0_hal_i2c.c ****                   the structure parameters altering is automatically configured by core
1858:../firmware/gd32f3x0_hal_peripheral/Source/gd32f3x0_hal_i2c.c ****     \param[in]  timeout_ms: timeout duration
1859:../firmware/gd32f3x0_hal_peripheral/Source/gd32f3x0_hal_i2c.c ****     \param[out] none
1860:../firmware/gd32f3x0_hal_peripheral/Source/gd32f3x0_hal_i2c.c ****     \retval     error code: HAL_ERR_ADDRESS, HAL_ERR_TIMEOUT, HAL_ERR_NONE,
1861:../firmware/gd32f3x0_hal_peripheral/Source/gd32f3x0_hal_i2c.c ****                 details refer to gd32f3x0_hal.h
1862:../firmware/gd32f3x0_hal_peripheral/Source/gd32f3x0_hal_i2c.c **** */
1863:../firmware/gd32f3x0_hal_peripheral/Source/gd32f3x0_hal_i2c.c **** int32_t hal_i2c_device_ready_check(hal_i2c_dev_struct *i2c_dev, uint32_t timeout_ms)
1864:../firmware/gd32f3x0_hal_peripheral/Source/gd32f3x0_hal_i2c.c **** {
 4827              		.loc 1 1864 1
 4828              		.cfi_startproc
 4829              		@ args = 0, pretend = 0, frame = 16
 4830              		@ frame_needed = 1, uses_anonymous_args = 0
 4831 0000 80B5     		push	{r7, lr}
 4832              		.cfi_def_cfa_offset 8
 4833              		.cfi_offset 7, -8
 4834              		.cfi_offset 14, -4
 4835 0002 84B0     		sub	sp, sp, #16
 4836              		.cfi_def_cfa_offset 24
 4837 0004 00AF     		add	r7, sp, #0
 4838              		.cfi_def_cfa_register 7
 4839 0006 7860     		str	r0, [r7, #4]
 4840 0008 3960     		str	r1, [r7]
1865:../firmware/gd32f3x0_hal_peripheral/Source/gd32f3x0_hal_i2c.c ****     __IO uint32_t val = 0;
 4841              		.loc 1 1865 19
 4842 000a 0023     		movs	r3, #0
 4843 000c FB60     		str	r3, [r7, #12]
 4844              	.L244:
1866:../firmware/gd32f3x0_hal_peripheral/Source/gd32f3x0_hal_i2c.c **** 
1867:../firmware/gd32f3x0_hal_peripheral/Source/gd32f3x0_hal_i2c.c **** #if (1 == HAL_PARAMETER_CHECK)
1868:../firmware/gd32f3x0_hal_peripheral/Source/gd32f3x0_hal_i2c.c ****     /* check i2c pointer */
1869:../firmware/gd32f3x0_hal_peripheral/Source/gd32f3x0_hal_i2c.c ****     if((NULL == i2c_dev)) {
1870:../firmware/gd32f3x0_hal_peripheral/Source/gd32f3x0_hal_i2c.c ****         HAL_DEBUGE("parameter [i2c_dev] value is invalid");
1871:../firmware/gd32f3x0_hal_peripheral/Source/gd32f3x0_hal_i2c.c ****         return HAL_ERR_ADDRESS;
1872:../firmware/gd32f3x0_hal_peripheral/Source/gd32f3x0_hal_i2c.c ****     }
1873:../firmware/gd32f3x0_hal_peripheral/Source/gd32f3x0_hal_i2c.c **** #endif /* 1 == HAL_PARAMETER_CHECK */
1874:../firmware/gd32f3x0_hal_peripheral/Source/gd32f3x0_hal_i2c.c **** 
1875:../firmware/gd32f3x0_hal_peripheral/Source/gd32f3x0_hal_i2c.c ****     while(1) {
1876:../firmware/gd32f3x0_hal_peripheral/Source/gd32f3x0_hal_i2c.c ****         while(hals_i2c_flag_get(i2c_dev->periph, I2C_FLAG_I2CBSY));
 4845              		.loc 1 1876 14 discriminator 1
 4846 000e 00BF     		nop
 4847              	.L233:
 4848              		.loc 1 1876 15 discriminator 1
 4849 0010 7B68     		ldr	r3, [r7, #4]
 4850 0012 1B68     		ldr	r3, [r3]
 4851 0014 40F20161 		movw	r1, #1537
 4852 0018 1846     		mov	r0, r3
 4853 001a FFF7FEFF 		bl	hals_i2c_flag_get
 4854 001e 0346     		mov	r3, r0
 4855              		.loc 1 1876 14 discriminator 1
 4856 0020 002B     		cmp	r3, #0
 4857 0022 F5D1     		bne	.L233
1877:../firmware/gd32f3x0_hal_peripheral/Source/gd32f3x0_hal_i2c.c ****         /* wait until I2C bus is idle */
1878:../firmware/gd32f3x0_hal_peripheral/Source/gd32f3x0_hal_i2c.c ****         if(HAL_ERR_NONE != _i2c_wait_flag_timeout(i2c_dev->periph, I2C_FLAG_I2CBSY, RESET, timeout_
 4858              		.loc 1 1878 28
 4859 0024 7B68     		ldr	r3, [r7, #4]
 4860 0026 1868     		ldr	r0, [r3]
 4861 0028 3B68     		ldr	r3, [r7]
 4862 002a 0022     		movs	r2, #0
 4863 002c 40F20161 		movw	r1, #1537
 4864 0030 FFF7FEFF 		bl	_i2c_wait_flag_timeout
 4865 0034 0346     		mov	r3, r0
 4866              		.loc 1 1878 11
 4867 0036 002B     		cmp	r3, #0
 4868 0038 02D0     		beq	.L234
1879:../firmware/gd32f3x0_hal_peripheral/Source/gd32f3x0_hal_i2c.c ****             HAL_DEBUGW("i2c busy timeout");
1880:../firmware/gd32f3x0_hal_peripheral/Source/gd32f3x0_hal_i2c.c ****             return HAL_ERR_TIMEOUT;
 4869              		.loc 1 1880 20
 4870 003a 6FF00403 		mvn	r3, #4
 4871 003e 8CE0     		b	.L235
 4872              	.L234:
1881:../firmware/gd32f3x0_hal_peripheral/Source/gd32f3x0_hal_i2c.c ****         }
1882:../firmware/gd32f3x0_hal_peripheral/Source/gd32f3x0_hal_i2c.c ****         /* check if I2C is already enabled */
1883:../firmware/gd32f3x0_hal_peripheral/Source/gd32f3x0_hal_i2c.c ****         if(I2C_CTL0_I2CEN != (I2C_CTL0(i2c_dev->periph) & I2C_CTL0_I2CEN)) {
 4873              		.loc 1 1883 31
 4874 0040 7B68     		ldr	r3, [r7, #4]
 4875 0042 1B68     		ldr	r3, [r3]
 4876 0044 1B68     		ldr	r3, [r3]
 4877              		.loc 1 1883 57
 4878 0046 03F00103 		and	r3, r3, #1
 4879              		.loc 1 1883 11
 4880 004a 012B     		cmp	r3, #1
 4881 004c 07D0     		beq	.L236
1884:../firmware/gd32f3x0_hal_peripheral/Source/gd32f3x0_hal_i2c.c ****             HAL_I2C_ENABLE(i2c_dev->periph);
 4882              		.loc 1 1884 13
 4883 004e 7B68     		ldr	r3, [r7, #4]
 4884 0050 1B68     		ldr	r3, [r3]
 4885 0052 1B68     		ldr	r3, [r3]
 4886 0054 7A68     		ldr	r2, [r7, #4]
 4887 0056 1268     		ldr	r2, [r2]
 4888 0058 43F00103 		orr	r3, r3, #1
 4889 005c 1360     		str	r3, [r2]
 4890              	.L236:
1885:../firmware/gd32f3x0_hal_peripheral/Source/gd32f3x0_hal_i2c.c ****         }
1886:../firmware/gd32f3x0_hal_peripheral/Source/gd32f3x0_hal_i2c.c **** 
1887:../firmware/gd32f3x0_hal_peripheral/Source/gd32f3x0_hal_i2c.c ****         /* send a start condition to I2C bus */
1888:../firmware/gd32f3x0_hal_peripheral/Source/gd32f3x0_hal_i2c.c ****         HAL_I2C_START_ON_BUS(i2c_dev->periph);
 4891              		.loc 1 1888 9
 4892 005e 7B68     		ldr	r3, [r7, #4]
 4893 0060 1B68     		ldr	r3, [r3]
 4894 0062 1B68     		ldr	r3, [r3]
 4895 0064 7A68     		ldr	r2, [r7, #4]
 4896 0066 1268     		ldr	r2, [r2]
 4897 0068 43F48073 		orr	r3, r3, #256
 4898 006c 1360     		str	r3, [r2]
1889:../firmware/gd32f3x0_hal_peripheral/Source/gd32f3x0_hal_i2c.c ****         if(HAL_ERR_NONE != _i2c_wait_flag_timeout(i2c_dev->periph, I2C_FLAG_SBSEND, SET, timeout_ms
 4899              		.loc 1 1889 28
 4900 006e 7B68     		ldr	r3, [r7, #4]
 4901 0070 1868     		ldr	r0, [r3]
 4902 0072 3B68     		ldr	r3, [r7]
 4903 0074 0122     		movs	r2, #1
 4904 0076 4FF4A061 		mov	r1, #1280
 4905 007a FFF7FEFF 		bl	_i2c_wait_flag_timeout
 4906 007e 0346     		mov	r3, r0
 4907              		.loc 1 1889 11
 4908 0080 002B     		cmp	r3, #0
 4909 0082 02D0     		beq	.L245
1890:../firmware/gd32f3x0_hal_peripheral/Source/gd32f3x0_hal_i2c.c ****             HAL_DEBUGW("i2c get SBSEND timeout");
1891:../firmware/gd32f3x0_hal_peripheral/Source/gd32f3x0_hal_i2c.c ****             return HAL_ERR_TIMEOUT;
 4910              		.loc 1 1891 20
 4911 0084 6FF00403 		mvn	r3, #4
 4912 0088 67E0     		b	.L235
 4913              	.L245:
1892:../firmware/gd32f3x0_hal_peripheral/Source/gd32f3x0_hal_i2c.c ****         }
1893:../firmware/gd32f3x0_hal_peripheral/Source/gd32f3x0_hal_i2c.c ****         /* wait until SBSEND bit is set */
1894:../firmware/gd32f3x0_hal_peripheral/Source/gd32f3x0_hal_i2c.c ****         while(!hals_i2c_flag_get(i2c_dev->periph, I2C_FLAG_SBSEND));
 4914              		.loc 1 1894 14
 4915 008a 00BF     		nop
 4916              	.L238:
 4917              		.loc 1 1894 16 discriminator 1
 4918 008c 7B68     		ldr	r3, [r7, #4]
 4919 008e 1B68     		ldr	r3, [r3]
 4920 0090 4FF4A061 		mov	r1, #1280
 4921 0094 1846     		mov	r0, r3
 4922 0096 FFF7FEFF 		bl	hals_i2c_flag_get
 4923 009a 0346     		mov	r3, r0
 4924              		.loc 1 1894 14 discriminator 1
 4925 009c 002B     		cmp	r3, #0
 4926 009e F5D0     		beq	.L238
1895:../firmware/gd32f3x0_hal_peripheral/Source/gd32f3x0_hal_i2c.c ****         /* send slave address to I2C bus */
1896:../firmware/gd32f3x0_hal_peripheral/Source/gd32f3x0_hal_i2c.c ****         hals_i2c_master_addressing(i2c_dev->periph, i2c_dev->slave_address.device_address, I2C_TRAN
 4927              		.loc 1 1896 9
 4928 00a0 7B68     		ldr	r3, [r7, #4]
 4929 00a2 1868     		ldr	r0, [r3]
 4930 00a4 7B68     		ldr	r3, [r7, #4]
 4931 00a6 DB6A     		ldr	r3, [r3, #44]
 4932 00a8 6FF00102 		mvn	r2, #1
 4933 00ac 1946     		mov	r1, r3
 4934 00ae FFF7FEFF 		bl	hals_i2c_master_addressing
 4935              	.L239:
1897:../firmware/gd32f3x0_hal_peripheral/Source/gd32f3x0_hal_i2c.c **** 
1898:../firmware/gd32f3x0_hal_peripheral/Source/gd32f3x0_hal_i2c.c ****         do {
1899:../firmware/gd32f3x0_hal_peripheral/Source/gd32f3x0_hal_i2c.c ****             val = I2C_STAT0(i2c_dev->periph);
 4936              		.loc 1 1899 19 discriminator 1
 4937 00b2 7B68     		ldr	r3, [r7, #4]
 4938 00b4 1B68     		ldr	r3, [r3]
 4939 00b6 1433     		adds	r3, r3, #20
 4940 00b8 1B68     		ldr	r3, [r3]
 4941              		.loc 1 1899 17 discriminator 1
 4942 00ba FB60     		str	r3, [r7, #12]
1900:../firmware/gd32f3x0_hal_peripheral/Source/gd32f3x0_hal_i2c.c ****         } while(0 == (val & (I2C_STAT0_ADDSEND | I2C_STAT0_AERR)));
 4943              		.loc 1 1900 27 discriminator 1
 4944 00bc FA68     		ldr	r2, [r7, #12]
 4945 00be 40F20243 		movw	r3, #1026
 4946 00c2 1340     		ands	r3, r3, r2
 4947              		.loc 1 1900 9 discriminator 1
 4948 00c4 002B     		cmp	r3, #0
 4949 00c6 F4D0     		beq	.L239
1901:../firmware/gd32f3x0_hal_peripheral/Source/gd32f3x0_hal_i2c.c **** 
1902:../firmware/gd32f3x0_hal_peripheral/Source/gd32f3x0_hal_i2c.c ****         if(val & I2C_STAT0_ADDSEND) {
 4950              		.loc 1 1902 16
 4951 00c8 FB68     		ldr	r3, [r7, #12]
 4952 00ca 03F00203 		and	r3, r3, #2
 4953              		.loc 1 1902 11
 4954 00ce 002B     		cmp	r3, #0
 4955 00d0 1ED0     		beq	.L240
1903:../firmware/gd32f3x0_hal_peripheral/Source/gd32f3x0_hal_i2c.c **** 
1904:../firmware/gd32f3x0_hal_peripheral/Source/gd32f3x0_hal_i2c.c ****             /* clear ADDSEND bit */
1905:../firmware/gd32f3x0_hal_peripheral/Source/gd32f3x0_hal_i2c.c ****             hals_i2c_flag_clear(i2c_dev->periph, I2C_FLAG_ADDSEND);
 4956              		.loc 1 1905 13
 4957 00d2 7B68     		ldr	r3, [r7, #4]
 4958 00d4 1B68     		ldr	r3, [r3]
 4959 00d6 40F20151 		movw	r1, #1281
 4960 00da 1846     		mov	r0, r3
 4961 00dc FFF7FEFF 		bl	hals_i2c_flag_clear
1906:../firmware/gd32f3x0_hal_peripheral/Source/gd32f3x0_hal_i2c.c ****             /* send a stop condition to I2C bus */
1907:../firmware/gd32f3x0_hal_peripheral/Source/gd32f3x0_hal_i2c.c ****             HAL_I2C_STOP_ON_BUS(i2c_dev->periph);
 4962              		.loc 1 1907 13
 4963 00e0 7B68     		ldr	r3, [r7, #4]
 4964 00e2 1B68     		ldr	r3, [r3]
 4965 00e4 1B68     		ldr	r3, [r3]
 4966 00e6 7A68     		ldr	r2, [r7, #4]
 4967 00e8 1268     		ldr	r2, [r2]
 4968 00ea 43F40073 		orr	r3, r3, #512
 4969 00ee 1360     		str	r3, [r2]
1908:../firmware/gd32f3x0_hal_peripheral/Source/gd32f3x0_hal_i2c.c ****             /* wait until I2C bus is idle */
1909:../firmware/gd32f3x0_hal_peripheral/Source/gd32f3x0_hal_i2c.c ****             if(HAL_ERR_NONE != _i2c_wait_flag_timeout(i2c_dev->periph, I2C_FLAG_I2CBSY, RESET, time
 4970              		.loc 1 1909 32
 4971 00f0 7B68     		ldr	r3, [r7, #4]
 4972 00f2 1868     		ldr	r0, [r3]
 4973 00f4 3B68     		ldr	r3, [r7]
 4974 00f6 0022     		movs	r2, #0
 4975 00f8 40F20161 		movw	r1, #1537
 4976 00fc FFF7FEFF 		bl	_i2c_wait_flag_timeout
 4977 0100 0346     		mov	r3, r0
 4978              		.loc 1 1909 15
 4979 0102 002B     		cmp	r3, #0
 4980 0104 02D0     		beq	.L241
1910:../firmware/gd32f3x0_hal_peripheral/Source/gd32f3x0_hal_i2c.c ****                 HAL_DEBUGW("i2c busy timeout");
1911:../firmware/gd32f3x0_hal_peripheral/Source/gd32f3x0_hal_i2c.c ****                 return HAL_ERR_TIMEOUT;
 4981              		.loc 1 1911 24
 4982 0106 6FF00403 		mvn	r3, #4
 4983 010a 26E0     		b	.L235
 4984              	.L241:
1912:../firmware/gd32f3x0_hal_peripheral/Source/gd32f3x0_hal_i2c.c ****             }
1913:../firmware/gd32f3x0_hal_peripheral/Source/gd32f3x0_hal_i2c.c ****             return HAL_ERR_NONE;
 4985              		.loc 1 1913 20
 4986 010c 0023     		movs	r3, #0
 4987 010e 24E0     		b	.L235
 4988              	.L240:
1914:../firmware/gd32f3x0_hal_peripheral/Source/gd32f3x0_hal_i2c.c ****         } else {
1915:../firmware/gd32f3x0_hal_peripheral/Source/gd32f3x0_hal_i2c.c ****             /* clear AERR bit */
1916:../firmware/gd32f3x0_hal_peripheral/Source/gd32f3x0_hal_i2c.c ****             hals_i2c_flag_clear(i2c_dev->periph, I2C_FLAG_AERR);
 4989              		.loc 1 1916 13
 4990 0110 7B68     		ldr	r3, [r7, #4]
 4991 0112 1B68     		ldr	r3, [r3]
 4992 0114 40F20A51 		movw	r1, #1290
 4993 0118 1846     		mov	r0, r3
 4994 011a FFF7FEFF 		bl	hals_i2c_flag_clear
1917:../firmware/gd32f3x0_hal_peripheral/Source/gd32f3x0_hal_i2c.c ****             /* send a stop condition to I2C bus */
1918:../firmware/gd32f3x0_hal_peripheral/Source/gd32f3x0_hal_i2c.c ****             HAL_I2C_STOP_ON_BUS(i2c_dev->periph);
 4995              		.loc 1 1918 13
 4996 011e 7B68     		ldr	r3, [r7, #4]
 4997 0120 1B68     		ldr	r3, [r3]
 4998 0122 1B68     		ldr	r3, [r3]
 4999 0124 7A68     		ldr	r2, [r7, #4]
 5000 0126 1268     		ldr	r2, [r2]
 5001 0128 43F40073 		orr	r3, r3, #512
 5002 012c 1360     		str	r3, [r2]
1919:../firmware/gd32f3x0_hal_peripheral/Source/gd32f3x0_hal_i2c.c ****             while(I2C_CTL0(i2c_dev->periph) & 0x0200);
 5003              		.loc 1 1919 18
 5004 012e 00BF     		nop
 5005              	.L242:
 5006              		.loc 1 1919 19 discriminator 1
 5007 0130 7B68     		ldr	r3, [r7, #4]
 5008 0132 1B68     		ldr	r3, [r3]
 5009 0134 1B68     		ldr	r3, [r3]
 5010              		.loc 1 1919 45 discriminator 1
 5011 0136 03F40073 		and	r3, r3, #512
 5012              		.loc 1 1919 18 discriminator 1
 5013 013a 002B     		cmp	r3, #0
 5014 013c F8D1     		bne	.L242
1920:../firmware/gd32f3x0_hal_peripheral/Source/gd32f3x0_hal_i2c.c **** 
1921:../firmware/gd32f3x0_hal_peripheral/Source/gd32f3x0_hal_i2c.c ****             /* wait until I2C bus is idle */
1922:../firmware/gd32f3x0_hal_peripheral/Source/gd32f3x0_hal_i2c.c ****             if(HAL_ERR_NONE != _i2c_wait_flag_timeout(i2c_dev->periph, I2C_FLAG_I2CBSY, RESET, time
 5015              		.loc 1 1922 32
 5016 013e 7B68     		ldr	r3, [r7, #4]
 5017 0140 1868     		ldr	r0, [r3]
 5018 0142 3B68     		ldr	r3, [r7]
 5019 0144 0022     		movs	r2, #0
 5020 0146 40F20161 		movw	r1, #1537
 5021 014a FFF7FEFF 		bl	_i2c_wait_flag_timeout
 5022 014e 0346     		mov	r3, r0
 5023              		.loc 1 1922 15
 5024 0150 002B     		cmp	r3, #0
 5025 0152 3FF45CAF 		beq	.L244
1923:../firmware/gd32f3x0_hal_peripheral/Source/gd32f3x0_hal_i2c.c ****                 HAL_DEBUGW("i2c busy timeout");
1924:../firmware/gd32f3x0_hal_peripheral/Source/gd32f3x0_hal_i2c.c ****                 return HAL_ERR_TIMEOUT;
 5026              		.loc 1 1924 24
 5027 0156 6FF00403 		mvn	r3, #4
 5028              	.L235:
1925:../firmware/gd32f3x0_hal_peripheral/Source/gd32f3x0_hal_i2c.c ****             }
1926:../firmware/gd32f3x0_hal_peripheral/Source/gd32f3x0_hal_i2c.c ****         }
1927:../firmware/gd32f3x0_hal_peripheral/Source/gd32f3x0_hal_i2c.c ****     }
1928:../firmware/gd32f3x0_hal_peripheral/Source/gd32f3x0_hal_i2c.c **** }
 5029              		.loc 1 1928 1
 5030 015a 1846     		mov	r0, r3
 5031 015c 1037     		adds	r7, r7, #16
 5032              		.cfi_def_cfa_offset 8
 5033 015e BD46     		mov	sp, r7
 5034              		.cfi_def_cfa_register 13
 5035              		@ sp needed
 5036 0160 80BD     		pop	{r7, pc}
 5037              		.cfi_endproc
 5038              	.LFE146:
 5040              		.section	.text.hal_i2c_master_serial_transmit_interrupt,"ax",%progbits
 5041              		.align	1
 5042              		.global	hal_i2c_master_serial_transmit_interrupt
 5043              		.syntax unified
 5044              		.thumb
 5045              		.thumb_func
 5046              		.fpu softvfp
 5048              	hal_i2c_master_serial_transmit_interrupt:
 5049              	.LFB147:
1929:../firmware/gd32f3x0_hal_peripheral/Source/gd32f3x0_hal_i2c.c **** 
1930:../firmware/gd32f3x0_hal_peripheral/Source/gd32f3x0_hal_i2c.c **** /*!
1931:../firmware/gd32f3x0_hal_peripheral/Source/gd32f3x0_hal_i2c.c ****     \brief      serial transmit amounts of data in master mode by interrupt method, the function
1932:../firmware/gd32f3x0_hal_peripheral/Source/gd32f3x0_hal_i2c.c ****                 is non-blocking
1933:../firmware/gd32f3x0_hal_peripheral/Source/gd32f3x0_hal_i2c.c ****     \param[in]  i2c_dev: I2C device information structrue
1934:../firmware/gd32f3x0_hal_peripheral/Source/gd32f3x0_hal_i2c.c ****                   the structure is not necessary to be reconfigured after structrue initialization,
1935:../firmware/gd32f3x0_hal_peripheral/Source/gd32f3x0_hal_i2c.c ****                   the structure parameters altering is automatically configured by core
1936:../firmware/gd32f3x0_hal_peripheral/Source/gd32f3x0_hal_i2c.c ****     \param[in]  p_buffer: pointer to txbuffer
1937:../firmware/gd32f3x0_hal_peripheral/Source/gd32f3x0_hal_i2c.c ****     \param[in]  length: length of data to be sent
1938:../firmware/gd32f3x0_hal_peripheral/Source/gd32f3x0_hal_i2c.c ****     \param[in]  p_user_func: call back function for user
1939:../firmware/gd32f3x0_hal_peripheral/Source/gd32f3x0_hal_i2c.c ****     \param[out] none
1940:../firmware/gd32f3x0_hal_peripheral/Source/gd32f3x0_hal_i2c.c ****     \retval     error code: HAL_ERR_NONE, HAL_ERR_ADDRESS, HAL_ERR_TIMEOUT, HAL_ERR_BUSY,
1941:../firmware/gd32f3x0_hal_peripheral/Source/gd32f3x0_hal_i2c.c ****                 details refer to gd32f3x0_hal.h
1942:../firmware/gd32f3x0_hal_peripheral/Source/gd32f3x0_hal_i2c.c **** */
1943:../firmware/gd32f3x0_hal_peripheral/Source/gd32f3x0_hal_i2c.c **** int32_t hal_i2c_master_serial_transmit_interrupt(hal_i2c_dev_struct *i2c_dev, uint8_t *p_buffer, \
1944:../firmware/gd32f3x0_hal_peripheral/Source/gd32f3x0_hal_i2c.c ****         uint32_t length, hal_i2c_user_cb p_user_func)
1945:../firmware/gd32f3x0_hal_peripheral/Source/gd32f3x0_hal_i2c.c **** {
 5050              		.loc 1 1945 1
 5051              		.cfi_startproc
 5052              		@ args = 0, pretend = 0, frame = 24
 5053              		@ frame_needed = 1, uses_anonymous_args = 0
 5054 0000 80B5     		push	{r7, lr}
 5055              		.cfi_def_cfa_offset 8
 5056              		.cfi_offset 7, -8
 5057              		.cfi_offset 14, -4
 5058 0002 86B0     		sub	sp, sp, #24
 5059              		.cfi_def_cfa_offset 32
 5060 0004 00AF     		add	r7, sp, #0
 5061              		.cfi_def_cfa_register 7
 5062 0006 F860     		str	r0, [r7, #12]
 5063 0008 B960     		str	r1, [r7, #8]
 5064 000a 7A60     		str	r2, [r7, #4]
 5065 000c 3B60     		str	r3, [r7]
1946:../firmware/gd32f3x0_hal_peripheral/Source/gd32f3x0_hal_i2c.c ****     __IO uint32_t previous_state = 0x00U;
 5066              		.loc 1 1946 19
 5067 000e 0023     		movs	r3, #0
 5068 0010 7B61     		str	r3, [r7, #20]
1947:../firmware/gd32f3x0_hal_peripheral/Source/gd32f3x0_hal_i2c.c **** 
1948:../firmware/gd32f3x0_hal_peripheral/Source/gd32f3x0_hal_i2c.c **** #if (1 == HAL_PARAMETER_CHECK)
1949:../firmware/gd32f3x0_hal_peripheral/Source/gd32f3x0_hal_i2c.c ****     /* check the parameters */
1950:../firmware/gd32f3x0_hal_peripheral/Source/gd32f3x0_hal_i2c.c ****     if((NULL == i2c_dev) || (NULL == p_buffer) || (0U == length)) {
1951:../firmware/gd32f3x0_hal_peripheral/Source/gd32f3x0_hal_i2c.c ****         HAL_DEBUGE("parameter [i2c_dev] or [p_buffer] or [length] value is invalid");
1952:../firmware/gd32f3x0_hal_peripheral/Source/gd32f3x0_hal_i2c.c ****         return HAL_ERR_ADDRESS;
1953:../firmware/gd32f3x0_hal_peripheral/Source/gd32f3x0_hal_i2c.c ****     }
1954:../firmware/gd32f3x0_hal_peripheral/Source/gd32f3x0_hal_i2c.c **** 
1955:../firmware/gd32f3x0_hal_peripheral/Source/gd32f3x0_hal_i2c.c **** #endif /* 1 == HAL_PARAMETER_CHECK */
1956:../firmware/gd32f3x0_hal_peripheral/Source/gd32f3x0_hal_i2c.c **** 
1957:../firmware/gd32f3x0_hal_peripheral/Source/gd32f3x0_hal_i2c.c ****     HAL_LOCK(i2c_dev);
 5069              		.loc 1 1957 5
 5070 0012 FB68     		ldr	r3, [r7, #12]
 5071 0014 93F85030 		ldrb	r3, [r3, #80]	@ zero_extendqisi2
 5072 0018 012B     		cmp	r3, #1
 5073 001a 02D1     		bne	.L247
 5074              		.loc 1 1957 5 is_stmt 0 discriminator 1
 5075 001c 6FF00103 		mvn	r3, #1
 5076 0020 78E0     		b	.L248
 5077              	.L247:
 5078              		.loc 1 1957 5 discriminator 2
 5079 0022 FB68     		ldr	r3, [r7, #12]
 5080 0024 0122     		movs	r2, #1
 5081 0026 83F85020 		strb	r2, [r3, #80]
1958:../firmware/gd32f3x0_hal_peripheral/Source/gd32f3x0_hal_i2c.c ****     /* check the tx_state whether it is busy or not */
1959:../firmware/gd32f3x0_hal_peripheral/Source/gd32f3x0_hal_i2c.c ****     if(HAL_I2C_STATE_BUSY == i2c_dev->tx_state) {
 5082              		.loc 1 1959 37 is_stmt 1 discriminator 2
 5083 002a FB68     		ldr	r3, [r7, #12]
 5084 002c 93F84030 		ldrb	r3, [r3, #64]
 5085 0030 DBB2     		uxtb	r3, r3
 5086              		.loc 1 1959 7 discriminator 2
 5087 0032 012B     		cmp	r3, #1
 5088 0034 02D1     		bne	.L249
1960:../firmware/gd32f3x0_hal_peripheral/Source/gd32f3x0_hal_i2c.c ****         HAL_DEBUGE("i2c tx has already been used, please wait until run_state change to free ");
1961:../firmware/gd32f3x0_hal_peripheral/Source/gd32f3x0_hal_i2c.c ****         return HAL_ERR_BUSY;
 5089              		.loc 1 1961 16
 5090 0036 6FF00203 		mvn	r3, #2
 5091 003a 6BE0     		b	.L248
 5092              	.L249:
1962:../firmware/gd32f3x0_hal_peripheral/Source/gd32f3x0_hal_i2c.c ****     }
1963:../firmware/gd32f3x0_hal_peripheral/Source/gd32f3x0_hal_i2c.c **** 
1964:../firmware/gd32f3x0_hal_peripheral/Source/gd32f3x0_hal_i2c.c ****     if((I2C_FIRST_TRANSFER == i2c_dev->transfer_option) || \
 5093              		.loc 1 1964 38
 5094 003c FB68     		ldr	r3, [r7, #12]
 5095 003e 1B8F     		ldrh	r3, [r3, #56]	@ movhi
 5096 0040 9BB2     		uxth	r3, r3
 5097              		.loc 1 1964 7
 5098 0042 022B     		cmp	r3, #2
 5099 0044 04D0     		beq	.L250
1965:../firmware/gd32f3x0_hal_peripheral/Source/gd32f3x0_hal_i2c.c ****             (I2C_NO_OPTION_TRANSFER == i2c_dev->transfer_option)) {
 5100              		.loc 1 1965 47 discriminator 1
 5101 0046 FB68     		ldr	r3, [r7, #12]
 5102 0048 1B8F     		ldrh	r3, [r3, #56]	@ movhi
 5103 004a 9BB2     		uxth	r3, r3
1964:../firmware/gd32f3x0_hal_peripheral/Source/gd32f3x0_hal_i2c.c ****             (I2C_NO_OPTION_TRANSFER == i2c_dev->transfer_option)) {
 5104              		.loc 1 1964 57 discriminator 1
 5105 004c 012B     		cmp	r3, #1
 5106 004e 0ED1     		bne	.L251
 5107              	.L250:
1966:../firmware/gd32f3x0_hal_peripheral/Source/gd32f3x0_hal_i2c.c ****         /* the master waits until the I2C bus is idle */
1967:../firmware/gd32f3x0_hal_peripheral/Source/gd32f3x0_hal_i2c.c ****         if(HAL_ERR_NONE != _i2c_wait_flag_timeout(i2c_dev->periph, I2C_FLAG_I2CBSY, RESET, I2C_BUSY
 5108              		.loc 1 1967 28
 5109 0050 FB68     		ldr	r3, [r7, #12]
 5110 0052 1868     		ldr	r0, [r3]
 5111 0054 42F21073 		movw	r3, #10000
 5112 0058 0022     		movs	r2, #0
 5113 005a 40F20161 		movw	r1, #1537
 5114 005e FFF7FEFF 		bl	_i2c_wait_flag_timeout
 5115 0062 0346     		mov	r3, r0
 5116              		.loc 1 1967 11
 5117 0064 002B     		cmp	r3, #0
 5118 0066 02D0     		beq	.L251
1968:../firmware/gd32f3x0_hal_peripheral/Source/gd32f3x0_hal_i2c.c ****             HAL_DEBUGW("i2c busy timeout");
1969:../firmware/gd32f3x0_hal_peripheral/Source/gd32f3x0_hal_i2c.c ****             return HAL_ERR_TIMEOUT;
 5119              		.loc 1 1969 20
 5120 0068 6FF00403 		mvn	r3, #4
 5121 006c 52E0     		b	.L248
 5122              	.L251:
1970:../firmware/gd32f3x0_hal_peripheral/Source/gd32f3x0_hal_i2c.c ****         }
1971:../firmware/gd32f3x0_hal_peripheral/Source/gd32f3x0_hal_i2c.c ****     }
1972:../firmware/gd32f3x0_hal_peripheral/Source/gd32f3x0_hal_i2c.c ****     /* check if I2C is already enabled */
1973:../firmware/gd32f3x0_hal_peripheral/Source/gd32f3x0_hal_i2c.c ****     if(I2C_CTL0_I2CEN != (I2C_CTL0(i2c_dev->periph) & I2C_CTL0_I2CEN)) {
 5123              		.loc 1 1973 27
 5124 006e FB68     		ldr	r3, [r7, #12]
 5125 0070 1B68     		ldr	r3, [r3]
 5126 0072 1B68     		ldr	r3, [r3]
 5127              		.loc 1 1973 53
 5128 0074 03F00103 		and	r3, r3, #1
 5129              		.loc 1 1973 7
 5130 0078 012B     		cmp	r3, #1
 5131 007a 07D0     		beq	.L252
1974:../firmware/gd32f3x0_hal_peripheral/Source/gd32f3x0_hal_i2c.c ****         HAL_I2C_ENABLE(i2c_dev->periph);
 5132              		.loc 1 1974 9
 5133 007c FB68     		ldr	r3, [r7, #12]
 5134 007e 1B68     		ldr	r3, [r3]
 5135 0080 1B68     		ldr	r3, [r3]
 5136 0082 FA68     		ldr	r2, [r7, #12]
 5137 0084 1268     		ldr	r2, [r2]
 5138 0086 43F00103 		orr	r3, r3, #1
 5139 008a 1360     		str	r3, [r2]
 5140              	.L252:
1975:../firmware/gd32f3x0_hal_peripheral/Source/gd32f3x0_hal_i2c.c ****     }
1976:../firmware/gd32f3x0_hal_peripheral/Source/gd32f3x0_hal_i2c.c ****     i2c_dev->previous_state = HAL_I2C_PREVIOUS_STATE_NONE;
 5141              		.loc 1 1976 29
 5142 008c FB68     		ldr	r3, [r7, #12]
 5143 008e 0022     		movs	r2, #0
 5144 0090 5A64     		str	r2, [r3, #68]
1977:../firmware/gd32f3x0_hal_peripheral/Source/gd32f3x0_hal_i2c.c **** 
1978:../firmware/gd32f3x0_hal_peripheral/Source/gd32f3x0_hal_i2c.c ****     /* initialize transmit parameters */
1979:../firmware/gd32f3x0_hal_peripheral/Source/gd32f3x0_hal_i2c.c ****     i2c_dev->tx_state = HAL_I2C_STATE_BUSY;
 5145              		.loc 1 1979 23
 5146 0092 FB68     		ldr	r3, [r7, #12]
 5147 0094 0122     		movs	r2, #1
 5148 0096 83F84020 		strb	r2, [r3, #64]
1980:../firmware/gd32f3x0_hal_peripheral/Source/gd32f3x0_hal_i2c.c ****     i2c_dev->error_state = HAL_I2C_ERROR_NONE;
 5149              		.loc 1 1980 26
 5150 009a FB68     		ldr	r3, [r7, #12]
 5151 009c 0022     		movs	r2, #0
 5152 009e DA63     		str	r2, [r3, #60]
1981:../firmware/gd32f3x0_hal_peripheral/Source/gd32f3x0_hal_i2c.c ****     i2c_dev->txbuffer.buffer = (uint8_t *)p_buffer;
 5153              		.loc 1 1981 30
 5154 00a0 FB68     		ldr	r3, [r7, #12]
 5155 00a2 BA68     		ldr	r2, [r7, #8]
 5156 00a4 5A61     		str	r2, [r3, #20]
1982:../firmware/gd32f3x0_hal_peripheral/Source/gd32f3x0_hal_i2c.c ****     i2c_dev->txbuffer.length = length;
 5157              		.loc 1 1982 30
 5158 00a6 FB68     		ldr	r3, [r7, #12]
 5159 00a8 7A68     		ldr	r2, [r7, #4]
 5160 00aa 9A61     		str	r2, [r3, #24]
1983:../firmware/gd32f3x0_hal_peripheral/Source/gd32f3x0_hal_i2c.c ****     i2c_dev->txbuffer.pos = 0;
 5161              		.loc 1 1983 27
 5162 00ac FB68     		ldr	r3, [r7, #12]
 5163 00ae 0022     		movs	r2, #0
 5164 00b0 DA61     		str	r2, [r3, #28]
1984:../firmware/gd32f3x0_hal_peripheral/Source/gd32f3x0_hal_i2c.c ****     i2c_dev->tx_callback = (void *)p_user_func;
 5165              		.loc 1 1984 26
 5166 00b2 FB68     		ldr	r3, [r7, #12]
 5167 00b4 3A68     		ldr	r2, [r7]
 5168 00b6 DA64     		str	r2, [r3, #76]
1985:../firmware/gd32f3x0_hal_peripheral/Source/gd32f3x0_hal_i2c.c ****     i2c_dev->i2c_irq.event_handle = _i2c_master_transmit_interrupt;
 5169              		.loc 1 1985 35
 5170 00b8 FB68     		ldr	r3, [r7, #12]
 5171 00ba 184A     		ldr	r2, .L255
 5172 00bc 5A60     		str	r2, [r3, #4]
1986:../firmware/gd32f3x0_hal_peripheral/Source/gd32f3x0_hal_i2c.c **** 
1987:../firmware/gd32f3x0_hal_peripheral/Source/gd32f3x0_hal_i2c.c ****     previous_state = i2c_dev->previous_state;
 5173              		.loc 1 1987 29
 5174 00be FB68     		ldr	r3, [r7, #12]
 5175 00c0 5B6C     		ldr	r3, [r3, #68]
 5176              		.loc 1 1987 20
 5177 00c2 7B61     		str	r3, [r7, #20]
1988:../firmware/gd32f3x0_hal_peripheral/Source/gd32f3x0_hal_i2c.c **** 
1989:../firmware/gd32f3x0_hal_peripheral/Source/gd32f3x0_hal_i2c.c ****     if((previous_state ==HAL_I2C_PREVIOUS_STATE_NONE)||(previous_state == HAL_I2C_PREVIOUS_STATE_TX
 5178              		.loc 1 1989 24
 5179 00c4 7B69     		ldr	r3, [r7, #20]
 5180              		.loc 1 1989 7
 5181 00c6 002B     		cmp	r3, #0
 5182 00c8 02D0     		beq	.L253
 5183              		.loc 1 1989 72 discriminator 1
 5184 00ca 7B69     		ldr	r3, [r7, #20]
 5185              		.loc 1 1989 54 discriminator 1
 5186 00cc 012B     		cmp	r3, #1
 5187 00ce 07D1     		bne	.L254
 5188              	.L253:
1990:../firmware/gd32f3x0_hal_peripheral/Source/gd32f3x0_hal_i2c.c ****     {
1991:../firmware/gd32f3x0_hal_peripheral/Source/gd32f3x0_hal_i2c.c ****         /* the master sends a start condition to I2C bus */
1992:../firmware/gd32f3x0_hal_peripheral/Source/gd32f3x0_hal_i2c.c ****         HAL_I2C_START_ON_BUS(i2c_dev->periph);
 5189              		.loc 1 1992 9
 5190 00d0 FB68     		ldr	r3, [r7, #12]
 5191 00d2 1B68     		ldr	r3, [r3]
 5192 00d4 1B68     		ldr	r3, [r3]
 5193 00d6 FA68     		ldr	r2, [r7, #12]
 5194 00d8 1268     		ldr	r2, [r2]
 5195 00da 43F48073 		orr	r3, r3, #256
 5196 00de 1360     		str	r3, [r2]
 5197              	.L254:
1993:../firmware/gd32f3x0_hal_peripheral/Source/gd32f3x0_hal_i2c.c ****     }
1994:../firmware/gd32f3x0_hal_peripheral/Source/gd32f3x0_hal_i2c.c ****     /* enable the I2C interrupt */
1995:../firmware/gd32f3x0_hal_peripheral/Source/gd32f3x0_hal_i2c.c ****     hals_i2c_interrupt_enable(i2c_dev->periph, I2C_INT_ERR);
 5198              		.loc 1 1995 5
 5199 00e0 FB68     		ldr	r3, [r7, #12]
 5200 00e2 1B68     		ldr	r3, [r3]
 5201 00e4 4FF48471 		mov	r1, #264
 5202 00e8 1846     		mov	r0, r3
 5203 00ea FFF7FEFF 		bl	hals_i2c_interrupt_enable
1996:../firmware/gd32f3x0_hal_peripheral/Source/gd32f3x0_hal_i2c.c ****     hals_i2c_interrupt_enable(i2c_dev->periph, I2C_INT_BUF);
 5204              		.loc 1 1996 5
 5205 00ee FB68     		ldr	r3, [r7, #12]
 5206 00f0 1B68     		ldr	r3, [r3]
 5207 00f2 4FF48571 		mov	r1, #266
 5208 00f6 1846     		mov	r0, r3
 5209 00f8 FFF7FEFF 		bl	hals_i2c_interrupt_enable
1997:../firmware/gd32f3x0_hal_peripheral/Source/gd32f3x0_hal_i2c.c ****     hals_i2c_interrupt_enable(i2c_dev->periph, I2C_INT_EV);
 5210              		.loc 1 1997 5
 5211 00fc FB68     		ldr	r3, [r7, #12]
 5212 00fe 1B68     		ldr	r3, [r3]
 5213 0100 40F20911 		movw	r1, #265
 5214 0104 1846     		mov	r0, r3
 5215 0106 FFF7FEFF 		bl	hals_i2c_interrupt_enable
1998:../firmware/gd32f3x0_hal_peripheral/Source/gd32f3x0_hal_i2c.c **** 
1999:../firmware/gd32f3x0_hal_peripheral/Source/gd32f3x0_hal_i2c.c ****     HAL_UNLOCK(i2c_dev);
 5216              		.loc 1 1999 5
 5217 010a FB68     		ldr	r3, [r7, #12]
 5218 010c 0022     		movs	r2, #0
 5219 010e 83F85020 		strb	r2, [r3, #80]
2000:../firmware/gd32f3x0_hal_peripheral/Source/gd32f3x0_hal_i2c.c ****     return HAL_ERR_NONE;
 5220              		.loc 1 2000 12
 5221 0112 0023     		movs	r3, #0
 5222              	.L248:
2001:../firmware/gd32f3x0_hal_peripheral/Source/gd32f3x0_hal_i2c.c **** }
 5223              		.loc 1 2001 1
 5224 0114 1846     		mov	r0, r3
 5225 0116 1837     		adds	r7, r7, #24
 5226              		.cfi_def_cfa_offset 8
 5227 0118 BD46     		mov	sp, r7
 5228              		.cfi_def_cfa_register 13
 5229              		@ sp needed
 5230 011a 80BD     		pop	{r7, pc}
 5231              	.L256:
 5232              		.align	2
 5233              	.L255:
 5234 011c 00000000 		.word	_i2c_master_transmit_interrupt
 5235              		.cfi_endproc
 5236              	.LFE147:
 5238              		.section	.text.hal_i2c_master_serial_receive_interrupt,"ax",%progbits
 5239              		.align	1
 5240              		.global	hal_i2c_master_serial_receive_interrupt
 5241              		.syntax unified
 5242              		.thumb
 5243              		.thumb_func
 5244              		.fpu softvfp
 5246              	hal_i2c_master_serial_receive_interrupt:
 5247              	.LFB148:
2002:../firmware/gd32f3x0_hal_peripheral/Source/gd32f3x0_hal_i2c.c **** 
2003:../firmware/gd32f3x0_hal_peripheral/Source/gd32f3x0_hal_i2c.c **** /*!
2004:../firmware/gd32f3x0_hal_peripheral/Source/gd32f3x0_hal_i2c.c ****     \brief      serial receive amounts of data in master mode by interrupt method, the function
2005:../firmware/gd32f3x0_hal_peripheral/Source/gd32f3x0_hal_i2c.c ****                 is non-blocking
2006:../firmware/gd32f3x0_hal_peripheral/Source/gd32f3x0_hal_i2c.c ****     \param[in]  i2c_dev: I2C device information structrue
2007:../firmware/gd32f3x0_hal_peripheral/Source/gd32f3x0_hal_i2c.c ****                   the structure is not necessary to be reconfigured after structrue initialization,
2008:../firmware/gd32f3x0_hal_peripheral/Source/gd32f3x0_hal_i2c.c ****                   the structure parameters altering is automatically configured by core
2009:../firmware/gd32f3x0_hal_peripheral/Source/gd32f3x0_hal_i2c.c ****     \param[in]  p_buffer: pointer to rxbuffer
2010:../firmware/gd32f3x0_hal_peripheral/Source/gd32f3x0_hal_i2c.c ****     \param[in]  length: length of data to be receive
2011:../firmware/gd32f3x0_hal_peripheral/Source/gd32f3x0_hal_i2c.c ****     \param[in]  p_user_func: call back function for user
2012:../firmware/gd32f3x0_hal_peripheral/Source/gd32f3x0_hal_i2c.c ****     \param[out] none
2013:../firmware/gd32f3x0_hal_peripheral/Source/gd32f3x0_hal_i2c.c ****     \retval     error code: HAL_ERR_NONE, HAL_ERR_ADDRESS, HAL_ERR_TIMEOUT, HAL_ERR_BUSY,
2014:../firmware/gd32f3x0_hal_peripheral/Source/gd32f3x0_hal_i2c.c ****                 details refer to gd32f3x0_hal.h
2015:../firmware/gd32f3x0_hal_peripheral/Source/gd32f3x0_hal_i2c.c **** */
2016:../firmware/gd32f3x0_hal_peripheral/Source/gd32f3x0_hal_i2c.c **** int32_t hal_i2c_master_serial_receive_interrupt(hal_i2c_dev_struct *i2c_dev, uint8_t *p_buffer, \
2017:../firmware/gd32f3x0_hal_peripheral/Source/gd32f3x0_hal_i2c.c ****         uint32_t length, hal_i2c_user_cb p_user_func)
2018:../firmware/gd32f3x0_hal_peripheral/Source/gd32f3x0_hal_i2c.c **** {
 5248              		.loc 1 2018 1
 5249              		.cfi_startproc
 5250              		@ args = 0, pretend = 0, frame = 24
 5251              		@ frame_needed = 1, uses_anonymous_args = 0
 5252 0000 80B5     		push	{r7, lr}
 5253              		.cfi_def_cfa_offset 8
 5254              		.cfi_offset 7, -8
 5255              		.cfi_offset 14, -4
 5256 0002 86B0     		sub	sp, sp, #24
 5257              		.cfi_def_cfa_offset 32
 5258 0004 00AF     		add	r7, sp, #0
 5259              		.cfi_def_cfa_register 7
 5260 0006 F860     		str	r0, [r7, #12]
 5261 0008 B960     		str	r1, [r7, #8]
 5262 000a 7A60     		str	r2, [r7, #4]
 5263 000c 3B60     		str	r3, [r7]
2019:../firmware/gd32f3x0_hal_peripheral/Source/gd32f3x0_hal_i2c.c ****     __IO uint32_t previous_state = 0x00U;
 5264              		.loc 1 2019 19
 5265 000e 0023     		movs	r3, #0
 5266 0010 7B61     		str	r3, [r7, #20]
2020:../firmware/gd32f3x0_hal_peripheral/Source/gd32f3x0_hal_i2c.c **** 
2021:../firmware/gd32f3x0_hal_peripheral/Source/gd32f3x0_hal_i2c.c **** #if (1 == HAL_PARAMETER_CHECK)
2022:../firmware/gd32f3x0_hal_peripheral/Source/gd32f3x0_hal_i2c.c ****     /* check the parameters */
2023:../firmware/gd32f3x0_hal_peripheral/Source/gd32f3x0_hal_i2c.c ****     if((NULL == i2c_dev) || (NULL == p_buffer) || (0U == length)) {
2024:../firmware/gd32f3x0_hal_peripheral/Source/gd32f3x0_hal_i2c.c ****         HAL_DEBUGE("parameter [i2c_dev] or [p_buffer] or [length] value is invalid");
2025:../firmware/gd32f3x0_hal_peripheral/Source/gd32f3x0_hal_i2c.c ****         return HAL_ERR_ADDRESS;
2026:../firmware/gd32f3x0_hal_peripheral/Source/gd32f3x0_hal_i2c.c ****     }
2027:../firmware/gd32f3x0_hal_peripheral/Source/gd32f3x0_hal_i2c.c **** 
2028:../firmware/gd32f3x0_hal_peripheral/Source/gd32f3x0_hal_i2c.c **** #endif /* 1 == HAL_PARAMETER_CHECK */
2029:../firmware/gd32f3x0_hal_peripheral/Source/gd32f3x0_hal_i2c.c **** 
2030:../firmware/gd32f3x0_hal_peripheral/Source/gd32f3x0_hal_i2c.c ****     HAL_LOCK(i2c_dev);
 5267              		.loc 1 2030 5
 5268 0012 FB68     		ldr	r3, [r7, #12]
 5269 0014 93F85030 		ldrb	r3, [r3, #80]	@ zero_extendqisi2
 5270 0018 012B     		cmp	r3, #1
 5271 001a 02D1     		bne	.L258
 5272              		.loc 1 2030 5 is_stmt 0 discriminator 1
 5273 001c 6FF00103 		mvn	r3, #1
 5274 0020 7EE0     		b	.L259
 5275              	.L258:
 5276              		.loc 1 2030 5 discriminator 2
 5277 0022 FB68     		ldr	r3, [r7, #12]
 5278 0024 0122     		movs	r2, #1
 5279 0026 83F85020 		strb	r2, [r3, #80]
2031:../firmware/gd32f3x0_hal_peripheral/Source/gd32f3x0_hal_i2c.c ****     /* check the rx_state whether it is busy or not */
2032:../firmware/gd32f3x0_hal_peripheral/Source/gd32f3x0_hal_i2c.c ****     if(HAL_I2C_STATE_BUSY == i2c_dev->rx_state) {
 5280              		.loc 1 2032 37 is_stmt 1 discriminator 2
 5281 002a FB68     		ldr	r3, [r7, #12]
 5282 002c 93F84130 		ldrb	r3, [r3, #65]
 5283 0030 DBB2     		uxtb	r3, r3
 5284              		.loc 1 2032 7 discriminator 2
 5285 0032 012B     		cmp	r3, #1
 5286 0034 02D1     		bne	.L260
2033:../firmware/gd32f3x0_hal_peripheral/Source/gd32f3x0_hal_i2c.c ****         HAL_DEBUGE("i2c rx has already been used, please wait until run_state change to free ");
2034:../firmware/gd32f3x0_hal_peripheral/Source/gd32f3x0_hal_i2c.c ****         return HAL_ERR_BUSY;
 5287              		.loc 1 2034 16
 5288 0036 6FF00203 		mvn	r3, #2
 5289 003a 71E0     		b	.L259
 5290              	.L260:
2035:../firmware/gd32f3x0_hal_peripheral/Source/gd32f3x0_hal_i2c.c ****     }
2036:../firmware/gd32f3x0_hal_peripheral/Source/gd32f3x0_hal_i2c.c ****     if(I2C_FIRST_TRANSFER == i2c_dev->transfer_option) {
 5291              		.loc 1 2036 37
 5292 003c FB68     		ldr	r3, [r7, #12]
 5293 003e 1B8F     		ldrh	r3, [r3, #56]	@ movhi
 5294 0040 9BB2     		uxth	r3, r3
 5295              		.loc 1 2036 7
 5296 0042 022B     		cmp	r3, #2
 5297 0044 0ED1     		bne	.L261
2037:../firmware/gd32f3x0_hal_peripheral/Source/gd32f3x0_hal_i2c.c ****         /* wait until I2C bus is idle */
2038:../firmware/gd32f3x0_hal_peripheral/Source/gd32f3x0_hal_i2c.c ****         if(HAL_ERR_NONE != _i2c_wait_flag_timeout(i2c_dev->periph, I2C_FLAG_I2CBSY, RESET, I2C_BUSY
 5298              		.loc 1 2038 28
 5299 0046 FB68     		ldr	r3, [r7, #12]
 5300 0048 1868     		ldr	r0, [r3]
 5301 004a 42F21073 		movw	r3, #10000
 5302 004e 0022     		movs	r2, #0
 5303 0050 40F20161 		movw	r1, #1537
 5304 0054 FFF7FEFF 		bl	_i2c_wait_flag_timeout
 5305 0058 0346     		mov	r3, r0
 5306              		.loc 1 2038 11
 5307 005a 002B     		cmp	r3, #0
 5308 005c 02D0     		beq	.L261
2039:../firmware/gd32f3x0_hal_peripheral/Source/gd32f3x0_hal_i2c.c ****             HAL_DEBUGW("i2c busy timeout");
2040:../firmware/gd32f3x0_hal_peripheral/Source/gd32f3x0_hal_i2c.c ****             return HAL_ERR_TIMEOUT;
 5309              		.loc 1 2040 20
 5310 005e 6FF00403 		mvn	r3, #4
 5311 0062 5DE0     		b	.L259
 5312              	.L261:
2041:../firmware/gd32f3x0_hal_peripheral/Source/gd32f3x0_hal_i2c.c ****         }
2042:../firmware/gd32f3x0_hal_peripheral/Source/gd32f3x0_hal_i2c.c ****     }
2043:../firmware/gd32f3x0_hal_peripheral/Source/gd32f3x0_hal_i2c.c ****     /* check if I2C is already enabled */
2044:../firmware/gd32f3x0_hal_peripheral/Source/gd32f3x0_hal_i2c.c ****     if(I2C_CTL0_I2CEN != (I2C_CTL0(i2c_dev->periph) & I2C_CTL0_I2CEN)) {
 5313              		.loc 1 2044 27
 5314 0064 FB68     		ldr	r3, [r7, #12]
 5315 0066 1B68     		ldr	r3, [r3]
 5316 0068 1B68     		ldr	r3, [r3]
 5317              		.loc 1 2044 53
 5318 006a 03F00103 		and	r3, r3, #1
 5319              		.loc 1 2044 7
 5320 006e 012B     		cmp	r3, #1
 5321 0070 07D0     		beq	.L262
2045:../firmware/gd32f3x0_hal_peripheral/Source/gd32f3x0_hal_i2c.c ****         HAL_I2C_ENABLE(i2c_dev->periph);
 5322              		.loc 1 2045 9
 5323 0072 FB68     		ldr	r3, [r7, #12]
 5324 0074 1B68     		ldr	r3, [r3]
 5325 0076 1B68     		ldr	r3, [r3]
 5326 0078 FA68     		ldr	r2, [r7, #12]
 5327 007a 1268     		ldr	r2, [r2]
 5328 007c 43F00103 		orr	r3, r3, #1
 5329 0080 1360     		str	r3, [r2]
 5330              	.L262:
2046:../firmware/gd32f3x0_hal_peripheral/Source/gd32f3x0_hal_i2c.c ****     }
2047:../firmware/gd32f3x0_hal_peripheral/Source/gd32f3x0_hal_i2c.c ****     i2c_dev->previous_state = HAL_I2C_PREVIOUS_STATE_NONE;
 5331              		.loc 1 2047 29
 5332 0082 FB68     		ldr	r3, [r7, #12]
 5333 0084 0022     		movs	r2, #0
 5334 0086 5A64     		str	r2, [r3, #68]
2048:../firmware/gd32f3x0_hal_peripheral/Source/gd32f3x0_hal_i2c.c **** 
2049:../firmware/gd32f3x0_hal_peripheral/Source/gd32f3x0_hal_i2c.c ****     /* initialize receive parameters */
2050:../firmware/gd32f3x0_hal_peripheral/Source/gd32f3x0_hal_i2c.c ****     i2c_dev->rx_state = HAL_I2C_STATE_BUSY;
 5335              		.loc 1 2050 23
 5336 0088 FB68     		ldr	r3, [r7, #12]
 5337 008a 0122     		movs	r2, #1
 5338 008c 83F84120 		strb	r2, [r3, #65]
2051:../firmware/gd32f3x0_hal_peripheral/Source/gd32f3x0_hal_i2c.c ****     i2c_dev->last_error = HAL_I2C_ERROR_NONE;
 5339              		.loc 1 2051 25
 5340 0090 FB68     		ldr	r3, [r7, #12]
 5341 0092 0022     		movs	r2, #0
 5342 0094 5A87     		strh	r2, [r3, #58]	@ movhi
2052:../firmware/gd32f3x0_hal_peripheral/Source/gd32f3x0_hal_i2c.c ****     i2c_dev->rxbuffer.buffer = (uint8_t *)p_buffer;
 5343              		.loc 1 2052 30
 5344 0096 FB68     		ldr	r3, [r7, #12]
 5345 0098 BA68     		ldr	r2, [r7, #8]
 5346 009a 1A62     		str	r2, [r3, #32]
2053:../firmware/gd32f3x0_hal_peripheral/Source/gd32f3x0_hal_i2c.c ****     i2c_dev->rxbuffer.length = length;
 5347              		.loc 1 2053 30
 5348 009c FB68     		ldr	r3, [r7, #12]
 5349 009e 7A68     		ldr	r2, [r7, #4]
 5350 00a0 5A62     		str	r2, [r3, #36]
2054:../firmware/gd32f3x0_hal_peripheral/Source/gd32f3x0_hal_i2c.c ****     i2c_dev->rxbuffer.pos = 0;
 5351              		.loc 1 2054 27
 5352 00a2 FB68     		ldr	r3, [r7, #12]
 5353 00a4 0022     		movs	r2, #0
 5354 00a6 9A62     		str	r2, [r3, #40]
2055:../firmware/gd32f3x0_hal_peripheral/Source/gd32f3x0_hal_i2c.c ****     i2c_dev->rx_callback = (void *)p_user_func;
 5355              		.loc 1 2055 26
 5356 00a8 FB68     		ldr	r3, [r7, #12]
 5357 00aa 3A68     		ldr	r2, [r7]
 5358 00ac 9A64     		str	r2, [r3, #72]
2056:../firmware/gd32f3x0_hal_peripheral/Source/gd32f3x0_hal_i2c.c ****     i2c_dev->i2c_irq.event_handle = _i2c_master_receive_interrupt;
 5359              		.loc 1 2056 35
 5360 00ae FB68     		ldr	r3, [r7, #12]
 5361 00b0 1D4A     		ldr	r2, .L266
 5362 00b2 5A60     		str	r2, [r3, #4]
2057:../firmware/gd32f3x0_hal_peripheral/Source/gd32f3x0_hal_i2c.c **** 
2058:../firmware/gd32f3x0_hal_peripheral/Source/gd32f3x0_hal_i2c.c ****     previous_state = i2c_dev->previous_state;
 5363              		.loc 1 2058 29
 5364 00b4 FB68     		ldr	r3, [r7, #12]
 5365 00b6 5B6C     		ldr	r3, [r3, #68]
 5366              		.loc 1 2058 20
 5367 00b8 7B61     		str	r3, [r7, #20]
2059:../firmware/gd32f3x0_hal_peripheral/Source/gd32f3x0_hal_i2c.c ****     if(2 == i2c_dev->rxbuffer.length) {
 5368              		.loc 1 2059 30
 5369 00ba FB68     		ldr	r3, [r7, #12]
 5370 00bc 5B6A     		ldr	r3, [r3, #36]
 5371              		.loc 1 2059 7
 5372 00be 022B     		cmp	r3, #2
 5373 00c0 06D1     		bne	.L263
2060:../firmware/gd32f3x0_hal_peripheral/Source/gd32f3x0_hal_i2c.c ****         /* send a NACK for the next data byte which will be received into the shift register */
2061:../firmware/gd32f3x0_hal_peripheral/Source/gd32f3x0_hal_i2c.c ****         hals_i2c_ackpos_config(i2c_dev->periph, I2C_ACKPOS_NEXT);
 5374              		.loc 1 2061 9
 5375 00c2 FB68     		ldr	r3, [r7, #12]
 5376 00c4 1B68     		ldr	r3, [r3]
 5377 00c6 4FF40061 		mov	r1, #2048
 5378 00ca 1846     		mov	r0, r3
 5379 00cc FFF7FEFF 		bl	hals_i2c_ackpos_config
 5380              	.L263:
2062:../firmware/gd32f3x0_hal_peripheral/Source/gd32f3x0_hal_i2c.c ****     }
2063:../firmware/gd32f3x0_hal_peripheral/Source/gd32f3x0_hal_i2c.c **** 
2064:../firmware/gd32f3x0_hal_peripheral/Source/gd32f3x0_hal_i2c.c ****     if((previous_state ==HAL_I2C_PREVIOUS_STATE_NONE)||(previous_state == HAL_I2C_PREVIOUS_STATE_TX
 5381              		.loc 1 2064 24
 5382 00d0 7B69     		ldr	r3, [r7, #20]
 5383              		.loc 1 2064 7
 5384 00d2 002B     		cmp	r3, #0
 5385 00d4 02D0     		beq	.L264
 5386              		.loc 1 2064 72 discriminator 1
 5387 00d6 7B69     		ldr	r3, [r7, #20]
 5388              		.loc 1 2064 54 discriminator 1
 5389 00d8 012B     		cmp	r3, #1
 5390 00da 07D1     		bne	.L265
 5391              	.L264:
2065:../firmware/gd32f3x0_hal_peripheral/Source/gd32f3x0_hal_i2c.c ****     {
2066:../firmware/gd32f3x0_hal_peripheral/Source/gd32f3x0_hal_i2c.c ****         /* the master sends a start condition to I2C bus */
2067:../firmware/gd32f3x0_hal_peripheral/Source/gd32f3x0_hal_i2c.c ****         HAL_I2C_START_ON_BUS(i2c_dev->periph);
 5392              		.loc 1 2067 9
 5393 00dc FB68     		ldr	r3, [r7, #12]
 5394 00de 1B68     		ldr	r3, [r3]
 5395 00e0 1B68     		ldr	r3, [r3]
 5396 00e2 FA68     		ldr	r2, [r7, #12]
 5397 00e4 1268     		ldr	r2, [r2]
 5398 00e6 43F48073 		orr	r3, r3, #256
 5399 00ea 1360     		str	r3, [r2]
 5400              	.L265:
2068:../firmware/gd32f3x0_hal_peripheral/Source/gd32f3x0_hal_i2c.c ****     }
2069:../firmware/gd32f3x0_hal_peripheral/Source/gd32f3x0_hal_i2c.c **** 
2070:../firmware/gd32f3x0_hal_peripheral/Source/gd32f3x0_hal_i2c.c ****     /* enable the I2C interrupt */
2071:../firmware/gd32f3x0_hal_peripheral/Source/gd32f3x0_hal_i2c.c ****     hals_i2c_interrupt_enable(i2c_dev->periph, I2C_INT_ERR);
 5401              		.loc 1 2071 5
 5402 00ec FB68     		ldr	r3, [r7, #12]
 5403 00ee 1B68     		ldr	r3, [r3]
 5404 00f0 4FF48471 		mov	r1, #264
 5405 00f4 1846     		mov	r0, r3
 5406 00f6 FFF7FEFF 		bl	hals_i2c_interrupt_enable
2072:../firmware/gd32f3x0_hal_peripheral/Source/gd32f3x0_hal_i2c.c ****     hals_i2c_interrupt_enable(i2c_dev->periph, I2C_INT_EV);
 5407              		.loc 1 2072 5
 5408 00fa FB68     		ldr	r3, [r7, #12]
 5409 00fc 1B68     		ldr	r3, [r3]
 5410 00fe 40F20911 		movw	r1, #265
 5411 0102 1846     		mov	r0, r3
 5412 0104 FFF7FEFF 		bl	hals_i2c_interrupt_enable
2073:../firmware/gd32f3x0_hal_peripheral/Source/gd32f3x0_hal_i2c.c ****     hals_i2c_interrupt_enable(i2c_dev->periph, I2C_INT_BUF);
 5413              		.loc 1 2073 5
 5414 0108 FB68     		ldr	r3, [r7, #12]
 5415 010a 1B68     		ldr	r3, [r3]
 5416 010c 4FF48571 		mov	r1, #266
 5417 0110 1846     		mov	r0, r3
 5418 0112 FFF7FEFF 		bl	hals_i2c_interrupt_enable
2074:../firmware/gd32f3x0_hal_peripheral/Source/gd32f3x0_hal_i2c.c **** 
2075:../firmware/gd32f3x0_hal_peripheral/Source/gd32f3x0_hal_i2c.c ****     HAL_UNLOCK(i2c_dev);
 5419              		.loc 1 2075 5
 5420 0116 FB68     		ldr	r3, [r7, #12]
 5421 0118 0022     		movs	r2, #0
 5422 011a 83F85020 		strb	r2, [r3, #80]
2076:../firmware/gd32f3x0_hal_peripheral/Source/gd32f3x0_hal_i2c.c ****     return HAL_ERR_NONE;
 5423              		.loc 1 2076 12
 5424 011e 0023     		movs	r3, #0
 5425              	.L259:
2077:../firmware/gd32f3x0_hal_peripheral/Source/gd32f3x0_hal_i2c.c **** }
 5426              		.loc 1 2077 1
 5427 0120 1846     		mov	r0, r3
 5428 0122 1837     		adds	r7, r7, #24
 5429              		.cfi_def_cfa_offset 8
 5430 0124 BD46     		mov	sp, r7
 5431              		.cfi_def_cfa_register 13
 5432              		@ sp needed
 5433 0126 80BD     		pop	{r7, pc}
 5434              	.L267:
 5435              		.align	2
 5436              	.L266:
 5437 0128 00000000 		.word	_i2c_master_receive_interrupt
 5438              		.cfi_endproc
 5439              	.LFE148:
 5441              		.section	.text.hal_i2c_slave_serial_transmit_interrupt,"ax",%progbits
 5442              		.align	1
 5443              		.global	hal_i2c_slave_serial_transmit_interrupt
 5444              		.syntax unified
 5445              		.thumb
 5446              		.thumb_func
 5447              		.fpu softvfp
 5449              	hal_i2c_slave_serial_transmit_interrupt:
 5450              	.LFB149:
2078:../firmware/gd32f3x0_hal_peripheral/Source/gd32f3x0_hal_i2c.c **** 
2079:../firmware/gd32f3x0_hal_peripheral/Source/gd32f3x0_hal_i2c.c **** /*!
2080:../firmware/gd32f3x0_hal_peripheral/Source/gd32f3x0_hal_i2c.c ****     \brief      serial transmit amounts of data in slave mode by interrupt method, the function is
2081:../firmware/gd32f3x0_hal_peripheral/Source/gd32f3x0_hal_i2c.c ****                 non-blocking
2082:../firmware/gd32f3x0_hal_peripheral/Source/gd32f3x0_hal_i2c.c ****     \param[in]  i2c_dev: I2C device information structrue
2083:../firmware/gd32f3x0_hal_peripheral/Source/gd32f3x0_hal_i2c.c ****                   the structure is not necessary to be reconfigured after structrue initialization,
2084:../firmware/gd32f3x0_hal_peripheral/Source/gd32f3x0_hal_i2c.c ****                   the structure parameters altering is automatically configured by core
2085:../firmware/gd32f3x0_hal_peripheral/Source/gd32f3x0_hal_i2c.c ****     \param[in]  p_buffer: pointer to txbuffer
2086:../firmware/gd32f3x0_hal_peripheral/Source/gd32f3x0_hal_i2c.c ****     \param[in]  length: length of data to be sent
2087:../firmware/gd32f3x0_hal_peripheral/Source/gd32f3x0_hal_i2c.c ****     \param[in]  p_user_func: call back function for user
2088:../firmware/gd32f3x0_hal_peripheral/Source/gd32f3x0_hal_i2c.c ****     \param[out] none
2089:../firmware/gd32f3x0_hal_peripheral/Source/gd32f3x0_hal_i2c.c ****     \retval     error code: HAL_ERR_NONE, HAL_ERR_ADDRESS, HAL_ERR_BUSY, details refer to gd32f3x0_
2090:../firmware/gd32f3x0_hal_peripheral/Source/gd32f3x0_hal_i2c.c **** */
2091:../firmware/gd32f3x0_hal_peripheral/Source/gd32f3x0_hal_i2c.c **** int32_t hal_i2c_slave_serial_transmit_interrupt(hal_i2c_dev_struct *i2c_dev, uint8_t *p_buffer, \
2092:../firmware/gd32f3x0_hal_peripheral/Source/gd32f3x0_hal_i2c.c ****         uint32_t length, hal_i2c_user_cb p_user_func)
2093:../firmware/gd32f3x0_hal_peripheral/Source/gd32f3x0_hal_i2c.c **** {
 5451              		.loc 1 2093 1
 5452              		.cfi_startproc
 5453              		@ args = 0, pretend = 0, frame = 16
 5454              		@ frame_needed = 1, uses_anonymous_args = 0
 5455 0000 80B5     		push	{r7, lr}
 5456              		.cfi_def_cfa_offset 8
 5457              		.cfi_offset 7, -8
 5458              		.cfi_offset 14, -4
 5459 0002 84B0     		sub	sp, sp, #16
 5460              		.cfi_def_cfa_offset 24
 5461 0004 00AF     		add	r7, sp, #0
 5462              		.cfi_def_cfa_register 7
 5463 0006 F860     		str	r0, [r7, #12]
 5464 0008 B960     		str	r1, [r7, #8]
 5465 000a 7A60     		str	r2, [r7, #4]
 5466 000c 3B60     		str	r3, [r7]
2094:../firmware/gd32f3x0_hal_peripheral/Source/gd32f3x0_hal_i2c.c **** #if (1 == HAL_PARAMETER_CHECK)
2095:../firmware/gd32f3x0_hal_peripheral/Source/gd32f3x0_hal_i2c.c ****     /* check the parameters */
2096:../firmware/gd32f3x0_hal_peripheral/Source/gd32f3x0_hal_i2c.c ****     if((NULL == i2c_dev) || (NULL == p_buffer) || (0U == length)) {
2097:../firmware/gd32f3x0_hal_peripheral/Source/gd32f3x0_hal_i2c.c ****         HAL_DEBUGE("parameter [i2c_dev] or [p_buffer] or [length] value is invalid");
2098:../firmware/gd32f3x0_hal_peripheral/Source/gd32f3x0_hal_i2c.c ****         return HAL_ERR_ADDRESS;
2099:../firmware/gd32f3x0_hal_peripheral/Source/gd32f3x0_hal_i2c.c ****     }
2100:../firmware/gd32f3x0_hal_peripheral/Source/gd32f3x0_hal_i2c.c **** 
2101:../firmware/gd32f3x0_hal_peripheral/Source/gd32f3x0_hal_i2c.c **** #endif /* 1 == HAL_PARAMETER_CHECK */
2102:../firmware/gd32f3x0_hal_peripheral/Source/gd32f3x0_hal_i2c.c **** 
2103:../firmware/gd32f3x0_hal_peripheral/Source/gd32f3x0_hal_i2c.c ****     HAL_LOCK(i2c_dev);
 5467              		.loc 1 2103 5
 5468 000e FB68     		ldr	r3, [r7, #12]
 5469 0010 93F85030 		ldrb	r3, [r3, #80]	@ zero_extendqisi2
 5470 0014 012B     		cmp	r3, #1
 5471 0016 02D1     		bne	.L269
 5472              		.loc 1 2103 5 is_stmt 0 discriminator 1
 5473 0018 6FF00103 		mvn	r3, #1
 5474 001c 4BE0     		b	.L270
 5475              	.L269:
 5476              		.loc 1 2103 5 discriminator 2
 5477 001e FB68     		ldr	r3, [r7, #12]
 5478 0020 0122     		movs	r2, #1
 5479 0022 83F85020 		strb	r2, [r3, #80]
2104:../firmware/gd32f3x0_hal_peripheral/Source/gd32f3x0_hal_i2c.c ****     /* check the tx_state whether it is in address listen mode */
2105:../firmware/gd32f3x0_hal_peripheral/Source/gd32f3x0_hal_i2c.c ****     if(HAL_I2C_STATE_LISTEN != i2c_dev->tx_state) {
 5480              		.loc 1 2105 39 is_stmt 1 discriminator 2
 5481 0026 FB68     		ldr	r3, [r7, #12]
 5482 0028 93F84030 		ldrb	r3, [r3, #64]
 5483 002c DBB2     		uxtb	r3, r3
 5484              		.loc 1 2105 7 discriminator 2
 5485 002e 042B     		cmp	r3, #4
 5486 0030 02D0     		beq	.L271
2106:../firmware/gd32f3x0_hal_peripheral/Source/gd32f3x0_hal_i2c.c ****         HAL_DEBUGE("i2c tx has already been used, please wait until run_state change to free ");
2107:../firmware/gd32f3x0_hal_peripheral/Source/gd32f3x0_hal_i2c.c ****         return HAL_ERR_BUSY;
 5487              		.loc 1 2107 16
 5488 0032 6FF00203 		mvn	r3, #2
 5489 0036 3EE0     		b	.L270
 5490              	.L271:
2108:../firmware/gd32f3x0_hal_peripheral/Source/gd32f3x0_hal_i2c.c ****     }
2109:../firmware/gd32f3x0_hal_peripheral/Source/gd32f3x0_hal_i2c.c ****     /* check if I2C is already enabled */
2110:../firmware/gd32f3x0_hal_peripheral/Source/gd32f3x0_hal_i2c.c ****     if(I2C_CTL0_I2CEN != (I2C_CTL0(i2c_dev->periph) & I2C_CTL0_I2CEN)) {
 5491              		.loc 1 2110 27
 5492 0038 FB68     		ldr	r3, [r7, #12]
 5493 003a 1B68     		ldr	r3, [r3]
 5494 003c 1B68     		ldr	r3, [r3]
 5495              		.loc 1 2110 53
 5496 003e 03F00103 		and	r3, r3, #1
 5497              		.loc 1 2110 7
 5498 0042 012B     		cmp	r3, #1
 5499 0044 07D0     		beq	.L272
2111:../firmware/gd32f3x0_hal_peripheral/Source/gd32f3x0_hal_i2c.c ****         HAL_I2C_ENABLE(i2c_dev->periph);
 5500              		.loc 1 2111 9
 5501 0046 FB68     		ldr	r3, [r7, #12]
 5502 0048 1B68     		ldr	r3, [r3]
 5503 004a 1B68     		ldr	r3, [r3]
 5504 004c FA68     		ldr	r2, [r7, #12]
 5505 004e 1268     		ldr	r2, [r2]
 5506 0050 43F00103 		orr	r3, r3, #1
 5507 0054 1360     		str	r3, [r2]
 5508              	.L272:
2112:../firmware/gd32f3x0_hal_peripheral/Source/gd32f3x0_hal_i2c.c ****     }
2113:../firmware/gd32f3x0_hal_peripheral/Source/gd32f3x0_hal_i2c.c ****     /* initialize transmit parameters */
2114:../firmware/gd32f3x0_hal_peripheral/Source/gd32f3x0_hal_i2c.c ****     i2c_dev->tx_state = HAL_I2C_STATE_BUSY_LISTEN;
 5509              		.loc 1 2114 23
 5510 0056 FB68     		ldr	r3, [r7, #12]
 5511 0058 0522     		movs	r2, #5
 5512 005a 83F84020 		strb	r2, [r3, #64]
2115:../firmware/gd32f3x0_hal_peripheral/Source/gd32f3x0_hal_i2c.c ****     i2c_dev->error_state = HAL_I2C_ERROR_NONE;
 5513              		.loc 1 2115 26
 5514 005e FB68     		ldr	r3, [r7, #12]
 5515 0060 0022     		movs	r2, #0
 5516 0062 DA63     		str	r2, [r3, #60]
2116:../firmware/gd32f3x0_hal_peripheral/Source/gd32f3x0_hal_i2c.c ****     i2c_dev->txbuffer.buffer = (uint8_t *)p_buffer;
 5517              		.loc 1 2116 30
 5518 0064 FB68     		ldr	r3, [r7, #12]
 5519 0066 BA68     		ldr	r2, [r7, #8]
 5520 0068 5A61     		str	r2, [r3, #20]
2117:../firmware/gd32f3x0_hal_peripheral/Source/gd32f3x0_hal_i2c.c ****     i2c_dev->txbuffer.length = length;
 5521              		.loc 1 2117 30
 5522 006a FB68     		ldr	r3, [r7, #12]
 5523 006c 7A68     		ldr	r2, [r7, #4]
 5524 006e 9A61     		str	r2, [r3, #24]
2118:../firmware/gd32f3x0_hal_peripheral/Source/gd32f3x0_hal_i2c.c ****     i2c_dev->txbuffer.pos = 0;
 5525              		.loc 1 2118 27
 5526 0070 FB68     		ldr	r3, [r7, #12]
 5527 0072 0022     		movs	r2, #0
 5528 0074 DA61     		str	r2, [r3, #28]
2119:../firmware/gd32f3x0_hal_peripheral/Source/gd32f3x0_hal_i2c.c ****     i2c_dev->tx_callback = (void *)p_user_func;
 5529              		.loc 1 2119 26
 5530 0076 FB68     		ldr	r3, [r7, #12]
 5531 0078 3A68     		ldr	r2, [r7]
 5532 007a DA64     		str	r2, [r3, #76]
2120:../firmware/gd32f3x0_hal_peripheral/Source/gd32f3x0_hal_i2c.c ****     i2c_dev->i2c_irq.event_handle = _i2c_slave_transmit_interrupt;
 5533              		.loc 1 2120 35
 5534 007c FB68     		ldr	r3, [r7, #12]
 5535 007e 104A     		ldr	r2, .L273
 5536 0080 5A60     		str	r2, [r3, #4]
2121:../firmware/gd32f3x0_hal_peripheral/Source/gd32f3x0_hal_i2c.c **** 
2122:../firmware/gd32f3x0_hal_peripheral/Source/gd32f3x0_hal_i2c.c ****     /* enable I2C interrupt */
2123:../firmware/gd32f3x0_hal_peripheral/Source/gd32f3x0_hal_i2c.c ****     hals_i2c_interrupt_enable(i2c_dev->periph, I2C_INT_ERR);
 5537              		.loc 1 2123 5
 5538 0082 FB68     		ldr	r3, [r7, #12]
 5539 0084 1B68     		ldr	r3, [r3]
 5540 0086 4FF48471 		mov	r1, #264
 5541 008a 1846     		mov	r0, r3
 5542 008c FFF7FEFF 		bl	hals_i2c_interrupt_enable
2124:../firmware/gd32f3x0_hal_peripheral/Source/gd32f3x0_hal_i2c.c ****     hals_i2c_interrupt_enable(i2c_dev->periph, I2C_INT_BUF);
 5543              		.loc 1 2124 5
 5544 0090 FB68     		ldr	r3, [r7, #12]
 5545 0092 1B68     		ldr	r3, [r3]
 5546 0094 4FF48571 		mov	r1, #266
 5547 0098 1846     		mov	r0, r3
 5548 009a FFF7FEFF 		bl	hals_i2c_interrupt_enable
2125:../firmware/gd32f3x0_hal_peripheral/Source/gd32f3x0_hal_i2c.c ****     hals_i2c_interrupt_enable(i2c_dev->periph, I2C_INT_EV);
 5549              		.loc 1 2125 5
 5550 009e FB68     		ldr	r3, [r7, #12]
 5551 00a0 1B68     		ldr	r3, [r3]
 5552 00a2 40F20911 		movw	r1, #265
 5553 00a6 1846     		mov	r0, r3
 5554 00a8 FFF7FEFF 		bl	hals_i2c_interrupt_enable
2126:../firmware/gd32f3x0_hal_peripheral/Source/gd32f3x0_hal_i2c.c **** 
2127:../firmware/gd32f3x0_hal_peripheral/Source/gd32f3x0_hal_i2c.c ****     HAL_UNLOCK(i2c_dev);
 5555              		.loc 1 2127 5
 5556 00ac FB68     		ldr	r3, [r7, #12]
 5557 00ae 0022     		movs	r2, #0
 5558 00b0 83F85020 		strb	r2, [r3, #80]
2128:../firmware/gd32f3x0_hal_peripheral/Source/gd32f3x0_hal_i2c.c ****     return HAL_ERR_NONE;
 5559              		.loc 1 2128 12
 5560 00b4 0023     		movs	r3, #0
 5561              	.L270:
2129:../firmware/gd32f3x0_hal_peripheral/Source/gd32f3x0_hal_i2c.c **** }
 5562              		.loc 1 2129 1
 5563 00b6 1846     		mov	r0, r3
 5564 00b8 1037     		adds	r7, r7, #16
 5565              		.cfi_def_cfa_offset 8
 5566 00ba BD46     		mov	sp, r7
 5567              		.cfi_def_cfa_register 13
 5568              		@ sp needed
 5569 00bc 80BD     		pop	{r7, pc}
 5570              	.L274:
 5571 00be 00BF     		.align	2
 5572              	.L273:
 5573 00c0 00000000 		.word	_i2c_slave_transmit_interrupt
 5574              		.cfi_endproc
 5575              	.LFE149:
 5577              		.section	.text.hal_i2c_slave_serial_receive_interrupt,"ax",%progbits
 5578              		.align	1
 5579              		.global	hal_i2c_slave_serial_receive_interrupt
 5580              		.syntax unified
 5581              		.thumb
 5582              		.thumb_func
 5583              		.fpu softvfp
 5585              	hal_i2c_slave_serial_receive_interrupt:
 5586              	.LFB150:
2130:../firmware/gd32f3x0_hal_peripheral/Source/gd32f3x0_hal_i2c.c **** 
2131:../firmware/gd32f3x0_hal_peripheral/Source/gd32f3x0_hal_i2c.c **** /*!
2132:../firmware/gd32f3x0_hal_peripheral/Source/gd32f3x0_hal_i2c.c ****     \brief      serial receive amounts of data in slave mode by interrupt method, the function
2133:../firmware/gd32f3x0_hal_peripheral/Source/gd32f3x0_hal_i2c.c ****                 is non-blocking
2134:../firmware/gd32f3x0_hal_peripheral/Source/gd32f3x0_hal_i2c.c ****     \param[in]  i2c_dev: I2C device information structrue
2135:../firmware/gd32f3x0_hal_peripheral/Source/gd32f3x0_hal_i2c.c ****                   the structure is not necessary to be reconfigured after structrue initialization,
2136:../firmware/gd32f3x0_hal_peripheral/Source/gd32f3x0_hal_i2c.c ****                   the structure parameters altering is automatically configured by core
2137:../firmware/gd32f3x0_hal_peripheral/Source/gd32f3x0_hal_i2c.c ****     \param[in]  p_buffer: pointer to rxbuffer
2138:../firmware/gd32f3x0_hal_peripheral/Source/gd32f3x0_hal_i2c.c ****     \param[in]  length: length of data to be receive
2139:../firmware/gd32f3x0_hal_peripheral/Source/gd32f3x0_hal_i2c.c ****     \param[in]  p_user_func: call back function for user
2140:../firmware/gd32f3x0_hal_peripheral/Source/gd32f3x0_hal_i2c.c ****     \param[out] none
2141:../firmware/gd32f3x0_hal_peripheral/Source/gd32f3x0_hal_i2c.c ****     \retval     error code: HAL_ERR_NONE, HAL_ERR_ADDRESS, HAL_ERR_BUSY, details refer to gd32f3x0_
2142:../firmware/gd32f3x0_hal_peripheral/Source/gd32f3x0_hal_i2c.c **** */
2143:../firmware/gd32f3x0_hal_peripheral/Source/gd32f3x0_hal_i2c.c **** int32_t hal_i2c_slave_serial_receive_interrupt(hal_i2c_dev_struct *i2c_dev, uint8_t *p_buffer, \
2144:../firmware/gd32f3x0_hal_peripheral/Source/gd32f3x0_hal_i2c.c ****         uint32_t length, hal_i2c_user_cb p_user_func)
2145:../firmware/gd32f3x0_hal_peripheral/Source/gd32f3x0_hal_i2c.c **** {
 5587              		.loc 1 2145 1
 5588              		.cfi_startproc
 5589              		@ args = 0, pretend = 0, frame = 16
 5590              		@ frame_needed = 1, uses_anonymous_args = 0
 5591 0000 80B5     		push	{r7, lr}
 5592              		.cfi_def_cfa_offset 8
 5593              		.cfi_offset 7, -8
 5594              		.cfi_offset 14, -4
 5595 0002 84B0     		sub	sp, sp, #16
 5596              		.cfi_def_cfa_offset 24
 5597 0004 00AF     		add	r7, sp, #0
 5598              		.cfi_def_cfa_register 7
 5599 0006 F860     		str	r0, [r7, #12]
 5600 0008 B960     		str	r1, [r7, #8]
 5601 000a 7A60     		str	r2, [r7, #4]
 5602 000c 3B60     		str	r3, [r7]
2146:../firmware/gd32f3x0_hal_peripheral/Source/gd32f3x0_hal_i2c.c **** #if (1 == HAL_PARAMETER_CHECK)
2147:../firmware/gd32f3x0_hal_peripheral/Source/gd32f3x0_hal_i2c.c ****     /* check the parameters */
2148:../firmware/gd32f3x0_hal_peripheral/Source/gd32f3x0_hal_i2c.c ****     if((NULL == i2c_dev) || (NULL == p_buffer) || (0U == length)) {
2149:../firmware/gd32f3x0_hal_peripheral/Source/gd32f3x0_hal_i2c.c ****         HAL_DEBUGE("parameter [i2c_dev] or [p_buffer] or [length] value is invalid");
2150:../firmware/gd32f3x0_hal_peripheral/Source/gd32f3x0_hal_i2c.c ****         return HAL_ERR_ADDRESS;
2151:../firmware/gd32f3x0_hal_peripheral/Source/gd32f3x0_hal_i2c.c ****     }
2152:../firmware/gd32f3x0_hal_peripheral/Source/gd32f3x0_hal_i2c.c **** 
2153:../firmware/gd32f3x0_hal_peripheral/Source/gd32f3x0_hal_i2c.c **** #endif /* 1 == HAL_PARAMETER_CHECK */
2154:../firmware/gd32f3x0_hal_peripheral/Source/gd32f3x0_hal_i2c.c **** 
2155:../firmware/gd32f3x0_hal_peripheral/Source/gd32f3x0_hal_i2c.c ****     HAL_LOCK(i2c_dev);
 5603              		.loc 1 2155 5
 5604 000e FB68     		ldr	r3, [r7, #12]
 5605 0010 93F85030 		ldrb	r3, [r3, #80]	@ zero_extendqisi2
 5606 0014 012B     		cmp	r3, #1
 5607 0016 02D1     		bne	.L276
 5608              		.loc 1 2155 5 is_stmt 0 discriminator 1
 5609 0018 6FF00103 		mvn	r3, #1
 5610 001c 4BE0     		b	.L277
 5611              	.L276:
 5612              		.loc 1 2155 5 discriminator 2
 5613 001e FB68     		ldr	r3, [r7, #12]
 5614 0020 0122     		movs	r2, #1
 5615 0022 83F85020 		strb	r2, [r3, #80]
2156:../firmware/gd32f3x0_hal_peripheral/Source/gd32f3x0_hal_i2c.c ****     /* check the rx_state whether it is in address listen mode */
2157:../firmware/gd32f3x0_hal_peripheral/Source/gd32f3x0_hal_i2c.c ****     if(HAL_I2C_STATE_LISTEN != i2c_dev->rx_state) {
 5616              		.loc 1 2157 39 is_stmt 1 discriminator 2
 5617 0026 FB68     		ldr	r3, [r7, #12]
 5618 0028 93F84130 		ldrb	r3, [r3, #65]
 5619 002c DBB2     		uxtb	r3, r3
 5620              		.loc 1 2157 7 discriminator 2
 5621 002e 042B     		cmp	r3, #4
 5622 0030 02D0     		beq	.L278
2158:../firmware/gd32f3x0_hal_peripheral/Source/gd32f3x0_hal_i2c.c ****         HAL_DEBUGE("i2c rx has already been used, please wait until run_state change to free ");
2159:../firmware/gd32f3x0_hal_peripheral/Source/gd32f3x0_hal_i2c.c ****         return HAL_ERR_BUSY;
 5623              		.loc 1 2159 16
 5624 0032 6FF00203 		mvn	r3, #2
 5625 0036 3EE0     		b	.L277
 5626              	.L278:
2160:../firmware/gd32f3x0_hal_peripheral/Source/gd32f3x0_hal_i2c.c ****     }
2161:../firmware/gd32f3x0_hal_peripheral/Source/gd32f3x0_hal_i2c.c ****     /* check if I2C is already enabled */
2162:../firmware/gd32f3x0_hal_peripheral/Source/gd32f3x0_hal_i2c.c ****     if(I2C_CTL0_I2CEN != (I2C_CTL0(i2c_dev->periph) & I2C_CTL0_I2CEN)) {
 5627              		.loc 1 2162 27
 5628 0038 FB68     		ldr	r3, [r7, #12]
 5629 003a 1B68     		ldr	r3, [r3]
 5630 003c 1B68     		ldr	r3, [r3]
 5631              		.loc 1 2162 53
 5632 003e 03F00103 		and	r3, r3, #1
 5633              		.loc 1 2162 7
 5634 0042 012B     		cmp	r3, #1
 5635 0044 07D0     		beq	.L279
2163:../firmware/gd32f3x0_hal_peripheral/Source/gd32f3x0_hal_i2c.c ****         HAL_I2C_ENABLE(i2c_dev->periph);
 5636              		.loc 1 2163 9
 5637 0046 FB68     		ldr	r3, [r7, #12]
 5638 0048 1B68     		ldr	r3, [r3]
 5639 004a 1B68     		ldr	r3, [r3]
 5640 004c FA68     		ldr	r2, [r7, #12]
 5641 004e 1268     		ldr	r2, [r2]
 5642 0050 43F00103 		orr	r3, r3, #1
 5643 0054 1360     		str	r3, [r2]
 5644              	.L279:
2164:../firmware/gd32f3x0_hal_peripheral/Source/gd32f3x0_hal_i2c.c ****     }
2165:../firmware/gd32f3x0_hal_peripheral/Source/gd32f3x0_hal_i2c.c ****     /* initialize transmit parameters */
2166:../firmware/gd32f3x0_hal_peripheral/Source/gd32f3x0_hal_i2c.c ****     i2c_dev->rx_state = HAL_I2C_STATE_BUSY_LISTEN;
 5645              		.loc 1 2166 23
 5646 0056 FB68     		ldr	r3, [r7, #12]
 5647 0058 0522     		movs	r2, #5
 5648 005a 83F84120 		strb	r2, [r3, #65]
2167:../firmware/gd32f3x0_hal_peripheral/Source/gd32f3x0_hal_i2c.c ****     i2c_dev->last_error = HAL_I2C_ERROR_NONE;
 5649              		.loc 1 2167 25
 5650 005e FB68     		ldr	r3, [r7, #12]
 5651 0060 0022     		movs	r2, #0
 5652 0062 5A87     		strh	r2, [r3, #58]	@ movhi
2168:../firmware/gd32f3x0_hal_peripheral/Source/gd32f3x0_hal_i2c.c ****     i2c_dev->rxbuffer.buffer = (uint8_t *)p_buffer;
 5653              		.loc 1 2168 30
 5654 0064 FB68     		ldr	r3, [r7, #12]
 5655 0066 BA68     		ldr	r2, [r7, #8]
 5656 0068 1A62     		str	r2, [r3, #32]
2169:../firmware/gd32f3x0_hal_peripheral/Source/gd32f3x0_hal_i2c.c ****     i2c_dev->rxbuffer.length = length;
 5657              		.loc 1 2169 30
 5658 006a FB68     		ldr	r3, [r7, #12]
 5659 006c 7A68     		ldr	r2, [r7, #4]
 5660 006e 5A62     		str	r2, [r3, #36]
2170:../firmware/gd32f3x0_hal_peripheral/Source/gd32f3x0_hal_i2c.c ****     i2c_dev->rxbuffer.pos = 0;
 5661              		.loc 1 2170 27
 5662 0070 FB68     		ldr	r3, [r7, #12]
 5663 0072 0022     		movs	r2, #0
 5664 0074 9A62     		str	r2, [r3, #40]
2171:../firmware/gd32f3x0_hal_peripheral/Source/gd32f3x0_hal_i2c.c ****     i2c_dev->rx_callback = (void *)p_user_func;
 5665              		.loc 1 2171 26
 5666 0076 FB68     		ldr	r3, [r7, #12]
 5667 0078 3A68     		ldr	r2, [r7]
 5668 007a 9A64     		str	r2, [r3, #72]
2172:../firmware/gd32f3x0_hal_peripheral/Source/gd32f3x0_hal_i2c.c ****     i2c_dev->i2c_irq.event_handle = _i2c_slave_serial_receive_interrupt;
 5669              		.loc 1 2172 35
 5670 007c FB68     		ldr	r3, [r7, #12]
 5671 007e 104A     		ldr	r2, .L280
 5672 0080 5A60     		str	r2, [r3, #4]
2173:../firmware/gd32f3x0_hal_peripheral/Source/gd32f3x0_hal_i2c.c **** 
2174:../firmware/gd32f3x0_hal_peripheral/Source/gd32f3x0_hal_i2c.c ****     /* enable I2C interrupt */
2175:../firmware/gd32f3x0_hal_peripheral/Source/gd32f3x0_hal_i2c.c ****     hals_i2c_interrupt_enable(i2c_dev->periph, I2C_INT_ERR);
 5673              		.loc 1 2175 5
 5674 0082 FB68     		ldr	r3, [r7, #12]
 5675 0084 1B68     		ldr	r3, [r3]
 5676 0086 4FF48471 		mov	r1, #264
 5677 008a 1846     		mov	r0, r3
 5678 008c FFF7FEFF 		bl	hals_i2c_interrupt_enable
2176:../firmware/gd32f3x0_hal_peripheral/Source/gd32f3x0_hal_i2c.c ****     hals_i2c_interrupt_enable(i2c_dev->periph, I2C_INT_BUF);
 5679              		.loc 1 2176 5
 5680 0090 FB68     		ldr	r3, [r7, #12]
 5681 0092 1B68     		ldr	r3, [r3]
 5682 0094 4FF48571 		mov	r1, #266
 5683 0098 1846     		mov	r0, r3
 5684 009a FFF7FEFF 		bl	hals_i2c_interrupt_enable
2177:../firmware/gd32f3x0_hal_peripheral/Source/gd32f3x0_hal_i2c.c ****     hals_i2c_interrupt_enable(i2c_dev->periph, I2C_INT_EV);
 5685              		.loc 1 2177 5
 5686 009e FB68     		ldr	r3, [r7, #12]
 5687 00a0 1B68     		ldr	r3, [r3]
 5688 00a2 40F20911 		movw	r1, #265
 5689 00a6 1846     		mov	r0, r3
 5690 00a8 FFF7FEFF 		bl	hals_i2c_interrupt_enable
2178:../firmware/gd32f3x0_hal_peripheral/Source/gd32f3x0_hal_i2c.c **** 
2179:../firmware/gd32f3x0_hal_peripheral/Source/gd32f3x0_hal_i2c.c ****     HAL_UNLOCK(i2c_dev);
 5691              		.loc 1 2179 5
 5692 00ac FB68     		ldr	r3, [r7, #12]
 5693 00ae 0022     		movs	r2, #0
 5694 00b0 83F85020 		strb	r2, [r3, #80]
2180:../firmware/gd32f3x0_hal_peripheral/Source/gd32f3x0_hal_i2c.c ****     return HAL_ERR_NONE;
 5695              		.loc 1 2180 12
 5696 00b4 0023     		movs	r3, #0
 5697              	.L277:
2181:../firmware/gd32f3x0_hal_peripheral/Source/gd32f3x0_hal_i2c.c **** }
 5698              		.loc 1 2181 1
 5699 00b6 1846     		mov	r0, r3
 5700 00b8 1037     		adds	r7, r7, #16
 5701              		.cfi_def_cfa_offset 8
 5702 00ba BD46     		mov	sp, r7
 5703              		.cfi_def_cfa_register 13
 5704              		@ sp needed
 5705 00bc 80BD     		pop	{r7, pc}
 5706              	.L281:
 5707 00be 00BF     		.align	2
 5708              	.L280:
 5709 00c0 00000000 		.word	_i2c_slave_serial_receive_interrupt
 5710              		.cfi_endproc
 5711              	.LFE150:
 5713              		.section	.text.hal_i2c_address_listen_interrupt_enable,"ax",%progbits
 5714              		.align	1
 5715              		.global	hal_i2c_address_listen_interrupt_enable
 5716              		.syntax unified
 5717              		.thumb
 5718              		.thumb_func
 5719              		.fpu softvfp
 5721              	hal_i2c_address_listen_interrupt_enable:
 5722              	.LFB151:
2182:../firmware/gd32f3x0_hal_peripheral/Source/gd32f3x0_hal_i2c.c **** 
2183:../firmware/gd32f3x0_hal_peripheral/Source/gd32f3x0_hal_i2c.c **** /*!
2184:../firmware/gd32f3x0_hal_peripheral/Source/gd32f3x0_hal_i2c.c ****     \brief      enable address listen in slave mode by interrupt method
2185:../firmware/gd32f3x0_hal_peripheral/Source/gd32f3x0_hal_i2c.c ****     \param[in]  i2c_dev: I2C device information structrue
2186:../firmware/gd32f3x0_hal_peripheral/Source/gd32f3x0_hal_i2c.c ****                   the structure is not necessary to be reconfigured after structrue initialization,
2187:../firmware/gd32f3x0_hal_peripheral/Source/gd32f3x0_hal_i2c.c ****                   the structure parameters altering is automatically configured by core
2188:../firmware/gd32f3x0_hal_peripheral/Source/gd32f3x0_hal_i2c.c ****     \param[in]  p_user_func: call back function for user
2189:../firmware/gd32f3x0_hal_peripheral/Source/gd32f3x0_hal_i2c.c ****     \param[out] none
2190:../firmware/gd32f3x0_hal_peripheral/Source/gd32f3x0_hal_i2c.c ****     \retval     error code: HAL_ERR_NONE, HAL_ERR_BUSY, HAL_ERR_ADDRESS, details refer to gd32f3x0_
2191:../firmware/gd32f3x0_hal_peripheral/Source/gd32f3x0_hal_i2c.c **** */
2192:../firmware/gd32f3x0_hal_peripheral/Source/gd32f3x0_hal_i2c.c **** int32_t hal_i2c_address_listen_interrupt_enable(hal_i2c_dev_struct *i2c_dev, hal_i2c_user_cb p_user
2193:../firmware/gd32f3x0_hal_peripheral/Source/gd32f3x0_hal_i2c.c **** {
 5723              		.loc 1 2193 1
 5724              		.cfi_startproc
 5725              		@ args = 0, pretend = 0, frame = 8
 5726              		@ frame_needed = 1, uses_anonymous_args = 0
 5727 0000 80B5     		push	{r7, lr}
 5728              		.cfi_def_cfa_offset 8
 5729              		.cfi_offset 7, -8
 5730              		.cfi_offset 14, -4
 5731 0002 82B0     		sub	sp, sp, #8
 5732              		.cfi_def_cfa_offset 16
 5733 0004 00AF     		add	r7, sp, #0
 5734              		.cfi_def_cfa_register 7
 5735 0006 7860     		str	r0, [r7, #4]
 5736 0008 3960     		str	r1, [r7]
2194:../firmware/gd32f3x0_hal_peripheral/Source/gd32f3x0_hal_i2c.c **** #if (1 == HAL_PARAMETER_CHECK)
2195:../firmware/gd32f3x0_hal_peripheral/Source/gd32f3x0_hal_i2c.c ****     /* check the parameters */
2196:../firmware/gd32f3x0_hal_peripheral/Source/gd32f3x0_hal_i2c.c ****     if(NULL == i2c_dev) {
2197:../firmware/gd32f3x0_hal_peripheral/Source/gd32f3x0_hal_i2c.c ****         HAL_DEBUGE("parameter [i2c_dev] value is invalid");
2198:../firmware/gd32f3x0_hal_peripheral/Source/gd32f3x0_hal_i2c.c ****         return HAL_ERR_ADDRESS;
2199:../firmware/gd32f3x0_hal_peripheral/Source/gd32f3x0_hal_i2c.c ****     }
2200:../firmware/gd32f3x0_hal_peripheral/Source/gd32f3x0_hal_i2c.c **** #endif /* 1 == HAL_PARAMETER_CHECK */
2201:../firmware/gd32f3x0_hal_peripheral/Source/gd32f3x0_hal_i2c.c **** 
2202:../firmware/gd32f3x0_hal_peripheral/Source/gd32f3x0_hal_i2c.c ****     /* check the tx_state whether it is busy or not */
2203:../firmware/gd32f3x0_hal_peripheral/Source/gd32f3x0_hal_i2c.c ****     if(HAL_I2C_STATE_BUSY == i2c_dev->tx_state) {
 5737              		.loc 1 2203 37
 5738 000a 7B68     		ldr	r3, [r7, #4]
 5739 000c 93F84030 		ldrb	r3, [r3, #64]
 5740 0010 DBB2     		uxtb	r3, r3
 5741              		.loc 1 2203 7
 5742 0012 012B     		cmp	r3, #1
 5743 0014 02D1     		bne	.L283
2204:../firmware/gd32f3x0_hal_peripheral/Source/gd32f3x0_hal_i2c.c ****         HAL_DEBUGE("i2c tx has already been used, please wait until run_state change to free ");
2205:../firmware/gd32f3x0_hal_peripheral/Source/gd32f3x0_hal_i2c.c ****         return HAL_ERR_BUSY;
 5744              		.loc 1 2205 16
 5745 0016 6FF00203 		mvn	r3, #2
 5746 001a 3BE0     		b	.L284
 5747              	.L283:
2206:../firmware/gd32f3x0_hal_peripheral/Source/gd32f3x0_hal_i2c.c ****     }
2207:../firmware/gd32f3x0_hal_peripheral/Source/gd32f3x0_hal_i2c.c ****     /* check the rx_state whether it is busy or not */
2208:../firmware/gd32f3x0_hal_peripheral/Source/gd32f3x0_hal_i2c.c ****     if(HAL_I2C_STATE_BUSY == i2c_dev->rx_state) {
 5748              		.loc 1 2208 37
 5749 001c 7B68     		ldr	r3, [r7, #4]
 5750 001e 93F84130 		ldrb	r3, [r3, #65]
 5751 0022 DBB2     		uxtb	r3, r3
 5752              		.loc 1 2208 7
 5753 0024 012B     		cmp	r3, #1
 5754 0026 02D1     		bne	.L285
2209:../firmware/gd32f3x0_hal_peripheral/Source/gd32f3x0_hal_i2c.c ****         HAL_DEBUGE("i2c rx has already been used, please wait until run_state change to free ");
2210:../firmware/gd32f3x0_hal_peripheral/Source/gd32f3x0_hal_i2c.c ****         return HAL_ERR_BUSY;
 5755              		.loc 1 2210 16
 5756 0028 6FF00203 		mvn	r3, #2
 5757 002c 32E0     		b	.L284
 5758              	.L285:
2211:../firmware/gd32f3x0_hal_peripheral/Source/gd32f3x0_hal_i2c.c ****     }
2212:../firmware/gd32f3x0_hal_peripheral/Source/gd32f3x0_hal_i2c.c ****     i2c_dev->tx_state = HAL_I2C_STATE_LISTEN;
 5759              		.loc 1 2212 23
 5760 002e 7B68     		ldr	r3, [r7, #4]
 5761 0030 0422     		movs	r2, #4
 5762 0032 83F84020 		strb	r2, [r3, #64]
2213:../firmware/gd32f3x0_hal_peripheral/Source/gd32f3x0_hal_i2c.c ****     i2c_dev->rx_state = HAL_I2C_STATE_LISTEN;
 5763              		.loc 1 2213 23
 5764 0036 7B68     		ldr	r3, [r7, #4]
 5765 0038 0422     		movs	r2, #4
 5766 003a 83F84120 		strb	r2, [r3, #65]
2214:../firmware/gd32f3x0_hal_peripheral/Source/gd32f3x0_hal_i2c.c ****     /* check if I2C is already enabled */
2215:../firmware/gd32f3x0_hal_peripheral/Source/gd32f3x0_hal_i2c.c ****     if(I2C_CTL0_I2CEN != (I2C_CTL0(i2c_dev->periph) & I2C_CTL0_I2CEN)) {
 5767              		.loc 1 2215 27
 5768 003e 7B68     		ldr	r3, [r7, #4]
 5769 0040 1B68     		ldr	r3, [r3]
 5770 0042 1B68     		ldr	r3, [r3]
 5771              		.loc 1 2215 53
 5772 0044 03F00103 		and	r3, r3, #1
 5773              		.loc 1 2215 7
 5774 0048 012B     		cmp	r3, #1
 5775 004a 07D0     		beq	.L286
2216:../firmware/gd32f3x0_hal_peripheral/Source/gd32f3x0_hal_i2c.c ****         HAL_I2C_ENABLE(i2c_dev->periph);
 5776              		.loc 1 2216 9
 5777 004c 7B68     		ldr	r3, [r7, #4]
 5778 004e 1B68     		ldr	r3, [r3]
 5779 0050 1B68     		ldr	r3, [r3]
 5780 0052 7A68     		ldr	r2, [r7, #4]
 5781 0054 1268     		ldr	r2, [r2]
 5782 0056 43F00103 		orr	r3, r3, #1
 5783 005a 1360     		str	r3, [r2]
 5784              	.L286:
2217:../firmware/gd32f3x0_hal_peripheral/Source/gd32f3x0_hal_i2c.c ****     }
2218:../firmware/gd32f3x0_hal_peripheral/Source/gd32f3x0_hal_i2c.c ****     /* enable acknowledge */
2219:../firmware/gd32f3x0_hal_peripheral/Source/gd32f3x0_hal_i2c.c ****     hals_i2c_ack_config(i2c_dev->periph, I2C_ACK_ENABLE);
 5785              		.loc 1 2219 5
 5786 005c 7B68     		ldr	r3, [r7, #4]
 5787 005e 1B68     		ldr	r3, [r3]
 5788 0060 4FF48061 		mov	r1, #1024
 5789 0064 1846     		mov	r0, r3
 5790 0066 FFF7FEFF 		bl	hals_i2c_ack_config
2220:../firmware/gd32f3x0_hal_peripheral/Source/gd32f3x0_hal_i2c.c **** 
2221:../firmware/gd32f3x0_hal_peripheral/Source/gd32f3x0_hal_i2c.c ****     i2c_dev->rx_callback = (void *)p_user_func;
 5791              		.loc 1 2221 26
 5792 006a 7B68     		ldr	r3, [r7, #4]
 5793 006c 3A68     		ldr	r2, [r7]
 5794 006e 9A64     		str	r2, [r3, #72]
2222:../firmware/gd32f3x0_hal_peripheral/Source/gd32f3x0_hal_i2c.c ****     i2c_dev->i2c_irq.event_handle = _i2c_address_listen_interrupt;
 5795              		.loc 1 2222 35
 5796 0070 7B68     		ldr	r3, [r7, #4]
 5797 0072 0A4A     		ldr	r2, .L287
 5798 0074 5A60     		str	r2, [r3, #4]
2223:../firmware/gd32f3x0_hal_peripheral/Source/gd32f3x0_hal_i2c.c **** 
2224:../firmware/gd32f3x0_hal_peripheral/Source/gd32f3x0_hal_i2c.c ****     /* enable I2C interrupt */
2225:../firmware/gd32f3x0_hal_peripheral/Source/gd32f3x0_hal_i2c.c ****     hals_i2c_interrupt_enable(i2c_dev->periph, I2C_INT_ERR);
 5799              		.loc 1 2225 5
 5800 0076 7B68     		ldr	r3, [r7, #4]
 5801 0078 1B68     		ldr	r3, [r3]
 5802 007a 4FF48471 		mov	r1, #264
 5803 007e 1846     		mov	r0, r3
 5804 0080 FFF7FEFF 		bl	hals_i2c_interrupt_enable
2226:../firmware/gd32f3x0_hal_peripheral/Source/gd32f3x0_hal_i2c.c ****     hals_i2c_interrupt_enable(i2c_dev->periph, I2C_INT_EV);
 5805              		.loc 1 2226 5
 5806 0084 7B68     		ldr	r3, [r7, #4]
 5807 0086 1B68     		ldr	r3, [r3]
 5808 0088 40F20911 		movw	r1, #265
 5809 008c 1846     		mov	r0, r3
 5810 008e FFF7FEFF 		bl	hals_i2c_interrupt_enable
2227:../firmware/gd32f3x0_hal_peripheral/Source/gd32f3x0_hal_i2c.c ****     return HAL_ERR_NONE;
 5811              		.loc 1 2227 12
 5812 0092 0023     		movs	r3, #0
 5813              	.L284:
2228:../firmware/gd32f3x0_hal_peripheral/Source/gd32f3x0_hal_i2c.c **** }
 5814              		.loc 1 2228 1
 5815 0094 1846     		mov	r0, r3
 5816 0096 0837     		adds	r7, r7, #8
 5817              		.cfi_def_cfa_offset 8
 5818 0098 BD46     		mov	sp, r7
 5819              		.cfi_def_cfa_register 13
 5820              		@ sp needed
 5821 009a 80BD     		pop	{r7, pc}
 5822              	.L288:
 5823              		.align	2
 5824              	.L287:
 5825 009c 00000000 		.word	_i2c_address_listen_interrupt
 5826              		.cfi_endproc
 5827              	.LFE151:
 5829              		.section	.text.hal_i2c_address_listen_interrupt_disable,"ax",%progbits
 5830              		.align	1
 5831              		.global	hal_i2c_address_listen_interrupt_disable
 5832              		.syntax unified
 5833              		.thumb
 5834              		.thumb_func
 5835              		.fpu softvfp
 5837              	hal_i2c_address_listen_interrupt_disable:
 5838              	.LFB152:
2229:../firmware/gd32f3x0_hal_peripheral/Source/gd32f3x0_hal_i2c.c **** 
2230:../firmware/gd32f3x0_hal_peripheral/Source/gd32f3x0_hal_i2c.c **** /*!
2231:../firmware/gd32f3x0_hal_peripheral/Source/gd32f3x0_hal_i2c.c ****     \brief      disable address listen in slave mode by interrupt method
2232:../firmware/gd32f3x0_hal_peripheral/Source/gd32f3x0_hal_i2c.c ****     \param[in]  i2c_dev: I2C device information structrue
2233:../firmware/gd32f3x0_hal_peripheral/Source/gd32f3x0_hal_i2c.c ****                   the structure is not necessary to be reconfigured after structrue initialization,
2234:../firmware/gd32f3x0_hal_peripheral/Source/gd32f3x0_hal_i2c.c ****                   the structure parameters altering is automatically configured by core
2235:../firmware/gd32f3x0_hal_peripheral/Source/gd32f3x0_hal_i2c.c ****     \param[out] none
2236:../firmware/gd32f3x0_hal_peripheral/Source/gd32f3x0_hal_i2c.c ****     \retval     error code: HAL_ERR_NONE, HAL_ERR_BUSY, HAL_ERR_ADDRESS, details refer to gd32f3x0_
2237:../firmware/gd32f3x0_hal_peripheral/Source/gd32f3x0_hal_i2c.c **** */
2238:../firmware/gd32f3x0_hal_peripheral/Source/gd32f3x0_hal_i2c.c **** int32_t hal_i2c_address_listen_interrupt_disable(hal_i2c_dev_struct *i2c_dev)
2239:../firmware/gd32f3x0_hal_peripheral/Source/gd32f3x0_hal_i2c.c **** {
 5839              		.loc 1 2239 1
 5840              		.cfi_startproc
 5841              		@ args = 0, pretend = 0, frame = 8
 5842              		@ frame_needed = 1, uses_anonymous_args = 0
 5843 0000 80B5     		push	{r7, lr}
 5844              		.cfi_def_cfa_offset 8
 5845              		.cfi_offset 7, -8
 5846              		.cfi_offset 14, -4
 5847 0002 82B0     		sub	sp, sp, #8
 5848              		.cfi_def_cfa_offset 16
 5849 0004 00AF     		add	r7, sp, #0
 5850              		.cfi_def_cfa_register 7
 5851 0006 7860     		str	r0, [r7, #4]
2240:../firmware/gd32f3x0_hal_peripheral/Source/gd32f3x0_hal_i2c.c **** #if (1 == HAL_PARAMETER_CHECK)
2241:../firmware/gd32f3x0_hal_peripheral/Source/gd32f3x0_hal_i2c.c ****     /* check the parameters */
2242:../firmware/gd32f3x0_hal_peripheral/Source/gd32f3x0_hal_i2c.c ****     if(NULL == i2c_dev) {
2243:../firmware/gd32f3x0_hal_peripheral/Source/gd32f3x0_hal_i2c.c ****         HAL_DEBUGE("parameter [i2c_dev] value is invalid");
2244:../firmware/gd32f3x0_hal_peripheral/Source/gd32f3x0_hal_i2c.c ****         return HAL_ERR_ADDRESS;
2245:../firmware/gd32f3x0_hal_peripheral/Source/gd32f3x0_hal_i2c.c ****     }
2246:../firmware/gd32f3x0_hal_peripheral/Source/gd32f3x0_hal_i2c.c **** #endif /* 1 == HAL_PARAMETER_CHECK */
2247:../firmware/gd32f3x0_hal_peripheral/Source/gd32f3x0_hal_i2c.c **** 
2248:../firmware/gd32f3x0_hal_peripheral/Source/gd32f3x0_hal_i2c.c ****     if((HAL_I2C_STATE_LISTEN == i2c_dev->tx_state) && (HAL_I2C_STATE_LISTEN == i2c_dev->rx_state)) 
 5852              		.loc 1 2248 40
 5853 0008 7B68     		ldr	r3, [r7, #4]
 5854 000a 93F84030 		ldrb	r3, [r3, #64]
 5855 000e DBB2     		uxtb	r3, r3
 5856              		.loc 1 2248 7
 5857 0010 042B     		cmp	r3, #4
 5858 0012 24D1     		bne	.L290
 5859              		.loc 1 2248 87 discriminator 1
 5860 0014 7B68     		ldr	r3, [r7, #4]
 5861 0016 93F84130 		ldrb	r3, [r3, #65]
 5862 001a DBB2     		uxtb	r3, r3
 5863              		.loc 1 2248 52 discriminator 1
 5864 001c 042B     		cmp	r3, #4
 5865 001e 1ED1     		bne	.L290
2249:../firmware/gd32f3x0_hal_peripheral/Source/gd32f3x0_hal_i2c.c ****         i2c_dev->tx_state = HAL_I2C_STATE_READY;
 5866              		.loc 1 2249 27
 5867 0020 7B68     		ldr	r3, [r7, #4]
 5868 0022 0022     		movs	r2, #0
 5869 0024 83F84020 		strb	r2, [r3, #64]
2250:../firmware/gd32f3x0_hal_peripheral/Source/gd32f3x0_hal_i2c.c ****         i2c_dev->rx_state = HAL_I2C_STATE_READY;
 5870              		.loc 1 2250 27
 5871 0028 7B68     		ldr	r3, [r7, #4]
 5872 002a 0022     		movs	r2, #0
 5873 002c 83F84120 		strb	r2, [r3, #65]
2251:../firmware/gd32f3x0_hal_peripheral/Source/gd32f3x0_hal_i2c.c ****         /* disable acknowledge */
2252:../firmware/gd32f3x0_hal_peripheral/Source/gd32f3x0_hal_i2c.c ****         hals_i2c_ack_config(i2c_dev->periph, I2C_ACK_ENABLE);
 5874              		.loc 1 2252 9
 5875 0030 7B68     		ldr	r3, [r7, #4]
 5876 0032 1B68     		ldr	r3, [r3]
 5877 0034 4FF48061 		mov	r1, #1024
 5878 0038 1846     		mov	r0, r3
 5879 003a FFF7FEFF 		bl	hals_i2c_ack_config
2253:../firmware/gd32f3x0_hal_peripheral/Source/gd32f3x0_hal_i2c.c ****         /* disable I2C interrupt */
2254:../firmware/gd32f3x0_hal_peripheral/Source/gd32f3x0_hal_i2c.c ****         hals_i2c_interrupt_disable(i2c_dev->periph, I2C_INT_ERR);
 5880              		.loc 1 2254 9
 5881 003e 7B68     		ldr	r3, [r7, #4]
 5882 0040 1B68     		ldr	r3, [r3]
 5883 0042 4FF48471 		mov	r1, #264
 5884 0046 1846     		mov	r0, r3
 5885 0048 FFF7FEFF 		bl	hals_i2c_interrupt_disable
2255:../firmware/gd32f3x0_hal_peripheral/Source/gd32f3x0_hal_i2c.c ****         hals_i2c_interrupt_disable(i2c_dev->periph, I2C_INT_EV);
 5886              		.loc 1 2255 9
 5887 004c 7B68     		ldr	r3, [r7, #4]
 5888 004e 1B68     		ldr	r3, [r3]
 5889 0050 40F20911 		movw	r1, #265
 5890 0054 1846     		mov	r0, r3
 5891 0056 FFF7FEFF 		bl	hals_i2c_interrupt_disable
2256:../firmware/gd32f3x0_hal_peripheral/Source/gd32f3x0_hal_i2c.c ****         return HAL_ERR_NONE;
 5892              		.loc 1 2256 16
 5893 005a 0023     		movs	r3, #0
 5894 005c 01E0     		b	.L291
 5895              	.L290:
2257:../firmware/gd32f3x0_hal_peripheral/Source/gd32f3x0_hal_i2c.c ****     } else {
2258:../firmware/gd32f3x0_hal_peripheral/Source/gd32f3x0_hal_i2c.c ****         return HAL_ERR_BUSY;
 5896              		.loc 1 2258 16
 5897 005e 6FF00203 		mvn	r3, #2
 5898              	.L291:
2259:../firmware/gd32f3x0_hal_peripheral/Source/gd32f3x0_hal_i2c.c ****     }
2260:../firmware/gd32f3x0_hal_peripheral/Source/gd32f3x0_hal_i2c.c **** }
 5899              		.loc 1 2260 1
 5900 0062 1846     		mov	r0, r3
 5901 0064 0837     		adds	r7, r7, #8
 5902              		.cfi_def_cfa_offset 8
 5903 0066 BD46     		mov	sp, r7
 5904              		.cfi_def_cfa_register 13
 5905              		@ sp needed
 5906 0068 80BD     		pop	{r7, pc}
 5907              		.cfi_endproc
 5908              	.LFE152:
 5910              		.section	.text.hals_i2c_clock_config,"ax",%progbits
 5911              		.align	1
 5912              		.global	hals_i2c_clock_config
 5913              		.syntax unified
 5914              		.thumb
 5915              		.thumb_func
 5916              		.fpu softvfp
 5918              	hals_i2c_clock_config:
 5919              	.LFB153:
2261:../firmware/gd32f3x0_hal_peripheral/Source/gd32f3x0_hal_i2c.c **** 
2262:../firmware/gd32f3x0_hal_peripheral/Source/gd32f3x0_hal_i2c.c **** 
2263:../firmware/gd32f3x0_hal_peripheral/Source/gd32f3x0_hal_i2c.c **** /*!
2264:../firmware/gd32f3x0_hal_peripheral/Source/gd32f3x0_hal_i2c.c ****     \brief      configure I2C clock
2265:../firmware/gd32f3x0_hal_peripheral/Source/gd32f3x0_hal_i2c.c ****     \param[in]  i2c_periph: I2Cx(x=0,1)
2266:../firmware/gd32f3x0_hal_peripheral/Source/gd32f3x0_hal_i2c.c ****     \param[in]  clkspeed: I2C clock speed, supports standard mode (up to 100 kHz), fast mode (up to
2267:../firmware/gd32f3x0_hal_peripheral/Source/gd32f3x0_hal_i2c.c ****                           and fast mode plus (up to 1MHz)
2268:../firmware/gd32f3x0_hal_peripheral/Source/gd32f3x0_hal_i2c.c ****     \param[in]  dutycyc: duty cycle in fast mode or fast mode plus, and only I2C_DTCY_2 can be sele
2269:../firmware/gd32f3x0_hal_peripheral/Source/gd32f3x0_hal_i2c.c ****                 only one parameter can be selected which is shown as below:
2270:../firmware/gd32f3x0_hal_peripheral/Source/gd32f3x0_hal_i2c.c ****       \arg        I2C_DTCY_2: T_low/T_high=2
2271:../firmware/gd32f3x0_hal_peripheral/Source/gd32f3x0_hal_i2c.c ****       \arg        I2C_DTCY_16_9: T_low/T_high=16/9
2272:../firmware/gd32f3x0_hal_peripheral/Source/gd32f3x0_hal_i2c.c ****     \param[out] none
2273:../firmware/gd32f3x0_hal_peripheral/Source/gd32f3x0_hal_i2c.c ****     \retval     none
2274:../firmware/gd32f3x0_hal_peripheral/Source/gd32f3x0_hal_i2c.c **** */
2275:../firmware/gd32f3x0_hal_peripheral/Source/gd32f3x0_hal_i2c.c **** void hals_i2c_clock_config(uint32_t i2c_periph, uint32_t clkspeed, uint32_t dutycyc)
2276:../firmware/gd32f3x0_hal_peripheral/Source/gd32f3x0_hal_i2c.c **** {
 5920              		.loc 1 2276 1
 5921              		.cfi_startproc
 5922              		@ args = 0, pretend = 0, frame = 40
 5923              		@ frame_needed = 1, uses_anonymous_args = 0
 5924 0000 80B5     		push	{r7, lr}
 5925              		.cfi_def_cfa_offset 8
 5926              		.cfi_offset 7, -8
 5927              		.cfi_offset 14, -4
 5928 0002 8AB0     		sub	sp, sp, #40
 5929              		.cfi_def_cfa_offset 48
 5930 0004 00AF     		add	r7, sp, #0
 5931              		.cfi_def_cfa_register 7
 5932 0006 F860     		str	r0, [r7, #12]
 5933 0008 B960     		str	r1, [r7, #8]
 5934 000a 7A60     		str	r2, [r7, #4]
2277:../firmware/gd32f3x0_hal_peripheral/Source/gd32f3x0_hal_i2c.c ****     uint32_t pclk1, clkc, freq, risetime;
2278:../firmware/gd32f3x0_hal_peripheral/Source/gd32f3x0_hal_i2c.c ****     uint32_t temp;
2279:../firmware/gd32f3x0_hal_peripheral/Source/gd32f3x0_hal_i2c.c **** 
2280:../firmware/gd32f3x0_hal_peripheral/Source/gd32f3x0_hal_i2c.c ****     pclk1 = hals_rcu_clock_freq_get(CK_APB1);
 5935              		.loc 1 2280 13
 5936 000c 0220     		movs	r0, #2
 5937 000e FFF7FEFF 		bl	hals_rcu_clock_freq_get
 5938 0012 F861     		str	r0, [r7, #28]
2281:../firmware/gd32f3x0_hal_peripheral/Source/gd32f3x0_hal_i2c.c ****     /* I2C peripheral clock frequency */
2282:../firmware/gd32f3x0_hal_peripheral/Source/gd32f3x0_hal_i2c.c ****     freq = (uint32_t)(pclk1 / 1000000U);
 5939              		.loc 1 2282 10
 5940 0014 FB69     		ldr	r3, [r7, #28]
 5941 0016 794A     		ldr	r2, .L307
 5942 0018 A2FB0323 		umull	r2, r3, r2, r3
 5943 001c 9B0C     		lsrs	r3, r3, #18
 5944 001e 3B62     		str	r3, [r7, #32]
2283:../firmware/gd32f3x0_hal_peripheral/Source/gd32f3x0_hal_i2c.c ****     if(freq >= I2CCLK_MAX) {
 5945              		.loc 1 2283 7
 5946 0020 3B6A     		ldr	r3, [r7, #32]
 5947 0022 7E2B     		cmp	r3, #126
 5948 0024 01D9     		bls	.L293
2284:../firmware/gd32f3x0_hal_peripheral/Source/gd32f3x0_hal_i2c.c ****         freq = I2CCLK_MAX;
 5949              		.loc 1 2284 14
 5950 0026 7F23     		movs	r3, #127
 5951 0028 3B62     		str	r3, [r7, #32]
 5952              	.L293:
2285:../firmware/gd32f3x0_hal_peripheral/Source/gd32f3x0_hal_i2c.c ****     }
2286:../firmware/gd32f3x0_hal_peripheral/Source/gd32f3x0_hal_i2c.c ****     temp = I2C_CTL1(i2c_periph);
 5953              		.loc 1 2286 12
 5954 002a FB68     		ldr	r3, [r7, #12]
 5955 002c 0433     		adds	r3, r3, #4
 5956              		.loc 1 2286 10
 5957 002e 1B68     		ldr	r3, [r3]
 5958 0030 BB61     		str	r3, [r7, #24]
2287:../firmware/gd32f3x0_hal_peripheral/Source/gd32f3x0_hal_i2c.c ****     temp &= ~I2C_CTL1_I2CCLK;
 5959              		.loc 1 2287 10
 5960 0032 BB69     		ldr	r3, [r7, #24]
 5961 0034 23F03F03 		bic	r3, r3, #63
 5962 0038 BB61     		str	r3, [r7, #24]
2288:../firmware/gd32f3x0_hal_peripheral/Source/gd32f3x0_hal_i2c.c ****     temp |= freq;
 5963              		.loc 1 2288 10
 5964 003a BA69     		ldr	r2, [r7, #24]
 5965 003c 3B6A     		ldr	r3, [r7, #32]
 5966 003e 1343     		orrs	r3, r3, r2
 5967 0040 BB61     		str	r3, [r7, #24]
2289:../firmware/gd32f3x0_hal_peripheral/Source/gd32f3x0_hal_i2c.c **** 
2290:../firmware/gd32f3x0_hal_peripheral/Source/gd32f3x0_hal_i2c.c ****     I2C_CTL1(i2c_periph) = temp;
 5968              		.loc 1 2290 5
 5969 0042 FB68     		ldr	r3, [r7, #12]
 5970 0044 0433     		adds	r3, r3, #4
 5971 0046 1A46     		mov	r2, r3
 5972              		.loc 1 2290 26
 5973 0048 BB69     		ldr	r3, [r7, #24]
 5974 004a 1360     		str	r3, [r2]
2291:../firmware/gd32f3x0_hal_peripheral/Source/gd32f3x0_hal_i2c.c **** 
2292:../firmware/gd32f3x0_hal_peripheral/Source/gd32f3x0_hal_i2c.c ****     if(100000U >= clkspeed) {
 5975              		.loc 1 2292 7
 5976 004c BB68     		ldr	r3, [r7, #8]
 5977 004e 6C4A     		ldr	r2, .L307+4
 5978 0050 9342     		cmp	r3, r2
 5979 0052 33D8     		bhi	.L294
2293:../firmware/gd32f3x0_hal_peripheral/Source/gd32f3x0_hal_i2c.c ****         /* the maximum SCL rise time is 1000ns in standard mode */
2294:../firmware/gd32f3x0_hal_peripheral/Source/gd32f3x0_hal_i2c.c ****         risetime = (uint32_t)((pclk1 / 1000000U) + 1U);
 5980              		.loc 1 2294 38
 5981 0054 FB69     		ldr	r3, [r7, #28]
 5982 0056 694A     		ldr	r2, .L307
 5983 0058 A2FB0323 		umull	r2, r3, r2, r3
 5984 005c 9B0C     		lsrs	r3, r3, #18
 5985              		.loc 1 2294 18
 5986 005e 0133     		adds	r3, r3, #1
 5987 0060 7B61     		str	r3, [r7, #20]
2295:../firmware/gd32f3x0_hal_peripheral/Source/gd32f3x0_hal_i2c.c ****         if(risetime >= I2CCLK_MAX) {
 5988              		.loc 1 2295 11
 5989 0062 7B69     		ldr	r3, [r7, #20]
 5990 0064 7E2B     		cmp	r3, #126
 5991 0066 05D9     		bls	.L295
2296:../firmware/gd32f3x0_hal_peripheral/Source/gd32f3x0_hal_i2c.c ****             I2C_RT(i2c_periph) = I2CCLK_MAX;
 5992              		.loc 1 2296 13
 5993 0068 FB68     		ldr	r3, [r7, #12]
 5994 006a 2033     		adds	r3, r3, #32
 5995 006c 1A46     		mov	r2, r3
 5996              		.loc 1 2296 32
 5997 006e 7F23     		movs	r3, #127
 5998 0070 1360     		str	r3, [r2]
 5999 0072 0DE0     		b	.L296
 6000              	.L295:
2297:../firmware/gd32f3x0_hal_peripheral/Source/gd32f3x0_hal_i2c.c ****         } else if(risetime <= I2CCLK_MIN) {
 6001              		.loc 1 2297 18
 6002 0074 7B69     		ldr	r3, [r7, #20]
 6003 0076 022B     		cmp	r3, #2
 6004 0078 05D8     		bhi	.L297
2298:../firmware/gd32f3x0_hal_peripheral/Source/gd32f3x0_hal_i2c.c ****             I2C_RT(i2c_periph) = I2CCLK_MIN;
 6005              		.loc 1 2298 13
 6006 007a FB68     		ldr	r3, [r7, #12]
 6007 007c 2033     		adds	r3, r3, #32
 6008 007e 1A46     		mov	r2, r3
 6009              		.loc 1 2298 32
 6010 0080 0223     		movs	r3, #2
 6011 0082 1360     		str	r3, [r2]
 6012 0084 04E0     		b	.L296
 6013              	.L297:
2299:../firmware/gd32f3x0_hal_peripheral/Source/gd32f3x0_hal_i2c.c ****         } else {
2300:../firmware/gd32f3x0_hal_peripheral/Source/gd32f3x0_hal_i2c.c ****             I2C_RT(i2c_periph) = risetime;
 6014              		.loc 1 2300 13
 6015 0086 FB68     		ldr	r3, [r7, #12]
 6016 0088 2033     		adds	r3, r3, #32
 6017 008a 1A46     		mov	r2, r3
 6018              		.loc 1 2300 32
 6019 008c 7B69     		ldr	r3, [r7, #20]
 6020 008e 1360     		str	r3, [r2]
 6021              	.L296:
2301:../firmware/gd32f3x0_hal_peripheral/Source/gd32f3x0_hal_i2c.c ****         }
2302:../firmware/gd32f3x0_hal_peripheral/Source/gd32f3x0_hal_i2c.c ****         clkc = (uint32_t)(pclk1 / (clkspeed * 2U));
 6022              		.loc 1 2302 45
 6023 0090 BB68     		ldr	r3, [r7, #8]
 6024 0092 5B00     		lsls	r3, r3, #1
 6025              		.loc 1 2302 14
 6026 0094 FA69     		ldr	r2, [r7, #28]
 6027 0096 B2FBF3F3 		udiv	r3, r2, r3
 6028 009a 7B62     		str	r3, [r7, #36]
2303:../firmware/gd32f3x0_hal_peripheral/Source/gd32f3x0_hal_i2c.c ****         if(clkc < 0x04U) {
 6029              		.loc 1 2303 11
 6030 009c 7B6A     		ldr	r3, [r7, #36]
 6031 009e 032B     		cmp	r3, #3
 6032 00a0 01D8     		bhi	.L298
2304:../firmware/gd32f3x0_hal_peripheral/Source/gd32f3x0_hal_i2c.c ****             /* the CLKC in standard mode minmum value is 4 */
2305:../firmware/gd32f3x0_hal_peripheral/Source/gd32f3x0_hal_i2c.c ****             clkc = 0x04U;
 6033              		.loc 1 2305 18
 6034 00a2 0423     		movs	r3, #4
 6035 00a4 7B62     		str	r3, [r7, #36]
 6036              	.L298:
2306:../firmware/gd32f3x0_hal_peripheral/Source/gd32f3x0_hal_i2c.c ****         }
2307:../firmware/gd32f3x0_hal_peripheral/Source/gd32f3x0_hal_i2c.c ****         I2C_CKCFG(i2c_periph) |= (I2C_CKCFG_CLKC & clkc);
 6037              		.loc 1 2307 31
 6038 00a6 FB68     		ldr	r3, [r7, #12]
 6039 00a8 1C33     		adds	r3, r3, #28
 6040 00aa 1A68     		ldr	r2, [r3]
 6041              		.loc 1 2307 50
 6042 00ac 7B6A     		ldr	r3, [r7, #36]
 6043 00ae C3F30B03 		ubfx	r3, r3, #0, #12
 6044              		.loc 1 2307 31
 6045 00b2 F968     		ldr	r1, [r7, #12]
 6046 00b4 1C31     		adds	r1, r1, #28
 6047 00b6 1343     		orrs	r3, r3, r2
 6048 00b8 0B60     		str	r3, [r1]
2308:../firmware/gd32f3x0_hal_peripheral/Source/gd32f3x0_hal_i2c.c **** 
2309:../firmware/gd32f3x0_hal_peripheral/Source/gd32f3x0_hal_i2c.c ****     } else if(400000U >= clkspeed) {
2310:../firmware/gd32f3x0_hal_peripheral/Source/gd32f3x0_hal_i2c.c ****         /* the maximum SCL rise time is 300ns in fast mode */
2311:../firmware/gd32f3x0_hal_peripheral/Source/gd32f3x0_hal_i2c.c ****         I2C_RT(i2c_periph) = (uint32_t)(((freq * (uint32_t)300U) / (uint32_t)1000U) + (uint32_t)1U)
2312:../firmware/gd32f3x0_hal_peripheral/Source/gd32f3x0_hal_i2c.c ****         if(I2C_DTCY_2 == dutycyc) {
2313:../firmware/gd32f3x0_hal_peripheral/Source/gd32f3x0_hal_i2c.c ****             /* I2C duty cycle is 2 */
2314:../firmware/gd32f3x0_hal_peripheral/Source/gd32f3x0_hal_i2c.c ****             clkc = (uint32_t)(pclk1 / (clkspeed * 3U));
2315:../firmware/gd32f3x0_hal_peripheral/Source/gd32f3x0_hal_i2c.c ****             I2C_CKCFG(i2c_periph) &= ~I2C_CKCFG_DTCY;
2316:../firmware/gd32f3x0_hal_peripheral/Source/gd32f3x0_hal_i2c.c ****         } else {
2317:../firmware/gd32f3x0_hal_peripheral/Source/gd32f3x0_hal_i2c.c ****             /* I2C duty cycle is 16/9 */
2318:../firmware/gd32f3x0_hal_peripheral/Source/gd32f3x0_hal_i2c.c ****             clkc = (uint32_t)(pclk1 / (clkspeed * 25U));
2319:../firmware/gd32f3x0_hal_peripheral/Source/gd32f3x0_hal_i2c.c ****             I2C_CKCFG(i2c_periph) |= I2C_CKCFG_DTCY;
2320:../firmware/gd32f3x0_hal_peripheral/Source/gd32f3x0_hal_i2c.c ****         }
2321:../firmware/gd32f3x0_hal_peripheral/Source/gd32f3x0_hal_i2c.c ****         if(0U == (clkc & I2C_CKCFG_CLKC)) {
2322:../firmware/gd32f3x0_hal_peripheral/Source/gd32f3x0_hal_i2c.c ****             /* the CLKC in fast mode minimum value is 1 */
2323:../firmware/gd32f3x0_hal_peripheral/Source/gd32f3x0_hal_i2c.c ****             clkc |= 0x0001U;
2324:../firmware/gd32f3x0_hal_peripheral/Source/gd32f3x0_hal_i2c.c ****         }
2325:../firmware/gd32f3x0_hal_peripheral/Source/gd32f3x0_hal_i2c.c ****         I2C_CKCFG(i2c_periph) |= I2C_CKCFG_FAST;
2326:../firmware/gd32f3x0_hal_peripheral/Source/gd32f3x0_hal_i2c.c ****         I2C_CKCFG(i2c_periph) |= clkc;
2327:../firmware/gd32f3x0_hal_peripheral/Source/gd32f3x0_hal_i2c.c ****     } else {
2328:../firmware/gd32f3x0_hal_peripheral/Source/gd32f3x0_hal_i2c.c ****         /* fast mode plus, the maximum SCL rise time is 120ns */
2329:../firmware/gd32f3x0_hal_peripheral/Source/gd32f3x0_hal_i2c.c ****         I2C_RT(i2c_periph) = (uint32_t)(((freq * (uint32_t)120U) / (uint32_t)1000U) + (uint32_t)1U)
2330:../firmware/gd32f3x0_hal_peripheral/Source/gd32f3x0_hal_i2c.c ****         if(I2C_DTCY_2 == dutycyc) {
2331:../firmware/gd32f3x0_hal_peripheral/Source/gd32f3x0_hal_i2c.c ****             /* I2C duty cycle is 2 */
2332:../firmware/gd32f3x0_hal_peripheral/Source/gd32f3x0_hal_i2c.c ****             clkc = (uint32_t)(pclk1 / (clkspeed * 3U));
2333:../firmware/gd32f3x0_hal_peripheral/Source/gd32f3x0_hal_i2c.c ****             I2C_CKCFG(i2c_periph) &= ~I2C_CKCFG_DTCY;
2334:../firmware/gd32f3x0_hal_peripheral/Source/gd32f3x0_hal_i2c.c ****         } else {
2335:../firmware/gd32f3x0_hal_peripheral/Source/gd32f3x0_hal_i2c.c ****             /* I2C duty cycle is 16/9 */
2336:../firmware/gd32f3x0_hal_peripheral/Source/gd32f3x0_hal_i2c.c ****             clkc = (uint32_t)(pclk1 / (clkspeed * 25U));
2337:../firmware/gd32f3x0_hal_peripheral/Source/gd32f3x0_hal_i2c.c ****             I2C_CKCFG(i2c_periph) |= I2C_CKCFG_DTCY;
2338:../firmware/gd32f3x0_hal_peripheral/Source/gd32f3x0_hal_i2c.c ****         }
2339:../firmware/gd32f3x0_hal_peripheral/Source/gd32f3x0_hal_i2c.c ****         /* enable fast mode */
2340:../firmware/gd32f3x0_hal_peripheral/Source/gd32f3x0_hal_i2c.c ****         I2C_CKCFG(i2c_periph) |= I2C_CKCFG_FAST;
2341:../firmware/gd32f3x0_hal_peripheral/Source/gd32f3x0_hal_i2c.c ****         I2C_CKCFG(i2c_periph) |= clkc;
2342:../firmware/gd32f3x0_hal_peripheral/Source/gd32f3x0_hal_i2c.c ****         /* enable I2C fast mode plus */
2343:../firmware/gd32f3x0_hal_peripheral/Source/gd32f3x0_hal_i2c.c ****         I2C_FMPCFG(i2c_periph) = I2C_FMPCFG_FMPEN;
2344:../firmware/gd32f3x0_hal_peripheral/Source/gd32f3x0_hal_i2c.c ****     }
2345:../firmware/gd32f3x0_hal_peripheral/Source/gd32f3x0_hal_i2c.c **** }
 6049              		.loc 1 2345 1
 6050 00ba 9BE0     		b	.L306
 6051              	.L294:
2309:../firmware/gd32f3x0_hal_peripheral/Source/gd32f3x0_hal_i2c.c ****         /* the maximum SCL rise time is 300ns in fast mode */
 6052              		.loc 1 2309 14
 6053 00bc BB68     		ldr	r3, [r7, #8]
 6054 00be 514A     		ldr	r2, .L307+8
 6055 00c0 9342     		cmp	r3, r2
 6056 00c2 4DD8     		bhi	.L300
2311:../firmware/gd32f3x0_hal_peripheral/Source/gd32f3x0_hal_i2c.c ****         if(I2C_DTCY_2 == dutycyc) {
 6057              		.loc 1 2311 48
 6058 00c4 3B6A     		ldr	r3, [r7, #32]
 6059 00c6 4FF49672 		mov	r2, #300
 6060 00ca 02FB03F3 		mul	r3, r2, r3
2311:../firmware/gd32f3x0_hal_peripheral/Source/gd32f3x0_hal_i2c.c ****         if(I2C_DTCY_2 == dutycyc) {
 6061              		.loc 1 2311 66
 6062 00ce 4E4A     		ldr	r2, .L307+12
 6063 00d0 A2FB0323 		umull	r2, r3, r2, r3
 6064 00d4 9B09     		lsrs	r3, r3, #6
2311:../firmware/gd32f3x0_hal_peripheral/Source/gd32f3x0_hal_i2c.c ****         if(I2C_DTCY_2 == dutycyc) {
 6065              		.loc 1 2311 9
 6066 00d6 FA68     		ldr	r2, [r7, #12]
 6067 00d8 2032     		adds	r2, r2, #32
2311:../firmware/gd32f3x0_hal_peripheral/Source/gd32f3x0_hal_i2c.c ****         if(I2C_DTCY_2 == dutycyc) {
 6068              		.loc 1 2311 30
 6069 00da 0133     		adds	r3, r3, #1
2311:../firmware/gd32f3x0_hal_peripheral/Source/gd32f3x0_hal_i2c.c ****         if(I2C_DTCY_2 == dutycyc) {
 6070              		.loc 1 2311 28
 6071 00dc 1360     		str	r3, [r2]
2312:../firmware/gd32f3x0_hal_peripheral/Source/gd32f3x0_hal_i2c.c ****             /* I2C duty cycle is 2 */
 6072              		.loc 1 2312 11
 6073 00de 7B68     		ldr	r3, [r7, #4]
 6074 00e0 002B     		cmp	r3, #0
 6075 00e2 10D1     		bne	.L301
2314:../firmware/gd32f3x0_hal_peripheral/Source/gd32f3x0_hal_i2c.c ****             I2C_CKCFG(i2c_periph) &= ~I2C_CKCFG_DTCY;
 6076              		.loc 1 2314 49
 6077 00e4 BA68     		ldr	r2, [r7, #8]
 6078 00e6 1346     		mov	r3, r2
 6079 00e8 5B00     		lsls	r3, r3, #1
 6080 00ea 1344     		add	r3, r3, r2
2314:../firmware/gd32f3x0_hal_peripheral/Source/gd32f3x0_hal_i2c.c ****             I2C_CKCFG(i2c_periph) &= ~I2C_CKCFG_DTCY;
 6081              		.loc 1 2314 18
 6082 00ec FA69     		ldr	r2, [r7, #28]
 6083 00ee B2FBF3F3 		udiv	r3, r2, r3
 6084 00f2 7B62     		str	r3, [r7, #36]
2315:../firmware/gd32f3x0_hal_peripheral/Source/gd32f3x0_hal_i2c.c ****         } else {
 6085              		.loc 1 2315 35
 6086 00f4 FB68     		ldr	r3, [r7, #12]
 6087 00f6 1C33     		adds	r3, r3, #28
 6088 00f8 1B68     		ldr	r3, [r3]
 6089 00fa FA68     		ldr	r2, [r7, #12]
 6090 00fc 1C32     		adds	r2, r2, #28
 6091 00fe 23F48043 		bic	r3, r3, #16384
 6092 0102 1360     		str	r3, [r2]
 6093 0104 11E0     		b	.L302
 6094              	.L301:
2318:../firmware/gd32f3x0_hal_peripheral/Source/gd32f3x0_hal_i2c.c ****             I2C_CKCFG(i2c_periph) |= I2C_CKCFG_DTCY;
 6095              		.loc 1 2318 49
 6096 0106 BA68     		ldr	r2, [r7, #8]
 6097 0108 1346     		mov	r3, r2
 6098 010a 9B00     		lsls	r3, r3, #2
 6099 010c 1344     		add	r3, r3, r2
 6100 010e 9A00     		lsls	r2, r3, #2
 6101 0110 1344     		add	r3, r3, r2
2318:../firmware/gd32f3x0_hal_peripheral/Source/gd32f3x0_hal_i2c.c ****             I2C_CKCFG(i2c_periph) |= I2C_CKCFG_DTCY;
 6102              		.loc 1 2318 18
 6103 0112 FA69     		ldr	r2, [r7, #28]
 6104 0114 B2FBF3F3 		udiv	r3, r2, r3
 6105 0118 7B62     		str	r3, [r7, #36]
2319:../firmware/gd32f3x0_hal_peripheral/Source/gd32f3x0_hal_i2c.c ****         }
 6106              		.loc 1 2319 35
 6107 011a FB68     		ldr	r3, [r7, #12]
 6108 011c 1C33     		adds	r3, r3, #28
 6109 011e 1B68     		ldr	r3, [r3]
 6110 0120 FA68     		ldr	r2, [r7, #12]
 6111 0122 1C32     		adds	r2, r2, #28
 6112 0124 43F48043 		orr	r3, r3, #16384
 6113 0128 1360     		str	r3, [r2]
 6114              	.L302:
2321:../firmware/gd32f3x0_hal_peripheral/Source/gd32f3x0_hal_i2c.c ****             /* the CLKC in fast mode minimum value is 1 */
 6115              		.loc 1 2321 24
 6116 012a 7B6A     		ldr	r3, [r7, #36]
 6117 012c C3F30B03 		ubfx	r3, r3, #0, #12
2321:../firmware/gd32f3x0_hal_peripheral/Source/gd32f3x0_hal_i2c.c ****             /* the CLKC in fast mode minimum value is 1 */
 6118              		.loc 1 2321 11
 6119 0130 002B     		cmp	r3, #0
 6120 0132 03D1     		bne	.L303
2323:../firmware/gd32f3x0_hal_peripheral/Source/gd32f3x0_hal_i2c.c ****         }
 6121              		.loc 1 2323 18
 6122 0134 7B6A     		ldr	r3, [r7, #36]
 6123 0136 43F00103 		orr	r3, r3, #1
 6124 013a 7B62     		str	r3, [r7, #36]
 6125              	.L303:
2325:../firmware/gd32f3x0_hal_peripheral/Source/gd32f3x0_hal_i2c.c ****         I2C_CKCFG(i2c_periph) |= clkc;
 6126              		.loc 1 2325 31
 6127 013c FB68     		ldr	r3, [r7, #12]
 6128 013e 1C33     		adds	r3, r3, #28
 6129 0140 1B68     		ldr	r3, [r3]
 6130 0142 FA68     		ldr	r2, [r7, #12]
 6131 0144 1C32     		adds	r2, r2, #28
 6132 0146 43F40043 		orr	r3, r3, #32768
 6133 014a 1360     		str	r3, [r2]
2326:../firmware/gd32f3x0_hal_peripheral/Source/gd32f3x0_hal_i2c.c ****     } else {
 6134              		.loc 1 2326 31
 6135 014c FB68     		ldr	r3, [r7, #12]
 6136 014e 1C33     		adds	r3, r3, #28
 6137 0150 1A68     		ldr	r2, [r3]
 6138 0152 FB68     		ldr	r3, [r7, #12]
 6139 0154 1C33     		adds	r3, r3, #28
 6140 0156 1946     		mov	r1, r3
 6141 0158 7B6A     		ldr	r3, [r7, #36]
 6142 015a 1343     		orrs	r3, r3, r2
 6143 015c 0B60     		str	r3, [r1]
 6144              		.loc 1 2345 1
 6145 015e 49E0     		b	.L306
 6146              	.L300:
2329:../firmware/gd32f3x0_hal_peripheral/Source/gd32f3x0_hal_i2c.c ****         if(I2C_DTCY_2 == dutycyc) {
 6147              		.loc 1 2329 48
 6148 0160 3A6A     		ldr	r2, [r7, #32]
 6149 0162 1346     		mov	r3, r2
 6150 0164 1B01     		lsls	r3, r3, #4
 6151 0166 9B1A     		subs	r3, r3, r2
 6152 0168 DB00     		lsls	r3, r3, #3
 6153 016a 1A46     		mov	r2, r3
2329:../firmware/gd32f3x0_hal_peripheral/Source/gd32f3x0_hal_i2c.c ****         if(I2C_DTCY_2 == dutycyc) {
 6154              		.loc 1 2329 66
 6155 016c 264B     		ldr	r3, .L307+12
 6156 016e A3FB0223 		umull	r2, r3, r3, r2
 6157 0172 9B09     		lsrs	r3, r3, #6
2329:../firmware/gd32f3x0_hal_peripheral/Source/gd32f3x0_hal_i2c.c ****         if(I2C_DTCY_2 == dutycyc) {
 6158              		.loc 1 2329 9
 6159 0174 FA68     		ldr	r2, [r7, #12]
 6160 0176 2032     		adds	r2, r2, #32
2329:../firmware/gd32f3x0_hal_peripheral/Source/gd32f3x0_hal_i2c.c ****         if(I2C_DTCY_2 == dutycyc) {
 6161              		.loc 1 2329 30
 6162 0178 0133     		adds	r3, r3, #1
2329:../firmware/gd32f3x0_hal_peripheral/Source/gd32f3x0_hal_i2c.c ****         if(I2C_DTCY_2 == dutycyc) {
 6163              		.loc 1 2329 28
 6164 017a 1360     		str	r3, [r2]
2330:../firmware/gd32f3x0_hal_peripheral/Source/gd32f3x0_hal_i2c.c ****             /* I2C duty cycle is 2 */
 6165              		.loc 1 2330 11
 6166 017c 7B68     		ldr	r3, [r7, #4]
 6167 017e 002B     		cmp	r3, #0
 6168 0180 10D1     		bne	.L304
2332:../firmware/gd32f3x0_hal_peripheral/Source/gd32f3x0_hal_i2c.c ****             I2C_CKCFG(i2c_periph) &= ~I2C_CKCFG_DTCY;
 6169              		.loc 1 2332 49
 6170 0182 BA68     		ldr	r2, [r7, #8]
 6171 0184 1346     		mov	r3, r2
 6172 0186 5B00     		lsls	r3, r3, #1
 6173 0188 1344     		add	r3, r3, r2
2332:../firmware/gd32f3x0_hal_peripheral/Source/gd32f3x0_hal_i2c.c ****             I2C_CKCFG(i2c_periph) &= ~I2C_CKCFG_DTCY;
 6174              		.loc 1 2332 18
 6175 018a FA69     		ldr	r2, [r7, #28]
 6176 018c B2FBF3F3 		udiv	r3, r2, r3
 6177 0190 7B62     		str	r3, [r7, #36]
2333:../firmware/gd32f3x0_hal_peripheral/Source/gd32f3x0_hal_i2c.c ****         } else {
 6178              		.loc 1 2333 35
 6179 0192 FB68     		ldr	r3, [r7, #12]
 6180 0194 1C33     		adds	r3, r3, #28
 6181 0196 1B68     		ldr	r3, [r3]
 6182 0198 FA68     		ldr	r2, [r7, #12]
 6183 019a 1C32     		adds	r2, r2, #28
 6184 019c 23F48043 		bic	r3, r3, #16384
 6185 01a0 1360     		str	r3, [r2]
 6186 01a2 11E0     		b	.L305
 6187              	.L304:
2336:../firmware/gd32f3x0_hal_peripheral/Source/gd32f3x0_hal_i2c.c ****             I2C_CKCFG(i2c_periph) |= I2C_CKCFG_DTCY;
 6188              		.loc 1 2336 49
 6189 01a4 BA68     		ldr	r2, [r7, #8]
 6190 01a6 1346     		mov	r3, r2
 6191 01a8 9B00     		lsls	r3, r3, #2
 6192 01aa 1344     		add	r3, r3, r2
 6193 01ac 9A00     		lsls	r2, r3, #2
 6194 01ae 1344     		add	r3, r3, r2
2336:../firmware/gd32f3x0_hal_peripheral/Source/gd32f3x0_hal_i2c.c ****             I2C_CKCFG(i2c_periph) |= I2C_CKCFG_DTCY;
 6195              		.loc 1 2336 18
 6196 01b0 FA69     		ldr	r2, [r7, #28]
 6197 01b2 B2FBF3F3 		udiv	r3, r2, r3
 6198 01b6 7B62     		str	r3, [r7, #36]
2337:../firmware/gd32f3x0_hal_peripheral/Source/gd32f3x0_hal_i2c.c ****         }
 6199              		.loc 1 2337 35
 6200 01b8 FB68     		ldr	r3, [r7, #12]
 6201 01ba 1C33     		adds	r3, r3, #28
 6202 01bc 1B68     		ldr	r3, [r3]
 6203 01be FA68     		ldr	r2, [r7, #12]
 6204 01c0 1C32     		adds	r2, r2, #28
 6205 01c2 43F48043 		orr	r3, r3, #16384
 6206 01c6 1360     		str	r3, [r2]
 6207              	.L305:
2340:../firmware/gd32f3x0_hal_peripheral/Source/gd32f3x0_hal_i2c.c ****         I2C_CKCFG(i2c_periph) |= clkc;
 6208              		.loc 1 2340 31
 6209 01c8 FB68     		ldr	r3, [r7, #12]
 6210 01ca 1C33     		adds	r3, r3, #28
 6211 01cc 1B68     		ldr	r3, [r3]
 6212 01ce FA68     		ldr	r2, [r7, #12]
 6213 01d0 1C32     		adds	r2, r2, #28
 6214 01d2 43F40043 		orr	r3, r3, #32768
 6215 01d6 1360     		str	r3, [r2]
2341:../firmware/gd32f3x0_hal_peripheral/Source/gd32f3x0_hal_i2c.c ****         /* enable I2C fast mode plus */
 6216              		.loc 1 2341 31
 6217 01d8 FB68     		ldr	r3, [r7, #12]
 6218 01da 1C33     		adds	r3, r3, #28
 6219 01dc 1A68     		ldr	r2, [r3]
 6220 01de FB68     		ldr	r3, [r7, #12]
 6221 01e0 1C33     		adds	r3, r3, #28
 6222 01e2 1946     		mov	r1, r3
 6223 01e4 7B6A     		ldr	r3, [r7, #36]
 6224 01e6 1343     		orrs	r3, r3, r2
 6225 01e8 0B60     		str	r3, [r1]
2343:../firmware/gd32f3x0_hal_peripheral/Source/gd32f3x0_hal_i2c.c ****     }
 6226              		.loc 1 2343 9
 6227 01ea FB68     		ldr	r3, [r7, #12]
 6228 01ec 9033     		adds	r3, r3, #144
 6229 01ee 1A46     		mov	r2, r3
2343:../firmware/gd32f3x0_hal_peripheral/Source/gd32f3x0_hal_i2c.c ****     }
 6230              		.loc 1 2343 32
 6231 01f0 0123     		movs	r3, #1
 6232 01f2 1360     		str	r3, [r2]
 6233              	.L306:
 6234              		.loc 1 2345 1
 6235 01f4 00BF     		nop
 6236 01f6 2837     		adds	r7, r7, #40
 6237              		.cfi_def_cfa_offset 8
 6238 01f8 BD46     		mov	sp, r7
 6239              		.cfi_def_cfa_register 13
 6240              		@ sp needed
 6241 01fa 80BD     		pop	{r7, pc}
 6242              	.L308:
 6243              		.align	2
 6244              	.L307:
 6245 01fc 83DE1B43 		.word	1125899907
 6246 0200 A0860100 		.word	100000
 6247 0204 801A0600 		.word	400000
 6248 0208 D34D6210 		.word	274877907
 6249              		.cfi_endproc
 6250              	.LFE153:
 6252              		.section	.text.hals_i2c_mode_addr_config,"ax",%progbits
 6253              		.align	1
 6254              		.global	hals_i2c_mode_addr_config
 6255              		.syntax unified
 6256              		.thumb
 6257              		.thumb_func
 6258              		.fpu softvfp
 6260              	hals_i2c_mode_addr_config:
 6261              	.LFB154:
2346:../firmware/gd32f3x0_hal_peripheral/Source/gd32f3x0_hal_i2c.c **** 
2347:../firmware/gd32f3x0_hal_peripheral/Source/gd32f3x0_hal_i2c.c **** /*!
2348:../firmware/gd32f3x0_hal_peripheral/Source/gd32f3x0_hal_i2c.c ****     \brief      configure I2C address
2349:../firmware/gd32f3x0_hal_peripheral/Source/gd32f3x0_hal_i2c.c ****     \param[in]  i2c_periph: I2Cx(x=0,1)
2350:../firmware/gd32f3x0_hal_peripheral/Source/gd32f3x0_hal_i2c.c ****     \param[in]  mode:
2351:../firmware/gd32f3x0_hal_peripheral/Source/gd32f3x0_hal_i2c.c ****                 only one parameter can be selected which is shown as below:
2352:../firmware/gd32f3x0_hal_peripheral/Source/gd32f3x0_hal_i2c.c ****       \arg        I2C_I2CMODE_ENABLE: I2C mode
2353:../firmware/gd32f3x0_hal_peripheral/Source/gd32f3x0_hal_i2c.c ****       \arg        I2C_SMBUSMODE_ENABLE: SMBus mode
2354:../firmware/gd32f3x0_hal_peripheral/Source/gd32f3x0_hal_i2c.c ****     \param[in]  addformat: 7bits or 10bits
2355:../firmware/gd32f3x0_hal_peripheral/Source/gd32f3x0_hal_i2c.c ****                 only one parameter can be selected which is shown as below:
2356:../firmware/gd32f3x0_hal_peripheral/Source/gd32f3x0_hal_i2c.c ****       \arg        I2C_ADDFORMAT_7BITS: address format is 7 bits
2357:../firmware/gd32f3x0_hal_peripheral/Source/gd32f3x0_hal_i2c.c ****       \arg        I2C_ADDFORMAT_10BITS: address format is 10 bits
2358:../firmware/gd32f3x0_hal_peripheral/Source/gd32f3x0_hal_i2c.c ****     \param[in]  addr: I2C address
2359:../firmware/gd32f3x0_hal_peripheral/Source/gd32f3x0_hal_i2c.c ****     \param[out] none
2360:../firmware/gd32f3x0_hal_peripheral/Source/gd32f3x0_hal_i2c.c ****     \retval     none
2361:../firmware/gd32f3x0_hal_peripheral/Source/gd32f3x0_hal_i2c.c **** */
2362:../firmware/gd32f3x0_hal_peripheral/Source/gd32f3x0_hal_i2c.c **** void hals_i2c_mode_addr_config(uint32_t i2c_periph, uint32_t mode, uint32_t addformat, uint32_t add
2363:../firmware/gd32f3x0_hal_peripheral/Source/gd32f3x0_hal_i2c.c **** {
 6262              		.loc 1 2363 1
 6263              		.cfi_startproc
 6264              		@ args = 0, pretend = 0, frame = 24
 6265              		@ frame_needed = 1, uses_anonymous_args = 0
 6266              		@ link register save eliminated.
 6267 0000 80B4     		push	{r7}
 6268              		.cfi_def_cfa_offset 4
 6269              		.cfi_offset 7, -4
 6270 0002 87B0     		sub	sp, sp, #28
 6271              		.cfi_def_cfa_offset 32
 6272 0004 00AF     		add	r7, sp, #0
 6273              		.cfi_def_cfa_register 7
 6274 0006 F860     		str	r0, [r7, #12]
 6275 0008 B960     		str	r1, [r7, #8]
 6276 000a 7A60     		str	r2, [r7, #4]
 6277 000c 3B60     		str	r3, [r7]
2364:../firmware/gd32f3x0_hal_peripheral/Source/gd32f3x0_hal_i2c.c ****     /* SMBus/I2C mode selected */
2365:../firmware/gd32f3x0_hal_peripheral/Source/gd32f3x0_hal_i2c.c ****     uint32_t ctl = 0U;
 6278              		.loc 1 2365 14
 6279 000e 0023     		movs	r3, #0
 6280 0010 7B61     		str	r3, [r7, #20]
2366:../firmware/gd32f3x0_hal_peripheral/Source/gd32f3x0_hal_i2c.c **** 
2367:../firmware/gd32f3x0_hal_peripheral/Source/gd32f3x0_hal_i2c.c ****     ctl = I2C_CTL0(i2c_periph);
 6281              		.loc 1 2367 11
 6282 0012 FB68     		ldr	r3, [r7, #12]
 6283              		.loc 1 2367 9
 6284 0014 1B68     		ldr	r3, [r3]
 6285 0016 7B61     		str	r3, [r7, #20]
2368:../firmware/gd32f3x0_hal_peripheral/Source/gd32f3x0_hal_i2c.c ****     ctl &= ~(I2C_CTL0_SMBEN);
 6286              		.loc 1 2368 9
 6287 0018 7B69     		ldr	r3, [r7, #20]
 6288 001a 23F00203 		bic	r3, r3, #2
 6289 001e 7B61     		str	r3, [r7, #20]
2369:../firmware/gd32f3x0_hal_peripheral/Source/gd32f3x0_hal_i2c.c ****     ctl |= mode;
 6290              		.loc 1 2369 9
 6291 0020 7A69     		ldr	r2, [r7, #20]
 6292 0022 BB68     		ldr	r3, [r7, #8]
 6293 0024 1343     		orrs	r3, r3, r2
 6294 0026 7B61     		str	r3, [r7, #20]
2370:../firmware/gd32f3x0_hal_peripheral/Source/gd32f3x0_hal_i2c.c ****     I2C_CTL0(i2c_periph) = ctl;
 6295              		.loc 1 2370 5
 6296 0028 FB68     		ldr	r3, [r7, #12]
 6297              		.loc 1 2370 26
 6298 002a 7A69     		ldr	r2, [r7, #20]
 6299 002c 1A60     		str	r2, [r3]
2371:../firmware/gd32f3x0_hal_peripheral/Source/gd32f3x0_hal_i2c.c **** 
2372:../firmware/gd32f3x0_hal_peripheral/Source/gd32f3x0_hal_i2c.c ****     /* configure address */
2373:../firmware/gd32f3x0_hal_peripheral/Source/gd32f3x0_hal_i2c.c ****     addr = addr & I2C_ADDRESS_MASK;
 6300              		.loc 1 2373 10
 6301 002e 3B68     		ldr	r3, [r7]
 6302 0030 C3F30903 		ubfx	r3, r3, #0, #10
 6303 0034 3B60     		str	r3, [r7]
2374:../firmware/gd32f3x0_hal_peripheral/Source/gd32f3x0_hal_i2c.c ****     I2C_SADDR0(i2c_periph) = (addformat | addr);
 6304              		.loc 1 2374 5
 6305 0036 FB68     		ldr	r3, [r7, #12]
 6306 0038 0833     		adds	r3, r3, #8
 6307 003a 1946     		mov	r1, r3
 6308              		.loc 1 2374 41
 6309 003c 7A68     		ldr	r2, [r7, #4]
 6310 003e 3B68     		ldr	r3, [r7]
 6311 0040 1343     		orrs	r3, r3, r2
 6312              		.loc 1 2374 28
 6313 0042 0B60     		str	r3, [r1]
2375:../firmware/gd32f3x0_hal_peripheral/Source/gd32f3x0_hal_i2c.c **** }
 6314              		.loc 1 2375 1
 6315 0044 00BF     		nop
 6316 0046 1C37     		adds	r7, r7, #28
 6317              		.cfi_def_cfa_offset 4
 6318 0048 BD46     		mov	sp, r7
 6319              		.cfi_def_cfa_register 13
 6320              		@ sp needed
 6321 004a 80BC     		pop	{r7}
 6322              		.cfi_restore 7
 6323              		.cfi_def_cfa_offset 0
 6324 004c 7047     		bx	lr
 6325              		.cfi_endproc
 6326              	.LFE154:
 6328              		.section	.text.hals_i2c_ack_config,"ax",%progbits
 6329              		.align	1
 6330              		.global	hals_i2c_ack_config
 6331              		.syntax unified
 6332              		.thumb
 6333              		.thumb_func
 6334              		.fpu softvfp
 6336              	hals_i2c_ack_config:
 6337              	.LFB155:
2376:../firmware/gd32f3x0_hal_peripheral/Source/gd32f3x0_hal_i2c.c **** 
2377:../firmware/gd32f3x0_hal_peripheral/Source/gd32f3x0_hal_i2c.c **** /*!
2378:../firmware/gd32f3x0_hal_peripheral/Source/gd32f3x0_hal_i2c.c ****     \brief      whether or not to send an ACK
2379:../firmware/gd32f3x0_hal_peripheral/Source/gd32f3x0_hal_i2c.c ****     \param[in]  i2c_periph: I2Cx(x=0,1)
2380:../firmware/gd32f3x0_hal_peripheral/Source/gd32f3x0_hal_i2c.c ****     \param[in]  ack:
2381:../firmware/gd32f3x0_hal_peripheral/Source/gd32f3x0_hal_i2c.c ****                 only one parameter can be selected which is shown as below:
2382:../firmware/gd32f3x0_hal_peripheral/Source/gd32f3x0_hal_i2c.c ****       \arg        I2C_ACK_ENABLE: ACK will be sent
2383:../firmware/gd32f3x0_hal_peripheral/Source/gd32f3x0_hal_i2c.c ****       \arg        I2C_ACK_DISABLE: ACK will not be sent
2384:../firmware/gd32f3x0_hal_peripheral/Source/gd32f3x0_hal_i2c.c ****     \param[out] none
2385:../firmware/gd32f3x0_hal_peripheral/Source/gd32f3x0_hal_i2c.c ****     \retval     none
2386:../firmware/gd32f3x0_hal_peripheral/Source/gd32f3x0_hal_i2c.c **** */
2387:../firmware/gd32f3x0_hal_peripheral/Source/gd32f3x0_hal_i2c.c **** void hals_i2c_ack_config(uint32_t i2c_periph, uint32_t ack)
2388:../firmware/gd32f3x0_hal_peripheral/Source/gd32f3x0_hal_i2c.c **** {
 6338              		.loc 1 2388 1
 6339              		.cfi_startproc
 6340              		@ args = 0, pretend = 0, frame = 16
 6341              		@ frame_needed = 1, uses_anonymous_args = 0
 6342              		@ link register save eliminated.
 6343 0000 80B4     		push	{r7}
 6344              		.cfi_def_cfa_offset 4
 6345              		.cfi_offset 7, -4
 6346 0002 85B0     		sub	sp, sp, #20
 6347              		.cfi_def_cfa_offset 24
 6348 0004 00AF     		add	r7, sp, #0
 6349              		.cfi_def_cfa_register 7
 6350 0006 7860     		str	r0, [r7, #4]
 6351 0008 3960     		str	r1, [r7]
2389:../firmware/gd32f3x0_hal_peripheral/Source/gd32f3x0_hal_i2c.c ****     uint32_t ctl = 0U;
 6352              		.loc 1 2389 14
 6353 000a 0023     		movs	r3, #0
 6354 000c FB60     		str	r3, [r7, #12]
2390:../firmware/gd32f3x0_hal_peripheral/Source/gd32f3x0_hal_i2c.c **** 
2391:../firmware/gd32f3x0_hal_peripheral/Source/gd32f3x0_hal_i2c.c ****     ctl = I2C_CTL0(i2c_periph);
 6355              		.loc 1 2391 11
 6356 000e 7B68     		ldr	r3, [r7, #4]
 6357              		.loc 1 2391 9
 6358 0010 1B68     		ldr	r3, [r3]
 6359 0012 FB60     		str	r3, [r7, #12]
2392:../firmware/gd32f3x0_hal_peripheral/Source/gd32f3x0_hal_i2c.c ****     ctl &= ~(I2C_CTL0_ACKEN);
 6360              		.loc 1 2392 9
 6361 0014 FB68     		ldr	r3, [r7, #12]
 6362 0016 23F48063 		bic	r3, r3, #1024
 6363 001a FB60     		str	r3, [r7, #12]
2393:../firmware/gd32f3x0_hal_peripheral/Source/gd32f3x0_hal_i2c.c ****     ctl |= ack;
 6364              		.loc 1 2393 9
 6365 001c FA68     		ldr	r2, [r7, #12]
 6366 001e 3B68     		ldr	r3, [r7]
 6367 0020 1343     		orrs	r3, r3, r2
 6368 0022 FB60     		str	r3, [r7, #12]
2394:../firmware/gd32f3x0_hal_peripheral/Source/gd32f3x0_hal_i2c.c ****     I2C_CTL0(i2c_periph) = ctl;
 6369              		.loc 1 2394 5
 6370 0024 7B68     		ldr	r3, [r7, #4]
 6371              		.loc 1 2394 26
 6372 0026 FA68     		ldr	r2, [r7, #12]
 6373 0028 1A60     		str	r2, [r3]
2395:../firmware/gd32f3x0_hal_peripheral/Source/gd32f3x0_hal_i2c.c **** }
 6374              		.loc 1 2395 1
 6375 002a 00BF     		nop
 6376 002c 1437     		adds	r7, r7, #20
 6377              		.cfi_def_cfa_offset 4
 6378 002e BD46     		mov	sp, r7
 6379              		.cfi_def_cfa_register 13
 6380              		@ sp needed
 6381 0030 80BC     		pop	{r7}
 6382              		.cfi_restore 7
 6383              		.cfi_def_cfa_offset 0
 6384 0032 7047     		bx	lr
 6385              		.cfi_endproc
 6386              	.LFE155:
 6388              		.section	.text.hals_i2c_ackpos_config,"ax",%progbits
 6389              		.align	1
 6390              		.global	hals_i2c_ackpos_config
 6391              		.syntax unified
 6392              		.thumb
 6393              		.thumb_func
 6394              		.fpu softvfp
 6396              	hals_i2c_ackpos_config:
 6397              	.LFB156:
2396:../firmware/gd32f3x0_hal_peripheral/Source/gd32f3x0_hal_i2c.c **** 
2397:../firmware/gd32f3x0_hal_peripheral/Source/gd32f3x0_hal_i2c.c **** /*!
2398:../firmware/gd32f3x0_hal_peripheral/Source/gd32f3x0_hal_i2c.c ****     \brief      configure I2C POAP position
2399:../firmware/gd32f3x0_hal_peripheral/Source/gd32f3x0_hal_i2c.c ****     \param[in]  i2c_periph: I2Cx(x=0,1)
2400:../firmware/gd32f3x0_hal_peripheral/Source/gd32f3x0_hal_i2c.c ****     \param[in]  pos:
2401:../firmware/gd32f3x0_hal_peripheral/Source/gd32f3x0_hal_i2c.c ****                 only one parameter can be selected which is shown as below:
2402:../firmware/gd32f3x0_hal_peripheral/Source/gd32f3x0_hal_i2c.c ****       \arg        I2C_ACKPOS_CURRENT: ACKEN bit decides whether or not to send ACK or not for the c
2403:../firmware/gd32f3x0_hal_peripheral/Source/gd32f3x0_hal_i2c.c ****       \arg        I2C_ACKPOS_NEXT: ACKEN bit decides whether or not to send ACK for the next byte
2404:../firmware/gd32f3x0_hal_peripheral/Source/gd32f3x0_hal_i2c.c ****     \param[out] none
2405:../firmware/gd32f3x0_hal_peripheral/Source/gd32f3x0_hal_i2c.c ****     \retval     none
2406:../firmware/gd32f3x0_hal_peripheral/Source/gd32f3x0_hal_i2c.c **** */
2407:../firmware/gd32f3x0_hal_peripheral/Source/gd32f3x0_hal_i2c.c **** void hals_i2c_ackpos_config(uint32_t i2c_periph, uint32_t pos)
2408:../firmware/gd32f3x0_hal_peripheral/Source/gd32f3x0_hal_i2c.c **** {
 6398              		.loc 1 2408 1
 6399              		.cfi_startproc
 6400              		@ args = 0, pretend = 0, frame = 16
 6401              		@ frame_needed = 1, uses_anonymous_args = 0
 6402              		@ link register save eliminated.
 6403 0000 80B4     		push	{r7}
 6404              		.cfi_def_cfa_offset 4
 6405              		.cfi_offset 7, -4
 6406 0002 85B0     		sub	sp, sp, #20
 6407              		.cfi_def_cfa_offset 24
 6408 0004 00AF     		add	r7, sp, #0
 6409              		.cfi_def_cfa_register 7
 6410 0006 7860     		str	r0, [r7, #4]
 6411 0008 3960     		str	r1, [r7]
2409:../firmware/gd32f3x0_hal_peripheral/Source/gd32f3x0_hal_i2c.c ****     uint32_t ctl = 0U;
 6412              		.loc 1 2409 14
 6413 000a 0023     		movs	r3, #0
 6414 000c FB60     		str	r3, [r7, #12]
2410:../firmware/gd32f3x0_hal_peripheral/Source/gd32f3x0_hal_i2c.c **** 
2411:../firmware/gd32f3x0_hal_peripheral/Source/gd32f3x0_hal_i2c.c ****     /* configure I2C POAP position */
2412:../firmware/gd32f3x0_hal_peripheral/Source/gd32f3x0_hal_i2c.c ****     ctl = I2C_CTL0(i2c_periph);
 6415              		.loc 1 2412 11
 6416 000e 7B68     		ldr	r3, [r7, #4]
 6417              		.loc 1 2412 9
 6418 0010 1B68     		ldr	r3, [r3]
 6419 0012 FB60     		str	r3, [r7, #12]
2413:../firmware/gd32f3x0_hal_peripheral/Source/gd32f3x0_hal_i2c.c ****     ctl &= ~(I2C_CTL0_POAP);
 6420              		.loc 1 2413 9
 6421 0014 FB68     		ldr	r3, [r7, #12]
 6422 0016 23F40063 		bic	r3, r3, #2048
 6423 001a FB60     		str	r3, [r7, #12]
2414:../firmware/gd32f3x0_hal_peripheral/Source/gd32f3x0_hal_i2c.c ****     ctl |= pos;
 6424              		.loc 1 2414 9
 6425 001c FA68     		ldr	r2, [r7, #12]
 6426 001e 3B68     		ldr	r3, [r7]
 6427 0020 1343     		orrs	r3, r3, r2
 6428 0022 FB60     		str	r3, [r7, #12]
2415:../firmware/gd32f3x0_hal_peripheral/Source/gd32f3x0_hal_i2c.c ****     I2C_CTL0(i2c_periph) = ctl;
 6429              		.loc 1 2415 5
 6430 0024 7B68     		ldr	r3, [r7, #4]
 6431              		.loc 1 2415 26
 6432 0026 FA68     		ldr	r2, [r7, #12]
 6433 0028 1A60     		str	r2, [r3]
2416:../firmware/gd32f3x0_hal_peripheral/Source/gd32f3x0_hal_i2c.c **** }
 6434              		.loc 1 2416 1
 6435 002a 00BF     		nop
 6436 002c 1437     		adds	r7, r7, #20
 6437              		.cfi_def_cfa_offset 4
 6438 002e BD46     		mov	sp, r7
 6439              		.cfi_def_cfa_register 13
 6440              		@ sp needed
 6441 0030 80BC     		pop	{r7}
 6442              		.cfi_restore 7
 6443              		.cfi_def_cfa_offset 0
 6444 0032 7047     		bx	lr
 6445              		.cfi_endproc
 6446              	.LFE156:
 6448              		.section	.text.hals_i2c_master_addressing,"ax",%progbits
 6449              		.align	1
 6450              		.global	hals_i2c_master_addressing
 6451              		.syntax unified
 6452              		.thumb
 6453              		.thumb_func
 6454              		.fpu softvfp
 6456              	hals_i2c_master_addressing:
 6457              	.LFB157:
2417:../firmware/gd32f3x0_hal_peripheral/Source/gd32f3x0_hal_i2c.c **** 
2418:../firmware/gd32f3x0_hal_peripheral/Source/gd32f3x0_hal_i2c.c **** /*!
2419:../firmware/gd32f3x0_hal_peripheral/Source/gd32f3x0_hal_i2c.c ****     \brief      master sends slave address
2420:../firmware/gd32f3x0_hal_peripheral/Source/gd32f3x0_hal_i2c.c ****     \param[in]  i2c_periph: I2Cx(x=0,1)
2421:../firmware/gd32f3x0_hal_peripheral/Source/gd32f3x0_hal_i2c.c ****     \param[in]  addr: slave address
2422:../firmware/gd32f3x0_hal_peripheral/Source/gd32f3x0_hal_i2c.c ****     \param[in]  trandirection: transmitter or receiver
2423:../firmware/gd32f3x0_hal_peripheral/Source/gd32f3x0_hal_i2c.c ****                 only one parameter can be selected which is shown as below:
2424:../firmware/gd32f3x0_hal_peripheral/Source/gd32f3x0_hal_i2c.c ****       \arg        I2C_TRANSMITTER: transmitter
2425:../firmware/gd32f3x0_hal_peripheral/Source/gd32f3x0_hal_i2c.c ****       \arg        I2C_RECEIVER: receiver
2426:../firmware/gd32f3x0_hal_peripheral/Source/gd32f3x0_hal_i2c.c ****     \param[out] none
2427:../firmware/gd32f3x0_hal_peripheral/Source/gd32f3x0_hal_i2c.c ****     \retval     none
2428:../firmware/gd32f3x0_hal_peripheral/Source/gd32f3x0_hal_i2c.c **** */
2429:../firmware/gd32f3x0_hal_peripheral/Source/gd32f3x0_hal_i2c.c **** void hals_i2c_master_addressing(uint32_t i2c_periph, uint32_t addr, uint32_t trandirection)
2430:../firmware/gd32f3x0_hal_peripheral/Source/gd32f3x0_hal_i2c.c **** {
 6458              		.loc 1 2430 1
 6459              		.cfi_startproc
 6460              		@ args = 0, pretend = 0, frame = 16
 6461              		@ frame_needed = 1, uses_anonymous_args = 0
 6462              		@ link register save eliminated.
 6463 0000 80B4     		push	{r7}
 6464              		.cfi_def_cfa_offset 4
 6465              		.cfi_offset 7, -4
 6466 0002 85B0     		sub	sp, sp, #20
 6467              		.cfi_def_cfa_offset 24
 6468 0004 00AF     		add	r7, sp, #0
 6469              		.cfi_def_cfa_register 7
 6470 0006 F860     		str	r0, [r7, #12]
 6471 0008 B960     		str	r1, [r7, #8]
 6472 000a 7A60     		str	r2, [r7, #4]
2431:../firmware/gd32f3x0_hal_peripheral/Source/gd32f3x0_hal_i2c.c ****     /* master is a transmitter or a receiver */
2432:../firmware/gd32f3x0_hal_peripheral/Source/gd32f3x0_hal_i2c.c ****     if(I2C_TRANSMITTER == trandirection) {
 6473              		.loc 1 2432 7
 6474 000c 7B68     		ldr	r3, [r7, #4]
 6475 000e 13F1020F 		cmn	r3, #2
 6476 0012 04D1     		bne	.L313
2433:../firmware/gd32f3x0_hal_peripheral/Source/gd32f3x0_hal_i2c.c ****         addr = addr & I2C_TRANSMITTER;
 6477              		.loc 1 2433 14
 6478 0014 BB68     		ldr	r3, [r7, #8]
 6479 0016 23F00103 		bic	r3, r3, #1
 6480 001a BB60     		str	r3, [r7, #8]
 6481 001c 03E0     		b	.L314
 6482              	.L313:
2434:../firmware/gd32f3x0_hal_peripheral/Source/gd32f3x0_hal_i2c.c ****     } else {
2435:../firmware/gd32f3x0_hal_peripheral/Source/gd32f3x0_hal_i2c.c ****         addr = addr | I2C_RECEIVER;
 6483              		.loc 1 2435 14
 6484 001e BB68     		ldr	r3, [r7, #8]
 6485 0020 43F00103 		orr	r3, r3, #1
 6486 0024 BB60     		str	r3, [r7, #8]
 6487              	.L314:
2436:../firmware/gd32f3x0_hal_peripheral/Source/gd32f3x0_hal_i2c.c ****     }
2437:../firmware/gd32f3x0_hal_peripheral/Source/gd32f3x0_hal_i2c.c ****     /* send slave address */
2438:../firmware/gd32f3x0_hal_peripheral/Source/gd32f3x0_hal_i2c.c ****     I2C_DATA(i2c_periph) = addr;
 6488              		.loc 1 2438 5
 6489 0026 FB68     		ldr	r3, [r7, #12]
 6490 0028 1033     		adds	r3, r3, #16
 6491 002a 1A46     		mov	r2, r3
 6492              		.loc 1 2438 26
 6493 002c BB68     		ldr	r3, [r7, #8]
 6494 002e 1360     		str	r3, [r2]
2439:../firmware/gd32f3x0_hal_peripheral/Source/gd32f3x0_hal_i2c.c **** }
 6495              		.loc 1 2439 1
 6496 0030 00BF     		nop
 6497 0032 1437     		adds	r7, r7, #20
 6498              		.cfi_def_cfa_offset 4
 6499 0034 BD46     		mov	sp, r7
 6500              		.cfi_def_cfa_register 13
 6501              		@ sp needed
 6502 0036 80BC     		pop	{r7}
 6503              		.cfi_restore 7
 6504              		.cfi_def_cfa_offset 0
 6505 0038 7047     		bx	lr
 6506              		.cfi_endproc
 6507              	.LFE157:
 6509              		.section	.text.hals_i2c_dualaddr_enable,"ax",%progbits
 6510              		.align	1
 6511              		.global	hals_i2c_dualaddr_enable
 6512              		.syntax unified
 6513              		.thumb
 6514              		.thumb_func
 6515              		.fpu softvfp
 6517              	hals_i2c_dualaddr_enable:
 6518              	.LFB158:
2440:../firmware/gd32f3x0_hal_peripheral/Source/gd32f3x0_hal_i2c.c **** 
2441:../firmware/gd32f3x0_hal_peripheral/Source/gd32f3x0_hal_i2c.c **** /*!
2442:../firmware/gd32f3x0_hal_peripheral/Source/gd32f3x0_hal_i2c.c ****     \brief      enable dual-address mode
2443:../firmware/gd32f3x0_hal_peripheral/Source/gd32f3x0_hal_i2c.c ****     \param[in]  i2c_periph: I2Cx(x=0,1)
2444:../firmware/gd32f3x0_hal_peripheral/Source/gd32f3x0_hal_i2c.c ****     \param[in]  addr: the second address in dual-address mode
2445:../firmware/gd32f3x0_hal_peripheral/Source/gd32f3x0_hal_i2c.c ****     \param[out] none
2446:../firmware/gd32f3x0_hal_peripheral/Source/gd32f3x0_hal_i2c.c ****     \retval     none
2447:../firmware/gd32f3x0_hal_peripheral/Source/gd32f3x0_hal_i2c.c **** */
2448:../firmware/gd32f3x0_hal_peripheral/Source/gd32f3x0_hal_i2c.c **** void hals_i2c_dualaddr_enable(uint32_t i2c_periph, uint32_t addr)
2449:../firmware/gd32f3x0_hal_peripheral/Source/gd32f3x0_hal_i2c.c **** {
 6519              		.loc 1 2449 1
 6520              		.cfi_startproc
 6521              		@ args = 0, pretend = 0, frame = 8
 6522              		@ frame_needed = 1, uses_anonymous_args = 0
 6523              		@ link register save eliminated.
 6524 0000 80B4     		push	{r7}
 6525              		.cfi_def_cfa_offset 4
 6526              		.cfi_offset 7, -4
 6527 0002 83B0     		sub	sp, sp, #12
 6528              		.cfi_def_cfa_offset 16
 6529 0004 00AF     		add	r7, sp, #0
 6530              		.cfi_def_cfa_register 7
 6531 0006 7860     		str	r0, [r7, #4]
 6532 0008 3960     		str	r1, [r7]
2450:../firmware/gd32f3x0_hal_peripheral/Source/gd32f3x0_hal_i2c.c ****     /* configure address */
2451:../firmware/gd32f3x0_hal_peripheral/Source/gd32f3x0_hal_i2c.c ****     addr = addr & I2C_ADDRESS2_MASK;
 6533              		.loc 1 2451 10
 6534 000a 3B68     		ldr	r3, [r7]
 6535 000c 03F0FE03 		and	r3, r3, #254
 6536 0010 3B60     		str	r3, [r7]
2452:../firmware/gd32f3x0_hal_peripheral/Source/gd32f3x0_hal_i2c.c ****     I2C_SADDR1(i2c_periph) = (I2C_SADDR1_DUADEN | addr);
 6537              		.loc 1 2452 5
 6538 0012 7B68     		ldr	r3, [r7, #4]
 6539 0014 0C33     		adds	r3, r3, #12
 6540 0016 1A46     		mov	r2, r3
 6541              		.loc 1 2452 49
 6542 0018 3B68     		ldr	r3, [r7]
 6543 001a 43F00103 		orr	r3, r3, #1
 6544              		.loc 1 2452 28
 6545 001e 1360     		str	r3, [r2]
2453:../firmware/gd32f3x0_hal_peripheral/Source/gd32f3x0_hal_i2c.c **** }
 6546              		.loc 1 2453 1
 6547 0020 00BF     		nop
 6548 0022 0C37     		adds	r7, r7, #12
 6549              		.cfi_def_cfa_offset 4
 6550 0024 BD46     		mov	sp, r7
 6551              		.cfi_def_cfa_register 13
 6552              		@ sp needed
 6553 0026 80BC     		pop	{r7}
 6554              		.cfi_restore 7
 6555              		.cfi_def_cfa_offset 0
 6556 0028 7047     		bx	lr
 6557              		.cfi_endproc
 6558              	.LFE158:
 6560              		.section	.text.hals_i2c_dualaddr_disable,"ax",%progbits
 6561              		.align	1
 6562              		.global	hals_i2c_dualaddr_disable
 6563              		.syntax unified
 6564              		.thumb
 6565              		.thumb_func
 6566              		.fpu softvfp
 6568              	hals_i2c_dualaddr_disable:
 6569              	.LFB159:
2454:../firmware/gd32f3x0_hal_peripheral/Source/gd32f3x0_hal_i2c.c **** 
2455:../firmware/gd32f3x0_hal_peripheral/Source/gd32f3x0_hal_i2c.c **** /*!
2456:../firmware/gd32f3x0_hal_peripheral/Source/gd32f3x0_hal_i2c.c ****     \brief      disable dual-address mode
2457:../firmware/gd32f3x0_hal_peripheral/Source/gd32f3x0_hal_i2c.c ****     \param[in]  i2c_periph: I2Cx(x=0,1)
2458:../firmware/gd32f3x0_hal_peripheral/Source/gd32f3x0_hal_i2c.c ****     \param[out] none
2459:../firmware/gd32f3x0_hal_peripheral/Source/gd32f3x0_hal_i2c.c ****     \retval     none
2460:../firmware/gd32f3x0_hal_peripheral/Source/gd32f3x0_hal_i2c.c **** */
2461:../firmware/gd32f3x0_hal_peripheral/Source/gd32f3x0_hal_i2c.c **** void hals_i2c_dualaddr_disable(uint32_t i2c_periph)
2462:../firmware/gd32f3x0_hal_peripheral/Source/gd32f3x0_hal_i2c.c **** {
 6570              		.loc 1 2462 1
 6571              		.cfi_startproc
 6572              		@ args = 0, pretend = 0, frame = 8
 6573              		@ frame_needed = 1, uses_anonymous_args = 0
 6574              		@ link register save eliminated.
 6575 0000 80B4     		push	{r7}
 6576              		.cfi_def_cfa_offset 4
 6577              		.cfi_offset 7, -4
 6578 0002 83B0     		sub	sp, sp, #12
 6579              		.cfi_def_cfa_offset 16
 6580 0004 00AF     		add	r7, sp, #0
 6581              		.cfi_def_cfa_register 7
 6582 0006 7860     		str	r0, [r7, #4]
2463:../firmware/gd32f3x0_hal_peripheral/Source/gd32f3x0_hal_i2c.c ****     I2C_SADDR1(i2c_periph) &= ~(I2C_SADDR1_DUADEN);
 6583              		.loc 1 2463 28
 6584 0008 7B68     		ldr	r3, [r7, #4]
 6585 000a 0C33     		adds	r3, r3, #12
 6586 000c 1B68     		ldr	r3, [r3]
 6587 000e 7A68     		ldr	r2, [r7, #4]
 6588 0010 0C32     		adds	r2, r2, #12
 6589 0012 23F00103 		bic	r3, r3, #1
 6590 0016 1360     		str	r3, [r2]
2464:../firmware/gd32f3x0_hal_peripheral/Source/gd32f3x0_hal_i2c.c **** }
 6591              		.loc 1 2464 1
 6592 0018 00BF     		nop
 6593 001a 0C37     		adds	r7, r7, #12
 6594              		.cfi_def_cfa_offset 4
 6595 001c BD46     		mov	sp, r7
 6596              		.cfi_def_cfa_register 13
 6597              		@ sp needed
 6598 001e 80BC     		pop	{r7}
 6599              		.cfi_restore 7
 6600              		.cfi_def_cfa_offset 0
 6601 0020 7047     		bx	lr
 6602              		.cfi_endproc
 6603              	.LFE159:
 6605              		.section	.text.hals_i2c_stretch_scl_low_config,"ax",%progbits
 6606              		.align	1
 6607              		.global	hals_i2c_stretch_scl_low_config
 6608              		.syntax unified
 6609              		.thumb
 6610              		.thumb_func
 6611              		.fpu softvfp
 6613              	hals_i2c_stretch_scl_low_config:
 6614              	.LFB160:
2465:../firmware/gd32f3x0_hal_peripheral/Source/gd32f3x0_hal_i2c.c **** 
2466:../firmware/gd32f3x0_hal_peripheral/Source/gd32f3x0_hal_i2c.c **** /*!
2467:../firmware/gd32f3x0_hal_peripheral/Source/gd32f3x0_hal_i2c.c ****     \brief      whether to stretch SCL low when data is not ready in slave mode
2468:../firmware/gd32f3x0_hal_peripheral/Source/gd32f3x0_hal_i2c.c ****     \param[in]  i2c_periph: I2Cx(x=0,1)
2469:../firmware/gd32f3x0_hal_peripheral/Source/gd32f3x0_hal_i2c.c ****     \param[in]  stretchpara:
2470:../firmware/gd32f3x0_hal_peripheral/Source/gd32f3x0_hal_i2c.c ****                 only one parameter can be selected which is shown as below:
2471:../firmware/gd32f3x0_hal_peripheral/Source/gd32f3x0_hal_i2c.c ****       \arg        I2C_SCLSTRETCH_ENABLE: enable SCL stretching
2472:../firmware/gd32f3x0_hal_peripheral/Source/gd32f3x0_hal_i2c.c ****       \arg        I2C_SCLSTRETCH_DISABLE: disable SCL stretching
2473:../firmware/gd32f3x0_hal_peripheral/Source/gd32f3x0_hal_i2c.c ****     \param[out] none
2474:../firmware/gd32f3x0_hal_peripheral/Source/gd32f3x0_hal_i2c.c ****     \retval     none
2475:../firmware/gd32f3x0_hal_peripheral/Source/gd32f3x0_hal_i2c.c **** */
2476:../firmware/gd32f3x0_hal_peripheral/Source/gd32f3x0_hal_i2c.c **** void hals_i2c_stretch_scl_low_config(uint32_t i2c_periph, uint32_t stretchpara)
2477:../firmware/gd32f3x0_hal_peripheral/Source/gd32f3x0_hal_i2c.c **** {
 6615              		.loc 1 2477 1
 6616              		.cfi_startproc
 6617              		@ args = 0, pretend = 0, frame = 16
 6618              		@ frame_needed = 1, uses_anonymous_args = 0
 6619              		@ link register save eliminated.
 6620 0000 80B4     		push	{r7}
 6621              		.cfi_def_cfa_offset 4
 6622              		.cfi_offset 7, -4
 6623 0002 85B0     		sub	sp, sp, #20
 6624              		.cfi_def_cfa_offset 24
 6625 0004 00AF     		add	r7, sp, #0
 6626              		.cfi_def_cfa_register 7
 6627 0006 7860     		str	r0, [r7, #4]
 6628 0008 3960     		str	r1, [r7]
2478:../firmware/gd32f3x0_hal_peripheral/Source/gd32f3x0_hal_i2c.c ****     /* configure I2C SCL stretching */
2479:../firmware/gd32f3x0_hal_peripheral/Source/gd32f3x0_hal_i2c.c ****     uint32_t ctl = 0U;
 6629              		.loc 1 2479 14
 6630 000a 0023     		movs	r3, #0
 6631 000c FB60     		str	r3, [r7, #12]
2480:../firmware/gd32f3x0_hal_peripheral/Source/gd32f3x0_hal_i2c.c **** 
2481:../firmware/gd32f3x0_hal_peripheral/Source/gd32f3x0_hal_i2c.c ****     ctl = I2C_CTL0(i2c_periph);
 6632              		.loc 1 2481 11
 6633 000e 7B68     		ldr	r3, [r7, #4]
 6634              		.loc 1 2481 9
 6635 0010 1B68     		ldr	r3, [r3]
 6636 0012 FB60     		str	r3, [r7, #12]
2482:../firmware/gd32f3x0_hal_peripheral/Source/gd32f3x0_hal_i2c.c ****     ctl &= ~(I2C_CTL0_SS);
 6637              		.loc 1 2482 9
 6638 0014 FB68     		ldr	r3, [r7, #12]
 6639 0016 23F08003 		bic	r3, r3, #128
 6640 001a FB60     		str	r3, [r7, #12]
2483:../firmware/gd32f3x0_hal_peripheral/Source/gd32f3x0_hal_i2c.c ****     ctl |= stretchpara;
 6641              		.loc 1 2483 9
 6642 001c FA68     		ldr	r2, [r7, #12]
 6643 001e 3B68     		ldr	r3, [r7]
 6644 0020 1343     		orrs	r3, r3, r2
 6645 0022 FB60     		str	r3, [r7, #12]
2484:../firmware/gd32f3x0_hal_peripheral/Source/gd32f3x0_hal_i2c.c ****     I2C_CTL0(i2c_periph) = ctl;
 6646              		.loc 1 2484 5
 6647 0024 7B68     		ldr	r3, [r7, #4]
 6648              		.loc 1 2484 26
 6649 0026 FA68     		ldr	r2, [r7, #12]
 6650 0028 1A60     		str	r2, [r3]
2485:../firmware/gd32f3x0_hal_peripheral/Source/gd32f3x0_hal_i2c.c **** }
 6651              		.loc 1 2485 1
 6652 002a 00BF     		nop
 6653 002c 1437     		adds	r7, r7, #20
 6654              		.cfi_def_cfa_offset 4
 6655 002e BD46     		mov	sp, r7
 6656              		.cfi_def_cfa_register 13
 6657              		@ sp needed
 6658 0030 80BC     		pop	{r7}
 6659              		.cfi_restore 7
 6660              		.cfi_def_cfa_offset 0
 6661 0032 7047     		bx	lr
 6662              		.cfi_endproc
 6663              	.LFE160:
 6665              		.section	.text.hals_i2c_slave_response_to_gcall_config,"ax",%progbits
 6666              		.align	1
 6667              		.global	hals_i2c_slave_response_to_gcall_config
 6668              		.syntax unified
 6669              		.thumb
 6670              		.thumb_func
 6671              		.fpu softvfp
 6673              	hals_i2c_slave_response_to_gcall_config:
 6674              	.LFB161:
2486:../firmware/gd32f3x0_hal_peripheral/Source/gd32f3x0_hal_i2c.c **** 
2487:../firmware/gd32f3x0_hal_peripheral/Source/gd32f3x0_hal_i2c.c **** /*!
2488:../firmware/gd32f3x0_hal_peripheral/Source/gd32f3x0_hal_i2c.c ****     \brief      whether or not to response to a general call
2489:../firmware/gd32f3x0_hal_peripheral/Source/gd32f3x0_hal_i2c.c ****     \param[in]  i2c_periph: I2Cx(x=0,1)
2490:../firmware/gd32f3x0_hal_peripheral/Source/gd32f3x0_hal_i2c.c ****     \param[in]  gcallpara:
2491:../firmware/gd32f3x0_hal_peripheral/Source/gd32f3x0_hal_i2c.c ****                 only one parameter can be selected which is shown as below:
2492:../firmware/gd32f3x0_hal_peripheral/Source/gd32f3x0_hal_i2c.c ****       \arg        I2C_GCEN_ENABLE: slave will response to a general call
2493:../firmware/gd32f3x0_hal_peripheral/Source/gd32f3x0_hal_i2c.c ****       \arg        I2C_GCEN_DISABLE: slave will not response to a general call
2494:../firmware/gd32f3x0_hal_peripheral/Source/gd32f3x0_hal_i2c.c ****     \param[out] none
2495:../firmware/gd32f3x0_hal_peripheral/Source/gd32f3x0_hal_i2c.c ****     \retval     none
2496:../firmware/gd32f3x0_hal_peripheral/Source/gd32f3x0_hal_i2c.c **** */
2497:../firmware/gd32f3x0_hal_peripheral/Source/gd32f3x0_hal_i2c.c **** void hals_i2c_slave_response_to_gcall_config(uint32_t i2c_periph, uint32_t gcallpara)
2498:../firmware/gd32f3x0_hal_peripheral/Source/gd32f3x0_hal_i2c.c **** {
 6675              		.loc 1 2498 1
 6676              		.cfi_startproc
 6677              		@ args = 0, pretend = 0, frame = 16
 6678              		@ frame_needed = 1, uses_anonymous_args = 0
 6679              		@ link register save eliminated.
 6680 0000 80B4     		push	{r7}
 6681              		.cfi_def_cfa_offset 4
 6682              		.cfi_offset 7, -4
 6683 0002 85B0     		sub	sp, sp, #20
 6684              		.cfi_def_cfa_offset 24
 6685 0004 00AF     		add	r7, sp, #0
 6686              		.cfi_def_cfa_register 7
 6687 0006 7860     		str	r0, [r7, #4]
 6688 0008 3960     		str	r1, [r7]
2499:../firmware/gd32f3x0_hal_peripheral/Source/gd32f3x0_hal_i2c.c ****     /* configure slave response to a general call enable or disable */
2500:../firmware/gd32f3x0_hal_peripheral/Source/gd32f3x0_hal_i2c.c ****     uint32_t ctl = 0U;
 6689              		.loc 1 2500 14
 6690 000a 0023     		movs	r3, #0
 6691 000c FB60     		str	r3, [r7, #12]
2501:../firmware/gd32f3x0_hal_peripheral/Source/gd32f3x0_hal_i2c.c **** 
2502:../firmware/gd32f3x0_hal_peripheral/Source/gd32f3x0_hal_i2c.c ****     ctl = I2C_CTL0(i2c_periph);
 6692              		.loc 1 2502 11
 6693 000e 7B68     		ldr	r3, [r7, #4]
 6694              		.loc 1 2502 9
 6695 0010 1B68     		ldr	r3, [r3]
 6696 0012 FB60     		str	r3, [r7, #12]
2503:../firmware/gd32f3x0_hal_peripheral/Source/gd32f3x0_hal_i2c.c ****     ctl &= ~(I2C_CTL0_GCEN);
 6697              		.loc 1 2503 9
 6698 0014 FB68     		ldr	r3, [r7, #12]
 6699 0016 23F04003 		bic	r3, r3, #64
 6700 001a FB60     		str	r3, [r7, #12]
2504:../firmware/gd32f3x0_hal_peripheral/Source/gd32f3x0_hal_i2c.c ****     ctl |= gcallpara;
 6701              		.loc 1 2504 9
 6702 001c FA68     		ldr	r2, [r7, #12]
 6703 001e 3B68     		ldr	r3, [r7]
 6704 0020 1343     		orrs	r3, r3, r2
 6705 0022 FB60     		str	r3, [r7, #12]
2505:../firmware/gd32f3x0_hal_peripheral/Source/gd32f3x0_hal_i2c.c ****     I2C_CTL0(i2c_periph) = ctl;
 6706              		.loc 1 2505 5
 6707 0024 7B68     		ldr	r3, [r7, #4]
 6708              		.loc 1 2505 26
 6709 0026 FA68     		ldr	r2, [r7, #12]
 6710 0028 1A60     		str	r2, [r3]
2506:../firmware/gd32f3x0_hal_peripheral/Source/gd32f3x0_hal_i2c.c **** }
 6711              		.loc 1 2506 1
 6712 002a 00BF     		nop
 6713 002c 1437     		adds	r7, r7, #20
 6714              		.cfi_def_cfa_offset 4
 6715 002e BD46     		mov	sp, r7
 6716              		.cfi_def_cfa_register 13
 6717              		@ sp needed
 6718 0030 80BC     		pop	{r7}
 6719              		.cfi_restore 7
 6720              		.cfi_def_cfa_offset 0
 6721 0032 7047     		bx	lr
 6722              		.cfi_endproc
 6723              	.LFE161:
 6725              		.section	.text.hals_i2c_data_transmit,"ax",%progbits
 6726              		.align	1
 6727              		.global	hals_i2c_data_transmit
 6728              		.syntax unified
 6729              		.thumb
 6730              		.thumb_func
 6731              		.fpu softvfp
 6733              	hals_i2c_data_transmit:
 6734              	.LFB162:
2507:../firmware/gd32f3x0_hal_peripheral/Source/gd32f3x0_hal_i2c.c **** 
2508:../firmware/gd32f3x0_hal_peripheral/Source/gd32f3x0_hal_i2c.c **** /*!
2509:../firmware/gd32f3x0_hal_peripheral/Source/gd32f3x0_hal_i2c.c ****     \brief      I2C transmit data function
2510:../firmware/gd32f3x0_hal_peripheral/Source/gd32f3x0_hal_i2c.c ****     \param[in]  i2c_periph: I2Cx(x=0,1)
2511:../firmware/gd32f3x0_hal_peripheral/Source/gd32f3x0_hal_i2c.c ****     \param[in]  data: data of transmission
2512:../firmware/gd32f3x0_hal_peripheral/Source/gd32f3x0_hal_i2c.c ****     \param[out] none
2513:../firmware/gd32f3x0_hal_peripheral/Source/gd32f3x0_hal_i2c.c ****     \retval     none
2514:../firmware/gd32f3x0_hal_peripheral/Source/gd32f3x0_hal_i2c.c **** */
2515:../firmware/gd32f3x0_hal_peripheral/Source/gd32f3x0_hal_i2c.c **** void hals_i2c_data_transmit(uint32_t i2c_periph, uint8_t data)
2516:../firmware/gd32f3x0_hal_peripheral/Source/gd32f3x0_hal_i2c.c **** {
 6735              		.loc 1 2516 1
 6736              		.cfi_startproc
 6737              		@ args = 0, pretend = 0, frame = 8
 6738              		@ frame_needed = 1, uses_anonymous_args = 0
 6739              		@ link register save eliminated.
 6740 0000 80B4     		push	{r7}
 6741              		.cfi_def_cfa_offset 4
 6742              		.cfi_offset 7, -4
 6743 0002 83B0     		sub	sp, sp, #12
 6744              		.cfi_def_cfa_offset 16
 6745 0004 00AF     		add	r7, sp, #0
 6746              		.cfi_def_cfa_register 7
 6747 0006 7860     		str	r0, [r7, #4]
 6748 0008 0B46     		mov	r3, r1
 6749 000a FB70     		strb	r3, [r7, #3]
2517:../firmware/gd32f3x0_hal_peripheral/Source/gd32f3x0_hal_i2c.c ****     I2C_DATA(i2c_periph) = DATA_TRANS(data);
 6750              		.loc 1 2517 5
 6751 000c 7B68     		ldr	r3, [r7, #4]
 6752 000e 1033     		adds	r3, r3, #16
 6753 0010 1A46     		mov	r2, r3
 6754              		.loc 1 2517 28
 6755 0012 FB78     		ldrb	r3, [r7, #3]	@ zero_extendqisi2
 6756              		.loc 1 2517 26
 6757 0014 1360     		str	r3, [r2]
2518:../firmware/gd32f3x0_hal_peripheral/Source/gd32f3x0_hal_i2c.c **** }
 6758              		.loc 1 2518 1
 6759 0016 00BF     		nop
 6760 0018 0C37     		adds	r7, r7, #12
 6761              		.cfi_def_cfa_offset 4
 6762 001a BD46     		mov	sp, r7
 6763              		.cfi_def_cfa_register 13
 6764              		@ sp needed
 6765 001c 80BC     		pop	{r7}
 6766              		.cfi_restore 7
 6767              		.cfi_def_cfa_offset 0
 6768 001e 7047     		bx	lr
 6769              		.cfi_endproc
 6770              	.LFE162:
 6772              		.section	.text.hals_i2c_data_receive,"ax",%progbits
 6773              		.align	1
 6774              		.global	hals_i2c_data_receive
 6775              		.syntax unified
 6776              		.thumb
 6777              		.thumb_func
 6778              		.fpu softvfp
 6780              	hals_i2c_data_receive:
 6781              	.LFB163:
2519:../firmware/gd32f3x0_hal_peripheral/Source/gd32f3x0_hal_i2c.c **** 
2520:../firmware/gd32f3x0_hal_peripheral/Source/gd32f3x0_hal_i2c.c **** /*!
2521:../firmware/gd32f3x0_hal_peripheral/Source/gd32f3x0_hal_i2c.c ****     \brief      I2C receive data function
2522:../firmware/gd32f3x0_hal_peripheral/Source/gd32f3x0_hal_i2c.c ****     \param[in]  i2c_periph: I2Cx(x=0,1)
2523:../firmware/gd32f3x0_hal_peripheral/Source/gd32f3x0_hal_i2c.c ****     \param[out] none
2524:../firmware/gd32f3x0_hal_peripheral/Source/gd32f3x0_hal_i2c.c ****     \retval     data of received
2525:../firmware/gd32f3x0_hal_peripheral/Source/gd32f3x0_hal_i2c.c **** */
2526:../firmware/gd32f3x0_hal_peripheral/Source/gd32f3x0_hal_i2c.c **** uint8_t hals_i2c_data_receive(uint32_t i2c_periph)
2527:../firmware/gd32f3x0_hal_peripheral/Source/gd32f3x0_hal_i2c.c **** {
 6782              		.loc 1 2527 1
 6783              		.cfi_startproc
 6784              		@ args = 0, pretend = 0, frame = 8
 6785              		@ frame_needed = 1, uses_anonymous_args = 0
 6786              		@ link register save eliminated.
 6787 0000 80B4     		push	{r7}
 6788              		.cfi_def_cfa_offset 4
 6789              		.cfi_offset 7, -4
 6790 0002 83B0     		sub	sp, sp, #12
 6791              		.cfi_def_cfa_offset 16
 6792 0004 00AF     		add	r7, sp, #0
 6793              		.cfi_def_cfa_register 7
 6794 0006 7860     		str	r0, [r7, #4]
2528:../firmware/gd32f3x0_hal_peripheral/Source/gd32f3x0_hal_i2c.c ****     return (uint8_t)DATA_RECV(I2C_DATA(i2c_periph));
 6795              		.loc 1 2528 21
 6796 0008 7B68     		ldr	r3, [r7, #4]
 6797 000a 1033     		adds	r3, r3, #16
 6798 000c 1B68     		ldr	r3, [r3]
 6799              		.loc 1 2528 12
 6800 000e DBB2     		uxtb	r3, r3
2529:../firmware/gd32f3x0_hal_peripheral/Source/gd32f3x0_hal_i2c.c **** }
 6801              		.loc 1 2529 1
 6802 0010 1846     		mov	r0, r3
 6803 0012 0C37     		adds	r7, r7, #12
 6804              		.cfi_def_cfa_offset 4
 6805 0014 BD46     		mov	sp, r7
 6806              		.cfi_def_cfa_register 13
 6807              		@ sp needed
 6808 0016 80BC     		pop	{r7}
 6809              		.cfi_restore 7
 6810              		.cfi_def_cfa_offset 0
 6811 0018 7047     		bx	lr
 6812              		.cfi_endproc
 6813              	.LFE163:
 6815              		.section	.text.hals_i2c_dma_config,"ax",%progbits
 6816              		.align	1
 6817              		.global	hals_i2c_dma_config
 6818              		.syntax unified
 6819              		.thumb
 6820              		.thumb_func
 6821              		.fpu softvfp
 6823              	hals_i2c_dma_config:
 6824              	.LFB164:
2530:../firmware/gd32f3x0_hal_peripheral/Source/gd32f3x0_hal_i2c.c **** 
2531:../firmware/gd32f3x0_hal_peripheral/Source/gd32f3x0_hal_i2c.c **** /*!
2532:../firmware/gd32f3x0_hal_peripheral/Source/gd32f3x0_hal_i2c.c ****     \brief      configure I2C DMA mode
2533:../firmware/gd32f3x0_hal_peripheral/Source/gd32f3x0_hal_i2c.c ****     \param[in]  i2c_periph: I2Cx(x=0,1)
2534:../firmware/gd32f3x0_hal_peripheral/Source/gd32f3x0_hal_i2c.c ****     \param[in]  dmastate:
2535:../firmware/gd32f3x0_hal_peripheral/Source/gd32f3x0_hal_i2c.c ****                 only one parameter can be selected which is shown as below:
2536:../firmware/gd32f3x0_hal_peripheral/Source/gd32f3x0_hal_i2c.c ****       \arg        I2C_DMA_ON: enable DMA mode
2537:../firmware/gd32f3x0_hal_peripheral/Source/gd32f3x0_hal_i2c.c ****       \arg        I2C_DMA_OFF: disable DMA mode
2538:../firmware/gd32f3x0_hal_peripheral/Source/gd32f3x0_hal_i2c.c ****     \param[out] none
2539:../firmware/gd32f3x0_hal_peripheral/Source/gd32f3x0_hal_i2c.c ****     \retval     none
2540:../firmware/gd32f3x0_hal_peripheral/Source/gd32f3x0_hal_i2c.c **** */
2541:../firmware/gd32f3x0_hal_peripheral/Source/gd32f3x0_hal_i2c.c **** void hals_i2c_dma_config(uint32_t i2c_periph, uint32_t dmastate)
2542:../firmware/gd32f3x0_hal_peripheral/Source/gd32f3x0_hal_i2c.c **** {
 6825              		.loc 1 2542 1
 6826              		.cfi_startproc
 6827              		@ args = 0, pretend = 0, frame = 16
 6828              		@ frame_needed = 1, uses_anonymous_args = 0
 6829              		@ link register save eliminated.
 6830 0000 80B4     		push	{r7}
 6831              		.cfi_def_cfa_offset 4
 6832              		.cfi_offset 7, -4
 6833 0002 85B0     		sub	sp, sp, #20
 6834              		.cfi_def_cfa_offset 24
 6835 0004 00AF     		add	r7, sp, #0
 6836              		.cfi_def_cfa_register 7
 6837 0006 7860     		str	r0, [r7, #4]
 6838 0008 3960     		str	r1, [r7]
2543:../firmware/gd32f3x0_hal_peripheral/Source/gd32f3x0_hal_i2c.c ****     /* configure I2C DMA function */
2544:../firmware/gd32f3x0_hal_peripheral/Source/gd32f3x0_hal_i2c.c ****     uint32_t ctl = 0U;
 6839              		.loc 1 2544 14
 6840 000a 0023     		movs	r3, #0
 6841 000c FB60     		str	r3, [r7, #12]
2545:../firmware/gd32f3x0_hal_peripheral/Source/gd32f3x0_hal_i2c.c **** 
2546:../firmware/gd32f3x0_hal_peripheral/Source/gd32f3x0_hal_i2c.c ****     ctl = I2C_CTL1(i2c_periph);
 6842              		.loc 1 2546 11
 6843 000e 7B68     		ldr	r3, [r7, #4]
 6844 0010 0433     		adds	r3, r3, #4
 6845              		.loc 1 2546 9
 6846 0012 1B68     		ldr	r3, [r3]
 6847 0014 FB60     		str	r3, [r7, #12]
2547:../firmware/gd32f3x0_hal_peripheral/Source/gd32f3x0_hal_i2c.c ****     ctl &= ~(I2C_CTL1_DMAON);
 6848              		.loc 1 2547 9
 6849 0016 FB68     		ldr	r3, [r7, #12]
 6850 0018 23F40063 		bic	r3, r3, #2048
 6851 001c FB60     		str	r3, [r7, #12]
2548:../firmware/gd32f3x0_hal_peripheral/Source/gd32f3x0_hal_i2c.c ****     ctl |= dmastate;
 6852              		.loc 1 2548 9
 6853 001e FA68     		ldr	r2, [r7, #12]
 6854 0020 3B68     		ldr	r3, [r7]
 6855 0022 1343     		orrs	r3, r3, r2
 6856 0024 FB60     		str	r3, [r7, #12]
2549:../firmware/gd32f3x0_hal_peripheral/Source/gd32f3x0_hal_i2c.c ****     I2C_CTL1(i2c_periph) = ctl;
 6857              		.loc 1 2549 5
 6858 0026 7B68     		ldr	r3, [r7, #4]
 6859 0028 0433     		adds	r3, r3, #4
 6860 002a 1A46     		mov	r2, r3
 6861              		.loc 1 2549 26
 6862 002c FB68     		ldr	r3, [r7, #12]
 6863 002e 1360     		str	r3, [r2]
2550:../firmware/gd32f3x0_hal_peripheral/Source/gd32f3x0_hal_i2c.c **** }
 6864              		.loc 1 2550 1
 6865 0030 00BF     		nop
 6866 0032 1437     		adds	r7, r7, #20
 6867              		.cfi_def_cfa_offset 4
 6868 0034 BD46     		mov	sp, r7
 6869              		.cfi_def_cfa_register 13
 6870              		@ sp needed
 6871 0036 80BC     		pop	{r7}
 6872              		.cfi_restore 7
 6873              		.cfi_def_cfa_offset 0
 6874 0038 7047     		bx	lr
 6875              		.cfi_endproc
 6876              	.LFE164:
 6878              		.section	.text.hals_i2c_dma_last_transfer_config,"ax",%progbits
 6879              		.align	1
 6880              		.global	hals_i2c_dma_last_transfer_config
 6881              		.syntax unified
 6882              		.thumb
 6883              		.thumb_func
 6884              		.fpu softvfp
 6886              	hals_i2c_dma_last_transfer_config:
 6887              	.LFB165:
2551:../firmware/gd32f3x0_hal_peripheral/Source/gd32f3x0_hal_i2c.c **** 
2552:../firmware/gd32f3x0_hal_peripheral/Source/gd32f3x0_hal_i2c.c **** /*!
2553:../firmware/gd32f3x0_hal_peripheral/Source/gd32f3x0_hal_i2c.c ****     \brief      configure whether next DMA EOT is DMA last transfer or not
2554:../firmware/gd32f3x0_hal_peripheral/Source/gd32f3x0_hal_i2c.c ****     \param[in]  i2c_periph: I2Cx(x=0,1)
2555:../firmware/gd32f3x0_hal_peripheral/Source/gd32f3x0_hal_i2c.c ****     \param[in]  dmalast:
2556:../firmware/gd32f3x0_hal_peripheral/Source/gd32f3x0_hal_i2c.c ****                 only one parameter can be selected which is shown as below:
2557:../firmware/gd32f3x0_hal_peripheral/Source/gd32f3x0_hal_i2c.c ****       \arg        I2C_DMALST_ON: next DMA EOT is the last transfer
2558:../firmware/gd32f3x0_hal_peripheral/Source/gd32f3x0_hal_i2c.c ****       \arg        I2C_DMALST_OFF: next DMA EOT is not the last transfer
2559:../firmware/gd32f3x0_hal_peripheral/Source/gd32f3x0_hal_i2c.c ****     \param[out] none
2560:../firmware/gd32f3x0_hal_peripheral/Source/gd32f3x0_hal_i2c.c ****     \retval     none
2561:../firmware/gd32f3x0_hal_peripheral/Source/gd32f3x0_hal_i2c.c **** */
2562:../firmware/gd32f3x0_hal_peripheral/Source/gd32f3x0_hal_i2c.c **** void hals_i2c_dma_last_transfer_config(uint32_t i2c_periph, uint32_t dmalast)
2563:../firmware/gd32f3x0_hal_peripheral/Source/gd32f3x0_hal_i2c.c **** {
 6888              		.loc 1 2563 1
 6889              		.cfi_startproc
 6890              		@ args = 0, pretend = 0, frame = 16
 6891              		@ frame_needed = 1, uses_anonymous_args = 0
 6892              		@ link register save eliminated.
 6893 0000 80B4     		push	{r7}
 6894              		.cfi_def_cfa_offset 4
 6895              		.cfi_offset 7, -4
 6896 0002 85B0     		sub	sp, sp, #20
 6897              		.cfi_def_cfa_offset 24
 6898 0004 00AF     		add	r7, sp, #0
 6899              		.cfi_def_cfa_register 7
 6900 0006 7860     		str	r0, [r7, #4]
 6901 0008 3960     		str	r1, [r7]
2564:../firmware/gd32f3x0_hal_peripheral/Source/gd32f3x0_hal_i2c.c ****     /* configure DMA last transfer */
2565:../firmware/gd32f3x0_hal_peripheral/Source/gd32f3x0_hal_i2c.c ****     uint32_t ctl = 0U;
 6902              		.loc 1 2565 14
 6903 000a 0023     		movs	r3, #0
 6904 000c FB60     		str	r3, [r7, #12]
2566:../firmware/gd32f3x0_hal_peripheral/Source/gd32f3x0_hal_i2c.c **** 
2567:../firmware/gd32f3x0_hal_peripheral/Source/gd32f3x0_hal_i2c.c ****     ctl = I2C_CTL1(i2c_periph);
 6905              		.loc 1 2567 11
 6906 000e 7B68     		ldr	r3, [r7, #4]
 6907 0010 0433     		adds	r3, r3, #4
 6908              		.loc 1 2567 9
 6909 0012 1B68     		ldr	r3, [r3]
 6910 0014 FB60     		str	r3, [r7, #12]
2568:../firmware/gd32f3x0_hal_peripheral/Source/gd32f3x0_hal_i2c.c ****     ctl &= ~(I2C_CTL1_DMALST);
 6911              		.loc 1 2568 9
 6912 0016 FB68     		ldr	r3, [r7, #12]
 6913 0018 23F48053 		bic	r3, r3, #4096
 6914 001c FB60     		str	r3, [r7, #12]
2569:../firmware/gd32f3x0_hal_peripheral/Source/gd32f3x0_hal_i2c.c ****     ctl |= dmalast;
 6915              		.loc 1 2569 9
 6916 001e FA68     		ldr	r2, [r7, #12]
 6917 0020 3B68     		ldr	r3, [r7]
 6918 0022 1343     		orrs	r3, r3, r2
 6919 0024 FB60     		str	r3, [r7, #12]
2570:../firmware/gd32f3x0_hal_peripheral/Source/gd32f3x0_hal_i2c.c ****     I2C_CTL1(i2c_periph) = ctl;
 6920              		.loc 1 2570 5
 6921 0026 7B68     		ldr	r3, [r7, #4]
 6922 0028 0433     		adds	r3, r3, #4
 6923 002a 1A46     		mov	r2, r3
 6924              		.loc 1 2570 26
 6925 002c FB68     		ldr	r3, [r7, #12]
 6926 002e 1360     		str	r3, [r2]
2571:../firmware/gd32f3x0_hal_peripheral/Source/gd32f3x0_hal_i2c.c **** }
 6927              		.loc 1 2571 1
 6928 0030 00BF     		nop
 6929 0032 1437     		adds	r7, r7, #20
 6930              		.cfi_def_cfa_offset 4
 6931 0034 BD46     		mov	sp, r7
 6932              		.cfi_def_cfa_register 13
 6933              		@ sp needed
 6934 0036 80BC     		pop	{r7}
 6935              		.cfi_restore 7
 6936              		.cfi_def_cfa_offset 0
 6937 0038 7047     		bx	lr
 6938              		.cfi_endproc
 6939              	.LFE165:
 6941              		.section	.text.hals_i2c_flag_get,"ax",%progbits
 6942              		.align	1
 6943              		.global	hals_i2c_flag_get
 6944              		.syntax unified
 6945              		.thumb
 6946              		.thumb_func
 6947              		.fpu softvfp
 6949              	hals_i2c_flag_get:
 6950              	.LFB166:
2572:../firmware/gd32f3x0_hal_peripheral/Source/gd32f3x0_hal_i2c.c **** 
2573:../firmware/gd32f3x0_hal_peripheral/Source/gd32f3x0_hal_i2c.c **** /*!
2574:../firmware/gd32f3x0_hal_peripheral/Source/gd32f3x0_hal_i2c.c ****     \brief      check I2C flag is set or not
2575:../firmware/gd32f3x0_hal_peripheral/Source/gd32f3x0_hal_i2c.c ****     \param[in]  i2c_periph: I2Cx(x=0,1)
2576:../firmware/gd32f3x0_hal_peripheral/Source/gd32f3x0_hal_i2c.c ****     \param[in]  flag: I2C flags, refer to i2c_flag_enum
2577:../firmware/gd32f3x0_hal_peripheral/Source/gd32f3x0_hal_i2c.c ****                 only one parameter can be selected which is shown as below:
2578:../firmware/gd32f3x0_hal_peripheral/Source/gd32f3x0_hal_i2c.c ****       \arg        I2C_FLAG_SBSEND: start condition sent out in master mode
2579:../firmware/gd32f3x0_hal_peripheral/Source/gd32f3x0_hal_i2c.c ****       \arg        I2C_FLAG_ADDSEND: address is sent in master mode or received and matches in slave
2580:../firmware/gd32f3x0_hal_peripheral/Source/gd32f3x0_hal_i2c.c ****       \arg        I2C_FLAG_BTC: byte transmission finishes
2581:../firmware/gd32f3x0_hal_peripheral/Source/gd32f3x0_hal_i2c.c ****       \arg        I2C_FLAG_ADD10SEND: header of 10-bit address is sent in master mode
2582:../firmware/gd32f3x0_hal_peripheral/Source/gd32f3x0_hal_i2c.c ****       \arg        I2C_FLAG_STPDET: stop condition detected in slave mode
2583:../firmware/gd32f3x0_hal_peripheral/Source/gd32f3x0_hal_i2c.c ****       \arg        I2C_FLAG_RBNE: I2C_DATA is not empty during receiving
2584:../firmware/gd32f3x0_hal_peripheral/Source/gd32f3x0_hal_i2c.c ****       \arg        I2C_FLAG_TBE: I2C_DATA is empty during transmitting
2585:../firmware/gd32f3x0_hal_peripheral/Source/gd32f3x0_hal_i2c.c ****       \arg        I2C_FLAG_BERR: a bus error occurs indication a unexpected start or stop condition
2586:../firmware/gd32f3x0_hal_peripheral/Source/gd32f3x0_hal_i2c.c ****       \arg        I2C_FLAG_LOSTARB: arbitration lost in master mode
2587:../firmware/gd32f3x0_hal_peripheral/Source/gd32f3x0_hal_i2c.c ****       \arg        I2C_FLAG_AERR: acknowledge error
2588:../firmware/gd32f3x0_hal_peripheral/Source/gd32f3x0_hal_i2c.c ****       \arg        I2C_FLAG_OUERR: over-run or under-run situation occurs in slave mode
2589:../firmware/gd32f3x0_hal_peripheral/Source/gd32f3x0_hal_i2c.c ****       \arg        I2C_FLAG_PECERR: PEC error when receiving data
2590:../firmware/gd32f3x0_hal_peripheral/Source/gd32f3x0_hal_i2c.c ****       \arg        I2C_FLAG_SMBTO: timeout signal in SMBus mode
2591:../firmware/gd32f3x0_hal_peripheral/Source/gd32f3x0_hal_i2c.c ****       \arg        I2C_FLAG_SMBALT: SMBus alert status
2592:../firmware/gd32f3x0_hal_peripheral/Source/gd32f3x0_hal_i2c.c ****       \arg        I2C_FLAG_MASTER: a flag indicating whether I2C block is in master or slave mode
2593:../firmware/gd32f3x0_hal_peripheral/Source/gd32f3x0_hal_i2c.c ****       \arg        I2C_FLAG_I2CBSY: busy flag
2594:../firmware/gd32f3x0_hal_peripheral/Source/gd32f3x0_hal_i2c.c ****       \arg        I2C_FLAG_TR: whether the I2C is a transmitter or a receiver
2595:../firmware/gd32f3x0_hal_peripheral/Source/gd32f3x0_hal_i2c.c ****       \arg        I2C_FLAG_RXGC: general call address (00h) received
2596:../firmware/gd32f3x0_hal_peripheral/Source/gd32f3x0_hal_i2c.c ****       \arg        I2C_FLAG_DEFSMB: default address of SMBus device
2597:../firmware/gd32f3x0_hal_peripheral/Source/gd32f3x0_hal_i2c.c ****       \arg        I2C_FLAG_HSTSMB: SMBus host header detected in slave mode
2598:../firmware/gd32f3x0_hal_peripheral/Source/gd32f3x0_hal_i2c.c ****       \arg        I2C_FLAG_DUMOD: dual flag in slave mode indicating which address is matched in du
2599:../firmware/gd32f3x0_hal_peripheral/Source/gd32f3x0_hal_i2c.c ****     \param[out] none
2600:../firmware/gd32f3x0_hal_peripheral/Source/gd32f3x0_hal_i2c.c ****     \retval     FlagStatus: SET or RESET
2601:../firmware/gd32f3x0_hal_peripheral/Source/gd32f3x0_hal_i2c.c **** */
2602:../firmware/gd32f3x0_hal_peripheral/Source/gd32f3x0_hal_i2c.c **** FlagStatus hals_i2c_flag_get(uint32_t i2c_periph, i2c_flag_enum flag)
2603:../firmware/gd32f3x0_hal_peripheral/Source/gd32f3x0_hal_i2c.c **** {
 6951              		.loc 1 2603 1
 6952              		.cfi_startproc
 6953              		@ args = 0, pretend = 0, frame = 8
 6954              		@ frame_needed = 1, uses_anonymous_args = 0
 6955              		@ link register save eliminated.
 6956 0000 80B4     		push	{r7}
 6957              		.cfi_def_cfa_offset 4
 6958              		.cfi_offset 7, -4
 6959 0002 83B0     		sub	sp, sp, #12
 6960              		.cfi_def_cfa_offset 16
 6961 0004 00AF     		add	r7, sp, #0
 6962              		.cfi_def_cfa_register 7
 6963 0006 7860     		str	r0, [r7, #4]
 6964 0008 0B46     		mov	r3, r1
 6965 000a 7B80     		strh	r3, [r7, #2]	@ movhi
2604:../firmware/gd32f3x0_hal_peripheral/Source/gd32f3x0_hal_i2c.c ****     if(RESET != (I2C_REG_VAL(i2c_periph, flag) & BIT(I2C_BIT_POS(flag)))) {
 6966              		.loc 1 2604 18
 6967 000c 7B88     		ldrh	r3, [r7, #2]
 6968 000e 9B09     		lsrs	r3, r3, #6
 6969 0010 9BB2     		uxth	r3, r3
 6970 0012 1A46     		mov	r2, r3
 6971 0014 7B68     		ldr	r3, [r7, #4]
 6972 0016 1344     		add	r3, r3, r2
 6973 0018 1A68     		ldr	r2, [r3]
 6974              		.loc 1 2604 50
 6975 001a 7B88     		ldrh	r3, [r7, #2]
 6976 001c 03F01F03 		and	r3, r3, #31
 6977              		.loc 1 2604 14
 6978 0020 22FA03F3 		lsr	r3, r2, r3
 6979 0024 03F00103 		and	r3, r3, #1
 6980              		.loc 1 2604 7
 6981 0028 002B     		cmp	r3, #0
 6982 002a 01D0     		beq	.L325
2605:../firmware/gd32f3x0_hal_peripheral/Source/gd32f3x0_hal_i2c.c ****         return SET;
 6983              		.loc 1 2605 16
 6984 002c 0123     		movs	r3, #1
 6985 002e 00E0     		b	.L326
 6986              	.L325:
2606:../firmware/gd32f3x0_hal_peripheral/Source/gd32f3x0_hal_i2c.c ****     } else {
2607:../firmware/gd32f3x0_hal_peripheral/Source/gd32f3x0_hal_i2c.c ****         return RESET;
 6987              		.loc 1 2607 16
 6988 0030 0023     		movs	r3, #0
 6989              	.L326:
2608:../firmware/gd32f3x0_hal_peripheral/Source/gd32f3x0_hal_i2c.c ****     }
2609:../firmware/gd32f3x0_hal_peripheral/Source/gd32f3x0_hal_i2c.c **** }
 6990              		.loc 1 2609 1
 6991 0032 1846     		mov	r0, r3
 6992 0034 0C37     		adds	r7, r7, #12
 6993              		.cfi_def_cfa_offset 4
 6994 0036 BD46     		mov	sp, r7
 6995              		.cfi_def_cfa_register 13
 6996              		@ sp needed
 6997 0038 80BC     		pop	{r7}
 6998              		.cfi_restore 7
 6999              		.cfi_def_cfa_offset 0
 7000 003a 7047     		bx	lr
 7001              		.cfi_endproc
 7002              	.LFE166:
 7004              		.section	.text.hals_i2c_flag_clear,"ax",%progbits
 7005              		.align	1
 7006              		.global	hals_i2c_flag_clear
 7007              		.syntax unified
 7008              		.thumb
 7009              		.thumb_func
 7010              		.fpu softvfp
 7012              	hals_i2c_flag_clear:
 7013              	.LFB167:
2610:../firmware/gd32f3x0_hal_peripheral/Source/gd32f3x0_hal_i2c.c **** 
2611:../firmware/gd32f3x0_hal_peripheral/Source/gd32f3x0_hal_i2c.c **** /*!
2612:../firmware/gd32f3x0_hal_peripheral/Source/gd32f3x0_hal_i2c.c ****     \brief      clear I2C flag status
2613:../firmware/gd32f3x0_hal_peripheral/Source/gd32f3x0_hal_i2c.c ****     \param[in]  i2c_periph: I2Cx(x=0,1)
2614:../firmware/gd32f3x0_hal_peripheral/Source/gd32f3x0_hal_i2c.c ****     \param[in]  flag: I2C flags, refer to i2c_flag_enum
2615:../firmware/gd32f3x0_hal_peripheral/Source/gd32f3x0_hal_i2c.c ****                 only one parameter can be selected which is shown as below:
2616:../firmware/gd32f3x0_hal_peripheral/Source/gd32f3x0_hal_i2c.c ****       \arg       I2C_FLAG_SMBALT: SMBus alert status
2617:../firmware/gd32f3x0_hal_peripheral/Source/gd32f3x0_hal_i2c.c ****       \arg       I2C_FLAG_SMBTO: timeout signal in SMBus mode
2618:../firmware/gd32f3x0_hal_peripheral/Source/gd32f3x0_hal_i2c.c ****       \arg       I2C_FLAG_PECERR: PEC error when receiving data
2619:../firmware/gd32f3x0_hal_peripheral/Source/gd32f3x0_hal_i2c.c ****       \arg       I2C_FLAG_OUERR: over-run or under-run situation occurs in slave mode
2620:../firmware/gd32f3x0_hal_peripheral/Source/gd32f3x0_hal_i2c.c ****       \arg       I2C_FLAG_AERR: acknowledge error
2621:../firmware/gd32f3x0_hal_peripheral/Source/gd32f3x0_hal_i2c.c ****       \arg       I2C_FLAG_LOSTARB: arbitration lost in master mode
2622:../firmware/gd32f3x0_hal_peripheral/Source/gd32f3x0_hal_i2c.c ****       \arg       I2C_FLAG_BERR: a bus error occurs indication a unexpected start or stop condition 
2623:../firmware/gd32f3x0_hal_peripheral/Source/gd32f3x0_hal_i2c.c ****       \arg       I2C_FLAG_ADDSEND: address is sent in master mode or received and matches in slave 
2624:../firmware/gd32f3x0_hal_peripheral/Source/gd32f3x0_hal_i2c.c ****     \param[out] none
2625:../firmware/gd32f3x0_hal_peripheral/Source/gd32f3x0_hal_i2c.c ****     \retval     none
2626:../firmware/gd32f3x0_hal_peripheral/Source/gd32f3x0_hal_i2c.c **** */
2627:../firmware/gd32f3x0_hal_peripheral/Source/gd32f3x0_hal_i2c.c **** void hals_i2c_flag_clear(uint32_t i2c_periph, i2c_flag_enum flag)
2628:../firmware/gd32f3x0_hal_peripheral/Source/gd32f3x0_hal_i2c.c **** {
 7014              		.loc 1 2628 1
 7015              		.cfi_startproc
 7016              		@ args = 0, pretend = 0, frame = 8
 7017              		@ frame_needed = 1, uses_anonymous_args = 0
 7018              		@ link register save eliminated.
 7019 0000 80B4     		push	{r7}
 7020              		.cfi_def_cfa_offset 4
 7021              		.cfi_offset 7, -4
 7022 0002 83B0     		sub	sp, sp, #12
 7023              		.cfi_def_cfa_offset 16
 7024 0004 00AF     		add	r7, sp, #0
 7025              		.cfi_def_cfa_register 7
 7026 0006 7860     		str	r0, [r7, #4]
 7027 0008 0B46     		mov	r3, r1
 7028 000a 7B80     		strh	r3, [r7, #2]	@ movhi
2629:../firmware/gd32f3x0_hal_peripheral/Source/gd32f3x0_hal_i2c.c ****     if(I2C_FLAG_ADDSEND == flag) {
 7029              		.loc 1 2629 7
 7030 000c 7B88     		ldrh	r3, [r7, #2]
 7031 000e 40F20152 		movw	r2, #1281
 7032 0012 9342     		cmp	r3, r2
 7033 0014 06D1     		bne	.L328
2630:../firmware/gd32f3x0_hal_peripheral/Source/gd32f3x0_hal_i2c.c ****         /* read I2C_STAT0 and then read I2C_STAT1 to clear ADDSEND */
2631:../firmware/gd32f3x0_hal_peripheral/Source/gd32f3x0_hal_i2c.c ****         I2C_STAT0(i2c_periph);
 7034              		.loc 1 2631 9
 7035 0016 7B68     		ldr	r3, [r7, #4]
 7036 0018 1433     		adds	r3, r3, #20
 7037 001a 1B68     		ldr	r3, [r3]
2632:../firmware/gd32f3x0_hal_peripheral/Source/gd32f3x0_hal_i2c.c ****         I2C_STAT1(i2c_periph);
 7038              		.loc 1 2632 9
 7039 001c 7B68     		ldr	r3, [r7, #4]
 7040 001e 1833     		adds	r3, r3, #24
 7041 0020 1B68     		ldr	r3, [r3]
2633:../firmware/gd32f3x0_hal_peripheral/Source/gd32f3x0_hal_i2c.c ****     } else {
2634:../firmware/gd32f3x0_hal_peripheral/Source/gd32f3x0_hal_i2c.c ****         I2C_REG_VAL(i2c_periph, flag) &= ~BIT(I2C_BIT_POS(flag));
2635:../firmware/gd32f3x0_hal_peripheral/Source/gd32f3x0_hal_i2c.c ****     }
2636:../firmware/gd32f3x0_hal_peripheral/Source/gd32f3x0_hal_i2c.c **** }
 7042              		.loc 1 2636 1
 7043 0022 15E0     		b	.L330
 7044              	.L328:
2634:../firmware/gd32f3x0_hal_peripheral/Source/gd32f3x0_hal_i2c.c ****     }
 7045              		.loc 1 2634 39
 7046 0024 7B88     		ldrh	r3, [r7, #2]
 7047 0026 9B09     		lsrs	r3, r3, #6
 7048 0028 9BB2     		uxth	r3, r3
 7049 002a 1A46     		mov	r2, r3
 7050 002c 7B68     		ldr	r3, [r7, #4]
 7051 002e 1344     		add	r3, r3, r2
 7052 0030 1A68     		ldr	r2, [r3]
2634:../firmware/gd32f3x0_hal_peripheral/Source/gd32f3x0_hal_i2c.c ****     }
 7053              		.loc 1 2634 43
 7054 0032 7B88     		ldrh	r3, [r7, #2]
 7055 0034 03F01F03 		and	r3, r3, #31
 7056 0038 0121     		movs	r1, #1
 7057 003a 01FA03F3 		lsl	r3, r1, r3
2634:../firmware/gd32f3x0_hal_peripheral/Source/gd32f3x0_hal_i2c.c ****     }
 7058              		.loc 1 2634 42
 7059 003e DB43     		mvns	r3, r3
2634:../firmware/gd32f3x0_hal_peripheral/Source/gd32f3x0_hal_i2c.c ****     }
 7060              		.loc 1 2634 39
 7061 0040 7988     		ldrh	r1, [r7, #2]
 7062 0042 8909     		lsrs	r1, r1, #6
 7063 0044 89B2     		uxth	r1, r1
 7064 0046 0846     		mov	r0, r1
 7065 0048 7968     		ldr	r1, [r7, #4]
 7066 004a 0144     		add	r1, r1, r0
 7067 004c 1340     		ands	r3, r3, r2
 7068 004e 0B60     		str	r3, [r1]
 7069              	.L330:
 7070              		.loc 1 2636 1
 7071 0050 00BF     		nop
 7072 0052 0C37     		adds	r7, r7, #12
 7073              		.cfi_def_cfa_offset 4
 7074 0054 BD46     		mov	sp, r7
 7075              		.cfi_def_cfa_register 13
 7076              		@ sp needed
 7077 0056 80BC     		pop	{r7}
 7078              		.cfi_restore 7
 7079              		.cfi_def_cfa_offset 0
 7080 0058 7047     		bx	lr
 7081              		.cfi_endproc
 7082              	.LFE167:
 7084              		.section	.text.hals_i2c_interrupt_enable,"ax",%progbits
 7085              		.align	1
 7086              		.global	hals_i2c_interrupt_enable
 7087              		.syntax unified
 7088              		.thumb
 7089              		.thumb_func
 7090              		.fpu softvfp
 7092              	hals_i2c_interrupt_enable:
 7093              	.LFB168:
2637:../firmware/gd32f3x0_hal_peripheral/Source/gd32f3x0_hal_i2c.c **** 
2638:../firmware/gd32f3x0_hal_peripheral/Source/gd32f3x0_hal_i2c.c **** /*!
2639:../firmware/gd32f3x0_hal_peripheral/Source/gd32f3x0_hal_i2c.c ****     \brief      enable I2C interrupt
2640:../firmware/gd32f3x0_hal_peripheral/Source/gd32f3x0_hal_i2c.c ****     \param[in]  i2c_periph: I2Cx(x=0,1)
2641:../firmware/gd32f3x0_hal_peripheral/Source/gd32f3x0_hal_i2c.c ****     \param[in]  interrupt: I2C interrupts, refer to i2c_interrupt_enum
2642:../firmware/gd32f3x0_hal_peripheral/Source/gd32f3x0_hal_i2c.c ****                 only one parameter can be selected which is shown as below:
2643:../firmware/gd32f3x0_hal_peripheral/Source/gd32f3x0_hal_i2c.c ****       \arg        I2C_INT_ERR: error interrupt
2644:../firmware/gd32f3x0_hal_peripheral/Source/gd32f3x0_hal_i2c.c ****       \arg        I2C_INT_EV: event interrupt
2645:../firmware/gd32f3x0_hal_peripheral/Source/gd32f3x0_hal_i2c.c ****       \arg        I2C_INT_BUF: buffer interrupt
2646:../firmware/gd32f3x0_hal_peripheral/Source/gd32f3x0_hal_i2c.c ****     \param[out] none
2647:../firmware/gd32f3x0_hal_peripheral/Source/gd32f3x0_hal_i2c.c ****     \retval     none
2648:../firmware/gd32f3x0_hal_peripheral/Source/gd32f3x0_hal_i2c.c **** */
2649:../firmware/gd32f3x0_hal_peripheral/Source/gd32f3x0_hal_i2c.c **** void hals_i2c_interrupt_enable(uint32_t i2c_periph, i2c_interrupt_enum interrupt)
2650:../firmware/gd32f3x0_hal_peripheral/Source/gd32f3x0_hal_i2c.c **** {
 7094              		.loc 1 2650 1
 7095              		.cfi_startproc
 7096              		@ args = 0, pretend = 0, frame = 8
 7097              		@ frame_needed = 1, uses_anonymous_args = 0
 7098              		@ link register save eliminated.
 7099 0000 80B4     		push	{r7}
 7100              		.cfi_def_cfa_offset 4
 7101              		.cfi_offset 7, -4
 7102 0002 83B0     		sub	sp, sp, #12
 7103              		.cfi_def_cfa_offset 16
 7104 0004 00AF     		add	r7, sp, #0
 7105              		.cfi_def_cfa_register 7
 7106 0006 7860     		str	r0, [r7, #4]
 7107 0008 0B46     		mov	r3, r1
 7108 000a 7B80     		strh	r3, [r7, #2]	@ movhi
2651:../firmware/gd32f3x0_hal_peripheral/Source/gd32f3x0_hal_i2c.c ****     I2C_REG_VAL(i2c_periph, interrupt) |= BIT(I2C_BIT_POS(interrupt));
 7109              		.loc 1 2651 40
 7110 000c 7B88     		ldrh	r3, [r7, #2]
 7111 000e 9B09     		lsrs	r3, r3, #6
 7112 0010 9BB2     		uxth	r3, r3
 7113 0012 1A46     		mov	r2, r3
 7114 0014 7B68     		ldr	r3, [r7, #4]
 7115 0016 1344     		add	r3, r3, r2
 7116 0018 1A68     		ldr	r2, [r3]
 7117              		.loc 1 2651 43
 7118 001a 7B88     		ldrh	r3, [r7, #2]
 7119 001c 03F01F03 		and	r3, r3, #31
 7120 0020 0121     		movs	r1, #1
 7121 0022 01FA03F3 		lsl	r3, r1, r3
 7122              		.loc 1 2651 40
 7123 0026 7988     		ldrh	r1, [r7, #2]
 7124 0028 8909     		lsrs	r1, r1, #6
 7125 002a 89B2     		uxth	r1, r1
 7126 002c 0846     		mov	r0, r1
 7127 002e 7968     		ldr	r1, [r7, #4]
 7128 0030 0144     		add	r1, r1, r0
 7129 0032 1343     		orrs	r3, r3, r2
 7130 0034 0B60     		str	r3, [r1]
2652:../firmware/gd32f3x0_hal_peripheral/Source/gd32f3x0_hal_i2c.c **** }
 7131              		.loc 1 2652 1
 7132 0036 00BF     		nop
 7133 0038 0C37     		adds	r7, r7, #12
 7134              		.cfi_def_cfa_offset 4
 7135 003a BD46     		mov	sp, r7
 7136              		.cfi_def_cfa_register 13
 7137              		@ sp needed
 7138 003c 80BC     		pop	{r7}
 7139              		.cfi_restore 7
 7140              		.cfi_def_cfa_offset 0
 7141 003e 7047     		bx	lr
 7142              		.cfi_endproc
 7143              	.LFE168:
 7145              		.section	.text.hals_i2c_interrupt_disable,"ax",%progbits
 7146              		.align	1
 7147              		.global	hals_i2c_interrupt_disable
 7148              		.syntax unified
 7149              		.thumb
 7150              		.thumb_func
 7151              		.fpu softvfp
 7153              	hals_i2c_interrupt_disable:
 7154              	.LFB169:
2653:../firmware/gd32f3x0_hal_peripheral/Source/gd32f3x0_hal_i2c.c **** 
2654:../firmware/gd32f3x0_hal_peripheral/Source/gd32f3x0_hal_i2c.c **** /*!
2655:../firmware/gd32f3x0_hal_peripheral/Source/gd32f3x0_hal_i2c.c ****     \brief      disable I2C interrupt
2656:../firmware/gd32f3x0_hal_peripheral/Source/gd32f3x0_hal_i2c.c ****     \param[in]  i2c_periph: I2Cx(x=0,1)
2657:../firmware/gd32f3x0_hal_peripheral/Source/gd32f3x0_hal_i2c.c ****     \param[in]  interrupt: I2C interrupts, refer to i2c_interrupt_enum
2658:../firmware/gd32f3x0_hal_peripheral/Source/gd32f3x0_hal_i2c.c ****                 only one parameter can be selected which is shown as below:
2659:../firmware/gd32f3x0_hal_peripheral/Source/gd32f3x0_hal_i2c.c ****       \arg        I2C_INT_ERR: error interrupt
2660:../firmware/gd32f3x0_hal_peripheral/Source/gd32f3x0_hal_i2c.c ****       \arg        I2C_INT_EV: event interrupt
2661:../firmware/gd32f3x0_hal_peripheral/Source/gd32f3x0_hal_i2c.c ****       \arg        I2C_INT_BUF: buffer interrupt
2662:../firmware/gd32f3x0_hal_peripheral/Source/gd32f3x0_hal_i2c.c ****     \param[out] none
2663:../firmware/gd32f3x0_hal_peripheral/Source/gd32f3x0_hal_i2c.c ****     \retval     none
2664:../firmware/gd32f3x0_hal_peripheral/Source/gd32f3x0_hal_i2c.c **** */
2665:../firmware/gd32f3x0_hal_peripheral/Source/gd32f3x0_hal_i2c.c **** void hals_i2c_interrupt_disable(uint32_t i2c_periph, i2c_interrupt_enum interrupt)
2666:../firmware/gd32f3x0_hal_peripheral/Source/gd32f3x0_hal_i2c.c **** {
 7155              		.loc 1 2666 1
 7156              		.cfi_startproc
 7157              		@ args = 0, pretend = 0, frame = 8
 7158              		@ frame_needed = 1, uses_anonymous_args = 0
 7159              		@ link register save eliminated.
 7160 0000 80B4     		push	{r7}
 7161              		.cfi_def_cfa_offset 4
 7162              		.cfi_offset 7, -4
 7163 0002 83B0     		sub	sp, sp, #12
 7164              		.cfi_def_cfa_offset 16
 7165 0004 00AF     		add	r7, sp, #0
 7166              		.cfi_def_cfa_register 7
 7167 0006 7860     		str	r0, [r7, #4]
 7168 0008 0B46     		mov	r3, r1
 7169 000a 7B80     		strh	r3, [r7, #2]	@ movhi
2667:../firmware/gd32f3x0_hal_peripheral/Source/gd32f3x0_hal_i2c.c ****     I2C_REG_VAL(i2c_periph, interrupt) &= ~BIT(I2C_BIT_POS(interrupt));
 7170              		.loc 1 2667 40
 7171 000c 7B88     		ldrh	r3, [r7, #2]
 7172 000e 9B09     		lsrs	r3, r3, #6
 7173 0010 9BB2     		uxth	r3, r3
 7174 0012 1A46     		mov	r2, r3
 7175 0014 7B68     		ldr	r3, [r7, #4]
 7176 0016 1344     		add	r3, r3, r2
 7177 0018 1A68     		ldr	r2, [r3]
 7178              		.loc 1 2667 44
 7179 001a 7B88     		ldrh	r3, [r7, #2]
 7180 001c 03F01F03 		and	r3, r3, #31
 7181 0020 0121     		movs	r1, #1
 7182 0022 01FA03F3 		lsl	r3, r1, r3
 7183              		.loc 1 2667 43
 7184 0026 DB43     		mvns	r3, r3
 7185              		.loc 1 2667 40
 7186 0028 7988     		ldrh	r1, [r7, #2]
 7187 002a 8909     		lsrs	r1, r1, #6
 7188 002c 89B2     		uxth	r1, r1
 7189 002e 0846     		mov	r0, r1
 7190 0030 7968     		ldr	r1, [r7, #4]
 7191 0032 0144     		add	r1, r1, r0
 7192 0034 1340     		ands	r3, r3, r2
 7193 0036 0B60     		str	r3, [r1]
2668:../firmware/gd32f3x0_hal_peripheral/Source/gd32f3x0_hal_i2c.c **** }
 7194              		.loc 1 2668 1
 7195 0038 00BF     		nop
 7196 003a 0C37     		adds	r7, r7, #12
 7197              		.cfi_def_cfa_offset 4
 7198 003c BD46     		mov	sp, r7
 7199              		.cfi_def_cfa_register 13
 7200              		@ sp needed
 7201 003e 80BC     		pop	{r7}
 7202              		.cfi_restore 7
 7203              		.cfi_def_cfa_offset 0
 7204 0040 7047     		bx	lr
 7205              		.cfi_endproc
 7206              	.LFE169:
 7208              		.section	.text.hals_i2c_interrupt_flag_get,"ax",%progbits
 7209              		.align	1
 7210              		.global	hals_i2c_interrupt_flag_get
 7211              		.syntax unified
 7212              		.thumb
 7213              		.thumb_func
 7214              		.fpu softvfp
 7216              	hals_i2c_interrupt_flag_get:
 7217              	.LFB170:
2669:../firmware/gd32f3x0_hal_peripheral/Source/gd32f3x0_hal_i2c.c **** 
2670:../firmware/gd32f3x0_hal_peripheral/Source/gd32f3x0_hal_i2c.c **** /*!
2671:../firmware/gd32f3x0_hal_peripheral/Source/gd32f3x0_hal_i2c.c ****     \brief      get I2C interrupt flag status
2672:../firmware/gd32f3x0_hal_peripheral/Source/gd32f3x0_hal_i2c.c ****     \param[in]  i2c_periph: I2Cx(x=0,1)
2673:../firmware/gd32f3x0_hal_peripheral/Source/gd32f3x0_hal_i2c.c ****     \param[in]  int_flag: I2C interrupt flags, refer to i2c_interrupt_flag_enum
2674:../firmware/gd32f3x0_hal_peripheral/Source/gd32f3x0_hal_i2c.c ****                 only one parameter can be selected which is shown as below:
2675:../firmware/gd32f3x0_hal_peripheral/Source/gd32f3x0_hal_i2c.c ****       \arg        I2C_INT_FLAG_SBSEND: start condition sent out in master mode interrupt flag
2676:../firmware/gd32f3x0_hal_peripheral/Source/gd32f3x0_hal_i2c.c ****       \arg        I2C_INT_FLAG_ADDSEND: address is sent in master mode or received and matches in s
2677:../firmware/gd32f3x0_hal_peripheral/Source/gd32f3x0_hal_i2c.c ****       \arg        I2C_INT_FLAG_BTC: byte transmission finishes interrupt flag
2678:../firmware/gd32f3x0_hal_peripheral/Source/gd32f3x0_hal_i2c.c ****       \arg        I2C_INT_FLAG_ADD10SEND: header of 10-bit address is sent in master mode interrupt
2679:../firmware/gd32f3x0_hal_peripheral/Source/gd32f3x0_hal_i2c.c ****       \arg        I2C_INT_FLAG_STPDET: stop condition detected in slave mode interrupt flag
2680:../firmware/gd32f3x0_hal_peripheral/Source/gd32f3x0_hal_i2c.c ****       \arg        I2C_INT_FLAG_RBNE: I2C_DATA is not Empty during receiving interrupt flag
2681:../firmware/gd32f3x0_hal_peripheral/Source/gd32f3x0_hal_i2c.c ****       \arg        I2C_INT_FLAG_TBE: I2C_DATA is empty during transmitting interrupt flag
2682:../firmware/gd32f3x0_hal_peripheral/Source/gd32f3x0_hal_i2c.c ****       \arg        I2C_INT_FLAG_BERR: a bus error occurs indication a unexpected start or stop condi
2683:../firmware/gd32f3x0_hal_peripheral/Source/gd32f3x0_hal_i2c.c ****       \arg        I2C_INT_FLAG_LOSTARB: arbitration lost in master mode interrupt flag
2684:../firmware/gd32f3x0_hal_peripheral/Source/gd32f3x0_hal_i2c.c ****       \arg        I2C_INT_FLAG_AERR: acknowledge error interrupt flag
2685:../firmware/gd32f3x0_hal_peripheral/Source/gd32f3x0_hal_i2c.c ****       \arg        I2C_INT_FLAG_OUERR: over-run or under-run situation occurs in slave mode interrup
2686:../firmware/gd32f3x0_hal_peripheral/Source/gd32f3x0_hal_i2c.c ****       \arg        I2C_INT_FLAG_PECERR: PEC error when receiving data interrupt flag
2687:../firmware/gd32f3x0_hal_peripheral/Source/gd32f3x0_hal_i2c.c ****       \arg        I2C_INT_FLAG_SMBTO: timeout signal in SMBus mode interrupt flag
2688:../firmware/gd32f3x0_hal_peripheral/Source/gd32f3x0_hal_i2c.c ****       \arg        I2C_INT_FLAG_SMBALT: SMBus alert status interrupt flag
2689:../firmware/gd32f3x0_hal_peripheral/Source/gd32f3x0_hal_i2c.c ****     \param[out] none
2690:../firmware/gd32f3x0_hal_peripheral/Source/gd32f3x0_hal_i2c.c ****     \retval     FlagStatus: SET or RESET
2691:../firmware/gd32f3x0_hal_peripheral/Source/gd32f3x0_hal_i2c.c **** */
2692:../firmware/gd32f3x0_hal_peripheral/Source/gd32f3x0_hal_i2c.c **** FlagStatus hals_i2c_interrupt_flag_get(uint32_t i2c_periph, i2c_interrupt_flag_enum int_flag)
2693:../firmware/gd32f3x0_hal_peripheral/Source/gd32f3x0_hal_i2c.c **** {
 7218              		.loc 1 2693 1
 7219              		.cfi_startproc
 7220              		@ args = 0, pretend = 0, frame = 24
 7221              		@ frame_needed = 1, uses_anonymous_args = 0
 7222              		@ link register save eliminated.
 7223 0000 80B4     		push	{r7}
 7224              		.cfi_def_cfa_offset 4
 7225              		.cfi_offset 7, -4
 7226 0002 87B0     		sub	sp, sp, #28
 7227              		.cfi_def_cfa_offset 32
 7228 0004 00AF     		add	r7, sp, #0
 7229              		.cfi_def_cfa_register 7
 7230 0006 7860     		str	r0, [r7, #4]
 7231 0008 3960     		str	r1, [r7]
2694:../firmware/gd32f3x0_hal_peripheral/Source/gd32f3x0_hal_i2c.c ****     uint32_t intenable = 0U, flagstatus = 0U, bufie;
 7232              		.loc 1 2694 14
 7233 000a 0023     		movs	r3, #0
 7234 000c 7B61     		str	r3, [r7, #20]
 7235              		.loc 1 2694 30
 7236 000e 0023     		movs	r3, #0
 7237 0010 3B61     		str	r3, [r7, #16]
2695:../firmware/gd32f3x0_hal_peripheral/Source/gd32f3x0_hal_i2c.c **** 
2696:../firmware/gd32f3x0_hal_peripheral/Source/gd32f3x0_hal_i2c.c ****     /* check BUFIE */
2697:../firmware/gd32f3x0_hal_peripheral/Source/gd32f3x0_hal_i2c.c ****     bufie = I2C_CTL1(i2c_periph)&I2C_CTL1_BUFIE;
 7238              		.loc 1 2697 13
 7239 0012 7B68     		ldr	r3, [r7, #4]
 7240 0014 0433     		adds	r3, r3, #4
 7241 0016 1B68     		ldr	r3, [r3]
 7242              		.loc 1 2697 11
 7243 0018 03F48063 		and	r3, r3, #1024
 7244 001c FB60     		str	r3, [r7, #12]
2698:../firmware/gd32f3x0_hal_peripheral/Source/gd32f3x0_hal_i2c.c **** 
2699:../firmware/gd32f3x0_hal_peripheral/Source/gd32f3x0_hal_i2c.c ****     /* get the interrupt enable bit status */
2700:../firmware/gd32f3x0_hal_peripheral/Source/gd32f3x0_hal_i2c.c ****     intenable = (I2C_REG_VAL(i2c_periph, int_flag) & BIT(I2C_BIT_POS(int_flag)));
 7245              		.loc 1 2700 18
 7246 001e 3B68     		ldr	r3, [r7]
 7247 0020 9B09     		lsrs	r3, r3, #6
 7248 0022 C3F30902 		ubfx	r2, r3, #0, #10
 7249 0026 7B68     		ldr	r3, [r7, #4]
 7250 0028 1344     		add	r3, r3, r2
 7251 002a 1A68     		ldr	r2, [r3]
 7252              		.loc 1 2700 54
 7253 002c 3B68     		ldr	r3, [r7]
 7254 002e 03F01F03 		and	r3, r3, #31
 7255 0032 0121     		movs	r1, #1
 7256 0034 01FA03F3 		lsl	r3, r1, r3
 7257              		.loc 1 2700 15
 7258 0038 1340     		ands	r3, r3, r2
 7259 003a 7B61     		str	r3, [r7, #20]
2701:../firmware/gd32f3x0_hal_peripheral/Source/gd32f3x0_hal_i2c.c ****     /* get the corresponding flag bit status */
2702:../firmware/gd32f3x0_hal_peripheral/Source/gd32f3x0_hal_i2c.c ****     flagstatus = (I2C_REG_VAL2(i2c_periph, int_flag) & BIT(I2C_BIT_POS2(int_flag)));
 7260              		.loc 1 2702 19
 7261 003c 3B68     		ldr	r3, [r7]
 7262 003e 9A0D     		lsrs	r2, r3, #22
 7263 0040 7B68     		ldr	r3, [r7, #4]
 7264 0042 1344     		add	r3, r3, r2
 7265 0044 1A68     		ldr	r2, [r3]
 7266              		.loc 1 2702 56
 7267 0046 3B68     		ldr	r3, [r7]
 7268 0048 1B0C     		lsrs	r3, r3, #16
 7269 004a 03F01F03 		and	r3, r3, #31
 7270 004e 0121     		movs	r1, #1
 7271 0050 01FA03F3 		lsl	r3, r1, r3
 7272              		.loc 1 2702 16
 7273 0054 1340     		ands	r3, r3, r2
 7274 0056 3B61     		str	r3, [r7, #16]
2703:../firmware/gd32f3x0_hal_peripheral/Source/gd32f3x0_hal_i2c.c **** 
2704:../firmware/gd32f3x0_hal_peripheral/Source/gd32f3x0_hal_i2c.c ****     if((I2C_INT_FLAG_RBNE == int_flag) || (I2C_INT_FLAG_TBE == int_flag)) {
 7275              		.loc 1 2704 7
 7276 0058 3B68     		ldr	r3, [r7]
 7277 005a 104A     		ldr	r2, .L339
 7278 005c 9342     		cmp	r3, r2
 7279 005e 03D0     		beq	.L334
 7280              		.loc 1 2704 40 discriminator 1
 7281 0060 3B68     		ldr	r3, [r7]
 7282 0062 0F4A     		ldr	r2, .L339+4
 7283 0064 9342     		cmp	r3, r2
 7284 0066 0AD1     		bne	.L335
 7285              	.L334:
2705:../firmware/gd32f3x0_hal_peripheral/Source/gd32f3x0_hal_i2c.c ****         if(intenable && bufie) {
 7286              		.loc 1 2705 11
 7287 0068 7B69     		ldr	r3, [r7, #20]
 7288 006a 002B     		cmp	r3, #0
 7289 006c 05D0     		beq	.L336
 7290              		.loc 1 2705 22 discriminator 1
 7291 006e FB68     		ldr	r3, [r7, #12]
 7292 0070 002B     		cmp	r3, #0
 7293 0072 02D0     		beq	.L336
2706:../firmware/gd32f3x0_hal_peripheral/Source/gd32f3x0_hal_i2c.c ****             intenable = 1U;
 7294              		.loc 1 2706 23
 7295 0074 0123     		movs	r3, #1
 7296 0076 7B61     		str	r3, [r7, #20]
 7297 0078 01E0     		b	.L335
 7298              	.L336:
2707:../firmware/gd32f3x0_hal_peripheral/Source/gd32f3x0_hal_i2c.c ****         } else {
2708:../firmware/gd32f3x0_hal_peripheral/Source/gd32f3x0_hal_i2c.c ****             intenable = 0U;
 7299              		.loc 1 2708 23
 7300 007a 0023     		movs	r3, #0
 7301 007c 7B61     		str	r3, [r7, #20]
 7302              	.L335:
2709:../firmware/gd32f3x0_hal_peripheral/Source/gd32f3x0_hal_i2c.c ****         }
2710:../firmware/gd32f3x0_hal_peripheral/Source/gd32f3x0_hal_i2c.c ****     }
2711:../firmware/gd32f3x0_hal_peripheral/Source/gd32f3x0_hal_i2c.c ****     if((0U != flagstatus) && (0U != intenable)) {
 7303              		.loc 1 2711 7
 7304 007e 3B69     		ldr	r3, [r7, #16]
 7305 0080 002B     		cmp	r3, #0
 7306 0082 04D0     		beq	.L337
 7307              		.loc 1 2711 27 discriminator 1
 7308 0084 7B69     		ldr	r3, [r7, #20]
 7309 0086 002B     		cmp	r3, #0
 7310 0088 01D0     		beq	.L337
2712:../firmware/gd32f3x0_hal_peripheral/Source/gd32f3x0_hal_i2c.c ****         return SET;
 7311              		.loc 1 2712 16
 7312 008a 0123     		movs	r3, #1
 7313 008c 00E0     		b	.L338
 7314              	.L337:
2713:../firmware/gd32f3x0_hal_peripheral/Source/gd32f3x0_hal_i2c.c ****     } else {
2714:../firmware/gd32f3x0_hal_peripheral/Source/gd32f3x0_hal_i2c.c ****         return RESET;
 7315              		.loc 1 2714 16
 7316 008e 0023     		movs	r3, #0
 7317              	.L338:
2715:../firmware/gd32f3x0_hal_peripheral/Source/gd32f3x0_hal_i2c.c ****     }
2716:../firmware/gd32f3x0_hal_peripheral/Source/gd32f3x0_hal_i2c.c **** }
 7318              		.loc 1 2716 1
 7319 0090 1846     		mov	r0, r3
 7320 0092 1C37     		adds	r7, r7, #28
 7321              		.cfi_def_cfa_offset 4
 7322 0094 BD46     		mov	sp, r7
 7323              		.cfi_def_cfa_register 13
 7324              		@ sp needed
 7325 0096 80BC     		pop	{r7}
 7326              		.cfi_restore 7
 7327              		.cfi_def_cfa_offset 0
 7328 0098 7047     		bx	lr
 7329              	.L340:
 7330 009a 00BF     		.align	2
 7331              	.L339:
 7332 009c 09010605 		.word	84279561
 7333 00a0 09010705 		.word	84345097
 7334              		.cfi_endproc
 7335              	.LFE170:
 7337              		.section	.text.hals_i2c_interrupt_flag_clear,"ax",%progbits
 7338              		.align	1
 7339              		.global	hals_i2c_interrupt_flag_clear
 7340              		.syntax unified
 7341              		.thumb
 7342              		.thumb_func
 7343              		.fpu softvfp
 7345              	hals_i2c_interrupt_flag_clear:
 7346              	.LFB171:
2717:../firmware/gd32f3x0_hal_peripheral/Source/gd32f3x0_hal_i2c.c **** 
2718:../firmware/gd32f3x0_hal_peripheral/Source/gd32f3x0_hal_i2c.c **** /*!
2719:../firmware/gd32f3x0_hal_peripheral/Source/gd32f3x0_hal_i2c.c ****     \brief      clear I2C interrupt flag status
2720:../firmware/gd32f3x0_hal_peripheral/Source/gd32f3x0_hal_i2c.c ****     \param[in]  i2c_periph: I2Cx(x=0,1)
2721:../firmware/gd32f3x0_hal_peripheral/Source/gd32f3x0_hal_i2c.c ****     \param[in]  int_flag: I2C interrupt flags, refer to i2c_interrupt_flag_enum
2722:../firmware/gd32f3x0_hal_peripheral/Source/gd32f3x0_hal_i2c.c ****                 only one parameter can be selected which is shown as below:
2723:../firmware/gd32f3x0_hal_peripheral/Source/gd32f3x0_hal_i2c.c ****       \arg        I2C_INT_FLAG_ADDSEND: address is sent in master mode or received and matches in s
2724:../firmware/gd32f3x0_hal_peripheral/Source/gd32f3x0_hal_i2c.c ****       \arg        I2C_INT_FLAG_BERR: a bus error occurs indication a unexpected start or stop condi
2725:../firmware/gd32f3x0_hal_peripheral/Source/gd32f3x0_hal_i2c.c ****       \arg        I2C_INT_FLAG_LOSTARB: arbitration lost in master mode interrupt flag
2726:../firmware/gd32f3x0_hal_peripheral/Source/gd32f3x0_hal_i2c.c ****       \arg        I2C_INT_FLAG_AERR: acknowledge error interrupt flag
2727:../firmware/gd32f3x0_hal_peripheral/Source/gd32f3x0_hal_i2c.c ****       \arg        I2C_INT_FLAG_OUERR: over-run or under-run situation occurs in slave mode interrup
2728:../firmware/gd32f3x0_hal_peripheral/Source/gd32f3x0_hal_i2c.c ****       \arg        I2C_INT_FLAG_PECERR: PEC error when receiving data interrupt flag
2729:../firmware/gd32f3x0_hal_peripheral/Source/gd32f3x0_hal_i2c.c ****       \arg        I2C_INT_FLAG_SMBTO: timeout signal in SMBus mode interrupt flag
2730:../firmware/gd32f3x0_hal_peripheral/Source/gd32f3x0_hal_i2c.c ****       \arg        I2C_INT_FLAG_SMBALT: SMBus alert status interrupt flag
2731:../firmware/gd32f3x0_hal_peripheral/Source/gd32f3x0_hal_i2c.c ****     \param[out] none
2732:../firmware/gd32f3x0_hal_peripheral/Source/gd32f3x0_hal_i2c.c ****     \retval     none
2733:../firmware/gd32f3x0_hal_peripheral/Source/gd32f3x0_hal_i2c.c **** */
2734:../firmware/gd32f3x0_hal_peripheral/Source/gd32f3x0_hal_i2c.c **** void hals_i2c_interrupt_flag_clear(uint32_t i2c_periph, i2c_interrupt_flag_enum int_flag)
2735:../firmware/gd32f3x0_hal_peripheral/Source/gd32f3x0_hal_i2c.c **** {
 7347              		.loc 1 2735 1
 7348              		.cfi_startproc
 7349              		@ args = 0, pretend = 0, frame = 8
 7350              		@ frame_needed = 1, uses_anonymous_args = 0
 7351              		@ link register save eliminated.
 7352 0000 80B4     		push	{r7}
 7353              		.cfi_def_cfa_offset 4
 7354              		.cfi_offset 7, -4
 7355 0002 83B0     		sub	sp, sp, #12
 7356              		.cfi_def_cfa_offset 16
 7357 0004 00AF     		add	r7, sp, #0
 7358              		.cfi_def_cfa_register 7
 7359 0006 7860     		str	r0, [r7, #4]
 7360 0008 3960     		str	r1, [r7]
2736:../firmware/gd32f3x0_hal_peripheral/Source/gd32f3x0_hal_i2c.c ****     if(I2C_INT_FLAG_ADDSEND == int_flag) {
 7361              		.loc 1 2736 7
 7362 000a 3B68     		ldr	r3, [r7]
 7363 000c 104A     		ldr	r2, .L345
 7364 000e 9342     		cmp	r3, r2
 7365 0010 06D1     		bne	.L342
2737:../firmware/gd32f3x0_hal_peripheral/Source/gd32f3x0_hal_i2c.c ****         /* read I2C_STAT0 and then read I2C_STAT1 to clear ADDSEND */
2738:../firmware/gd32f3x0_hal_peripheral/Source/gd32f3x0_hal_i2c.c ****         I2C_STAT0(i2c_periph);
 7366              		.loc 1 2738 9
 7367 0012 7B68     		ldr	r3, [r7, #4]
 7368 0014 1433     		adds	r3, r3, #20
 7369 0016 1B68     		ldr	r3, [r3]
2739:../firmware/gd32f3x0_hal_peripheral/Source/gd32f3x0_hal_i2c.c ****         I2C_STAT1(i2c_periph);
 7370              		.loc 1 2739 9
 7371 0018 7B68     		ldr	r3, [r7, #4]
 7372 001a 1833     		adds	r3, r3, #24
 7373 001c 1B68     		ldr	r3, [r3]
2740:../firmware/gd32f3x0_hal_peripheral/Source/gd32f3x0_hal_i2c.c ****     } else {
2741:../firmware/gd32f3x0_hal_peripheral/Source/gd32f3x0_hal_i2c.c ****         I2C_REG_VAL2(i2c_periph, int_flag) &= ~BIT(I2C_BIT_POS2(int_flag));
2742:../firmware/gd32f3x0_hal_peripheral/Source/gd32f3x0_hal_i2c.c ****     }
2743:../firmware/gd32f3x0_hal_peripheral/Source/gd32f3x0_hal_i2c.c **** }
 7374              		.loc 1 2743 1
 7375 001e 12E0     		b	.L344
 7376              	.L342:
2741:../firmware/gd32f3x0_hal_peripheral/Source/gd32f3x0_hal_i2c.c ****     }
 7377              		.loc 1 2741 44
 7378 0020 3B68     		ldr	r3, [r7]
 7379 0022 9A0D     		lsrs	r2, r3, #22
 7380 0024 7B68     		ldr	r3, [r7, #4]
 7381 0026 1344     		add	r3, r3, r2
 7382 0028 1A68     		ldr	r2, [r3]
2741:../firmware/gd32f3x0_hal_peripheral/Source/gd32f3x0_hal_i2c.c ****     }
 7383              		.loc 1 2741 48
 7384 002a 3B68     		ldr	r3, [r7]
 7385 002c 1B0C     		lsrs	r3, r3, #16
 7386 002e 03F01F03 		and	r3, r3, #31
 7387 0032 0121     		movs	r1, #1
 7388 0034 01FA03F3 		lsl	r3, r1, r3
2741:../firmware/gd32f3x0_hal_peripheral/Source/gd32f3x0_hal_i2c.c ****     }
 7389              		.loc 1 2741 47
 7390 0038 DB43     		mvns	r3, r3
2741:../firmware/gd32f3x0_hal_peripheral/Source/gd32f3x0_hal_i2c.c ****     }
 7391              		.loc 1 2741 44
 7392 003a 3968     		ldr	r1, [r7]
 7393 003c 880D     		lsrs	r0, r1, #22
 7394 003e 7968     		ldr	r1, [r7, #4]
 7395 0040 0144     		add	r1, r1, r0
 7396 0042 1340     		ands	r3, r3, r2
 7397 0044 0B60     		str	r3, [r1]
 7398              	.L344:
 7399              		.loc 1 2743 1
 7400 0046 00BF     		nop
 7401 0048 0C37     		adds	r7, r7, #12
 7402              		.cfi_def_cfa_offset 4
 7403 004a BD46     		mov	sp, r7
 7404              		.cfi_def_cfa_register 13
 7405              		@ sp needed
 7406 004c 80BC     		pop	{r7}
 7407              		.cfi_restore 7
 7408              		.cfi_def_cfa_offset 0
 7409 004e 7047     		bx	lr
 7410              	.L346:
 7411              		.align	2
 7412              	.L345:
 7413 0050 09010105 		.word	83951881
 7414              		.cfi_endproc
 7415              	.LFE171:
 7417              		.section	.text._i2c_wait_flag_timeout,"ax",%progbits
 7418              		.align	1
 7419              		.syntax unified
 7420              		.thumb
 7421              		.thumb_func
 7422              		.fpu softvfp
 7424              	_i2c_wait_flag_timeout:
 7425              	.LFB172:
2744:../firmware/gd32f3x0_hal_peripheral/Source/gd32f3x0_hal_i2c.c **** 
2745:../firmware/gd32f3x0_hal_peripheral/Source/gd32f3x0_hal_i2c.c **** /*!
2746:../firmware/gd32f3x0_hal_peripheral/Source/gd32f3x0_hal_i2c.c ****     \brief      wait the flag status until timeout
2747:../firmware/gd32f3x0_hal_peripheral/Source/gd32f3x0_hal_i2c.c ****     \param[in]  i2c_periph: I2Cx(x=0,1)
2748:../firmware/gd32f3x0_hal_peripheral/Source/gd32f3x0_hal_i2c.c ****     \param[in]  flag: I2C flags, refer to i2c_flag_enum
2749:../firmware/gd32f3x0_hal_peripheral/Source/gd32f3x0_hal_i2c.c ****     \param[in]  status: the status of I2C flag to wait
2750:../firmware/gd32f3x0_hal_peripheral/Source/gd32f3x0_hal_i2c.c ****     \param[in]  timeout_ms: timeout duration
2751:../firmware/gd32f3x0_hal_peripheral/Source/gd32f3x0_hal_i2c.c ****     \param[out] none
2752:../firmware/gd32f3x0_hal_peripheral/Source/gd32f3x0_hal_i2c.c ****     \retval     error code: HAL_ERR_NONE, HAL_ERR_TIMEOUT, details refer to gd32f3x0_hal.h
2753:../firmware/gd32f3x0_hal_peripheral/Source/gd32f3x0_hal_i2c.c **** */
2754:../firmware/gd32f3x0_hal_peripheral/Source/gd32f3x0_hal_i2c.c **** static int32_t _i2c_wait_flag_timeout(uint32_t i2c_periph, i2c_flag_enum flag, \
2755:../firmware/gd32f3x0_hal_peripheral/Source/gd32f3x0_hal_i2c.c ****                                       FlagStatus status, uint32_t timeout_ms)
2756:../firmware/gd32f3x0_hal_peripheral/Source/gd32f3x0_hal_i2c.c **** {
 7426              		.loc 1 2756 1
 7427              		.cfi_startproc
 7428              		@ args = 0, pretend = 0, frame = 24
 7429              		@ frame_needed = 1, uses_anonymous_args = 0
 7430 0000 80B5     		push	{r7, lr}
 7431              		.cfi_def_cfa_offset 8
 7432              		.cfi_offset 7, -8
 7433              		.cfi_offset 14, -4
 7434 0002 86B0     		sub	sp, sp, #24
 7435              		.cfi_def_cfa_offset 32
 7436 0004 00AF     		add	r7, sp, #0
 7437              		.cfi_def_cfa_register 7
 7438 0006 F860     		str	r0, [r7, #12]
 7439 0008 7B60     		str	r3, [r7, #4]
 7440 000a 0B46     		mov	r3, r1	@ movhi
 7441 000c 7B81     		strh	r3, [r7, #10]	@ movhi
 7442 000e 1346     		mov	r3, r2
 7443 0010 7B72     		strb	r3, [r7, #9]
2757:../firmware/gd32f3x0_hal_peripheral/Source/gd32f3x0_hal_i2c.c ****     uint32_t tick_start;
2758:../firmware/gd32f3x0_hal_peripheral/Source/gd32f3x0_hal_i2c.c ****     /* set timeout */
2759:../firmware/gd32f3x0_hal_peripheral/Source/gd32f3x0_hal_i2c.c ****     tick_start = hal_sys_basetick_count_get();
 7444              		.loc 1 2759 18
 7445 0012 FFF7FEFF 		bl	hal_sys_basetick_count_get
 7446 0016 7861     		str	r0, [r7, #20]
2760:../firmware/gd32f3x0_hal_peripheral/Source/gd32f3x0_hal_i2c.c ****     /* wait flag status RESET */
2761:../firmware/gd32f3x0_hal_peripheral/Source/gd32f3x0_hal_i2c.c ****     if(RESET == status) {
 7447              		.loc 1 2761 7
 7448 0018 7B7A     		ldrb	r3, [r7, #9]	@ zero_extendqisi2
 7449 001a 002B     		cmp	r3, #0
 7450 001c 25D1     		bne	.L353
2762:../firmware/gd32f3x0_hal_peripheral/Source/gd32f3x0_hal_i2c.c ****         while(SET == hals_i2c_flag_get(i2c_periph, flag)) {
 7451              		.loc 1 2762 14
 7452 001e 0DE0     		b	.L349
 7453              	.L351:
2763:../firmware/gd32f3x0_hal_peripheral/Source/gd32f3x0_hal_i2c.c ****             if(HAL_TIMEOUT_FOREVER != timeout_ms) {
 7454              		.loc 1 2763 15
 7455 0020 7B68     		ldr	r3, [r7, #4]
 7456 0022 B3F1FF3F 		cmp	r3, #-1
 7457 0026 09D0     		beq	.L349
2764:../firmware/gd32f3x0_hal_peripheral/Source/gd32f3x0_hal_i2c.c ****                 if(SET == hal_sys_basetick_timeout_check(tick_start, timeout_ms)) {
 7458              		.loc 1 2764 27
 7459 0028 7968     		ldr	r1, [r7, #4]
 7460 002a 7869     		ldr	r0, [r7, #20]
 7461 002c FFF7FEFF 		bl	hal_sys_basetick_timeout_check
 7462 0030 0346     		mov	r3, r0
 7463              		.loc 1 2764 19
 7464 0032 012B     		cmp	r3, #1
 7465 0034 02D1     		bne	.L349
2765:../firmware/gd32f3x0_hal_peripheral/Source/gd32f3x0_hal_i2c.c ****                     HAL_DEBUGW("i2c get flag timeout");
2766:../firmware/gd32f3x0_hal_peripheral/Source/gd32f3x0_hal_i2c.c ****                     return HAL_ERR_TIMEOUT;
 7466              		.loc 1 2766 28
 7467 0036 6FF00403 		mvn	r3, #4
 7468 003a 1FE0     		b	.L350
 7469              	.L349:
2762:../firmware/gd32f3x0_hal_peripheral/Source/gd32f3x0_hal_i2c.c ****             if(HAL_TIMEOUT_FOREVER != timeout_ms) {
 7470              		.loc 1 2762 22
 7471 003c 7B89     		ldrh	r3, [r7, #10]
 7472 003e 1946     		mov	r1, r3
 7473 0040 F868     		ldr	r0, [r7, #12]
 7474 0042 FFF7FEFF 		bl	hals_i2c_flag_get
 7475 0046 0346     		mov	r3, r0
2762:../firmware/gd32f3x0_hal_peripheral/Source/gd32f3x0_hal_i2c.c ****             if(HAL_TIMEOUT_FOREVER != timeout_ms) {
 7476              		.loc 1 2762 14
 7477 0048 012B     		cmp	r3, #1
 7478 004a E9D0     		beq	.L351
 7479 004c 15E0     		b	.L352
 7480              	.L354:
2767:../firmware/gd32f3x0_hal_peripheral/Source/gd32f3x0_hal_i2c.c ****                 }
2768:../firmware/gd32f3x0_hal_peripheral/Source/gd32f3x0_hal_i2c.c ****             }
2769:../firmware/gd32f3x0_hal_peripheral/Source/gd32f3x0_hal_i2c.c ****         }
2770:../firmware/gd32f3x0_hal_peripheral/Source/gd32f3x0_hal_i2c.c ****     } else {
2771:../firmware/gd32f3x0_hal_peripheral/Source/gd32f3x0_hal_i2c.c ****         /* wait flag status SET */
2772:../firmware/gd32f3x0_hal_peripheral/Source/gd32f3x0_hal_i2c.c ****         while(RESET == hals_i2c_flag_get(i2c_periph, flag)) {
2773:../firmware/gd32f3x0_hal_peripheral/Source/gd32f3x0_hal_i2c.c ****             if(HAL_TIMEOUT_FOREVER != timeout_ms) {
 7481              		.loc 1 2773 15
 7482 004e 7B68     		ldr	r3, [r7, #4]
 7483 0050 B3F1FF3F 		cmp	r3, #-1
 7484 0054 09D0     		beq	.L353
2774:../firmware/gd32f3x0_hal_peripheral/Source/gd32f3x0_hal_i2c.c ****                 if(SET == hal_sys_basetick_timeout_check(tick_start, timeout_ms)) {
 7485              		.loc 1 2774 27
 7486 0056 7968     		ldr	r1, [r7, #4]
 7487 0058 7869     		ldr	r0, [r7, #20]
 7488 005a FFF7FEFF 		bl	hal_sys_basetick_timeout_check
 7489 005e 0346     		mov	r3, r0
 7490              		.loc 1 2774 19
 7491 0060 012B     		cmp	r3, #1
 7492 0062 02D1     		bne	.L353
2775:../firmware/gd32f3x0_hal_peripheral/Source/gd32f3x0_hal_i2c.c ****                     HAL_DEBUGW("i2c get flag timeout");
2776:../firmware/gd32f3x0_hal_peripheral/Source/gd32f3x0_hal_i2c.c ****                     return HAL_ERR_TIMEOUT;
 7493              		.loc 1 2776 28
 7494 0064 6FF00403 		mvn	r3, #4
 7495 0068 08E0     		b	.L350
 7496              	.L353:
2772:../firmware/gd32f3x0_hal_peripheral/Source/gd32f3x0_hal_i2c.c ****             if(HAL_TIMEOUT_FOREVER != timeout_ms) {
 7497              		.loc 1 2772 24
 7498 006a 7B89     		ldrh	r3, [r7, #10]
 7499 006c 1946     		mov	r1, r3
 7500 006e F868     		ldr	r0, [r7, #12]
 7501 0070 FFF7FEFF 		bl	hals_i2c_flag_get
 7502 0074 0346     		mov	r3, r0
2772:../firmware/gd32f3x0_hal_peripheral/Source/gd32f3x0_hal_i2c.c ****             if(HAL_TIMEOUT_FOREVER != timeout_ms) {
 7503              		.loc 1 2772 14
 7504 0076 002B     		cmp	r3, #0
 7505 0078 E9D0     		beq	.L354
 7506              	.L352:
2777:../firmware/gd32f3x0_hal_peripheral/Source/gd32f3x0_hal_i2c.c ****                 }
2778:../firmware/gd32f3x0_hal_peripheral/Source/gd32f3x0_hal_i2c.c ****             }
2779:../firmware/gd32f3x0_hal_peripheral/Source/gd32f3x0_hal_i2c.c ****         }
2780:../firmware/gd32f3x0_hal_peripheral/Source/gd32f3x0_hal_i2c.c ****     }
2781:../firmware/gd32f3x0_hal_peripheral/Source/gd32f3x0_hal_i2c.c ****     return HAL_ERR_NONE;
 7507              		.loc 1 2781 12
 7508 007a 0023     		movs	r3, #0
 7509              	.L350:
2782:../firmware/gd32f3x0_hal_peripheral/Source/gd32f3x0_hal_i2c.c **** }
 7510              		.loc 1 2782 1
 7511 007c 1846     		mov	r0, r3
 7512 007e 1837     		adds	r7, r7, #24
 7513              		.cfi_def_cfa_offset 8
 7514 0080 BD46     		mov	sp, r7
 7515              		.cfi_def_cfa_register 13
 7516              		@ sp needed
 7517 0082 80BD     		pop	{r7, pc}
 7518              		.cfi_endproc
 7519              	.LFE172:
 7521              		.section	.text._i2c_master_write,"ax",%progbits
 7522              		.align	1
 7523              		.syntax unified
 7524              		.thumb
 7525              		.thumb_func
 7526              		.fpu softvfp
 7528              	_i2c_master_write:
 7529              	.LFB173:
2783:../firmware/gd32f3x0_hal_peripheral/Source/gd32f3x0_hal_i2c.c **** 
2784:../firmware/gd32f3x0_hal_peripheral/Source/gd32f3x0_hal_i2c.c **** /*!
2785:../firmware/gd32f3x0_hal_peripheral/Source/gd32f3x0_hal_i2c.c ****     \brief      master sends device address for write request
2786:../firmware/gd32f3x0_hal_peripheral/Source/gd32f3x0_hal_i2c.c ****     \param[in]  i2c_dev: I2C device information structrue
2787:../firmware/gd32f3x0_hal_peripheral/Source/gd32f3x0_hal_i2c.c ****                   the structure is not necessary to be reconfigured after structrue initialization,
2788:../firmware/gd32f3x0_hal_peripheral/Source/gd32f3x0_hal_i2c.c ****                   the structure parameters altering is automatically configured by core
2789:../firmware/gd32f3x0_hal_peripheral/Source/gd32f3x0_hal_i2c.c ****     \param[in]  timeout_ms: timeout duration
2790:../firmware/gd32f3x0_hal_peripheral/Source/gd32f3x0_hal_i2c.c ****     \param[out] none
2791:../firmware/gd32f3x0_hal_peripheral/Source/gd32f3x0_hal_i2c.c ****     \retval     error code: HAL_ERR_NONE, HAL_ERR_TIMEOUT, details refer to gd32f3x0_hal.h
2792:../firmware/gd32f3x0_hal_peripheral/Source/gd32f3x0_hal_i2c.c **** */
2793:../firmware/gd32f3x0_hal_peripheral/Source/gd32f3x0_hal_i2c.c **** static int32_t _i2c_master_write(hal_i2c_dev_struct *i2c_dev, uint32_t timeout_ms)
2794:../firmware/gd32f3x0_hal_peripheral/Source/gd32f3x0_hal_i2c.c **** {
 7530              		.loc 1 2794 1
 7531              		.cfi_startproc
 7532              		@ args = 0, pretend = 0, frame = 16
 7533              		@ frame_needed = 1, uses_anonymous_args = 0
 7534 0000 80B5     		push	{r7, lr}
 7535              		.cfi_def_cfa_offset 8
 7536              		.cfi_offset 7, -8
 7537              		.cfi_offset 14, -4
 7538 0002 84B0     		sub	sp, sp, #16
 7539              		.cfi_def_cfa_offset 24
 7540 0004 00AF     		add	r7, sp, #0
 7541              		.cfi_def_cfa_register 7
 7542 0006 7860     		str	r0, [r7, #4]
 7543 0008 3960     		str	r1, [r7]
2795:../firmware/gd32f3x0_hal_peripheral/Source/gd32f3x0_hal_i2c.c ****     uint16_t first_byte, second_byte;
2796:../firmware/gd32f3x0_hal_peripheral/Source/gd32f3x0_hal_i2c.c ****     uint32_t address_format;
2797:../firmware/gd32f3x0_hal_peripheral/Source/gd32f3x0_hal_i2c.c ****     /* check the address format */
2798:../firmware/gd32f3x0_hal_peripheral/Source/gd32f3x0_hal_i2c.c ****     if(I2C_SADDR0(i2c_dev->periph)&I2C_SADDR0_ADDFORMAT) {
 7544              		.loc 1 2798 8
 7545 000a 7B68     		ldr	r3, [r7, #4]
 7546 000c 1B68     		ldr	r3, [r3]
 7547 000e 0833     		adds	r3, r3, #8
 7548 0010 1B68     		ldr	r3, [r3]
 7549              		.loc 1 2798 35
 7550 0012 03F40043 		and	r3, r3, #32768
 7551              		.loc 1 2798 7
 7552 0016 002B     		cmp	r3, #0
 7553 0018 03D0     		beq	.L356
2799:../firmware/gd32f3x0_hal_peripheral/Source/gd32f3x0_hal_i2c.c ****         address_format = I2C_ADDFORMAT_10BITS;
 7554              		.loc 1 2799 24
 7555 001a 4FF40043 		mov	r3, #32768
 7556 001e FB60     		str	r3, [r7, #12]
 7557 0020 01E0     		b	.L357
 7558              	.L356:
2800:../firmware/gd32f3x0_hal_peripheral/Source/gd32f3x0_hal_i2c.c ****     } else {
2801:../firmware/gd32f3x0_hal_peripheral/Source/gd32f3x0_hal_i2c.c ****         address_format = I2C_ADDFORMAT_7BITS;
 7559              		.loc 1 2801 24
 7560 0022 0023     		movs	r3, #0
 7561 0024 FB60     		str	r3, [r7, #12]
 7562              	.L357:
2802:../firmware/gd32f3x0_hal_peripheral/Source/gd32f3x0_hal_i2c.c ****     }
2803:../firmware/gd32f3x0_hal_peripheral/Source/gd32f3x0_hal_i2c.c ****     /* send a start condition to I2C bus */
2804:../firmware/gd32f3x0_hal_peripheral/Source/gd32f3x0_hal_i2c.c ****     HAL_I2C_START_ON_BUS(i2c_dev->periph);
 7563              		.loc 1 2804 5
 7564 0026 7B68     		ldr	r3, [r7, #4]
 7565 0028 1B68     		ldr	r3, [r3]
 7566 002a 1B68     		ldr	r3, [r3]
 7567 002c 7A68     		ldr	r2, [r7, #4]
 7568 002e 1268     		ldr	r2, [r2]
 7569 0030 43F48073 		orr	r3, r3, #256
 7570 0034 1360     		str	r3, [r2]
2805:../firmware/gd32f3x0_hal_peripheral/Source/gd32f3x0_hal_i2c.c ****     /* wait until SBSEND bit is set */
2806:../firmware/gd32f3x0_hal_peripheral/Source/gd32f3x0_hal_i2c.c ****     if(HAL_ERR_NONE != _i2c_wait_flag_timeout(i2c_dev->periph, I2C_FLAG_SBSEND, SET, timeout_ms)) {
 7571              		.loc 1 2806 24
 7572 0036 7B68     		ldr	r3, [r7, #4]
 7573 0038 1868     		ldr	r0, [r3]
 7574 003a 3B68     		ldr	r3, [r7]
 7575 003c 0122     		movs	r2, #1
 7576 003e 4FF4A061 		mov	r1, #1280
 7577 0042 FFF7FEFF 		bl	_i2c_wait_flag_timeout
 7578 0046 0346     		mov	r3, r0
 7579              		.loc 1 2806 7
 7580 0048 002B     		cmp	r3, #0
 7581 004a 02D0     		beq	.L358
2807:../firmware/gd32f3x0_hal_peripheral/Source/gd32f3x0_hal_i2c.c ****         HAL_DEBUGW("i2c get SBSEND timeout");
2808:../firmware/gd32f3x0_hal_peripheral/Source/gd32f3x0_hal_i2c.c ****         return HAL_ERR_TIMEOUT;
 7582              		.loc 1 2808 16
 7583 004c 6FF00403 		mvn	r3, #4
 7584 0050 48E0     		b	.L359
 7585              	.L358:
2809:../firmware/gd32f3x0_hal_peripheral/Source/gd32f3x0_hal_i2c.c ****     }
2810:../firmware/gd32f3x0_hal_peripheral/Source/gd32f3x0_hal_i2c.c **** 
2811:../firmware/gd32f3x0_hal_peripheral/Source/gd32f3x0_hal_i2c.c ****     /* send slave address to I2C bus */
2812:../firmware/gd32f3x0_hal_peripheral/Source/gd32f3x0_hal_i2c.c ****     if(I2C_ADDFORMAT_7BITS == address_format) {
 7586              		.loc 1 2812 7
 7587 0052 FB68     		ldr	r3, [r7, #12]
 7588 0054 002B     		cmp	r3, #0
 7589 0056 09D1     		bne	.L360
2813:../firmware/gd32f3x0_hal_peripheral/Source/gd32f3x0_hal_i2c.c ****         /* 7-bit addressing */
2814:../firmware/gd32f3x0_hal_peripheral/Source/gd32f3x0_hal_i2c.c ****         hals_i2c_master_addressing(i2c_dev->periph, i2c_dev->slave_address.device_address, I2C_TRAN
 7590              		.loc 1 2814 9
 7591 0058 7B68     		ldr	r3, [r7, #4]
 7592 005a 1868     		ldr	r0, [r3]
 7593 005c 7B68     		ldr	r3, [r7, #4]
 7594 005e DB6A     		ldr	r3, [r3, #44]
 7595 0060 6FF00102 		mvn	r2, #1
 7596 0064 1946     		mov	r1, r3
 7597 0066 FFF7FEFF 		bl	hals_i2c_master_addressing
 7598 006a 2CE0     		b	.L361
 7599              	.L360:
2815:../firmware/gd32f3x0_hal_peripheral/Source/gd32f3x0_hal_i2c.c ****     } else {
2816:../firmware/gd32f3x0_hal_peripheral/Source/gd32f3x0_hal_i2c.c ****         /* 10-bit addressing */
2817:../firmware/gd32f3x0_hal_peripheral/Source/gd32f3x0_hal_i2c.c ****         first_byte = SLAVE10_FIRST_BYTE(i2c_dev->slave_address.device_address);
 7600              		.loc 1 2817 22
 7601 006c 7B68     		ldr	r3, [r7, #4]
 7602 006e DB6A     		ldr	r3, [r3, #44]
 7603 0070 DB09     		lsrs	r3, r3, #7
 7604 0072 DBB2     		uxtb	r3, r3
 7605 0074 03F00603 		and	r3, r3, #6
 7606 0078 DBB2     		uxtb	r3, r3
 7607              		.loc 1 2817 20
 7608 007a 63F00F03 		orn	r3, r3, #15
 7609 007e DBB2     		uxtb	r3, r3
 7610 0080 7B81     		strh	r3, [r7, #10]	@ movhi
2818:../firmware/gd32f3x0_hal_peripheral/Source/gd32f3x0_hal_i2c.c ****         second_byte = SLAVE10_SECOND_BYTE(i2c_dev->slave_address.device_address);
 7611              		.loc 1 2818 23
 7612 0082 7B68     		ldr	r3, [r7, #4]
 7613 0084 DB6A     		ldr	r3, [r3, #44]
 7614 0086 DBB2     		uxtb	r3, r3
 7615              		.loc 1 2818 21
 7616 0088 3B81     		strh	r3, [r7, #8]	@ movhi
2819:../firmware/gd32f3x0_hal_peripheral/Source/gd32f3x0_hal_i2c.c **** 
2820:../firmware/gd32f3x0_hal_peripheral/Source/gd32f3x0_hal_i2c.c ****         hals_i2c_master_addressing(i2c_dev->periph, first_byte, I2C_TRANSMITTER);
 7617              		.loc 1 2820 9
 7618 008a 7B68     		ldr	r3, [r7, #4]
 7619 008c 1B68     		ldr	r3, [r3]
 7620 008e 7989     		ldrh	r1, [r7, #10]
 7621 0090 6FF00102 		mvn	r2, #1
 7622 0094 1846     		mov	r0, r3
 7623 0096 FFF7FEFF 		bl	hals_i2c_master_addressing
2821:../firmware/gd32f3x0_hal_peripheral/Source/gd32f3x0_hal_i2c.c ****         if(HAL_ERR_NONE != _i2c_wait_flag_timeout(i2c_dev->periph, I2C_FLAG_ADD10SEND, SET, timeout
 7624              		.loc 1 2821 28
 7625 009a 7B68     		ldr	r3, [r7, #4]
 7626 009c 1868     		ldr	r0, [r3]
 7627 009e 3B68     		ldr	r3, [r7]
 7628 00a0 0122     		movs	r2, #1
 7629 00a2 40F20351 		movw	r1, #1283
 7630 00a6 FFF7FEFF 		bl	_i2c_wait_flag_timeout
 7631 00aa 0346     		mov	r3, r0
 7632              		.loc 1 2821 11
 7633 00ac 002B     		cmp	r3, #0
 7634 00ae 02D0     		beq	.L362
2822:../firmware/gd32f3x0_hal_peripheral/Source/gd32f3x0_hal_i2c.c ****             HAL_DEBUGW("i2c get ADD10SEND timeout");
2823:../firmware/gd32f3x0_hal_peripheral/Source/gd32f3x0_hal_i2c.c ****             return HAL_ERR_TIMEOUT;
 7635              		.loc 1 2823 20
 7636 00b0 6FF00403 		mvn	r3, #4
 7637 00b4 16E0     		b	.L359
 7638              	.L362:
2824:../firmware/gd32f3x0_hal_peripheral/Source/gd32f3x0_hal_i2c.c ****         }
2825:../firmware/gd32f3x0_hal_peripheral/Source/gd32f3x0_hal_i2c.c ****         hals_i2c_master_addressing(i2c_dev->periph, second_byte, I2C_TRANSMITTER);
 7639              		.loc 1 2825 9
 7640 00b6 7B68     		ldr	r3, [r7, #4]
 7641 00b8 1B68     		ldr	r3, [r3]
 7642 00ba 3989     		ldrh	r1, [r7, #8]
 7643 00bc 6FF00102 		mvn	r2, #1
 7644 00c0 1846     		mov	r0, r3
 7645 00c2 FFF7FEFF 		bl	hals_i2c_master_addressing
 7646              	.L361:
2826:../firmware/gd32f3x0_hal_peripheral/Source/gd32f3x0_hal_i2c.c ****     }
2827:../firmware/gd32f3x0_hal_peripheral/Source/gd32f3x0_hal_i2c.c ****     /* wait until ADDSEND bit is set */
2828:../firmware/gd32f3x0_hal_peripheral/Source/gd32f3x0_hal_i2c.c ****     if(HAL_ERR_NONE != _i2c_wait_flag_timeout(i2c_dev->periph, I2C_FLAG_ADDSEND, SET, timeout_ms)) 
 7647              		.loc 1 2828 24
 7648 00c6 7B68     		ldr	r3, [r7, #4]
 7649 00c8 1868     		ldr	r0, [r3]
 7650 00ca 3B68     		ldr	r3, [r7]
 7651 00cc 0122     		movs	r2, #1
 7652 00ce 40F20151 		movw	r1, #1281
 7653 00d2 FFF7FEFF 		bl	_i2c_wait_flag_timeout
 7654 00d6 0346     		mov	r3, r0
 7655              		.loc 1 2828 7
 7656 00d8 002B     		cmp	r3, #0
 7657 00da 02D0     		beq	.L363
2829:../firmware/gd32f3x0_hal_peripheral/Source/gd32f3x0_hal_i2c.c ****         HAL_DEBUGW("i2c get ADDSEND timeout");
2830:../firmware/gd32f3x0_hal_peripheral/Source/gd32f3x0_hal_i2c.c ****         return HAL_ERR_TIMEOUT;
 7658              		.loc 1 2830 16
 7659 00dc 6FF00403 		mvn	r3, #4
 7660 00e0 00E0     		b	.L359
 7661              	.L363:
2831:../firmware/gd32f3x0_hal_peripheral/Source/gd32f3x0_hal_i2c.c ****     }
2832:../firmware/gd32f3x0_hal_peripheral/Source/gd32f3x0_hal_i2c.c ****     return HAL_ERR_NONE;
 7662              		.loc 1 2832 12
 7663 00e2 0023     		movs	r3, #0
 7664              	.L359:
2833:../firmware/gd32f3x0_hal_peripheral/Source/gd32f3x0_hal_i2c.c **** }
 7665              		.loc 1 2833 1
 7666 00e4 1846     		mov	r0, r3
 7667 00e6 1037     		adds	r7, r7, #16
 7668              		.cfi_def_cfa_offset 8
 7669 00e8 BD46     		mov	sp, r7
 7670              		.cfi_def_cfa_register 13
 7671              		@ sp needed
 7672 00ea 80BD     		pop	{r7, pc}
 7673              		.cfi_endproc
 7674              	.LFE173:
 7676              		.section	.text._i2c_master_transmit_interrupt,"ax",%progbits
 7677              		.align	1
 7678              		.syntax unified
 7679              		.thumb
 7680              		.thumb_func
 7681              		.fpu softvfp
 7683              	_i2c_master_transmit_interrupt:
 7684              	.LFB174:
2834:../firmware/gd32f3x0_hal_peripheral/Source/gd32f3x0_hal_i2c.c **** 
2835:../firmware/gd32f3x0_hal_peripheral/Source/gd32f3x0_hal_i2c.c **** /*!
2836:../firmware/gd32f3x0_hal_peripheral/Source/gd32f3x0_hal_i2c.c ****     \brief      event handler in I2C master transmit mode
2837:../firmware/gd32f3x0_hal_peripheral/Source/gd32f3x0_hal_i2c.c ****     \param[in]  i2c: I2C device information structrue
2838:../firmware/gd32f3x0_hal_peripheral/Source/gd32f3x0_hal_i2c.c ****                   the structure is not necessary to be reconfigured after structrue initialization,
2839:../firmware/gd32f3x0_hal_peripheral/Source/gd32f3x0_hal_i2c.c ****                   the structure parameters altering is automatically configured by core
2840:../firmware/gd32f3x0_hal_peripheral/Source/gd32f3x0_hal_i2c.c ****     \param[out] none
2841:../firmware/gd32f3x0_hal_peripheral/Source/gd32f3x0_hal_i2c.c ****     \retval     none
2842:../firmware/gd32f3x0_hal_peripheral/Source/gd32f3x0_hal_i2c.c **** */
2843:../firmware/gd32f3x0_hal_peripheral/Source/gd32f3x0_hal_i2c.c **** static void _i2c_master_transmit_interrupt(void *i2c)
2844:../firmware/gd32f3x0_hal_peripheral/Source/gd32f3x0_hal_i2c.c **** {
 7685              		.loc 1 2844 1
 7686              		.cfi_startproc
 7687              		@ args = 0, pretend = 0, frame = 32
 7688              		@ frame_needed = 1, uses_anonymous_args = 0
 7689 0000 80B5     		push	{r7, lr}
 7690              		.cfi_def_cfa_offset 8
 7691              		.cfi_offset 7, -8
 7692              		.cfi_offset 14, -4
 7693 0002 88B0     		sub	sp, sp, #32
 7694              		.cfi_def_cfa_offset 40
 7695 0004 00AF     		add	r7, sp, #0
 7696              		.cfi_def_cfa_register 7
 7697 0006 7860     		str	r0, [r7, #4]
2845:../firmware/gd32f3x0_hal_peripheral/Source/gd32f3x0_hal_i2c.c ****     hal_i2c_dev_struct *p_i2c = i2c;
 7698              		.loc 1 2845 25
 7699 0008 7B68     		ldr	r3, [r7, #4]
 7700 000a BB61     		str	r3, [r7, #24]
2846:../firmware/gd32f3x0_hal_peripheral/Source/gd32f3x0_hal_i2c.c ****     uint16_t first_byte, second_byte;
2847:../firmware/gd32f3x0_hal_peripheral/Source/gd32f3x0_hal_i2c.c ****     uint32_t address_format;
2848:../firmware/gd32f3x0_hal_peripheral/Source/gd32f3x0_hal_i2c.c ****     hal_i2c_user_cb p_func = (hal_i2c_user_cb)p_i2c->tx_callback;
 7701              		.loc 1 2848 52
 7702 000c BB69     		ldr	r3, [r7, #24]
 7703 000e DB6C     		ldr	r3, [r3, #76]
 7704              		.loc 1 2848 21
 7705 0010 7B61     		str	r3, [r7, #20]
2849:../firmware/gd32f3x0_hal_peripheral/Source/gd32f3x0_hal_i2c.c ****     uint32_t data_length;
2850:../firmware/gd32f3x0_hal_peripheral/Source/gd32f3x0_hal_i2c.c **** 
2851:../firmware/gd32f3x0_hal_peripheral/Source/gd32f3x0_hal_i2c.c ****     data_length = p_i2c->txbuffer.length;
 7706              		.loc 1 2851 17
 7707 0012 BB69     		ldr	r3, [r7, #24]
 7708 0014 9B69     		ldr	r3, [r3, #24]
 7709 0016 3B61     		str	r3, [r7, #16]
2852:../firmware/gd32f3x0_hal_peripheral/Source/gd32f3x0_hal_i2c.c **** 
2853:../firmware/gd32f3x0_hal_peripheral/Source/gd32f3x0_hal_i2c.c ****     if(hals_i2c_interrupt_flag_get(p_i2c->periph, I2C_INT_FLAG_SBSEND)) {
 7710              		.loc 1 2853 8
 7711 0018 BB69     		ldr	r3, [r7, #24]
 7712 001a 1B68     		ldr	r3, [r3]
 7713 001c 6549     		ldr	r1, .L377
 7714 001e 1846     		mov	r0, r3
 7715 0020 FFF7FEFF 		bl	hals_i2c_interrupt_flag_get
 7716 0024 0346     		mov	r3, r0
 7717              		.loc 1 2853 7
 7718 0026 002B     		cmp	r3, #0
 7719 0028 2FD0     		beq	.L365
2854:../firmware/gd32f3x0_hal_peripheral/Source/gd32f3x0_hal_i2c.c ****         /* check the address format */
2855:../firmware/gd32f3x0_hal_peripheral/Source/gd32f3x0_hal_i2c.c ****         if(I2C_SADDR0(p_i2c->periph)&I2C_SADDR0_ADDFORMAT) {
 7720              		.loc 1 2855 12
 7721 002a BB69     		ldr	r3, [r7, #24]
 7722 002c 1B68     		ldr	r3, [r3]
 7723 002e 0833     		adds	r3, r3, #8
 7724 0030 1B68     		ldr	r3, [r3]
 7725              		.loc 1 2855 37
 7726 0032 03F40043 		and	r3, r3, #32768
 7727              		.loc 1 2855 11
 7728 0036 002B     		cmp	r3, #0
 7729 0038 03D0     		beq	.L366
2856:../firmware/gd32f3x0_hal_peripheral/Source/gd32f3x0_hal_i2c.c ****             address_format = I2C_ADDFORMAT_10BITS;
 7730              		.loc 1 2856 28
 7731 003a 4FF40043 		mov	r3, #32768
 7732 003e FB61     		str	r3, [r7, #28]
 7733 0040 01E0     		b	.L367
 7734              	.L366:
2857:../firmware/gd32f3x0_hal_peripheral/Source/gd32f3x0_hal_i2c.c ****         } else {
2858:../firmware/gd32f3x0_hal_peripheral/Source/gd32f3x0_hal_i2c.c ****             address_format = I2C_ADDFORMAT_7BITS;
 7735              		.loc 1 2858 28
 7736 0042 0023     		movs	r3, #0
 7737 0044 FB61     		str	r3, [r7, #28]
 7738              	.L367:
2859:../firmware/gd32f3x0_hal_peripheral/Source/gd32f3x0_hal_i2c.c ****         }
2860:../firmware/gd32f3x0_hal_peripheral/Source/gd32f3x0_hal_i2c.c ****         if(I2C_ADDFORMAT_10BITS == address_format) {
 7739              		.loc 1 2860 11
 7740 0046 FB69     		ldr	r3, [r7, #28]
 7741 0048 B3F5004F 		cmp	r3, #32768
 7742 004c 13D1     		bne	.L368
2861:../firmware/gd32f3x0_hal_peripheral/Source/gd32f3x0_hal_i2c.c ****             first_byte = SLAVE10_FIRST_BYTE(p_i2c->slave_address.device_address);
 7743              		.loc 1 2861 26
 7744 004e BB69     		ldr	r3, [r7, #24]
 7745 0050 DB6A     		ldr	r3, [r3, #44]
 7746 0052 DB09     		lsrs	r3, r3, #7
 7747 0054 DBB2     		uxtb	r3, r3
 7748 0056 03F00603 		and	r3, r3, #6
 7749 005a DBB2     		uxtb	r3, r3
 7750              		.loc 1 2861 24
 7751 005c 63F00F03 		orn	r3, r3, #15
 7752 0060 DBB2     		uxtb	r3, r3
 7753 0062 BB81     		strh	r3, [r7, #12]	@ movhi
2862:../firmware/gd32f3x0_hal_peripheral/Source/gd32f3x0_hal_i2c.c ****             /* send slave address first byte to I2C bus */
2863:../firmware/gd32f3x0_hal_peripheral/Source/gd32f3x0_hal_i2c.c ****             hals_i2c_master_addressing(p_i2c->periph, first_byte, I2C_TRANSMITTER);
 7754              		.loc 1 2863 13
 7755 0064 BB69     		ldr	r3, [r7, #24]
 7756 0066 1B68     		ldr	r3, [r3]
 7757 0068 B989     		ldrh	r1, [r7, #12]
 7758 006a 6FF00102 		mvn	r2, #1
 7759 006e 1846     		mov	r0, r3
 7760 0070 FFF7FEFF 		bl	hals_i2c_master_addressing
2864:../firmware/gd32f3x0_hal_peripheral/Source/gd32f3x0_hal_i2c.c ****         } else {
2865:../firmware/gd32f3x0_hal_peripheral/Source/gd32f3x0_hal_i2c.c ****             /* send slave address */
2866:../firmware/gd32f3x0_hal_peripheral/Source/gd32f3x0_hal_i2c.c ****             hals_i2c_master_addressing(p_i2c->periph, p_i2c->slave_address.device_address, I2C_TRAN
2867:../firmware/gd32f3x0_hal_peripheral/Source/gd32f3x0_hal_i2c.c ****         }
2868:../firmware/gd32f3x0_hal_peripheral/Source/gd32f3x0_hal_i2c.c ****     } else if(hals_i2c_interrupt_flag_get(p_i2c->periph, I2C_INT_FLAG_ADD10SEND)) {
2869:../firmware/gd32f3x0_hal_peripheral/Source/gd32f3x0_hal_i2c.c ****         second_byte = SLAVE10_SECOND_BYTE(p_i2c->slave_address.device_address);
2870:../firmware/gd32f3x0_hal_peripheral/Source/gd32f3x0_hal_i2c.c ****         /* send slave address second byte to I2C bus */
2871:../firmware/gd32f3x0_hal_peripheral/Source/gd32f3x0_hal_i2c.c ****         hals_i2c_master_addressing(p_i2c->periph, second_byte, I2C_TRANSMITTER);
2872:../firmware/gd32f3x0_hal_peripheral/Source/gd32f3x0_hal_i2c.c ****     } else if(hals_i2c_interrupt_flag_get(p_i2c->periph, I2C_INT_FLAG_ADDSEND)) {
2873:../firmware/gd32f3x0_hal_peripheral/Source/gd32f3x0_hal_i2c.c ****         /*clear ADDSEND bit */
2874:../firmware/gd32f3x0_hal_peripheral/Source/gd32f3x0_hal_i2c.c ****         hals_i2c_interrupt_flag_clear(p_i2c->periph, I2C_INT_FLAG_ADDSEND);
2875:../firmware/gd32f3x0_hal_peripheral/Source/gd32f3x0_hal_i2c.c ****     } else if(hals_i2c_interrupt_flag_get(p_i2c->periph, I2C_INT_FLAG_TBE)) {
2876:../firmware/gd32f3x0_hal_peripheral/Source/gd32f3x0_hal_i2c.c ****         if(data_length > p_i2c->txbuffer.pos) {
2877:../firmware/gd32f3x0_hal_peripheral/Source/gd32f3x0_hal_i2c.c ****             /* the master sends a data byte */
2878:../firmware/gd32f3x0_hal_peripheral/Source/gd32f3x0_hal_i2c.c ****             hals_i2c_data_transmit(p_i2c->periph, *p_i2c->txbuffer.buffer++);
2879:../firmware/gd32f3x0_hal_peripheral/Source/gd32f3x0_hal_i2c.c ****             p_i2c->txbuffer.pos++;
2880:../firmware/gd32f3x0_hal_peripheral/Source/gd32f3x0_hal_i2c.c ****         } else {
2881:../firmware/gd32f3x0_hal_peripheral/Source/gd32f3x0_hal_i2c.c ****             if((I2C_NO_OPTION_TRANSFER != p_i2c->transfer_option) && \
2882:../firmware/gd32f3x0_hal_peripheral/Source/gd32f3x0_hal_i2c.c ****                     (I2C_LAST_TRANSFER != p_i2c->transfer_option)) {
2883:../firmware/gd32f3x0_hal_peripheral/Source/gd32f3x0_hal_i2c.c ****                 /* disable the I2C interrupt */
2884:../firmware/gd32f3x0_hal_peripheral/Source/gd32f3x0_hal_i2c.c ****                 hals_i2c_interrupt_disable(p_i2c->periph, I2C_INT_BUF);
2885:../firmware/gd32f3x0_hal_peripheral/Source/gd32f3x0_hal_i2c.c ****                 hals_i2c_interrupt_disable(p_i2c->periph, I2C_INT_EV);
2886:../firmware/gd32f3x0_hal_peripheral/Source/gd32f3x0_hal_i2c.c ****                 hals_i2c_interrupt_disable(p_i2c->periph, I2C_INT_ERR);
2887:../firmware/gd32f3x0_hal_peripheral/Source/gd32f3x0_hal_i2c.c ****                 p_i2c->previous_state = HAL_I2C_PREVIOUS_STATE_TX;
2888:../firmware/gd32f3x0_hal_peripheral/Source/gd32f3x0_hal_i2c.c ****             } else {
2889:../firmware/gd32f3x0_hal_peripheral/Source/gd32f3x0_hal_i2c.c ****                 /* the master sends a stop condition to I2C bus */
2890:../firmware/gd32f3x0_hal_peripheral/Source/gd32f3x0_hal_i2c.c ****                 HAL_I2C_STOP_ON_BUS(p_i2c->periph);
2891:../firmware/gd32f3x0_hal_peripheral/Source/gd32f3x0_hal_i2c.c ****                 /* disable the I2C interrupt */
2892:../firmware/gd32f3x0_hal_peripheral/Source/gd32f3x0_hal_i2c.c ****                 hals_i2c_interrupt_disable(p_i2c->periph, I2C_INT_BUF);
2893:../firmware/gd32f3x0_hal_peripheral/Source/gd32f3x0_hal_i2c.c ****                 hals_i2c_interrupt_disable(p_i2c->periph, I2C_INT_EV);
2894:../firmware/gd32f3x0_hal_peripheral/Source/gd32f3x0_hal_i2c.c ****                 hals_i2c_interrupt_disable(p_i2c->periph, I2C_INT_ERR);
2895:../firmware/gd32f3x0_hal_peripheral/Source/gd32f3x0_hal_i2c.c ****             }
2896:../firmware/gd32f3x0_hal_peripheral/Source/gd32f3x0_hal_i2c.c ****             if(NULL != p_func) {
2897:../firmware/gd32f3x0_hal_peripheral/Source/gd32f3x0_hal_i2c.c ****                 p_func(p_i2c);
2898:../firmware/gd32f3x0_hal_peripheral/Source/gd32f3x0_hal_i2c.c ****             }
2899:../firmware/gd32f3x0_hal_peripheral/Source/gd32f3x0_hal_i2c.c ****             p_i2c->tx_state = HAL_I2C_STATE_READY;
2900:../firmware/gd32f3x0_hal_peripheral/Source/gd32f3x0_hal_i2c.c ****         }
2901:../firmware/gd32f3x0_hal_peripheral/Source/gd32f3x0_hal_i2c.c ****     }
2902:../firmware/gd32f3x0_hal_peripheral/Source/gd32f3x0_hal_i2c.c **** }
 7761              		.loc 1 2902 1
 7762 0074 99E0     		b	.L376
 7763              	.L368:
2866:../firmware/gd32f3x0_hal_peripheral/Source/gd32f3x0_hal_i2c.c ****         }
 7764              		.loc 1 2866 13
 7765 0076 BB69     		ldr	r3, [r7, #24]
 7766 0078 1868     		ldr	r0, [r3]
 7767 007a BB69     		ldr	r3, [r7, #24]
 7768 007c DB6A     		ldr	r3, [r3, #44]
 7769 007e 6FF00102 		mvn	r2, #1
 7770 0082 1946     		mov	r1, r3
 7771 0084 FFF7FEFF 		bl	hals_i2c_master_addressing
 7772              		.loc 1 2902 1
 7773 0088 8FE0     		b	.L376
 7774              	.L365:
2868:../firmware/gd32f3x0_hal_peripheral/Source/gd32f3x0_hal_i2c.c ****         second_byte = SLAVE10_SECOND_BYTE(p_i2c->slave_address.device_address);
 7775              		.loc 1 2868 15
 7776 008a BB69     		ldr	r3, [r7, #24]
 7777 008c 1B68     		ldr	r3, [r3]
 7778 008e 4A49     		ldr	r1, .L377+4
 7779 0090 1846     		mov	r0, r3
 7780 0092 FFF7FEFF 		bl	hals_i2c_interrupt_flag_get
 7781 0096 0346     		mov	r3, r0
2868:../firmware/gd32f3x0_hal_peripheral/Source/gd32f3x0_hal_i2c.c ****         second_byte = SLAVE10_SECOND_BYTE(p_i2c->slave_address.device_address);
 7782              		.loc 1 2868 14
 7783 0098 002B     		cmp	r3, #0
 7784 009a 0CD0     		beq	.L370
2869:../firmware/gd32f3x0_hal_peripheral/Source/gd32f3x0_hal_i2c.c ****         /* send slave address second byte to I2C bus */
 7785              		.loc 1 2869 23
 7786 009c BB69     		ldr	r3, [r7, #24]
 7787 009e DB6A     		ldr	r3, [r3, #44]
 7788 00a0 DBB2     		uxtb	r3, r3
2869:../firmware/gd32f3x0_hal_peripheral/Source/gd32f3x0_hal_i2c.c ****         /* send slave address second byte to I2C bus */
 7789              		.loc 1 2869 21
 7790 00a2 FB81     		strh	r3, [r7, #14]	@ movhi
2871:../firmware/gd32f3x0_hal_peripheral/Source/gd32f3x0_hal_i2c.c ****     } else if(hals_i2c_interrupt_flag_get(p_i2c->periph, I2C_INT_FLAG_ADDSEND)) {
 7791              		.loc 1 2871 9
 7792 00a4 BB69     		ldr	r3, [r7, #24]
 7793 00a6 1B68     		ldr	r3, [r3]
 7794 00a8 F989     		ldrh	r1, [r7, #14]
 7795 00aa 6FF00102 		mvn	r2, #1
 7796 00ae 1846     		mov	r0, r3
 7797 00b0 FFF7FEFF 		bl	hals_i2c_master_addressing
 7798              		.loc 1 2902 1
 7799 00b4 79E0     		b	.L376
 7800              	.L370:
2872:../firmware/gd32f3x0_hal_peripheral/Source/gd32f3x0_hal_i2c.c ****         /*clear ADDSEND bit */
 7801              		.loc 1 2872 15
 7802 00b6 BB69     		ldr	r3, [r7, #24]
 7803 00b8 1B68     		ldr	r3, [r3]
 7804 00ba 4049     		ldr	r1, .L377+8
 7805 00bc 1846     		mov	r0, r3
 7806 00be FFF7FEFF 		bl	hals_i2c_interrupt_flag_get
 7807 00c2 0346     		mov	r3, r0
2872:../firmware/gd32f3x0_hal_peripheral/Source/gd32f3x0_hal_i2c.c ****         /*clear ADDSEND bit */
 7808              		.loc 1 2872 14
 7809 00c4 002B     		cmp	r3, #0
 7810 00c6 06D0     		beq	.L371
2874:../firmware/gd32f3x0_hal_peripheral/Source/gd32f3x0_hal_i2c.c ****     } else if(hals_i2c_interrupt_flag_get(p_i2c->periph, I2C_INT_FLAG_TBE)) {
 7811              		.loc 1 2874 9
 7812 00c8 BB69     		ldr	r3, [r7, #24]
 7813 00ca 1B68     		ldr	r3, [r3]
 7814 00cc 3B49     		ldr	r1, .L377+8
 7815 00ce 1846     		mov	r0, r3
 7816 00d0 FFF7FEFF 		bl	hals_i2c_interrupt_flag_clear
 7817              		.loc 1 2902 1
 7818 00d4 69E0     		b	.L376
 7819              	.L371:
2875:../firmware/gd32f3x0_hal_peripheral/Source/gd32f3x0_hal_i2c.c ****         if(data_length > p_i2c->txbuffer.pos) {
 7820              		.loc 1 2875 15
 7821 00d6 BB69     		ldr	r3, [r7, #24]
 7822 00d8 1B68     		ldr	r3, [r3]
 7823 00da 3949     		ldr	r1, .L377+12
 7824 00dc 1846     		mov	r0, r3
 7825 00de FFF7FEFF 		bl	hals_i2c_interrupt_flag_get
 7826 00e2 0346     		mov	r3, r0
2875:../firmware/gd32f3x0_hal_peripheral/Source/gd32f3x0_hal_i2c.c ****         if(data_length > p_i2c->txbuffer.pos) {
 7827              		.loc 1 2875 14
 7828 00e4 002B     		cmp	r3, #0
 7829 00e6 60D0     		beq	.L376
2876:../firmware/gd32f3x0_hal_peripheral/Source/gd32f3x0_hal_i2c.c ****             /* the master sends a data byte */
 7830              		.loc 1 2876 41
 7831 00e8 BB69     		ldr	r3, [r7, #24]
 7832 00ea DB69     		ldr	r3, [r3, #28]
2876:../firmware/gd32f3x0_hal_peripheral/Source/gd32f3x0_hal_i2c.c ****             /* the master sends a data byte */
 7833              		.loc 1 2876 11
 7834 00ec 3A69     		ldr	r2, [r7, #16]
 7835 00ee 9A42     		cmp	r2, r3
 7836 00f0 11D9     		bls	.L372
2878:../firmware/gd32f3x0_hal_peripheral/Source/gd32f3x0_hal_i2c.c ****             p_i2c->txbuffer.pos++;
 7837              		.loc 1 2878 13
 7838 00f2 BB69     		ldr	r3, [r7, #24]
 7839 00f4 1868     		ldr	r0, [r3]
2878:../firmware/gd32f3x0_hal_peripheral/Source/gd32f3x0_hal_i2c.c ****             p_i2c->txbuffer.pos++;
 7840              		.loc 1 2878 67
 7841 00f6 BB69     		ldr	r3, [r7, #24]
 7842 00f8 5B69     		ldr	r3, [r3, #20]
2878:../firmware/gd32f3x0_hal_peripheral/Source/gd32f3x0_hal_i2c.c ****             p_i2c->txbuffer.pos++;
 7843              		.loc 1 2878 74
 7844 00fa 591C     		adds	r1, r3, #1
 7845 00fc BA69     		ldr	r2, [r7, #24]
 7846 00fe 5161     		str	r1, [r2, #20]
2878:../firmware/gd32f3x0_hal_peripheral/Source/gd32f3x0_hal_i2c.c ****             p_i2c->txbuffer.pos++;
 7847              		.loc 1 2878 13
 7848 0100 1B78     		ldrb	r3, [r3]
 7849 0102 DBB2     		uxtb	r3, r3
 7850 0104 1946     		mov	r1, r3
 7851 0106 FFF7FEFF 		bl	hals_i2c_data_transmit
2879:../firmware/gd32f3x0_hal_peripheral/Source/gd32f3x0_hal_i2c.c ****         } else {
 7852              		.loc 1 2879 28
 7853 010a BB69     		ldr	r3, [r7, #24]
 7854 010c DB69     		ldr	r3, [r3, #28]
2879:../firmware/gd32f3x0_hal_peripheral/Source/gd32f3x0_hal_i2c.c ****         } else {
 7855              		.loc 1 2879 32
 7856 010e 5A1C     		adds	r2, r3, #1
 7857 0110 BB69     		ldr	r3, [r7, #24]
 7858 0112 DA61     		str	r2, [r3, #28]
 7859              		.loc 1 2902 1
 7860 0114 49E0     		b	.L376
 7861              	.L372:
2881:../firmware/gd32f3x0_hal_peripheral/Source/gd32f3x0_hal_i2c.c ****                     (I2C_LAST_TRANSFER != p_i2c->transfer_option)) {
 7862              		.loc 1 2881 48
 7863 0116 BB69     		ldr	r3, [r7, #24]
 7864 0118 1B8F     		ldrh	r3, [r3, #56]	@ movhi
 7865 011a 9BB2     		uxth	r3, r3
2881:../firmware/gd32f3x0_hal_peripheral/Source/gd32f3x0_hal_i2c.c ****                     (I2C_LAST_TRANSFER != p_i2c->transfer_option)) {
 7866              		.loc 1 2881 15
 7867 011c 012B     		cmp	r3, #1
 7868 011e 1DD0     		beq	.L373
2882:../firmware/gd32f3x0_hal_peripheral/Source/gd32f3x0_hal_i2c.c ****                 /* disable the I2C interrupt */
 7869              		.loc 1 2882 48 discriminator 1
 7870 0120 BB69     		ldr	r3, [r7, #24]
 7871 0122 1B8F     		ldrh	r3, [r3, #56]	@ movhi
 7872 0124 9BB2     		uxth	r3, r3
2881:../firmware/gd32f3x0_hal_peripheral/Source/gd32f3x0_hal_i2c.c ****                     (I2C_LAST_TRANSFER != p_i2c->transfer_option)) {
 7873              		.loc 1 2881 67 discriminator 1
 7874 0126 032B     		cmp	r3, #3
 7875 0128 18D0     		beq	.L373
2884:../firmware/gd32f3x0_hal_peripheral/Source/gd32f3x0_hal_i2c.c ****                 hals_i2c_interrupt_disable(p_i2c->periph, I2C_INT_EV);
 7876              		.loc 1 2884 17
 7877 012a BB69     		ldr	r3, [r7, #24]
 7878 012c 1B68     		ldr	r3, [r3]
 7879 012e 4FF48571 		mov	r1, #266
 7880 0132 1846     		mov	r0, r3
 7881 0134 FFF7FEFF 		bl	hals_i2c_interrupt_disable
2885:../firmware/gd32f3x0_hal_peripheral/Source/gd32f3x0_hal_i2c.c ****                 hals_i2c_interrupt_disable(p_i2c->periph, I2C_INT_ERR);
 7882              		.loc 1 2885 17
 7883 0138 BB69     		ldr	r3, [r7, #24]
 7884 013a 1B68     		ldr	r3, [r3]
 7885 013c 40F20911 		movw	r1, #265
 7886 0140 1846     		mov	r0, r3
 7887 0142 FFF7FEFF 		bl	hals_i2c_interrupt_disable
2886:../firmware/gd32f3x0_hal_peripheral/Source/gd32f3x0_hal_i2c.c ****                 p_i2c->previous_state = HAL_I2C_PREVIOUS_STATE_TX;
 7888              		.loc 1 2886 17
 7889 0146 BB69     		ldr	r3, [r7, #24]
 7890 0148 1B68     		ldr	r3, [r3]
 7891 014a 4FF48471 		mov	r1, #264
 7892 014e 1846     		mov	r0, r3
 7893 0150 FFF7FEFF 		bl	hals_i2c_interrupt_disable
2887:../firmware/gd32f3x0_hal_peripheral/Source/gd32f3x0_hal_i2c.c ****             } else {
 7894              		.loc 1 2887 39
 7895 0154 BB69     		ldr	r3, [r7, #24]
 7896 0156 0122     		movs	r2, #1
 7897 0158 5A64     		str	r2, [r3, #68]
 7898 015a 1CE0     		b	.L374
 7899              	.L373:
2890:../firmware/gd32f3x0_hal_peripheral/Source/gd32f3x0_hal_i2c.c ****                 /* disable the I2C interrupt */
 7900              		.loc 1 2890 17
 7901 015c BB69     		ldr	r3, [r7, #24]
 7902 015e 1B68     		ldr	r3, [r3]
 7903 0160 1B68     		ldr	r3, [r3]
 7904 0162 BA69     		ldr	r2, [r7, #24]
 7905 0164 1268     		ldr	r2, [r2]
 7906 0166 43F40073 		orr	r3, r3, #512
 7907 016a 1360     		str	r3, [r2]
2892:../firmware/gd32f3x0_hal_peripheral/Source/gd32f3x0_hal_i2c.c ****                 hals_i2c_interrupt_disable(p_i2c->periph, I2C_INT_EV);
 7908              		.loc 1 2892 17
 7909 016c BB69     		ldr	r3, [r7, #24]
 7910 016e 1B68     		ldr	r3, [r3]
 7911 0170 4FF48571 		mov	r1, #266
 7912 0174 1846     		mov	r0, r3
 7913 0176 FFF7FEFF 		bl	hals_i2c_interrupt_disable
2893:../firmware/gd32f3x0_hal_peripheral/Source/gd32f3x0_hal_i2c.c ****                 hals_i2c_interrupt_disable(p_i2c->periph, I2C_INT_ERR);
 7914              		.loc 1 2893 17
 7915 017a BB69     		ldr	r3, [r7, #24]
 7916 017c 1B68     		ldr	r3, [r3]
 7917 017e 40F20911 		movw	r1, #265
 7918 0182 1846     		mov	r0, r3
 7919 0184 FFF7FEFF 		bl	hals_i2c_interrupt_disable
2894:../firmware/gd32f3x0_hal_peripheral/Source/gd32f3x0_hal_i2c.c ****             }
 7920              		.loc 1 2894 17
 7921 0188 BB69     		ldr	r3, [r7, #24]
 7922 018a 1B68     		ldr	r3, [r3]
 7923 018c 4FF48471 		mov	r1, #264
 7924 0190 1846     		mov	r0, r3
 7925 0192 FFF7FEFF 		bl	hals_i2c_interrupt_disable
 7926              	.L374:
2896:../firmware/gd32f3x0_hal_peripheral/Source/gd32f3x0_hal_i2c.c ****                 p_func(p_i2c);
 7927              		.loc 1 2896 15
 7928 0196 7B69     		ldr	r3, [r7, #20]
 7929 0198 002B     		cmp	r3, #0
 7930 019a 02D0     		beq	.L375
2897:../firmware/gd32f3x0_hal_peripheral/Source/gd32f3x0_hal_i2c.c ****             }
 7931              		.loc 1 2897 17
 7932 019c 7B69     		ldr	r3, [r7, #20]
 7933 019e B869     		ldr	r0, [r7, #24]
 7934 01a0 9847     		blx	r3
 7935              	.LVL2:
 7936              	.L375:
2899:../firmware/gd32f3x0_hal_peripheral/Source/gd32f3x0_hal_i2c.c ****         }
 7937              		.loc 1 2899 29
 7938 01a2 BB69     		ldr	r3, [r7, #24]
 7939 01a4 0022     		movs	r2, #0
 7940 01a6 83F84020 		strb	r2, [r3, #64]
 7941              	.L376:
 7942              		.loc 1 2902 1
 7943 01aa 00BF     		nop
 7944 01ac 2037     		adds	r7, r7, #32
 7945              		.cfi_def_cfa_offset 8
 7946 01ae BD46     		mov	sp, r7
 7947              		.cfi_def_cfa_register 13
 7948              		@ sp needed
 7949 01b0 80BD     		pop	{r7, pc}
 7950              	.L378:
 7951 01b2 00BF     		.align	2
 7952              	.L377:
 7953 01b4 09010005 		.word	83886345
 7954 01b8 09010305 		.word	84082953
 7955 01bc 09010105 		.word	83951881
 7956 01c0 09010705 		.word	84345097
 7957              		.cfi_endproc
 7958              	.LFE174:
 7960              		.section	.text._i2c_transmit_dma,"ax",%progbits
 7961              		.align	1
 7962              		.syntax unified
 7963              		.thumb
 7964              		.thumb_func
 7965              		.fpu softvfp
 7967              	_i2c_transmit_dma:
 7968              	.LFB175:
2903:../firmware/gd32f3x0_hal_peripheral/Source/gd32f3x0_hal_i2c.c **** 
2904:../firmware/gd32f3x0_hal_peripheral/Source/gd32f3x0_hal_i2c.c **** /*!
2905:../firmware/gd32f3x0_hal_peripheral/Source/gd32f3x0_hal_i2c.c ****     \brief      DMA full finish handler in I2C master transmit mode
2906:../firmware/gd32f3x0_hal_peripheral/Source/gd32f3x0_hal_i2c.c ****     \param[in]  dma: DMA device information structrue
2907:../firmware/gd32f3x0_hal_peripheral/Source/gd32f3x0_hal_i2c.c ****                   the structure is not necessary to be reconfigured after structrue initialization,
2908:../firmware/gd32f3x0_hal_peripheral/Source/gd32f3x0_hal_i2c.c ****                   the structure parameters altering is automatically configured by core
2909:../firmware/gd32f3x0_hal_peripheral/Source/gd32f3x0_hal_i2c.c ****     \param[in]  timeout_ms: timeout duration
2910:../firmware/gd32f3x0_hal_peripheral/Source/gd32f3x0_hal_i2c.c ****     \param[out] none
2911:../firmware/gd32f3x0_hal_peripheral/Source/gd32f3x0_hal_i2c.c ****     \retval     none
2912:../firmware/gd32f3x0_hal_peripheral/Source/gd32f3x0_hal_i2c.c **** */
2913:../firmware/gd32f3x0_hal_peripheral/Source/gd32f3x0_hal_i2c.c **** static void _i2c_transmit_dma(void *dma)
2914:../firmware/gd32f3x0_hal_peripheral/Source/gd32f3x0_hal_i2c.c **** {
 7969              		.loc 1 2914 1
 7970              		.cfi_startproc
 7971              		@ args = 0, pretend = 0, frame = 24
 7972              		@ frame_needed = 1, uses_anonymous_args = 0
 7973 0000 80B5     		push	{r7, lr}
 7974              		.cfi_def_cfa_offset 8
 7975              		.cfi_offset 7, -8
 7976              		.cfi_offset 14, -4
 7977 0002 86B0     		sub	sp, sp, #24
 7978              		.cfi_def_cfa_offset 32
 7979 0004 00AF     		add	r7, sp, #0
 7980              		.cfi_def_cfa_register 7
 7981 0006 7860     		str	r0, [r7, #4]
2915:../firmware/gd32f3x0_hal_peripheral/Source/gd32f3x0_hal_i2c.c ****     hal_dma_dev_struct *p_dma;
2916:../firmware/gd32f3x0_hal_peripheral/Source/gd32f3x0_hal_i2c.c ****     hal_i2c_dev_struct *p_i2c;
2917:../firmware/gd32f3x0_hal_peripheral/Source/gd32f3x0_hal_i2c.c ****     hal_i2c_user_cb p_func;
2918:../firmware/gd32f3x0_hal_peripheral/Source/gd32f3x0_hal_i2c.c **** 
2919:../firmware/gd32f3x0_hal_peripheral/Source/gd32f3x0_hal_i2c.c ****     p_dma = (hal_dma_dev_struct *)dma;
 7982              		.loc 1 2919 11
 7983 0008 7B68     		ldr	r3, [r7, #4]
 7984 000a 7B61     		str	r3, [r7, #20]
2920:../firmware/gd32f3x0_hal_peripheral/Source/gd32f3x0_hal_i2c.c ****     p_i2c = (hal_i2c_dev_struct *)p_dma->p_periph;
 7985              		.loc 1 2920 11
 7986 000c 7B69     		ldr	r3, [r7, #20]
 7987 000e 5B69     		ldr	r3, [r3, #20]
 7988 0010 3B61     		str	r3, [r7, #16]
2921:../firmware/gd32f3x0_hal_peripheral/Source/gd32f3x0_hal_i2c.c ****     p_func = (hal_i2c_user_cb)p_i2c->tx_callback;
 7989              		.loc 1 2921 36
 7990 0012 3B69     		ldr	r3, [r7, #16]
 7991 0014 DB6C     		ldr	r3, [r3, #76]
 7992              		.loc 1 2921 12
 7993 0016 FB60     		str	r3, [r7, #12]
2922:../firmware/gd32f3x0_hal_peripheral/Source/gd32f3x0_hal_i2c.c ****     /* DMA normal mode */
2923:../firmware/gd32f3x0_hal_peripheral/Source/gd32f3x0_hal_i2c.c ****     if(RESET == (DMA_CHCTL(p_dma->channel) & DMA_CHXCTL_CMEN)) {
 7994              		.loc 1 2923 18
 7995 0018 7B69     		ldr	r3, [r7, #20]
 7996 001a 1B78     		ldrb	r3, [r3]	@ zero_extendqisi2
 7997 001c 1A46     		mov	r2, r3
 7998 001e 1346     		mov	r3, r2
 7999 0020 9B00     		lsls	r3, r3, #2
 8000 0022 1344     		add	r3, r3, r2
 8001 0024 9B00     		lsls	r3, r3, #2
 8002 0026 1A46     		mov	r2, r3
 8003 0028 2B4B     		ldr	r3, .L387
 8004 002a 1344     		add	r3, r3, r2
 8005 002c 1B68     		ldr	r3, [r3]
 8006              		.loc 1 2923 44
 8007 002e 03F02003 		and	r3, r3, #32
 8008              		.loc 1 2923 7
 8009 0032 002B     		cmp	r3, #0
 8010 0034 0DD1     		bne	.L380
2924:../firmware/gd32f3x0_hal_peripheral/Source/gd32f3x0_hal_i2c.c ****         p_i2c->txbuffer.pos = p_i2c->txbuffer.length;
 8011              		.loc 1 2924 46
 8012 0036 3B69     		ldr	r3, [r7, #16]
 8013 0038 9A69     		ldr	r2, [r3, #24]
 8014              		.loc 1 2924 29
 8015 003a 3B69     		ldr	r3, [r7, #16]
 8016 003c DA61     		str	r2, [r3, #28]
2925:../firmware/gd32f3x0_hal_peripheral/Source/gd32f3x0_hal_i2c.c ****         hals_i2c_dma_config(p_i2c->periph, I2C_DMA_OFF);
 8017              		.loc 1 2925 9
 8018 003e 3B69     		ldr	r3, [r7, #16]
 8019 0040 1B68     		ldr	r3, [r3]
 8020 0042 0021     		movs	r1, #0
 8021 0044 1846     		mov	r0, r3
 8022 0046 FFF7FEFF 		bl	hals_i2c_dma_config
2926:../firmware/gd32f3x0_hal_peripheral/Source/gd32f3x0_hal_i2c.c ****         p_i2c->tx_state = HAL_I2C_STATE_READY;
 8023              		.loc 1 2926 25
 8024 004a 3B69     		ldr	r3, [r7, #16]
 8025 004c 0022     		movs	r2, #0
 8026 004e 83F84020 		strb	r2, [r3, #64]
 8027              	.L380:
2927:../firmware/gd32f3x0_hal_peripheral/Source/gd32f3x0_hal_i2c.c ****     }
2928:../firmware/gd32f3x0_hal_peripheral/Source/gd32f3x0_hal_i2c.c ****     if(RESET != hals_i2c_flag_get(p_i2c->periph, I2C_FLAG_MASTER)) {
 8028              		.loc 1 2928 17
 8029 0052 3B69     		ldr	r3, [r7, #16]
 8030 0054 1B68     		ldr	r3, [r3]
 8031 0056 4FF4C061 		mov	r1, #1536
 8032 005a 1846     		mov	r0, r3
 8033 005c FFF7FEFF 		bl	hals_i2c_flag_get
 8034 0060 0346     		mov	r3, r0
 8035              		.loc 1 2928 7
 8036 0062 002B     		cmp	r3, #0
 8037 0064 10D0     		beq	.L381
2929:../firmware/gd32f3x0_hal_peripheral/Source/gd32f3x0_hal_i2c.c ****         HAL_I2C_STOP_ON_BUS(p_i2c->periph);
 8038              		.loc 1 2929 9
 8039 0066 3B69     		ldr	r3, [r7, #16]
 8040 0068 1B68     		ldr	r3, [r3]
 8041 006a 1B68     		ldr	r3, [r3]
 8042 006c 3A69     		ldr	r2, [r7, #16]
 8043 006e 1268     		ldr	r2, [r2]
 8044 0070 43F40073 		orr	r3, r3, #512
 8045 0074 1360     		str	r3, [r2]
2930:../firmware/gd32f3x0_hal_peripheral/Source/gd32f3x0_hal_i2c.c **** 
2931:../firmware/gd32f3x0_hal_peripheral/Source/gd32f3x0_hal_i2c.c ****         while(I2C_CTL0(p_i2c->periph) & 0x0200);
 8046              		.loc 1 2931 14
 8047 0076 00BF     		nop
 8048              	.L382:
 8049              		.loc 1 2931 15 discriminator 1
 8050 0078 3B69     		ldr	r3, [r7, #16]
 8051 007a 1B68     		ldr	r3, [r3]
 8052 007c 1B68     		ldr	r3, [r3]
 8053              		.loc 1 2931 39 discriminator 1
 8054 007e 03F40073 		and	r3, r3, #512
 8055              		.loc 1 2931 14 discriminator 1
 8056 0082 002B     		cmp	r3, #0
 8057 0084 F8D1     		bne	.L382
 8058 0086 1CE0     		b	.L383
 8059              	.L381:
2932:../firmware/gd32f3x0_hal_peripheral/Source/gd32f3x0_hal_i2c.c ****     } else {
2933:../firmware/gd32f3x0_hal_peripheral/Source/gd32f3x0_hal_i2c.c ****         if(RESET == hals_i2c_flag_get(p_i2c->periph, I2C_FLAG_TR)) {
 8060              		.loc 1 2933 21
 8061 0088 3B69     		ldr	r3, [r7, #16]
 8062 008a 1B68     		ldr	r3, [r3]
 8063 008c 40F20261 		movw	r1, #1538
 8064 0090 1846     		mov	r0, r3
 8065 0092 FFF7FEFF 		bl	hals_i2c_flag_get
 8066 0096 0346     		mov	r3, r0
 8067              		.loc 1 2933 11
 8068 0098 002B     		cmp	r3, #0
 8069 009a 12D1     		bne	.L383
2934:../firmware/gd32f3x0_hal_peripheral/Source/gd32f3x0_hal_i2c.c ****             while(!hals_i2c_flag_get(p_i2c->periph, I2C_FLAG_STPDET));
 8070              		.loc 1 2934 18
 8071 009c 00BF     		nop
 8072              	.L384:
 8073              		.loc 1 2934 20 discriminator 1
 8074 009e 3B69     		ldr	r3, [r7, #16]
 8075 00a0 1B68     		ldr	r3, [r3]
 8076 00a2 40F20451 		movw	r1, #1284
 8077 00a6 1846     		mov	r0, r3
 8078 00a8 FFF7FEFF 		bl	hals_i2c_flag_get
 8079 00ac 0346     		mov	r3, r0
 8080              		.loc 1 2934 18 discriminator 1
 8081 00ae 002B     		cmp	r3, #0
 8082 00b0 F5D0     		beq	.L384
2935:../firmware/gd32f3x0_hal_peripheral/Source/gd32f3x0_hal_i2c.c ****             /* clear the STPDET bit */
2936:../firmware/gd32f3x0_hal_peripheral/Source/gd32f3x0_hal_i2c.c ****             HAL_I2C_ENABLE(p_i2c->periph);
 8083              		.loc 1 2936 13
 8084 00b2 3B69     		ldr	r3, [r7, #16]
 8085 00b4 1B68     		ldr	r3, [r3]
 8086 00b6 1B68     		ldr	r3, [r3]
 8087 00b8 3A69     		ldr	r2, [r7, #16]
 8088 00ba 1268     		ldr	r2, [r2]
 8089 00bc 43F00103 		orr	r3, r3, #1
 8090 00c0 1360     		str	r3, [r2]
 8091              	.L383:
2937:../firmware/gd32f3x0_hal_peripheral/Source/gd32f3x0_hal_i2c.c ****         }
2938:../firmware/gd32f3x0_hal_peripheral/Source/gd32f3x0_hal_i2c.c ****     }
2939:../firmware/gd32f3x0_hal_peripheral/Source/gd32f3x0_hal_i2c.c **** 
2940:../firmware/gd32f3x0_hal_peripheral/Source/gd32f3x0_hal_i2c.c ****     if(NULL != p_func) {
 8092              		.loc 1 2940 7
 8093 00c2 FB68     		ldr	r3, [r7, #12]
 8094 00c4 002B     		cmp	r3, #0
 8095 00c6 02D0     		beq	.L386
2941:../firmware/gd32f3x0_hal_peripheral/Source/gd32f3x0_hal_i2c.c ****         p_func(p_i2c);
 8096              		.loc 1 2941 9
 8097 00c8 FB68     		ldr	r3, [r7, #12]
 8098 00ca 3869     		ldr	r0, [r7, #16]
 8099 00cc 9847     		blx	r3
 8100              	.LVL3:
 8101              	.L386:
2942:../firmware/gd32f3x0_hal_peripheral/Source/gd32f3x0_hal_i2c.c ****     }
2943:../firmware/gd32f3x0_hal_peripheral/Source/gd32f3x0_hal_i2c.c **** }
 8102              		.loc 1 2943 1
 8103 00ce 00BF     		nop
 8104 00d0 1837     		adds	r7, r7, #24
 8105              		.cfi_def_cfa_offset 8
 8106 00d2 BD46     		mov	sp, r7
 8107              		.cfi_def_cfa_register 13
 8108              		@ sp needed
 8109 00d4 80BD     		pop	{r7, pc}
 8110              	.L388:
 8111 00d6 00BF     		.align	2
 8112              	.L387:
 8113 00d8 08000240 		.word	1073872904
 8114              		.cfi_endproc
 8115              	.LFE175:
 8117              		.section	.text._i2c_dma_error,"ax",%progbits
 8118              		.align	1
 8119              		.syntax unified
 8120              		.thumb
 8121              		.thumb_func
 8122              		.fpu softvfp
 8124              	_i2c_dma_error:
 8125              	.LFB176:
2944:../firmware/gd32f3x0_hal_peripheral/Source/gd32f3x0_hal_i2c.c **** 
2945:../firmware/gd32f3x0_hal_peripheral/Source/gd32f3x0_hal_i2c.c **** /*!
2946:../firmware/gd32f3x0_hal_peripheral/Source/gd32f3x0_hal_i2c.c ****     \brief      handle the I2C DMA error process
2947:../firmware/gd32f3x0_hal_peripheral/Source/gd32f3x0_hal_i2c.c ****     \param[in]  dma: DMA device information structrue
2948:../firmware/gd32f3x0_hal_peripheral/Source/gd32f3x0_hal_i2c.c ****                   the structure is not necessary to be reconfigured after structrue initialization,
2949:../firmware/gd32f3x0_hal_peripheral/Source/gd32f3x0_hal_i2c.c ****                   the structure parameters altering is automatically configured by core
2950:../firmware/gd32f3x0_hal_peripheral/Source/gd32f3x0_hal_i2c.c ****     \param[in]  timeout_ms: timeout duration
2951:../firmware/gd32f3x0_hal_peripheral/Source/gd32f3x0_hal_i2c.c ****     \param[out] none
2952:../firmware/gd32f3x0_hal_peripheral/Source/gd32f3x0_hal_i2c.c ****     \retval     none
2953:../firmware/gd32f3x0_hal_peripheral/Source/gd32f3x0_hal_i2c.c **** */
2954:../firmware/gd32f3x0_hal_peripheral/Source/gd32f3x0_hal_i2c.c **** static void _i2c_dma_error(void *dma)
2955:../firmware/gd32f3x0_hal_peripheral/Source/gd32f3x0_hal_i2c.c **** {
 8126              		.loc 1 2955 1
 8127              		.cfi_startproc
 8128              		@ args = 0, pretend = 0, frame = 16
 8129              		@ frame_needed = 1, uses_anonymous_args = 0
 8130 0000 80B5     		push	{r7, lr}
 8131              		.cfi_def_cfa_offset 8
 8132              		.cfi_offset 7, -8
 8133              		.cfi_offset 14, -4
 8134 0002 84B0     		sub	sp, sp, #16
 8135              		.cfi_def_cfa_offset 24
 8136 0004 00AF     		add	r7, sp, #0
 8137              		.cfi_def_cfa_register 7
 8138 0006 7860     		str	r0, [r7, #4]
2956:../firmware/gd32f3x0_hal_peripheral/Source/gd32f3x0_hal_i2c.c ****     hal_dma_dev_struct *p_dma;
2957:../firmware/gd32f3x0_hal_peripheral/Source/gd32f3x0_hal_i2c.c ****     hal_i2c_dev_struct *p_i2c;
2958:../firmware/gd32f3x0_hal_peripheral/Source/gd32f3x0_hal_i2c.c ****     p_dma = (hal_dma_dev_struct *)dma;
 8139              		.loc 1 2958 11
 8140 0008 7B68     		ldr	r3, [r7, #4]
 8141 000a FB60     		str	r3, [r7, #12]
2959:../firmware/gd32f3x0_hal_peripheral/Source/gd32f3x0_hal_i2c.c ****     p_i2c = (hal_i2c_dev_struct *)p_dma->p_periph;
 8142              		.loc 1 2959 11
 8143 000c FB68     		ldr	r3, [r7, #12]
 8144 000e 5B69     		ldr	r3, [r3, #20]
 8145 0010 BB60     		str	r3, [r7, #8]
2960:../firmware/gd32f3x0_hal_peripheral/Source/gd32f3x0_hal_i2c.c **** 
2961:../firmware/gd32f3x0_hal_peripheral/Source/gd32f3x0_hal_i2c.c ****     if(HAL_I2C_STATE_BUSY == p_i2c->tx_state) {
 8146              		.loc 1 2961 35
 8147 0012 BB68     		ldr	r3, [r7, #8]
 8148 0014 93F84030 		ldrb	r3, [r3, #64]
 8149 0018 DBB2     		uxtb	r3, r3
 8150              		.loc 1 2961 7
 8151 001a 012B     		cmp	r3, #1
 8152 001c 2CD1     		bne	.L390
2962:../firmware/gd32f3x0_hal_peripheral/Source/gd32f3x0_hal_i2c.c ****         /* transmit state is busy */
2963:../firmware/gd32f3x0_hal_peripheral/Source/gd32f3x0_hal_i2c.c ****         p_i2c->error_state |= HAL_I2C_ERROR_DMATX;
 8153              		.loc 1 2963 28
 8154 001e BB68     		ldr	r3, [r7, #8]
 8155 0020 DB6B     		ldr	r3, [r3, #60]
 8156 0022 43F08002 		orr	r2, r3, #128
 8157 0026 BB68     		ldr	r3, [r7, #8]
 8158 0028 DA63     		str	r2, [r3, #60]
2964:../firmware/gd32f3x0_hal_peripheral/Source/gd32f3x0_hal_i2c.c ****         p_i2c->last_error = HAL_I2C_ERROR_DMATX;
 8159              		.loc 1 2964 27
 8160 002a BB68     		ldr	r3, [r7, #8]
 8161 002c 8022     		movs	r2, #128
 8162 002e 5A87     		strh	r2, [r3, #58]	@ movhi
2965:../firmware/gd32f3x0_hal_peripheral/Source/gd32f3x0_hal_i2c.c ****         p_i2c->txbuffer.pos = p_i2c->txbuffer.length;
 8163              		.loc 1 2965 46
 8164 0030 BB68     		ldr	r3, [r7, #8]
 8165 0032 9A69     		ldr	r2, [r3, #24]
 8166              		.loc 1 2965 29
 8167 0034 BB68     		ldr	r3, [r7, #8]
 8168 0036 DA61     		str	r2, [r3, #28]
2966:../firmware/gd32f3x0_hal_peripheral/Source/gd32f3x0_hal_i2c.c ****         /* disable DMA transmit and reset tx_state */
2967:../firmware/gd32f3x0_hal_peripheral/Source/gd32f3x0_hal_i2c.c ****         hals_i2c_dma_config(p_i2c->periph, I2C_DMA_OFF);
 8169              		.loc 1 2967 9
 8170 0038 BB68     		ldr	r3, [r7, #8]
 8171 003a 1B68     		ldr	r3, [r3]
 8172 003c 0021     		movs	r1, #0
 8173 003e 1846     		mov	r0, r3
 8174 0040 FFF7FEFF 		bl	hals_i2c_dma_config
2968:../firmware/gd32f3x0_hal_peripheral/Source/gd32f3x0_hal_i2c.c ****         hals_i2c_interrupt_disable(p_i2c->periph, I2C_INT_ERR);
 8175              		.loc 1 2968 9
 8176 0044 BB68     		ldr	r3, [r7, #8]
 8177 0046 1B68     		ldr	r3, [r3]
 8178 0048 4FF48471 		mov	r1, #264
 8179 004c 1846     		mov	r0, r3
 8180 004e FFF7FEFF 		bl	hals_i2c_interrupt_disable
2969:../firmware/gd32f3x0_hal_peripheral/Source/gd32f3x0_hal_i2c.c ****         hals_i2c_interrupt_disable(p_i2c->periph, I2C_INT_BUF);
 8181              		.loc 1 2969 9
 8182 0052 BB68     		ldr	r3, [r7, #8]
 8183 0054 1B68     		ldr	r3, [r3]
 8184 0056 4FF48571 		mov	r1, #266
 8185 005a 1846     		mov	r0, r3
 8186 005c FFF7FEFF 		bl	hals_i2c_interrupt_disable
2970:../firmware/gd32f3x0_hal_peripheral/Source/gd32f3x0_hal_i2c.c ****         hals_i2c_interrupt_disable(p_i2c->periph, I2C_INT_EV);
 8187              		.loc 1 2970 9
 8188 0060 BB68     		ldr	r3, [r7, #8]
 8189 0062 1B68     		ldr	r3, [r3]
 8190 0064 40F20911 		movw	r1, #265
 8191 0068 1846     		mov	r0, r3
 8192 006a FFF7FEFF 		bl	hals_i2c_interrupt_disable
2971:../firmware/gd32f3x0_hal_peripheral/Source/gd32f3x0_hal_i2c.c ****         p_i2c->tx_state = HAL_I2C_STATE_READY;
 8193              		.loc 1 2971 25
 8194 006e BB68     		ldr	r3, [r7, #8]
 8195 0070 0022     		movs	r2, #0
 8196 0072 83F84020 		strb	r2, [r3, #64]
 8197 0076 31E0     		b	.L391
 8198              	.L390:
2972:../firmware/gd32f3x0_hal_peripheral/Source/gd32f3x0_hal_i2c.c ****     } else if(HAL_I2C_STATE_BUSY == p_i2c->rx_state) {
 8199              		.loc 1 2972 42
 8200 0078 BB68     		ldr	r3, [r7, #8]
 8201 007a 93F84130 		ldrb	r3, [r3, #65]
 8202 007e DBB2     		uxtb	r3, r3
 8203              		.loc 1 2972 14
 8204 0080 012B     		cmp	r3, #1
 8205 0082 2BD1     		bne	.L391
2973:../firmware/gd32f3x0_hal_peripheral/Source/gd32f3x0_hal_i2c.c ****         /* receive state is busy */
2974:../firmware/gd32f3x0_hal_peripheral/Source/gd32f3x0_hal_i2c.c ****         p_i2c->error_state |= HAL_I2C_ERROR_DMATX;
 8206              		.loc 1 2974 28
 8207 0084 BB68     		ldr	r3, [r7, #8]
 8208 0086 DB6B     		ldr	r3, [r3, #60]
 8209 0088 43F08002 		orr	r2, r3, #128
 8210 008c BB68     		ldr	r3, [r7, #8]
 8211 008e DA63     		str	r2, [r3, #60]
2975:../firmware/gd32f3x0_hal_peripheral/Source/gd32f3x0_hal_i2c.c ****         p_i2c->last_error = HAL_I2C_ERROR_DMATX;
 8212              		.loc 1 2975 27
 8213 0090 BB68     		ldr	r3, [r7, #8]
 8214 0092 8022     		movs	r2, #128
 8215 0094 5A87     		strh	r2, [r3, #58]	@ movhi
2976:../firmware/gd32f3x0_hal_peripheral/Source/gd32f3x0_hal_i2c.c ****         p_i2c->rxbuffer.pos = p_i2c->rxbuffer.length;
 8216              		.loc 1 2976 46
 8217 0096 BB68     		ldr	r3, [r7, #8]
 8218 0098 5A6A     		ldr	r2, [r3, #36]
 8219              		.loc 1 2976 29
 8220 009a BB68     		ldr	r3, [r7, #8]
 8221 009c 9A62     		str	r2, [r3, #40]
2977:../firmware/gd32f3x0_hal_peripheral/Source/gd32f3x0_hal_i2c.c ****         /* disable DMA receive, PERR, ERR interrupt */
2978:../firmware/gd32f3x0_hal_peripheral/Source/gd32f3x0_hal_i2c.c ****         hals_i2c_dma_config(p_i2c->periph, I2C_DMA_OFF);
 8222              		.loc 1 2978 9
 8223 009e BB68     		ldr	r3, [r7, #8]
 8224 00a0 1B68     		ldr	r3, [r3]
 8225 00a2 0021     		movs	r1, #0
 8226 00a4 1846     		mov	r0, r3
 8227 00a6 FFF7FEFF 		bl	hals_i2c_dma_config
2979:../firmware/gd32f3x0_hal_peripheral/Source/gd32f3x0_hal_i2c.c ****         hals_i2c_interrupt_disable(p_i2c->periph, I2C_INT_ERR);
 8228              		.loc 1 2979 9
 8229 00aa BB68     		ldr	r3, [r7, #8]
 8230 00ac 1B68     		ldr	r3, [r3]
 8231 00ae 4FF48471 		mov	r1, #264
 8232 00b2 1846     		mov	r0, r3
 8233 00b4 FFF7FEFF 		bl	hals_i2c_interrupt_disable
2980:../firmware/gd32f3x0_hal_peripheral/Source/gd32f3x0_hal_i2c.c ****         hals_i2c_interrupt_disable(p_i2c->periph, I2C_INT_BUF);
 8234              		.loc 1 2980 9
 8235 00b8 BB68     		ldr	r3, [r7, #8]
 8236 00ba 1B68     		ldr	r3, [r3]
 8237 00bc 4FF48571 		mov	r1, #266
 8238 00c0 1846     		mov	r0, r3
 8239 00c2 FFF7FEFF 		bl	hals_i2c_interrupt_disable
2981:../firmware/gd32f3x0_hal_peripheral/Source/gd32f3x0_hal_i2c.c ****         hals_i2c_interrupt_disable(p_i2c->periph, I2C_INT_EV);
 8240              		.loc 1 2981 9
 8241 00c6 BB68     		ldr	r3, [r7, #8]
 8242 00c8 1B68     		ldr	r3, [r3]
 8243 00ca 40F20911 		movw	r1, #265
 8244 00ce 1846     		mov	r0, r3
 8245 00d0 FFF7FEFF 		bl	hals_i2c_interrupt_disable
2982:../firmware/gd32f3x0_hal_peripheral/Source/gd32f3x0_hal_i2c.c ****         /* reset rx_state */
2983:../firmware/gd32f3x0_hal_peripheral/Source/gd32f3x0_hal_i2c.c ****         p_i2c->rx_state = HAL_I2C_STATE_READY;
 8246              		.loc 1 2983 25
 8247 00d4 BB68     		ldr	r3, [r7, #8]
 8248 00d6 0022     		movs	r2, #0
 8249 00d8 83F84120 		strb	r2, [r3, #65]
 8250              	.L391:
2984:../firmware/gd32f3x0_hal_peripheral/Source/gd32f3x0_hal_i2c.c ****     } else {
2985:../firmware/gd32f3x0_hal_peripheral/Source/gd32f3x0_hal_i2c.c ****         HAL_DEBUGE("i2c processor fatal error: dma error exception due to run state");
2986:../firmware/gd32f3x0_hal_peripheral/Source/gd32f3x0_hal_i2c.c ****     }
2987:../firmware/gd32f3x0_hal_peripheral/Source/gd32f3x0_hal_i2c.c **** 
2988:../firmware/gd32f3x0_hal_peripheral/Source/gd32f3x0_hal_i2c.c ****     if(p_i2c->i2c_irq.error_handle != NULL) {
 8251              		.loc 1 2988 22
 8252 00dc BB68     		ldr	r3, [r7, #8]
 8253 00de 9B68     		ldr	r3, [r3, #8]
 8254              		.loc 1 2988 7
 8255 00e0 002B     		cmp	r3, #0
 8256 00e2 06D0     		beq	.L393
2989:../firmware/gd32f3x0_hal_peripheral/Source/gd32f3x0_hal_i2c.c ****         /* if there is a user error callback */
2990:../firmware/gd32f3x0_hal_peripheral/Source/gd32f3x0_hal_i2c.c ****         p_i2c->i2c_irq.error_handle(p_i2c);
 8257              		.loc 1 2990 23
 8258 00e4 BB68     		ldr	r3, [r7, #8]
 8259 00e6 9B68     		ldr	r3, [r3, #8]
 8260              		.loc 1 2990 9
 8261 00e8 B868     		ldr	r0, [r7, #8]
 8262 00ea 9847     		blx	r3
 8263              	.LVL4:
2991:../firmware/gd32f3x0_hal_peripheral/Source/gd32f3x0_hal_i2c.c ****         p_i2c->error_state = HAL_I2C_ERROR_NONE;
 8264              		.loc 1 2991 28
 8265 00ec BB68     		ldr	r3, [r7, #8]
 8266 00ee 0022     		movs	r2, #0
 8267 00f0 DA63     		str	r2, [r3, #60]
 8268              	.L393:
2992:../firmware/gd32f3x0_hal_peripheral/Source/gd32f3x0_hal_i2c.c ****     }
2993:../firmware/gd32f3x0_hal_peripheral/Source/gd32f3x0_hal_i2c.c **** }
 8269              		.loc 1 2993 1
 8270 00f2 00BF     		nop
 8271 00f4 1037     		adds	r7, r7, #16
 8272              		.cfi_def_cfa_offset 8
 8273 00f6 BD46     		mov	sp, r7
 8274              		.cfi_def_cfa_register 13
 8275              		@ sp needed
 8276 00f8 80BD     		pop	{r7, pc}
 8277              		.cfi_endproc
 8278              	.LFE176:
 8280              		.section	.text._i2c_master_read,"ax",%progbits
 8281              		.align	1
 8282              		.syntax unified
 8283              		.thumb
 8284              		.thumb_func
 8285              		.fpu softvfp
 8287              	_i2c_master_read:
 8288              	.LFB177:
2994:../firmware/gd32f3x0_hal_peripheral/Source/gd32f3x0_hal_i2c.c **** 
2995:../firmware/gd32f3x0_hal_peripheral/Source/gd32f3x0_hal_i2c.c **** /*!
2996:../firmware/gd32f3x0_hal_peripheral/Source/gd32f3x0_hal_i2c.c ****     \brief      master sends device address for read request
2997:../firmware/gd32f3x0_hal_peripheral/Source/gd32f3x0_hal_i2c.c ****     \param[in]  i2c_dev: I2C device information structrue
2998:../firmware/gd32f3x0_hal_peripheral/Source/gd32f3x0_hal_i2c.c ****                   the structure is not necessary to be reconfigured after structrue initialization,
2999:../firmware/gd32f3x0_hal_peripheral/Source/gd32f3x0_hal_i2c.c ****                   the structure parameters altering is automatically configured by core
3000:../firmware/gd32f3x0_hal_peripheral/Source/gd32f3x0_hal_i2c.c ****     \param[in]  timeout_ms: timeout duration
3001:../firmware/gd32f3x0_hal_peripheral/Source/gd32f3x0_hal_i2c.c ****     \param[out] none
3002:../firmware/gd32f3x0_hal_peripheral/Source/gd32f3x0_hal_i2c.c ****     \retval     error code: HAL_ERR_NONE, HAL_ERR_TIMEOUT, details refer to gd32f3x0_hal.h
3003:../firmware/gd32f3x0_hal_peripheral/Source/gd32f3x0_hal_i2c.c **** */
3004:../firmware/gd32f3x0_hal_peripheral/Source/gd32f3x0_hal_i2c.c **** static int32_t _i2c_master_read(hal_i2c_dev_struct *i2c_dev, uint32_t timeout_ms)
3005:../firmware/gd32f3x0_hal_peripheral/Source/gd32f3x0_hal_i2c.c **** {
 8289              		.loc 1 3005 1
 8290              		.cfi_startproc
 8291              		@ args = 0, pretend = 0, frame = 16
 8292              		@ frame_needed = 1, uses_anonymous_args = 0
 8293 0000 80B5     		push	{r7, lr}
 8294              		.cfi_def_cfa_offset 8
 8295              		.cfi_offset 7, -8
 8296              		.cfi_offset 14, -4
 8297 0002 84B0     		sub	sp, sp, #16
 8298              		.cfi_def_cfa_offset 24
 8299 0004 00AF     		add	r7, sp, #0
 8300              		.cfi_def_cfa_register 7
 8301 0006 7860     		str	r0, [r7, #4]
 8302 0008 3960     		str	r1, [r7]
3006:../firmware/gd32f3x0_hal_peripheral/Source/gd32f3x0_hal_i2c.c ****     uint16_t first_byte, second_byte;
3007:../firmware/gd32f3x0_hal_peripheral/Source/gd32f3x0_hal_i2c.c ****     uint32_t address_format;
3008:../firmware/gd32f3x0_hal_peripheral/Source/gd32f3x0_hal_i2c.c ****     /* check the address format */
3009:../firmware/gd32f3x0_hal_peripheral/Source/gd32f3x0_hal_i2c.c ****     if(I2C_SADDR0(i2c_dev->periph)&I2C_SADDR0_ADDFORMAT) {
 8303              		.loc 1 3009 8
 8304 000a 7B68     		ldr	r3, [r7, #4]
 8305 000c 1B68     		ldr	r3, [r3]
 8306 000e 0833     		adds	r3, r3, #8
 8307 0010 1B68     		ldr	r3, [r3]
 8308              		.loc 1 3009 35
 8309 0012 03F40043 		and	r3, r3, #32768
 8310              		.loc 1 3009 7
 8311 0016 002B     		cmp	r3, #0
 8312 0018 03D0     		beq	.L395
3010:../firmware/gd32f3x0_hal_peripheral/Source/gd32f3x0_hal_i2c.c ****         address_format = I2C_ADDFORMAT_10BITS;
 8313              		.loc 1 3010 24
 8314 001a 4FF40043 		mov	r3, #32768
 8315 001e FB60     		str	r3, [r7, #12]
 8316 0020 01E0     		b	.L396
 8317              	.L395:
3011:../firmware/gd32f3x0_hal_peripheral/Source/gd32f3x0_hal_i2c.c ****     } else {
3012:../firmware/gd32f3x0_hal_peripheral/Source/gd32f3x0_hal_i2c.c ****         address_format = I2C_ADDFORMAT_7BITS;
 8318              		.loc 1 3012 24
 8319 0022 0023     		movs	r3, #0
 8320 0024 FB60     		str	r3, [r7, #12]
 8321              	.L396:
3013:../firmware/gd32f3x0_hal_peripheral/Source/gd32f3x0_hal_i2c.c ****     }
3014:../firmware/gd32f3x0_hal_peripheral/Source/gd32f3x0_hal_i2c.c **** 
3015:../firmware/gd32f3x0_hal_peripheral/Source/gd32f3x0_hal_i2c.c ****     /* send a start condition to I2C bus */
3016:../firmware/gd32f3x0_hal_peripheral/Source/gd32f3x0_hal_i2c.c ****     HAL_I2C_START_ON_BUS(i2c_dev->periph);
 8322              		.loc 1 3016 5
 8323 0026 7B68     		ldr	r3, [r7, #4]
 8324 0028 1B68     		ldr	r3, [r3]
 8325 002a 1B68     		ldr	r3, [r3]
 8326 002c 7A68     		ldr	r2, [r7, #4]
 8327 002e 1268     		ldr	r2, [r2]
 8328 0030 43F48073 		orr	r3, r3, #256
 8329 0034 1360     		str	r3, [r2]
3017:../firmware/gd32f3x0_hal_peripheral/Source/gd32f3x0_hal_i2c.c **** 
3018:../firmware/gd32f3x0_hal_peripheral/Source/gd32f3x0_hal_i2c.c ****     /* wait until SBSEND bit is set */
3019:../firmware/gd32f3x0_hal_peripheral/Source/gd32f3x0_hal_i2c.c ****     if(HAL_ERR_NONE != _i2c_wait_flag_timeout(i2c_dev->periph, I2C_FLAG_SBSEND, SET, timeout_ms)) {
 8330              		.loc 1 3019 24
 8331 0036 7B68     		ldr	r3, [r7, #4]
 8332 0038 1868     		ldr	r0, [r3]
 8333 003a 3B68     		ldr	r3, [r7]
 8334 003c 0122     		movs	r2, #1
 8335 003e 4FF4A061 		mov	r1, #1280
 8336 0042 FFF7FEFF 		bl	_i2c_wait_flag_timeout
 8337 0046 0346     		mov	r3, r0
 8338              		.loc 1 3019 7
 8339 0048 002B     		cmp	r3, #0
 8340 004a 02D0     		beq	.L397
3020:../firmware/gd32f3x0_hal_peripheral/Source/gd32f3x0_hal_i2c.c ****         HAL_DEBUGW("i2c get SBSEND timeout");
3021:../firmware/gd32f3x0_hal_peripheral/Source/gd32f3x0_hal_i2c.c ****         return HAL_ERR_TIMEOUT;
 8341              		.loc 1 3021 16
 8342 004c 6FF00403 		mvn	r3, #4
 8343 0050 79E0     		b	.L398
 8344              	.L397:
3022:../firmware/gd32f3x0_hal_peripheral/Source/gd32f3x0_hal_i2c.c ****     }
3023:../firmware/gd32f3x0_hal_peripheral/Source/gd32f3x0_hal_i2c.c **** 
3024:../firmware/gd32f3x0_hal_peripheral/Source/gd32f3x0_hal_i2c.c ****     /* send slave address to I2C bus */
3025:../firmware/gd32f3x0_hal_peripheral/Source/gd32f3x0_hal_i2c.c ****     if(I2C_ADDFORMAT_7BITS == address_format) {
 8345              		.loc 1 3025 7
 8346 0052 FB68     		ldr	r3, [r7, #12]
 8347 0054 002B     		cmp	r3, #0
 8348 0056 08D1     		bne	.L399
3026:../firmware/gd32f3x0_hal_peripheral/Source/gd32f3x0_hal_i2c.c ****         /* 7-bit addressing */
3027:../firmware/gd32f3x0_hal_peripheral/Source/gd32f3x0_hal_i2c.c ****         hals_i2c_master_addressing(i2c_dev->periph, i2c_dev->slave_address.device_address, I2C_RECE
 8349              		.loc 1 3027 9
 8350 0058 7B68     		ldr	r3, [r7, #4]
 8351 005a 1868     		ldr	r0, [r3]
 8352 005c 7B68     		ldr	r3, [r7, #4]
 8353 005e DB6A     		ldr	r3, [r3, #44]
 8354 0060 0122     		movs	r2, #1
 8355 0062 1946     		mov	r1, r3
 8356 0064 FFF7FEFF 		bl	hals_i2c_master_addressing
 8357 0068 5EE0     		b	.L400
 8358              	.L399:
3028:../firmware/gd32f3x0_hal_peripheral/Source/gd32f3x0_hal_i2c.c ****     } else {
3029:../firmware/gd32f3x0_hal_peripheral/Source/gd32f3x0_hal_i2c.c ****         /* 10-bit addressing */
3030:../firmware/gd32f3x0_hal_peripheral/Source/gd32f3x0_hal_i2c.c ****         first_byte = SLAVE10_FIRST_BYTE(i2c_dev->slave_address.device_address);
 8359              		.loc 1 3030 22
 8360 006a 7B68     		ldr	r3, [r7, #4]
 8361 006c DB6A     		ldr	r3, [r3, #44]
 8362 006e DB09     		lsrs	r3, r3, #7
 8363 0070 DBB2     		uxtb	r3, r3
 8364 0072 03F00603 		and	r3, r3, #6
 8365 0076 DBB2     		uxtb	r3, r3
 8366              		.loc 1 3030 20
 8367 0078 63F00F03 		orn	r3, r3, #15
 8368 007c DBB2     		uxtb	r3, r3
 8369 007e 7B81     		strh	r3, [r7, #10]	@ movhi
3031:../firmware/gd32f3x0_hal_peripheral/Source/gd32f3x0_hal_i2c.c ****         second_byte = SLAVE10_SECOND_BYTE(i2c_dev->slave_address.device_address);
 8370              		.loc 1 3031 23
 8371 0080 7B68     		ldr	r3, [r7, #4]
 8372 0082 DB6A     		ldr	r3, [r3, #44]
 8373 0084 DBB2     		uxtb	r3, r3
 8374              		.loc 1 3031 21
 8375 0086 3B81     		strh	r3, [r7, #8]	@ movhi
3032:../firmware/gd32f3x0_hal_peripheral/Source/gd32f3x0_hal_i2c.c ****         /* send slave address first byte to I2C bus */
3033:../firmware/gd32f3x0_hal_peripheral/Source/gd32f3x0_hal_i2c.c ****         hals_i2c_master_addressing(i2c_dev->periph, first_byte, I2C_TRANSMITTER);
 8376              		.loc 1 3033 9
 8377 0088 7B68     		ldr	r3, [r7, #4]
 8378 008a 1B68     		ldr	r3, [r3]
 8379 008c 7989     		ldrh	r1, [r7, #10]
 8380 008e 6FF00102 		mvn	r2, #1
 8381 0092 1846     		mov	r0, r3
 8382 0094 FFF7FEFF 		bl	hals_i2c_master_addressing
3034:../firmware/gd32f3x0_hal_peripheral/Source/gd32f3x0_hal_i2c.c ****         /* wait until ADD10SEND bit is set */
3035:../firmware/gd32f3x0_hal_peripheral/Source/gd32f3x0_hal_i2c.c ****         if(HAL_ERR_NONE != _i2c_wait_flag_timeout(i2c_dev->periph, I2C_FLAG_ADD10SEND, SET, timeout
 8383              		.loc 1 3035 28
 8384 0098 7B68     		ldr	r3, [r7, #4]
 8385 009a 1868     		ldr	r0, [r3]
 8386 009c 3B68     		ldr	r3, [r7]
 8387 009e 0122     		movs	r2, #1
 8388 00a0 40F20351 		movw	r1, #1283
 8389 00a4 FFF7FEFF 		bl	_i2c_wait_flag_timeout
 8390 00a8 0346     		mov	r3, r0
 8391              		.loc 1 3035 11
 8392 00aa 002B     		cmp	r3, #0
 8393 00ac 02D0     		beq	.L401
3036:../firmware/gd32f3x0_hal_peripheral/Source/gd32f3x0_hal_i2c.c ****             HAL_DEBUGW("i2c get ADD10SEND timeout");
3037:../firmware/gd32f3x0_hal_peripheral/Source/gd32f3x0_hal_i2c.c ****             return HAL_ERR_TIMEOUT;
 8394              		.loc 1 3037 20
 8395 00ae 6FF00403 		mvn	r3, #4
 8396 00b2 48E0     		b	.L398
 8397              	.L401:
3038:../firmware/gd32f3x0_hal_peripheral/Source/gd32f3x0_hal_i2c.c ****         }
3039:../firmware/gd32f3x0_hal_peripheral/Source/gd32f3x0_hal_i2c.c ****         /* send slave address 2nd byte to I2C bus */
3040:../firmware/gd32f3x0_hal_peripheral/Source/gd32f3x0_hal_i2c.c ****         hals_i2c_master_addressing(i2c_dev->periph, second_byte, I2C_TRANSMITTER);
 8398              		.loc 1 3040 9
 8399 00b4 7B68     		ldr	r3, [r7, #4]
 8400 00b6 1B68     		ldr	r3, [r3]
 8401 00b8 3989     		ldrh	r1, [r7, #8]
 8402 00ba 6FF00102 		mvn	r2, #1
 8403 00be 1846     		mov	r0, r3
 8404 00c0 FFF7FEFF 		bl	hals_i2c_master_addressing
3041:../firmware/gd32f3x0_hal_peripheral/Source/gd32f3x0_hal_i2c.c ****         /* wait until ADDSEND bit is set */
3042:../firmware/gd32f3x0_hal_peripheral/Source/gd32f3x0_hal_i2c.c ****         if(HAL_ERR_NONE != _i2c_wait_flag_timeout(i2c_dev->periph, I2C_FLAG_ADDSEND, SET, timeout_m
 8405              		.loc 1 3042 28
 8406 00c4 7B68     		ldr	r3, [r7, #4]
 8407 00c6 1868     		ldr	r0, [r3]
 8408 00c8 3B68     		ldr	r3, [r7]
 8409 00ca 0122     		movs	r2, #1
 8410 00cc 40F20151 		movw	r1, #1281
 8411 00d0 FFF7FEFF 		bl	_i2c_wait_flag_timeout
 8412 00d4 0346     		mov	r3, r0
 8413              		.loc 1 3042 11
 8414 00d6 002B     		cmp	r3, #0
 8415 00d8 02D0     		beq	.L402
3043:../firmware/gd32f3x0_hal_peripheral/Source/gd32f3x0_hal_i2c.c ****             HAL_DEBUGW("i2c get ADDSEND timeout");
3044:../firmware/gd32f3x0_hal_peripheral/Source/gd32f3x0_hal_i2c.c ****             return HAL_ERR_TIMEOUT;
 8416              		.loc 1 3044 20
 8417 00da 6FF00403 		mvn	r3, #4
 8418 00de 32E0     		b	.L398
 8419              	.L402:
3045:../firmware/gd32f3x0_hal_peripheral/Source/gd32f3x0_hal_i2c.c ****         }
3046:../firmware/gd32f3x0_hal_peripheral/Source/gd32f3x0_hal_i2c.c ****         /* clear ADDSEND bit */
3047:../firmware/gd32f3x0_hal_peripheral/Source/gd32f3x0_hal_i2c.c ****         hals_i2c_flag_clear(i2c_dev->periph, I2C_FLAG_ADDSEND);
 8420              		.loc 1 3047 9
 8421 00e0 7B68     		ldr	r3, [r7, #4]
 8422 00e2 1B68     		ldr	r3, [r3]
 8423 00e4 40F20151 		movw	r1, #1281
 8424 00e8 1846     		mov	r0, r3
 8425 00ea FFF7FEFF 		bl	hals_i2c_flag_clear
3048:../firmware/gd32f3x0_hal_peripheral/Source/gd32f3x0_hal_i2c.c ****         /* send a start condition to I2C bus */
3049:../firmware/gd32f3x0_hal_peripheral/Source/gd32f3x0_hal_i2c.c ****         HAL_I2C_START_ON_BUS(i2c_dev->periph);
 8426              		.loc 1 3049 9
 8427 00ee 7B68     		ldr	r3, [r7, #4]
 8428 00f0 1B68     		ldr	r3, [r3]
 8429 00f2 1B68     		ldr	r3, [r3]
 8430 00f4 7A68     		ldr	r2, [r7, #4]
 8431 00f6 1268     		ldr	r2, [r2]
 8432 00f8 43F48073 		orr	r3, r3, #256
 8433 00fc 1360     		str	r3, [r2]
3050:../firmware/gd32f3x0_hal_peripheral/Source/gd32f3x0_hal_i2c.c ****         /* wait until SBSEND bit is set */
3051:../firmware/gd32f3x0_hal_peripheral/Source/gd32f3x0_hal_i2c.c ****         if(HAL_ERR_NONE != _i2c_wait_flag_timeout(i2c_dev->periph, I2C_FLAG_SBSEND, SET, timeout_ms
 8434              		.loc 1 3051 28
 8435 00fe 7B68     		ldr	r3, [r7, #4]
 8436 0100 1868     		ldr	r0, [r3]
 8437 0102 3B68     		ldr	r3, [r7]
 8438 0104 0122     		movs	r2, #1
 8439 0106 4FF4A061 		mov	r1, #1280
 8440 010a FFF7FEFF 		bl	_i2c_wait_flag_timeout
 8441 010e 0346     		mov	r3, r0
 8442              		.loc 1 3051 11
 8443 0110 002B     		cmp	r3, #0
 8444 0112 02D0     		beq	.L403
3052:../firmware/gd32f3x0_hal_peripheral/Source/gd32f3x0_hal_i2c.c ****             HAL_DEBUGW("i2c get SBSEND timeout");
3053:../firmware/gd32f3x0_hal_peripheral/Source/gd32f3x0_hal_i2c.c ****             return HAL_ERR_TIMEOUT;
 8445              		.loc 1 3053 20
 8446 0114 6FF00403 		mvn	r3, #4
 8447 0118 15E0     		b	.L398
 8448              	.L403:
3054:../firmware/gd32f3x0_hal_peripheral/Source/gd32f3x0_hal_i2c.c ****         }
3055:../firmware/gd32f3x0_hal_peripheral/Source/gd32f3x0_hal_i2c.c ****         /* send slave address first byte to I2C bus */
3056:../firmware/gd32f3x0_hal_peripheral/Source/gd32f3x0_hal_i2c.c ****         hals_i2c_master_addressing(i2c_dev->periph, first_byte, I2C_RECEIVER);
 8449              		.loc 1 3056 9
 8450 011a 7B68     		ldr	r3, [r7, #4]
 8451 011c 1B68     		ldr	r3, [r3]
 8452 011e 7989     		ldrh	r1, [r7, #10]
 8453 0120 0122     		movs	r2, #1
 8454 0122 1846     		mov	r0, r3
 8455 0124 FFF7FEFF 		bl	hals_i2c_master_addressing
 8456              	.L400:
3057:../firmware/gd32f3x0_hal_peripheral/Source/gd32f3x0_hal_i2c.c ****     }
3058:../firmware/gd32f3x0_hal_peripheral/Source/gd32f3x0_hal_i2c.c ****     /* wait until ADDSEND bit is set */
3059:../firmware/gd32f3x0_hal_peripheral/Source/gd32f3x0_hal_i2c.c ****     if(HAL_ERR_NONE != _i2c_wait_flag_timeout(i2c_dev->periph, I2C_FLAG_ADDSEND, SET, timeout_ms)) 
 8457              		.loc 1 3059 24
 8458 0128 7B68     		ldr	r3, [r7, #4]
 8459 012a 1868     		ldr	r0, [r3]
 8460 012c 3B68     		ldr	r3, [r7]
 8461 012e 0122     		movs	r2, #1
 8462 0130 40F20151 		movw	r1, #1281
 8463 0134 FFF7FEFF 		bl	_i2c_wait_flag_timeout
 8464 0138 0346     		mov	r3, r0
 8465              		.loc 1 3059 7
 8466 013a 002B     		cmp	r3, #0
 8467 013c 02D0     		beq	.L404
3060:../firmware/gd32f3x0_hal_peripheral/Source/gd32f3x0_hal_i2c.c ****         HAL_DEBUGW("i2c get ADDSEND timeout");
3061:../firmware/gd32f3x0_hal_peripheral/Source/gd32f3x0_hal_i2c.c ****         return HAL_ERR_TIMEOUT;
 8468              		.loc 1 3061 16
 8469 013e 6FF00403 		mvn	r3, #4
 8470 0142 00E0     		b	.L398
 8471              	.L404:
3062:../firmware/gd32f3x0_hal_peripheral/Source/gd32f3x0_hal_i2c.c ****     }
3063:../firmware/gd32f3x0_hal_peripheral/Source/gd32f3x0_hal_i2c.c ****     return HAL_ERR_NONE;
 8472              		.loc 1 3063 12
 8473 0144 0023     		movs	r3, #0
 8474              	.L398:
3064:../firmware/gd32f3x0_hal_peripheral/Source/gd32f3x0_hal_i2c.c **** }
 8475              		.loc 1 3064 1
 8476 0146 1846     		mov	r0, r3
 8477 0148 1037     		adds	r7, r7, #16
 8478              		.cfi_def_cfa_offset 8
 8479 014a BD46     		mov	sp, r7
 8480              		.cfi_def_cfa_register 13
 8481              		@ sp needed
 8482 014c 80BD     		pop	{r7, pc}
 8483              		.cfi_endproc
 8484              	.LFE177:
 8486              		.section	.text._i2c_master_receive_interrupt,"ax",%progbits
 8487              		.align	1
 8488              		.syntax unified
 8489              		.thumb
 8490              		.thumb_func
 8491              		.fpu softvfp
 8493              	_i2c_master_receive_interrupt:
 8494              	.LFB178:
3065:../firmware/gd32f3x0_hal_peripheral/Source/gd32f3x0_hal_i2c.c **** 
3066:../firmware/gd32f3x0_hal_peripheral/Source/gd32f3x0_hal_i2c.c **** /*!
3067:../firmware/gd32f3x0_hal_peripheral/Source/gd32f3x0_hal_i2c.c ****     \brief      event handler in I2C master receive mode
3068:../firmware/gd32f3x0_hal_peripheral/Source/gd32f3x0_hal_i2c.c ****     \param[in]  i2c: I2C device information structrue
3069:../firmware/gd32f3x0_hal_peripheral/Source/gd32f3x0_hal_i2c.c ****                   the structure is not necessary to be reconfigured after structrue initialization,
3070:../firmware/gd32f3x0_hal_peripheral/Source/gd32f3x0_hal_i2c.c ****                   the structure parameters altering is automatically configured by core
3071:../firmware/gd32f3x0_hal_peripheral/Source/gd32f3x0_hal_i2c.c ****     \param[out] none
3072:../firmware/gd32f3x0_hal_peripheral/Source/gd32f3x0_hal_i2c.c ****     \retval     none
3073:../firmware/gd32f3x0_hal_peripheral/Source/gd32f3x0_hal_i2c.c **** */
3074:../firmware/gd32f3x0_hal_peripheral/Source/gd32f3x0_hal_i2c.c **** static void _i2c_master_receive_interrupt(void *i2c)
3075:../firmware/gd32f3x0_hal_peripheral/Source/gd32f3x0_hal_i2c.c **** {
 8495              		.loc 1 3075 1
 8496              		.cfi_startproc
 8497              		@ args = 0, pretend = 0, frame = 24
 8498              		@ frame_needed = 1, uses_anonymous_args = 0
 8499 0000 90B5     		push	{r4, r7, lr}
 8500              		.cfi_def_cfa_offset 12
 8501              		.cfi_offset 4, -12
 8502              		.cfi_offset 7, -8
 8503              		.cfi_offset 14, -4
 8504 0002 87B0     		sub	sp, sp, #28
 8505              		.cfi_def_cfa_offset 40
 8506 0004 00AF     		add	r7, sp, #0
 8507              		.cfi_def_cfa_register 7
 8508 0006 7860     		str	r0, [r7, #4]
3076:../firmware/gd32f3x0_hal_peripheral/Source/gd32f3x0_hal_i2c.c ****     hal_i2c_dev_struct *p_i2c = i2c;
 8509              		.loc 1 3076 25
 8510 0008 7B68     		ldr	r3, [r7, #4]
 8511 000a 7B61     		str	r3, [r7, #20]
3077:../firmware/gd32f3x0_hal_peripheral/Source/gd32f3x0_hal_i2c.c ****     uint16_t first_byte, second_byte;
3078:../firmware/gd32f3x0_hal_peripheral/Source/gd32f3x0_hal_i2c.c ****     hal_i2c_user_cb p_func = (hal_i2c_user_cb)p_i2c->rx_callback;
 8512              		.loc 1 3078 52
 8513 000c 7B69     		ldr	r3, [r7, #20]
 8514 000e 9B6C     		ldr	r3, [r3, #72]
 8515              		.loc 1 3078 21
 8516 0010 3B61     		str	r3, [r7, #16]
3079:../firmware/gd32f3x0_hal_peripheral/Source/gd32f3x0_hal_i2c.c ****     uint32_t data_length;
3080:../firmware/gd32f3x0_hal_peripheral/Source/gd32f3x0_hal_i2c.c **** 
3081:../firmware/gd32f3x0_hal_peripheral/Source/gd32f3x0_hal_i2c.c ****     data_length = p_i2c->rxbuffer.length;
 8517              		.loc 1 3081 17
 8518 0012 7B69     		ldr	r3, [r7, #20]
 8519 0014 5B6A     		ldr	r3, [r3, #36]
 8520 0016 FB60     		str	r3, [r7, #12]
3082:../firmware/gd32f3x0_hal_peripheral/Source/gd32f3x0_hal_i2c.c **** 
3083:../firmware/gd32f3x0_hal_peripheral/Source/gd32f3x0_hal_i2c.c ****     if(hals_i2c_interrupt_flag_get(p_i2c->periph, I2C_INT_FLAG_SBSEND)) {
 8521              		.loc 1 3083 8
 8522 0018 7B69     		ldr	r3, [r7, #20]
 8523 001a 1B68     		ldr	r3, [r3]
 8524 001c 8B49     		ldr	r1, .L422
 8525 001e 1846     		mov	r0, r3
 8526 0020 FFF7FEFF 		bl	hals_i2c_interrupt_flag_get
 8527 0024 0346     		mov	r3, r0
 8528              		.loc 1 3083 7
 8529 0026 002B     		cmp	r3, #0
 8530 0028 35D0     		beq	.L406
3084:../firmware/gd32f3x0_hal_peripheral/Source/gd32f3x0_hal_i2c.c ****         if(!(I2C_SADDR0(p_i2c->periph)&I2C_SADDR0_ADDFORMAT)) {
 8531              		.loc 1 3084 14
 8532 002a 7B69     		ldr	r3, [r7, #20]
 8533 002c 1B68     		ldr	r3, [r3]
 8534 002e 0833     		adds	r3, r3, #8
 8535 0030 1B68     		ldr	r3, [r3]
 8536              		.loc 1 3084 39
 8537 0032 03F40043 		and	r3, r3, #32768
 8538              		.loc 1 3084 11
 8539 0036 002B     		cmp	r3, #0
 8540 0038 08D1     		bne	.L407
3085:../firmware/gd32f3x0_hal_peripheral/Source/gd32f3x0_hal_i2c.c ****             /* the master sends slave address */
3086:../firmware/gd32f3x0_hal_peripheral/Source/gd32f3x0_hal_i2c.c ****             hals_i2c_master_addressing(p_i2c->periph, p_i2c->slave_address.device_address, I2C_RECE
 8541              		.loc 1 3086 13
 8542 003a 7B69     		ldr	r3, [r7, #20]
 8543 003c 1868     		ldr	r0, [r3]
 8544 003e 7B69     		ldr	r3, [r7, #20]
 8545 0040 DB6A     		ldr	r3, [r3, #44]
 8546 0042 0122     		movs	r2, #1
 8547 0044 1946     		mov	r1, r3
 8548 0046 FFF7FEFF 		bl	hals_i2c_master_addressing
3087:../firmware/gd32f3x0_hal_peripheral/Source/gd32f3x0_hal_i2c.c ****         } else {
3088:../firmware/gd32f3x0_hal_peripheral/Source/gd32f3x0_hal_i2c.c ****             first_byte = SLAVE10_FIRST_BYTE(p_i2c->slave_address.device_address);
3089:../firmware/gd32f3x0_hal_peripheral/Source/gd32f3x0_hal_i2c.c ****             if(RESET == p_i2c->slave_address.second_addressing) {
3090:../firmware/gd32f3x0_hal_peripheral/Source/gd32f3x0_hal_i2c.c ****                 hals_i2c_master_addressing(p_i2c->periph, first_byte, I2C_TRANSMITTER);
3091:../firmware/gd32f3x0_hal_peripheral/Source/gd32f3x0_hal_i2c.c ****                 p_i2c->slave_address.second_addressing = SET;
3092:../firmware/gd32f3x0_hal_peripheral/Source/gd32f3x0_hal_i2c.c ****             } else {
3093:../firmware/gd32f3x0_hal_peripheral/Source/gd32f3x0_hal_i2c.c ****                 hals_i2c_master_addressing(p_i2c->periph, first_byte, I2C_RECEIVER);
3094:../firmware/gd32f3x0_hal_peripheral/Source/gd32f3x0_hal_i2c.c ****             }
3095:../firmware/gd32f3x0_hal_peripheral/Source/gd32f3x0_hal_i2c.c ****         }
3096:../firmware/gd32f3x0_hal_peripheral/Source/gd32f3x0_hal_i2c.c ****     } else if(hals_i2c_interrupt_flag_get(p_i2c->periph, I2C_INT_FLAG_ADD10SEND)) {
3097:../firmware/gd32f3x0_hal_peripheral/Source/gd32f3x0_hal_i2c.c ****         second_byte = SLAVE10_SECOND_BYTE(p_i2c->slave_address.device_address);
3098:../firmware/gd32f3x0_hal_peripheral/Source/gd32f3x0_hal_i2c.c ****         hals_i2c_master_addressing(p_i2c->periph, second_byte, I2C_TRANSMITTER);
3099:../firmware/gd32f3x0_hal_peripheral/Source/gd32f3x0_hal_i2c.c ****     } else if(hals_i2c_interrupt_flag_get(p_i2c->periph, I2C_INT_FLAG_ADDSEND)) {
3100:../firmware/gd32f3x0_hal_peripheral/Source/gd32f3x0_hal_i2c.c **** 
3101:../firmware/gd32f3x0_hal_peripheral/Source/gd32f3x0_hal_i2c.c ****         if((1 == p_i2c->rxbuffer.length) || (2 == p_i2c->rxbuffer.length)) {
3102:../firmware/gd32f3x0_hal_peripheral/Source/gd32f3x0_hal_i2c.c ****             hals_i2c_ack_config(p_i2c->periph, I2C_ACK_DISABLE);
3103:../firmware/gd32f3x0_hal_peripheral/Source/gd32f3x0_hal_i2c.c ****         }
3104:../firmware/gd32f3x0_hal_peripheral/Source/gd32f3x0_hal_i2c.c ****         if(!(I2C_SADDR0(p_i2c->periph)&I2C_SADDR0_ADDFORMAT)) {
3105:../firmware/gd32f3x0_hal_peripheral/Source/gd32f3x0_hal_i2c.c ****             /* clear the ADDSEND bit */
3106:../firmware/gd32f3x0_hal_peripheral/Source/gd32f3x0_hal_i2c.c ****             hals_i2c_interrupt_flag_clear(p_i2c->periph, I2C_INT_FLAG_ADDSEND);
3107:../firmware/gd32f3x0_hal_peripheral/Source/gd32f3x0_hal_i2c.c ****         } else {
3108:../firmware/gd32f3x0_hal_peripheral/Source/gd32f3x0_hal_i2c.c ****             if(0 == p_i2c->slave_address.address_count) {
3109:../firmware/gd32f3x0_hal_peripheral/Source/gd32f3x0_hal_i2c.c ****                 /* clear the ADDSEND bit */
3110:../firmware/gd32f3x0_hal_peripheral/Source/gd32f3x0_hal_i2c.c ****                 hals_i2c_interrupt_flag_clear(p_i2c->periph, I2C_INT_FLAG_ADDSEND);
3111:../firmware/gd32f3x0_hal_peripheral/Source/gd32f3x0_hal_i2c.c ****                 p_i2c->slave_address.address_count = 1;
3112:../firmware/gd32f3x0_hal_peripheral/Source/gd32f3x0_hal_i2c.c ****                 /* send a start condition to I2C bus */
3113:../firmware/gd32f3x0_hal_peripheral/Source/gd32f3x0_hal_i2c.c ****                 HAL_I2C_START_ON_BUS(p_i2c->periph);
3114:../firmware/gd32f3x0_hal_peripheral/Source/gd32f3x0_hal_i2c.c ****             } else {
3115:../firmware/gd32f3x0_hal_peripheral/Source/gd32f3x0_hal_i2c.c ****                 /* clear the ADDSEND bit */
3116:../firmware/gd32f3x0_hal_peripheral/Source/gd32f3x0_hal_i2c.c ****                 hals_i2c_interrupt_flag_clear(p_i2c->periph, I2C_INT_FLAG_ADDSEND);
3117:../firmware/gd32f3x0_hal_peripheral/Source/gd32f3x0_hal_i2c.c ****             }
3118:../firmware/gd32f3x0_hal_peripheral/Source/gd32f3x0_hal_i2c.c ****         }
3119:../firmware/gd32f3x0_hal_peripheral/Source/gd32f3x0_hal_i2c.c ****     } else if(hals_i2c_interrupt_flag_get(p_i2c->periph, I2C_INT_FLAG_RBNE)) {
3120:../firmware/gd32f3x0_hal_peripheral/Source/gd32f3x0_hal_i2c.c ****         if(data_length > p_i2c->rxbuffer.pos) {
3121:../firmware/gd32f3x0_hal_peripheral/Source/gd32f3x0_hal_i2c.c ****             if(3 == data_length - p_i2c->rxbuffer.pos) {
3122:../firmware/gd32f3x0_hal_peripheral/Source/gd32f3x0_hal_i2c.c ****                 /* wait until the second last data byte is received into the shift register */
3123:../firmware/gd32f3x0_hal_peripheral/Source/gd32f3x0_hal_i2c.c ****                 while(!hals_i2c_interrupt_flag_get(p_i2c->periph, I2C_INT_FLAG_BTC));
3124:../firmware/gd32f3x0_hal_peripheral/Source/gd32f3x0_hal_i2c.c ****                 /* send a NACK for the last data byte */
3125:../firmware/gd32f3x0_hal_peripheral/Source/gd32f3x0_hal_i2c.c ****                 hals_i2c_ack_config(p_i2c->periph, I2C_ACK_DISABLE);
3126:../firmware/gd32f3x0_hal_peripheral/Source/gd32f3x0_hal_i2c.c ****             }
3127:../firmware/gd32f3x0_hal_peripheral/Source/gd32f3x0_hal_i2c.c ****             /* read a data byte from I2C_DATA*/
3128:../firmware/gd32f3x0_hal_peripheral/Source/gd32f3x0_hal_i2c.c ****             *p_i2c->rxbuffer.buffer++ = hals_i2c_data_receive(p_i2c->periph);
3129:../firmware/gd32f3x0_hal_peripheral/Source/gd32f3x0_hal_i2c.c ****             p_i2c->rxbuffer.pos++;
3130:../firmware/gd32f3x0_hal_peripheral/Source/gd32f3x0_hal_i2c.c ****             if(0 == data_length - p_i2c->rxbuffer.pos) {
3131:../firmware/gd32f3x0_hal_peripheral/Source/gd32f3x0_hal_i2c.c ****                 if((I2C_NO_OPTION_TRANSFER != p_i2c->transfer_option) && \
3132:../firmware/gd32f3x0_hal_peripheral/Source/gd32f3x0_hal_i2c.c ****                         (I2C_LAST_TRANSFER != p_i2c->transfer_option)) {
3133:../firmware/gd32f3x0_hal_peripheral/Source/gd32f3x0_hal_i2c.c ****                     p_i2c->previous_state = HAL_I2C_PREVIOUS_STATE_TX;
3134:../firmware/gd32f3x0_hal_peripheral/Source/gd32f3x0_hal_i2c.c ****                 } else {
3135:../firmware/gd32f3x0_hal_peripheral/Source/gd32f3x0_hal_i2c.c ****                     /* send a stop condition */
3136:../firmware/gd32f3x0_hal_peripheral/Source/gd32f3x0_hal_i2c.c ****                     HAL_I2C_STOP_ON_BUS(p_i2c->periph);
3137:../firmware/gd32f3x0_hal_peripheral/Source/gd32f3x0_hal_i2c.c ****                 }
3138:../firmware/gd32f3x0_hal_peripheral/Source/gd32f3x0_hal_i2c.c **** 
3139:../firmware/gd32f3x0_hal_peripheral/Source/gd32f3x0_hal_i2c.c ****                 hals_i2c_ack_config(p_i2c->periph, I2C_ACK_ENABLE);
3140:../firmware/gd32f3x0_hal_peripheral/Source/gd32f3x0_hal_i2c.c ****                 hals_i2c_ackpos_config(p_i2c->periph, I2C_ACKPOS_CURRENT);
3141:../firmware/gd32f3x0_hal_peripheral/Source/gd32f3x0_hal_i2c.c ****                 /* disable the I2C interrupt */
3142:../firmware/gd32f3x0_hal_peripheral/Source/gd32f3x0_hal_i2c.c ****                 hals_i2c_interrupt_disable(p_i2c->periph, I2C_INT_BUF);
3143:../firmware/gd32f3x0_hal_peripheral/Source/gd32f3x0_hal_i2c.c ****                 hals_i2c_interrupt_disable(p_i2c->periph, I2C_INT_EV);
3144:../firmware/gd32f3x0_hal_peripheral/Source/gd32f3x0_hal_i2c.c ****                 hals_i2c_interrupt_disable(p_i2c->periph, I2C_INT_ERR);
3145:../firmware/gd32f3x0_hal_peripheral/Source/gd32f3x0_hal_i2c.c **** 
3146:../firmware/gd32f3x0_hal_peripheral/Source/gd32f3x0_hal_i2c.c ****                 if(NULL != p_func) {
3147:../firmware/gd32f3x0_hal_peripheral/Source/gd32f3x0_hal_i2c.c ****                     p_func(p_i2c);
3148:../firmware/gd32f3x0_hal_peripheral/Source/gd32f3x0_hal_i2c.c ****                 }
3149:../firmware/gd32f3x0_hal_peripheral/Source/gd32f3x0_hal_i2c.c ****                 p_i2c->rx_state =   HAL_I2C_STATE_READY;
3150:../firmware/gd32f3x0_hal_peripheral/Source/gd32f3x0_hal_i2c.c ****             }
3151:../firmware/gd32f3x0_hal_peripheral/Source/gd32f3x0_hal_i2c.c ****         }
3152:../firmware/gd32f3x0_hal_peripheral/Source/gd32f3x0_hal_i2c.c ****     }
3153:../firmware/gd32f3x0_hal_peripheral/Source/gd32f3x0_hal_i2c.c **** }
 8549              		.loc 1 3153 1
 8550 004a FBE0     		b	.L421
 8551              	.L407:
3088:../firmware/gd32f3x0_hal_peripheral/Source/gd32f3x0_hal_i2c.c ****             if(RESET == p_i2c->slave_address.second_addressing) {
 8552              		.loc 1 3088 26
 8553 004c 7B69     		ldr	r3, [r7, #20]
 8554 004e DB6A     		ldr	r3, [r3, #44]
 8555 0050 DB09     		lsrs	r3, r3, #7
 8556 0052 DBB2     		uxtb	r3, r3
 8557 0054 03F00603 		and	r3, r3, #6
 8558 0058 DBB2     		uxtb	r3, r3
3088:../firmware/gd32f3x0_hal_peripheral/Source/gd32f3x0_hal_i2c.c ****             if(RESET == p_i2c->slave_address.second_addressing) {
 8559              		.loc 1 3088 24
 8560 005a 63F00F03 		orn	r3, r3, #15
 8561 005e DBB2     		uxtb	r3, r3
 8562 0060 3B81     		strh	r3, [r7, #8]	@ movhi
3089:../firmware/gd32f3x0_hal_peripheral/Source/gd32f3x0_hal_i2c.c ****                 hals_i2c_master_addressing(p_i2c->periph, first_byte, I2C_TRANSMITTER);
 8563              		.loc 1 3089 45
 8564 0062 7B69     		ldr	r3, [r7, #20]
 8565 0064 93F83630 		ldrb	r3, [r3, #54]	@ zero_extendqisi2
3089:../firmware/gd32f3x0_hal_peripheral/Source/gd32f3x0_hal_i2c.c ****                 hals_i2c_master_addressing(p_i2c->periph, first_byte, I2C_TRANSMITTER);
 8566              		.loc 1 3089 15
 8567 0068 002B     		cmp	r3, #0
 8568 006a 0CD1     		bne	.L409
3090:../firmware/gd32f3x0_hal_peripheral/Source/gd32f3x0_hal_i2c.c ****                 p_i2c->slave_address.second_addressing = SET;
 8569              		.loc 1 3090 17
 8570 006c 7B69     		ldr	r3, [r7, #20]
 8571 006e 1B68     		ldr	r3, [r3]
 8572 0070 3989     		ldrh	r1, [r7, #8]
 8573 0072 6FF00102 		mvn	r2, #1
 8574 0076 1846     		mov	r0, r3
 8575 0078 FFF7FEFF 		bl	hals_i2c_master_addressing
3091:../firmware/gd32f3x0_hal_peripheral/Source/gd32f3x0_hal_i2c.c ****             } else {
 8576              		.loc 1 3091 56
 8577 007c 7B69     		ldr	r3, [r7, #20]
 8578 007e 0122     		movs	r2, #1
 8579 0080 83F83620 		strb	r2, [r3, #54]
 8580              		.loc 1 3153 1
 8581 0084 DEE0     		b	.L421
 8582              	.L409:
3093:../firmware/gd32f3x0_hal_peripheral/Source/gd32f3x0_hal_i2c.c ****             }
 8583              		.loc 1 3093 17
 8584 0086 7B69     		ldr	r3, [r7, #20]
 8585 0088 1B68     		ldr	r3, [r3]
 8586 008a 3989     		ldrh	r1, [r7, #8]
 8587 008c 0122     		movs	r2, #1
 8588 008e 1846     		mov	r0, r3
 8589 0090 FFF7FEFF 		bl	hals_i2c_master_addressing
 8590              		.loc 1 3153 1
 8591 0094 D6E0     		b	.L421
 8592              	.L406:
3096:../firmware/gd32f3x0_hal_peripheral/Source/gd32f3x0_hal_i2c.c ****         second_byte = SLAVE10_SECOND_BYTE(p_i2c->slave_address.device_address);
 8593              		.loc 1 3096 15
 8594 0096 7B69     		ldr	r3, [r7, #20]
 8595 0098 1B68     		ldr	r3, [r3]
 8596 009a 6D49     		ldr	r1, .L422+4
 8597 009c 1846     		mov	r0, r3
 8598 009e FFF7FEFF 		bl	hals_i2c_interrupt_flag_get
 8599 00a2 0346     		mov	r3, r0
3096:../firmware/gd32f3x0_hal_peripheral/Source/gd32f3x0_hal_i2c.c ****         second_byte = SLAVE10_SECOND_BYTE(p_i2c->slave_address.device_address);
 8600              		.loc 1 3096 14
 8601 00a4 002B     		cmp	r3, #0
 8602 00a6 0CD0     		beq	.L410
3097:../firmware/gd32f3x0_hal_peripheral/Source/gd32f3x0_hal_i2c.c ****         hals_i2c_master_addressing(p_i2c->periph, second_byte, I2C_TRANSMITTER);
 8603              		.loc 1 3097 23
 8604 00a8 7B69     		ldr	r3, [r7, #20]
 8605 00aa DB6A     		ldr	r3, [r3, #44]
 8606 00ac DBB2     		uxtb	r3, r3
3097:../firmware/gd32f3x0_hal_peripheral/Source/gd32f3x0_hal_i2c.c ****         hals_i2c_master_addressing(p_i2c->periph, second_byte, I2C_TRANSMITTER);
 8607              		.loc 1 3097 21
 8608 00ae 7B81     		strh	r3, [r7, #10]	@ movhi
3098:../firmware/gd32f3x0_hal_peripheral/Source/gd32f3x0_hal_i2c.c ****     } else if(hals_i2c_interrupt_flag_get(p_i2c->periph, I2C_INT_FLAG_ADDSEND)) {
 8609              		.loc 1 3098 9
 8610 00b0 7B69     		ldr	r3, [r7, #20]
 8611 00b2 1B68     		ldr	r3, [r3]
 8612 00b4 7989     		ldrh	r1, [r7, #10]
 8613 00b6 6FF00102 		mvn	r2, #1
 8614 00ba 1846     		mov	r0, r3
 8615 00bc FFF7FEFF 		bl	hals_i2c_master_addressing
 8616              		.loc 1 3153 1
 8617 00c0 C0E0     		b	.L421
 8618              	.L410:
3099:../firmware/gd32f3x0_hal_peripheral/Source/gd32f3x0_hal_i2c.c **** 
 8619              		.loc 1 3099 15
 8620 00c2 7B69     		ldr	r3, [r7, #20]
 8621 00c4 1B68     		ldr	r3, [r3]
 8622 00c6 6349     		ldr	r1, .L422+8
 8623 00c8 1846     		mov	r0, r3
 8624 00ca FFF7FEFF 		bl	hals_i2c_interrupt_flag_get
 8625 00ce 0346     		mov	r3, r0
3099:../firmware/gd32f3x0_hal_peripheral/Source/gd32f3x0_hal_i2c.c **** 
 8626              		.loc 1 3099 14
 8627 00d0 002B     		cmp	r3, #0
 8628 00d2 3BD0     		beq	.L411
3101:../firmware/gd32f3x0_hal_peripheral/Source/gd32f3x0_hal_i2c.c ****             hals_i2c_ack_config(p_i2c->periph, I2C_ACK_DISABLE);
 8629              		.loc 1 3101 33
 8630 00d4 7B69     		ldr	r3, [r7, #20]
 8631 00d6 5B6A     		ldr	r3, [r3, #36]
3101:../firmware/gd32f3x0_hal_peripheral/Source/gd32f3x0_hal_i2c.c ****             hals_i2c_ack_config(p_i2c->periph, I2C_ACK_DISABLE);
 8632              		.loc 1 3101 11
 8633 00d8 012B     		cmp	r3, #1
 8634 00da 03D0     		beq	.L412
3101:../firmware/gd32f3x0_hal_peripheral/Source/gd32f3x0_hal_i2c.c ****             hals_i2c_ack_config(p_i2c->periph, I2C_ACK_DISABLE);
 8635              		.loc 1 3101 66 discriminator 1
 8636 00dc 7B69     		ldr	r3, [r7, #20]
 8637 00de 5B6A     		ldr	r3, [r3, #36]
3101:../firmware/gd32f3x0_hal_peripheral/Source/gd32f3x0_hal_i2c.c ****             hals_i2c_ack_config(p_i2c->periph, I2C_ACK_DISABLE);
 8638              		.loc 1 3101 42 discriminator 1
 8639 00e0 022B     		cmp	r3, #2
 8640 00e2 05D1     		bne	.L413
 8641              	.L412:
3102:../firmware/gd32f3x0_hal_peripheral/Source/gd32f3x0_hal_i2c.c ****         }
 8642              		.loc 1 3102 13
 8643 00e4 7B69     		ldr	r3, [r7, #20]
 8644 00e6 1B68     		ldr	r3, [r3]
 8645 00e8 0021     		movs	r1, #0
 8646 00ea 1846     		mov	r0, r3
 8647 00ec FFF7FEFF 		bl	hals_i2c_ack_config
 8648              	.L413:
3104:../firmware/gd32f3x0_hal_peripheral/Source/gd32f3x0_hal_i2c.c ****             /* clear the ADDSEND bit */
 8649              		.loc 1 3104 14
 8650 00f0 7B69     		ldr	r3, [r7, #20]
 8651 00f2 1B68     		ldr	r3, [r3]
 8652 00f4 0833     		adds	r3, r3, #8
 8653 00f6 1B68     		ldr	r3, [r3]
3104:../firmware/gd32f3x0_hal_peripheral/Source/gd32f3x0_hal_i2c.c ****             /* clear the ADDSEND bit */
 8654              		.loc 1 3104 39
 8655 00f8 03F40043 		and	r3, r3, #32768
3104:../firmware/gd32f3x0_hal_peripheral/Source/gd32f3x0_hal_i2c.c ****             /* clear the ADDSEND bit */
 8656              		.loc 1 3104 11
 8657 00fc 002B     		cmp	r3, #0
 8658 00fe 06D1     		bne	.L414
3106:../firmware/gd32f3x0_hal_peripheral/Source/gd32f3x0_hal_i2c.c ****         } else {
 8659              		.loc 1 3106 13
 8660 0100 7B69     		ldr	r3, [r7, #20]
 8661 0102 1B68     		ldr	r3, [r3]
 8662 0104 5349     		ldr	r1, .L422+8
 8663 0106 1846     		mov	r0, r3
 8664 0108 FFF7FEFF 		bl	hals_i2c_interrupt_flag_clear
 8665              		.loc 1 3153 1
 8666 010c 9AE0     		b	.L421
 8667              	.L414:
3108:../firmware/gd32f3x0_hal_peripheral/Source/gd32f3x0_hal_i2c.c ****                 /* clear the ADDSEND bit */
 8668              		.loc 1 3108 41
 8669 010e 7B69     		ldr	r3, [r7, #20]
 8670 0110 93F83530 		ldrb	r3, [r3, #53]	@ zero_extendqisi2
3108:../firmware/gd32f3x0_hal_peripheral/Source/gd32f3x0_hal_i2c.c ****                 /* clear the ADDSEND bit */
 8671              		.loc 1 3108 15
 8672 0114 002B     		cmp	r3, #0
 8673 0116 12D1     		bne	.L415
3110:../firmware/gd32f3x0_hal_peripheral/Source/gd32f3x0_hal_i2c.c ****                 p_i2c->slave_address.address_count = 1;
 8674              		.loc 1 3110 17
 8675 0118 7B69     		ldr	r3, [r7, #20]
 8676 011a 1B68     		ldr	r3, [r3]
 8677 011c 4D49     		ldr	r1, .L422+8
 8678 011e 1846     		mov	r0, r3
 8679 0120 FFF7FEFF 		bl	hals_i2c_interrupt_flag_clear
3111:../firmware/gd32f3x0_hal_peripheral/Source/gd32f3x0_hal_i2c.c ****                 /* send a start condition to I2C bus */
 8680              		.loc 1 3111 52
 8681 0124 7B69     		ldr	r3, [r7, #20]
 8682 0126 0122     		movs	r2, #1
 8683 0128 83F83520 		strb	r2, [r3, #53]
3113:../firmware/gd32f3x0_hal_peripheral/Source/gd32f3x0_hal_i2c.c ****             } else {
 8684              		.loc 1 3113 17
 8685 012c 7B69     		ldr	r3, [r7, #20]
 8686 012e 1B68     		ldr	r3, [r3]
 8687 0130 1B68     		ldr	r3, [r3]
 8688 0132 7A69     		ldr	r2, [r7, #20]
 8689 0134 1268     		ldr	r2, [r2]
 8690 0136 43F48073 		orr	r3, r3, #256
 8691 013a 1360     		str	r3, [r2]
 8692              		.loc 1 3153 1
 8693 013c 82E0     		b	.L421
 8694              	.L415:
3116:../firmware/gd32f3x0_hal_peripheral/Source/gd32f3x0_hal_i2c.c ****             }
 8695              		.loc 1 3116 17
 8696 013e 7B69     		ldr	r3, [r7, #20]
 8697 0140 1B68     		ldr	r3, [r3]
 8698 0142 4449     		ldr	r1, .L422+8
 8699 0144 1846     		mov	r0, r3
 8700 0146 FFF7FEFF 		bl	hals_i2c_interrupt_flag_clear
 8701              		.loc 1 3153 1
 8702 014a 7BE0     		b	.L421
 8703              	.L411:
3119:../firmware/gd32f3x0_hal_peripheral/Source/gd32f3x0_hal_i2c.c ****         if(data_length > p_i2c->rxbuffer.pos) {
 8704              		.loc 1 3119 15
 8705 014c 7B69     		ldr	r3, [r7, #20]
 8706 014e 1B68     		ldr	r3, [r3]
 8707 0150 4149     		ldr	r1, .L422+12
 8708 0152 1846     		mov	r0, r3
 8709 0154 FFF7FEFF 		bl	hals_i2c_interrupt_flag_get
 8710 0158 0346     		mov	r3, r0
3119:../firmware/gd32f3x0_hal_peripheral/Source/gd32f3x0_hal_i2c.c ****         if(data_length > p_i2c->rxbuffer.pos) {
 8711              		.loc 1 3119 14
 8712 015a 002B     		cmp	r3, #0
 8713 015c 72D0     		beq	.L421
3120:../firmware/gd32f3x0_hal_peripheral/Source/gd32f3x0_hal_i2c.c ****             if(3 == data_length - p_i2c->rxbuffer.pos) {
 8714              		.loc 1 3120 41
 8715 015e 7B69     		ldr	r3, [r7, #20]
 8716 0160 9B6A     		ldr	r3, [r3, #40]
3120:../firmware/gd32f3x0_hal_peripheral/Source/gd32f3x0_hal_i2c.c ****             if(3 == data_length - p_i2c->rxbuffer.pos) {
 8717              		.loc 1 3120 11
 8718 0162 FA68     		ldr	r2, [r7, #12]
 8719 0164 9A42     		cmp	r2, r3
 8720 0166 6DD9     		bls	.L421
3121:../firmware/gd32f3x0_hal_peripheral/Source/gd32f3x0_hal_i2c.c ****                 /* wait until the second last data byte is received into the shift register */
 8721              		.loc 1 3121 50
 8722 0168 7B69     		ldr	r3, [r7, #20]
 8723 016a 9B6A     		ldr	r3, [r3, #40]
3121:../firmware/gd32f3x0_hal_peripheral/Source/gd32f3x0_hal_i2c.c ****                 /* wait until the second last data byte is received into the shift register */
 8724              		.loc 1 3121 33
 8725 016c FA68     		ldr	r2, [r7, #12]
 8726 016e D31A     		subs	r3, r2, r3
3121:../firmware/gd32f3x0_hal_peripheral/Source/gd32f3x0_hal_i2c.c ****                 /* wait until the second last data byte is received into the shift register */
 8727              		.loc 1 3121 15
 8728 0170 032B     		cmp	r3, #3
 8729 0172 0FD1     		bne	.L416
3123:../firmware/gd32f3x0_hal_peripheral/Source/gd32f3x0_hal_i2c.c ****                 /* send a NACK for the last data byte */
 8730              		.loc 1 3123 22
 8731 0174 00BF     		nop
 8732              	.L417:
3123:../firmware/gd32f3x0_hal_peripheral/Source/gd32f3x0_hal_i2c.c ****                 /* send a NACK for the last data byte */
 8733              		.loc 1 3123 24 discriminator 1
 8734 0176 7B69     		ldr	r3, [r7, #20]
 8735 0178 1B68     		ldr	r3, [r3]
 8736 017a 3849     		ldr	r1, .L422+16
 8737 017c 1846     		mov	r0, r3
 8738 017e FFF7FEFF 		bl	hals_i2c_interrupt_flag_get
 8739 0182 0346     		mov	r3, r0
3123:../firmware/gd32f3x0_hal_peripheral/Source/gd32f3x0_hal_i2c.c ****                 /* send a NACK for the last data byte */
 8740              		.loc 1 3123 22 discriminator 1
 8741 0184 002B     		cmp	r3, #0
 8742 0186 F6D0     		beq	.L417
3125:../firmware/gd32f3x0_hal_peripheral/Source/gd32f3x0_hal_i2c.c ****             }
 8743              		.loc 1 3125 17
 8744 0188 7B69     		ldr	r3, [r7, #20]
 8745 018a 1B68     		ldr	r3, [r3]
 8746 018c 0021     		movs	r1, #0
 8747 018e 1846     		mov	r0, r3
 8748 0190 FFF7FEFF 		bl	hals_i2c_ack_config
 8749              	.L416:
3128:../firmware/gd32f3x0_hal_peripheral/Source/gd32f3x0_hal_i2c.c ****             p_i2c->rxbuffer.pos++;
 8750              		.loc 1 3128 41
 8751 0194 7B69     		ldr	r3, [r7, #20]
 8752 0196 1968     		ldr	r1, [r3]
3128:../firmware/gd32f3x0_hal_peripheral/Source/gd32f3x0_hal_i2c.c ****             p_i2c->rxbuffer.pos++;
 8753              		.loc 1 3128 29
 8754 0198 7B69     		ldr	r3, [r7, #20]
 8755 019a 1C6A     		ldr	r4, [r3, #32]
3128:../firmware/gd32f3x0_hal_peripheral/Source/gd32f3x0_hal_i2c.c ****             p_i2c->rxbuffer.pos++;
 8756              		.loc 1 3128 36
 8757 019c 621C     		adds	r2, r4, #1
 8758 019e 7B69     		ldr	r3, [r7, #20]
 8759 01a0 1A62     		str	r2, [r3, #32]
3128:../firmware/gd32f3x0_hal_peripheral/Source/gd32f3x0_hal_i2c.c ****             p_i2c->rxbuffer.pos++;
 8760              		.loc 1 3128 41
 8761 01a2 0846     		mov	r0, r1
 8762 01a4 FFF7FEFF 		bl	hals_i2c_data_receive
 8763 01a8 0346     		mov	r3, r0
3128:../firmware/gd32f3x0_hal_peripheral/Source/gd32f3x0_hal_i2c.c ****             p_i2c->rxbuffer.pos++;
 8764              		.loc 1 3128 39
 8765 01aa 2370     		strb	r3, [r4]
3129:../firmware/gd32f3x0_hal_peripheral/Source/gd32f3x0_hal_i2c.c ****             if(0 == data_length - p_i2c->rxbuffer.pos) {
 8766              		.loc 1 3129 28
 8767 01ac 7B69     		ldr	r3, [r7, #20]
 8768 01ae 9B6A     		ldr	r3, [r3, #40]
3129:../firmware/gd32f3x0_hal_peripheral/Source/gd32f3x0_hal_i2c.c ****             if(0 == data_length - p_i2c->rxbuffer.pos) {
 8769              		.loc 1 3129 32
 8770 01b0 5A1C     		adds	r2, r3, #1
 8771 01b2 7B69     		ldr	r3, [r7, #20]
 8772 01b4 9A62     		str	r2, [r3, #40]
3130:../firmware/gd32f3x0_hal_peripheral/Source/gd32f3x0_hal_i2c.c ****                 if((I2C_NO_OPTION_TRANSFER != p_i2c->transfer_option) && \
 8773              		.loc 1 3130 50
 8774 01b6 7B69     		ldr	r3, [r7, #20]
 8775 01b8 9B6A     		ldr	r3, [r3, #40]
3130:../firmware/gd32f3x0_hal_peripheral/Source/gd32f3x0_hal_i2c.c ****                 if((I2C_NO_OPTION_TRANSFER != p_i2c->transfer_option) && \
 8776              		.loc 1 3130 15
 8777 01ba FA68     		ldr	r2, [r7, #12]
 8778 01bc 9A42     		cmp	r2, r3
 8779 01be 41D1     		bne	.L421
3131:../firmware/gd32f3x0_hal_peripheral/Source/gd32f3x0_hal_i2c.c ****                         (I2C_LAST_TRANSFER != p_i2c->transfer_option)) {
 8780              		.loc 1 3131 52
 8781 01c0 7B69     		ldr	r3, [r7, #20]
 8782 01c2 1B8F     		ldrh	r3, [r3, #56]	@ movhi
 8783 01c4 9BB2     		uxth	r3, r3
3131:../firmware/gd32f3x0_hal_peripheral/Source/gd32f3x0_hal_i2c.c ****                         (I2C_LAST_TRANSFER != p_i2c->transfer_option)) {
 8784              		.loc 1 3131 19
 8785 01c6 012B     		cmp	r3, #1
 8786 01c8 08D0     		beq	.L418
3132:../firmware/gd32f3x0_hal_peripheral/Source/gd32f3x0_hal_i2c.c ****                     p_i2c->previous_state = HAL_I2C_PREVIOUS_STATE_TX;
 8787              		.loc 1 3132 52 discriminator 1
 8788 01ca 7B69     		ldr	r3, [r7, #20]
 8789 01cc 1B8F     		ldrh	r3, [r3, #56]	@ movhi
 8790 01ce 9BB2     		uxth	r3, r3
3131:../firmware/gd32f3x0_hal_peripheral/Source/gd32f3x0_hal_i2c.c ****                         (I2C_LAST_TRANSFER != p_i2c->transfer_option)) {
 8791              		.loc 1 3131 71 discriminator 1
 8792 01d0 032B     		cmp	r3, #3
 8793 01d2 03D0     		beq	.L418
3133:../firmware/gd32f3x0_hal_peripheral/Source/gd32f3x0_hal_i2c.c ****                 } else {
 8794              		.loc 1 3133 43
 8795 01d4 7B69     		ldr	r3, [r7, #20]
 8796 01d6 0122     		movs	r2, #1
 8797 01d8 5A64     		str	r2, [r3, #68]
 8798 01da 07E0     		b	.L419
 8799              	.L418:
3136:../firmware/gd32f3x0_hal_peripheral/Source/gd32f3x0_hal_i2c.c ****                 }
 8800              		.loc 1 3136 21
 8801 01dc 7B69     		ldr	r3, [r7, #20]
 8802 01de 1B68     		ldr	r3, [r3]
 8803 01e0 1B68     		ldr	r3, [r3]
 8804 01e2 7A69     		ldr	r2, [r7, #20]
 8805 01e4 1268     		ldr	r2, [r2]
 8806 01e6 43F40073 		orr	r3, r3, #512
 8807 01ea 1360     		str	r3, [r2]
 8808              	.L419:
3139:../firmware/gd32f3x0_hal_peripheral/Source/gd32f3x0_hal_i2c.c ****                 hals_i2c_ackpos_config(p_i2c->periph, I2C_ACKPOS_CURRENT);
 8809              		.loc 1 3139 17
 8810 01ec 7B69     		ldr	r3, [r7, #20]
 8811 01ee 1B68     		ldr	r3, [r3]
 8812 01f0 4FF48061 		mov	r1, #1024
 8813 01f4 1846     		mov	r0, r3
 8814 01f6 FFF7FEFF 		bl	hals_i2c_ack_config
3140:../firmware/gd32f3x0_hal_peripheral/Source/gd32f3x0_hal_i2c.c ****                 /* disable the I2C interrupt */
 8815              		.loc 1 3140 17
 8816 01fa 7B69     		ldr	r3, [r7, #20]
 8817 01fc 1B68     		ldr	r3, [r3]
 8818 01fe 0021     		movs	r1, #0
 8819 0200 1846     		mov	r0, r3
 8820 0202 FFF7FEFF 		bl	hals_i2c_ackpos_config
3142:../firmware/gd32f3x0_hal_peripheral/Source/gd32f3x0_hal_i2c.c ****                 hals_i2c_interrupt_disable(p_i2c->periph, I2C_INT_EV);
 8821              		.loc 1 3142 17
 8822 0206 7B69     		ldr	r3, [r7, #20]
 8823 0208 1B68     		ldr	r3, [r3]
 8824 020a 4FF48571 		mov	r1, #266
 8825 020e 1846     		mov	r0, r3
 8826 0210 FFF7FEFF 		bl	hals_i2c_interrupt_disable
3143:../firmware/gd32f3x0_hal_peripheral/Source/gd32f3x0_hal_i2c.c ****                 hals_i2c_interrupt_disable(p_i2c->periph, I2C_INT_ERR);
 8827              		.loc 1 3143 17
 8828 0214 7B69     		ldr	r3, [r7, #20]
 8829 0216 1B68     		ldr	r3, [r3]
 8830 0218 40F20911 		movw	r1, #265
 8831 021c 1846     		mov	r0, r3
 8832 021e FFF7FEFF 		bl	hals_i2c_interrupt_disable
3144:../firmware/gd32f3x0_hal_peripheral/Source/gd32f3x0_hal_i2c.c **** 
 8833              		.loc 1 3144 17
 8834 0222 7B69     		ldr	r3, [r7, #20]
 8835 0224 1B68     		ldr	r3, [r3]
 8836 0226 4FF48471 		mov	r1, #264
 8837 022a 1846     		mov	r0, r3
 8838 022c FFF7FEFF 		bl	hals_i2c_interrupt_disable
3146:../firmware/gd32f3x0_hal_peripheral/Source/gd32f3x0_hal_i2c.c ****                     p_func(p_i2c);
 8839              		.loc 1 3146 19
 8840 0230 3B69     		ldr	r3, [r7, #16]
 8841 0232 002B     		cmp	r3, #0
 8842 0234 02D0     		beq	.L420
3147:../firmware/gd32f3x0_hal_peripheral/Source/gd32f3x0_hal_i2c.c ****                 }
 8843              		.loc 1 3147 21
 8844 0236 3B69     		ldr	r3, [r7, #16]
 8845 0238 7869     		ldr	r0, [r7, #20]
 8846 023a 9847     		blx	r3
 8847              	.LVL5:
 8848              	.L420:
3149:../firmware/gd32f3x0_hal_peripheral/Source/gd32f3x0_hal_i2c.c ****             }
 8849              		.loc 1 3149 33
 8850 023c 7B69     		ldr	r3, [r7, #20]
 8851 023e 0022     		movs	r2, #0
 8852 0240 83F84120 		strb	r2, [r3, #65]
 8853              	.L421:
 8854              		.loc 1 3153 1
 8855 0244 00BF     		nop
 8856 0246 1C37     		adds	r7, r7, #28
 8857              		.cfi_def_cfa_offset 12
 8858 0248 BD46     		mov	sp, r7
 8859              		.cfi_def_cfa_register 13
 8860              		@ sp needed
 8861 024a 90BD     		pop	{r4, r7, pc}
 8862              	.L423:
 8863              		.align	2
 8864              	.L422:
 8865 024c 09010005 		.word	83886345
 8866 0250 09010305 		.word	84082953
 8867 0254 09010105 		.word	83951881
 8868 0258 09010605 		.word	84279561
 8869 025c 09010205 		.word	84017417
 8870              		.cfi_endproc
 8871              	.LFE178:
 8873              		.section	.text._i2c_receive_dma,"ax",%progbits
 8874              		.align	1
 8875              		.syntax unified
 8876              		.thumb
 8877              		.thumb_func
 8878              		.fpu softvfp
 8880              	_i2c_receive_dma:
 8881              	.LFB179:
3154:../firmware/gd32f3x0_hal_peripheral/Source/gd32f3x0_hal_i2c.c **** 
3155:../firmware/gd32f3x0_hal_peripheral/Source/gd32f3x0_hal_i2c.c **** /*!
3156:../firmware/gd32f3x0_hal_peripheral/Source/gd32f3x0_hal_i2c.c ****     \brief      DMA full finish handler in I2C master receive mode
3157:../firmware/gd32f3x0_hal_peripheral/Source/gd32f3x0_hal_i2c.c ****     \param[in]  dma: DMA device information structrue
3158:../firmware/gd32f3x0_hal_peripheral/Source/gd32f3x0_hal_i2c.c ****                   the structure is not necessary to be reconfigured after structrue initialization,
3159:../firmware/gd32f3x0_hal_peripheral/Source/gd32f3x0_hal_i2c.c ****                   the structure parameters altering is automatically configured by core
3160:../firmware/gd32f3x0_hal_peripheral/Source/gd32f3x0_hal_i2c.c ****     \param[in]  timeout_ms: timeout duration
3161:../firmware/gd32f3x0_hal_peripheral/Source/gd32f3x0_hal_i2c.c ****     \param[out] none
3162:../firmware/gd32f3x0_hal_peripheral/Source/gd32f3x0_hal_i2c.c ****     \retval     none
3163:../firmware/gd32f3x0_hal_peripheral/Source/gd32f3x0_hal_i2c.c **** */
3164:../firmware/gd32f3x0_hal_peripheral/Source/gd32f3x0_hal_i2c.c **** static void _i2c_receive_dma(void *dma)
3165:../firmware/gd32f3x0_hal_peripheral/Source/gd32f3x0_hal_i2c.c **** {
 8882              		.loc 1 3165 1
 8883              		.cfi_startproc
 8884              		@ args = 0, pretend = 0, frame = 24
 8885              		@ frame_needed = 1, uses_anonymous_args = 0
 8886 0000 80B5     		push	{r7, lr}
 8887              		.cfi_def_cfa_offset 8
 8888              		.cfi_offset 7, -8
 8889              		.cfi_offset 14, -4
 8890 0002 86B0     		sub	sp, sp, #24
 8891              		.cfi_def_cfa_offset 32
 8892 0004 00AF     		add	r7, sp, #0
 8893              		.cfi_def_cfa_register 7
 8894 0006 7860     		str	r0, [r7, #4]
3166:../firmware/gd32f3x0_hal_peripheral/Source/gd32f3x0_hal_i2c.c ****     hal_dma_dev_struct *p_dma;
3167:../firmware/gd32f3x0_hal_peripheral/Source/gd32f3x0_hal_i2c.c ****     hal_i2c_dev_struct *p_i2c;
3168:../firmware/gd32f3x0_hal_peripheral/Source/gd32f3x0_hal_i2c.c ****     hal_i2c_user_cb p_func;
3169:../firmware/gd32f3x0_hal_peripheral/Source/gd32f3x0_hal_i2c.c **** 
3170:../firmware/gd32f3x0_hal_peripheral/Source/gd32f3x0_hal_i2c.c ****     p_dma = (hal_dma_dev_struct *)dma;
 8895              		.loc 1 3170 11
 8896 0008 7B68     		ldr	r3, [r7, #4]
 8897 000a 7B61     		str	r3, [r7, #20]
3171:../firmware/gd32f3x0_hal_peripheral/Source/gd32f3x0_hal_i2c.c ****     p_i2c = (hal_i2c_dev_struct *)p_dma->p_periph;
 8898              		.loc 1 3171 11
 8899 000c 7B69     		ldr	r3, [r7, #20]
 8900 000e 5B69     		ldr	r3, [r3, #20]
 8901 0010 3B61     		str	r3, [r7, #16]
3172:../firmware/gd32f3x0_hal_peripheral/Source/gd32f3x0_hal_i2c.c ****     p_func = (hal_i2c_user_cb)p_i2c->rx_callback;
 8902              		.loc 1 3172 36
 8903 0012 3B69     		ldr	r3, [r7, #16]
 8904 0014 9B6C     		ldr	r3, [r3, #72]
 8905              		.loc 1 3172 12
 8906 0016 FB60     		str	r3, [r7, #12]
3173:../firmware/gd32f3x0_hal_peripheral/Source/gd32f3x0_hal_i2c.c ****     /* DMA normal mode */
3174:../firmware/gd32f3x0_hal_peripheral/Source/gd32f3x0_hal_i2c.c ****     if(RESET == (DMA_CHCTL(p_dma->channel) & DMA_CHXCTL_CMEN)) {
 8907              		.loc 1 3174 18
 8908 0018 7B69     		ldr	r3, [r7, #20]
 8909 001a 1B78     		ldrb	r3, [r3]	@ zero_extendqisi2
 8910 001c 1A46     		mov	r2, r3
 8911 001e 1346     		mov	r3, r2
 8912 0020 9B00     		lsls	r3, r3, #2
 8913 0022 1344     		add	r3, r3, r2
 8914 0024 9B00     		lsls	r3, r3, #2
 8915 0026 1A46     		mov	r2, r3
 8916 0028 264B     		ldr	r3, .L433
 8917 002a 1344     		add	r3, r3, r2
 8918 002c 1B68     		ldr	r3, [r3]
 8919              		.loc 1 3174 44
 8920 002e 03F02003 		and	r3, r3, #32
 8921              		.loc 1 3174 7
 8922 0032 002B     		cmp	r3, #0
 8923 0034 0DD1     		bne	.L425
3175:../firmware/gd32f3x0_hal_peripheral/Source/gd32f3x0_hal_i2c.c ****         p_i2c->rxbuffer.pos = p_i2c->rxbuffer.length;
 8924              		.loc 1 3175 46
 8925 0036 3B69     		ldr	r3, [r7, #16]
 8926 0038 5A6A     		ldr	r2, [r3, #36]
 8927              		.loc 1 3175 29
 8928 003a 3B69     		ldr	r3, [r7, #16]
 8929 003c 9A62     		str	r2, [r3, #40]
3176:../firmware/gd32f3x0_hal_peripheral/Source/gd32f3x0_hal_i2c.c ****         hals_i2c_dma_config(p_i2c->periph, I2C_DMA_OFF);
 8930              		.loc 1 3176 9
 8931 003e 3B69     		ldr	r3, [r7, #16]
 8932 0040 1B68     		ldr	r3, [r3]
 8933 0042 0021     		movs	r1, #0
 8934 0044 1846     		mov	r0, r3
 8935 0046 FFF7FEFF 		bl	hals_i2c_dma_config
3177:../firmware/gd32f3x0_hal_peripheral/Source/gd32f3x0_hal_i2c.c ****         p_i2c->rx_state = HAL_I2C_STATE_READY;
 8936              		.loc 1 3177 25
 8937 004a 3B69     		ldr	r3, [r7, #16]
 8938 004c 0022     		movs	r2, #0
 8939 004e 83F84120 		strb	r2, [r3, #65]
 8940              	.L425:
3178:../firmware/gd32f3x0_hal_peripheral/Source/gd32f3x0_hal_i2c.c ****     }
3179:../firmware/gd32f3x0_hal_peripheral/Source/gd32f3x0_hal_i2c.c ****     if(RESET != hals_i2c_flag_get(p_i2c->periph, I2C_FLAG_MASTER)) {
 8941              		.loc 1 3179 17
 8942 0052 3B69     		ldr	r3, [r7, #16]
 8943 0054 1B68     		ldr	r3, [r3]
 8944 0056 4FF4C061 		mov	r1, #1536
 8945 005a 1846     		mov	r0, r3
 8946 005c FFF7FEFF 		bl	hals_i2c_flag_get
 8947 0060 0346     		mov	r3, r0
 8948              		.loc 1 3179 7
 8949 0062 002B     		cmp	r3, #0
 8950 0064 10D0     		beq	.L432
3180:../firmware/gd32f3x0_hal_peripheral/Source/gd32f3x0_hal_i2c.c ****         HAL_I2C_STOP_ON_BUS(p_i2c->periph);
 8951              		.loc 1 3180 9
 8952 0066 3B69     		ldr	r3, [r7, #16]
 8953 0068 1B68     		ldr	r3, [r3]
 8954 006a 1B68     		ldr	r3, [r3]
 8955 006c 3A69     		ldr	r2, [r7, #16]
 8956 006e 1268     		ldr	r2, [r2]
 8957 0070 43F40073 		orr	r3, r3, #512
 8958 0074 1360     		str	r3, [r2]
3181:../firmware/gd32f3x0_hal_peripheral/Source/gd32f3x0_hal_i2c.c ****         while(I2C_CTL0(p_i2c->periph) & 0x0200);
 8959              		.loc 1 3181 14
 8960 0076 00BF     		nop
 8961              	.L427:
 8962              		.loc 1 3181 15 discriminator 1
 8963 0078 3B69     		ldr	r3, [r7, #16]
 8964 007a 1B68     		ldr	r3, [r3]
 8965 007c 1B68     		ldr	r3, [r3]
 8966              		.loc 1 3181 39 discriminator 1
 8967 007e 03F40073 		and	r3, r3, #512
 8968              		.loc 1 3181 14 discriminator 1
 8969 0082 002B     		cmp	r3, #0
 8970 0084 F8D1     		bne	.L427
 8971 0086 12E0     		b	.L428
 8972              	.L432:
3182:../firmware/gd32f3x0_hal_peripheral/Source/gd32f3x0_hal_i2c.c ****     } else {
3183:../firmware/gd32f3x0_hal_peripheral/Source/gd32f3x0_hal_i2c.c ****         while(!hals_i2c_flag_get(p_i2c->periph, I2C_FLAG_STPDET));
 8973              		.loc 1 3183 14
 8974 0088 00BF     		nop
 8975              	.L429:
 8976              		.loc 1 3183 16 discriminator 1
 8977 008a 3B69     		ldr	r3, [r7, #16]
 8978 008c 1B68     		ldr	r3, [r3]
 8979 008e 40F20451 		movw	r1, #1284
 8980 0092 1846     		mov	r0, r3
 8981 0094 FFF7FEFF 		bl	hals_i2c_flag_get
 8982 0098 0346     		mov	r3, r0
 8983              		.loc 1 3183 14 discriminator 1
 8984 009a 002B     		cmp	r3, #0
 8985 009c F5D0     		beq	.L429
3184:../firmware/gd32f3x0_hal_peripheral/Source/gd32f3x0_hal_i2c.c ****         /* clear the STPDET bit */
3185:../firmware/gd32f3x0_hal_peripheral/Source/gd32f3x0_hal_i2c.c ****         HAL_I2C_ENABLE(p_i2c->periph);
 8986              		.loc 1 3185 9
 8987 009e 3B69     		ldr	r3, [r7, #16]
 8988 00a0 1B68     		ldr	r3, [r3]
 8989 00a2 1B68     		ldr	r3, [r3]
 8990 00a4 3A69     		ldr	r2, [r7, #16]
 8991 00a6 1268     		ldr	r2, [r2]
 8992 00a8 43F00103 		orr	r3, r3, #1
 8993 00ac 1360     		str	r3, [r2]
 8994              	.L428:
3186:../firmware/gd32f3x0_hal_peripheral/Source/gd32f3x0_hal_i2c.c ****     }
3187:../firmware/gd32f3x0_hal_peripheral/Source/gd32f3x0_hal_i2c.c ****     if(NULL != p_func) {
 8995              		.loc 1 3187 7
 8996 00ae FB68     		ldr	r3, [r7, #12]
 8997 00b0 002B     		cmp	r3, #0
 8998 00b2 02D0     		beq	.L431
3188:../firmware/gd32f3x0_hal_peripheral/Source/gd32f3x0_hal_i2c.c ****         p_func(p_i2c);
 8999              		.loc 1 3188 9
 9000 00b4 FB68     		ldr	r3, [r7, #12]
 9001 00b6 3869     		ldr	r0, [r7, #16]
 9002 00b8 9847     		blx	r3
 9003              	.LVL6:
 9004              	.L431:
3189:../firmware/gd32f3x0_hal_peripheral/Source/gd32f3x0_hal_i2c.c ****     }
3190:../firmware/gd32f3x0_hal_peripheral/Source/gd32f3x0_hal_i2c.c **** }
 9005              		.loc 1 3190 1
 9006 00ba 00BF     		nop
 9007 00bc 1837     		adds	r7, r7, #24
 9008              		.cfi_def_cfa_offset 8
 9009 00be BD46     		mov	sp, r7
 9010              		.cfi_def_cfa_register 13
 9011              		@ sp needed
 9012 00c0 80BD     		pop	{r7, pc}
 9013              	.L434:
 9014 00c2 00BF     		.align	2
 9015              	.L433:
 9016 00c4 08000240 		.word	1073872904
 9017              		.cfi_endproc
 9018              	.LFE179:
 9020              		.section	.text._i2c_slave_transmit_interrupt,"ax",%progbits
 9021              		.align	1
 9022              		.syntax unified
 9023              		.thumb
 9024              		.thumb_func
 9025              		.fpu softvfp
 9027              	_i2c_slave_transmit_interrupt:
 9028              	.LFB180:
3191:../firmware/gd32f3x0_hal_peripheral/Source/gd32f3x0_hal_i2c.c **** 
3192:../firmware/gd32f3x0_hal_peripheral/Source/gd32f3x0_hal_i2c.c **** /*!
3193:../firmware/gd32f3x0_hal_peripheral/Source/gd32f3x0_hal_i2c.c ****     \brief      event handler in I2C slave transmit mode
3194:../firmware/gd32f3x0_hal_peripheral/Source/gd32f3x0_hal_i2c.c ****     \param[in]  i2c: I2C device information structrue
3195:../firmware/gd32f3x0_hal_peripheral/Source/gd32f3x0_hal_i2c.c ****                   the structure is not necessary to be reconfigured after structrue initialization,
3196:../firmware/gd32f3x0_hal_peripheral/Source/gd32f3x0_hal_i2c.c ****                   the structure parameters altering is automatically configured by core
3197:../firmware/gd32f3x0_hal_peripheral/Source/gd32f3x0_hal_i2c.c ****     \param[out] none
3198:../firmware/gd32f3x0_hal_peripheral/Source/gd32f3x0_hal_i2c.c ****     \retval     none
3199:../firmware/gd32f3x0_hal_peripheral/Source/gd32f3x0_hal_i2c.c **** */
3200:../firmware/gd32f3x0_hal_peripheral/Source/gd32f3x0_hal_i2c.c **** static void _i2c_slave_transmit_interrupt(void *i2c)
3201:../firmware/gd32f3x0_hal_peripheral/Source/gd32f3x0_hal_i2c.c **** {
 9029              		.loc 1 3201 1
 9030              		.cfi_startproc
 9031              		@ args = 0, pretend = 0, frame = 24
 9032              		@ frame_needed = 1, uses_anonymous_args = 0
 9033 0000 80B5     		push	{r7, lr}
 9034              		.cfi_def_cfa_offset 8
 9035              		.cfi_offset 7, -8
 9036              		.cfi_offset 14, -4
 9037 0002 86B0     		sub	sp, sp, #24
 9038              		.cfi_def_cfa_offset 32
 9039 0004 00AF     		add	r7, sp, #0
 9040              		.cfi_def_cfa_register 7
 9041 0006 7860     		str	r0, [r7, #4]
3202:../firmware/gd32f3x0_hal_peripheral/Source/gd32f3x0_hal_i2c.c ****     hal_i2c_dev_struct *p_i2c = i2c;
 9042              		.loc 1 3202 25
 9043 0008 7B68     		ldr	r3, [r7, #4]
 9044 000a 7B61     		str	r3, [r7, #20]
3203:../firmware/gd32f3x0_hal_peripheral/Source/gd32f3x0_hal_i2c.c ****     hal_i2c_user_cb p_func = (hal_i2c_user_cb)p_i2c->tx_callback;
 9045              		.loc 1 3203 52
 9046 000c 7B69     		ldr	r3, [r7, #20]
 9047 000e DB6C     		ldr	r3, [r3, #76]
 9048              		.loc 1 3203 21
 9049 0010 3B61     		str	r3, [r7, #16]
3204:../firmware/gd32f3x0_hal_peripheral/Source/gd32f3x0_hal_i2c.c **** 
3205:../firmware/gd32f3x0_hal_peripheral/Source/gd32f3x0_hal_i2c.c ****     uint32_t data_length;
3206:../firmware/gd32f3x0_hal_peripheral/Source/gd32f3x0_hal_i2c.c **** 
3207:../firmware/gd32f3x0_hal_peripheral/Source/gd32f3x0_hal_i2c.c ****     data_length = p_i2c->txbuffer.length;
 9050              		.loc 1 3207 17
 9051 0012 7B69     		ldr	r3, [r7, #20]
 9052 0014 9B69     		ldr	r3, [r3, #24]
 9053 0016 FB60     		str	r3, [r7, #12]
3208:../firmware/gd32f3x0_hal_peripheral/Source/gd32f3x0_hal_i2c.c **** 
3209:../firmware/gd32f3x0_hal_peripheral/Source/gd32f3x0_hal_i2c.c ****     if(hals_i2c_interrupt_flag_get(p_i2c->periph, I2C_INT_FLAG_ADDSEND)) {
 9054              		.loc 1 3209 8
 9055 0018 7B69     		ldr	r3, [r7, #20]
 9056 001a 1B68     		ldr	r3, [r3]
 9057 001c 2F49     		ldr	r1, .L440
 9058 001e 1846     		mov	r0, r3
 9059 0020 FFF7FEFF 		bl	hals_i2c_interrupt_flag_get
 9060 0024 0346     		mov	r3, r0
 9061              		.loc 1 3209 7
 9062 0026 002B     		cmp	r3, #0
 9063 0028 06D0     		beq	.L436
3210:../firmware/gd32f3x0_hal_peripheral/Source/gd32f3x0_hal_i2c.c ****         /* clear the ADDSEND bit */
3211:../firmware/gd32f3x0_hal_peripheral/Source/gd32f3x0_hal_i2c.c ****         hals_i2c_interrupt_flag_clear(p_i2c->periph, I2C_INT_FLAG_ADDSEND);
 9064              		.loc 1 3211 9
 9065 002a 7B69     		ldr	r3, [r7, #20]
 9066 002c 1B68     		ldr	r3, [r3]
 9067 002e 2B49     		ldr	r1, .L440
 9068 0030 1846     		mov	r0, r3
 9069 0032 FFF7FEFF 		bl	hals_i2c_interrupt_flag_clear
3212:../firmware/gd32f3x0_hal_peripheral/Source/gd32f3x0_hal_i2c.c ****     } else if((hals_i2c_interrupt_flag_get(p_i2c->periph, I2C_INT_FLAG_TBE)) && \
3213:../firmware/gd32f3x0_hal_peripheral/Source/gd32f3x0_hal_i2c.c ****               (!hals_i2c_interrupt_flag_get(p_i2c->periph, I2C_INT_FLAG_AERR))) {
3214:../firmware/gd32f3x0_hal_peripheral/Source/gd32f3x0_hal_i2c.c ****         /* send a data byte */
3215:../firmware/gd32f3x0_hal_peripheral/Source/gd32f3x0_hal_i2c.c ****         hals_i2c_data_transmit(p_i2c->periph, *p_i2c->txbuffer.buffer++);
3216:../firmware/gd32f3x0_hal_peripheral/Source/gd32f3x0_hal_i2c.c ****         p_i2c->txbuffer.pos++;
3217:../firmware/gd32f3x0_hal_peripheral/Source/gd32f3x0_hal_i2c.c ****         if(p_i2c->txbuffer.pos == data_length) {
3218:../firmware/gd32f3x0_hal_peripheral/Source/gd32f3x0_hal_i2c.c ****             if(NULL != p_func) {
3219:../firmware/gd32f3x0_hal_peripheral/Source/gd32f3x0_hal_i2c.c ****                 p_func(p_i2c);
3220:../firmware/gd32f3x0_hal_peripheral/Source/gd32f3x0_hal_i2c.c ****             }
3221:../firmware/gd32f3x0_hal_peripheral/Source/gd32f3x0_hal_i2c.c **** 
3222:../firmware/gd32f3x0_hal_peripheral/Source/gd32f3x0_hal_i2c.c ****             /* disable I2C interrupt */
3223:../firmware/gd32f3x0_hal_peripheral/Source/gd32f3x0_hal_i2c.c ****             hals_i2c_interrupt_disable(p_i2c->periph, I2C_INT_ERR);
3224:../firmware/gd32f3x0_hal_peripheral/Source/gd32f3x0_hal_i2c.c ****             hals_i2c_interrupt_disable(p_i2c->periph, I2C_INT_BUF);
3225:../firmware/gd32f3x0_hal_peripheral/Source/gd32f3x0_hal_i2c.c ****             hals_i2c_interrupt_disable(p_i2c->periph, I2C_INT_EV);
3226:../firmware/gd32f3x0_hal_peripheral/Source/gd32f3x0_hal_i2c.c **** 
3227:../firmware/gd32f3x0_hal_peripheral/Source/gd32f3x0_hal_i2c.c ****             if(HAL_I2C_STATE_BUSY_LISTEN == p_i2c->tx_state) {
3228:../firmware/gd32f3x0_hal_peripheral/Source/gd32f3x0_hal_i2c.c ****                 p_i2c->tx_state = HAL_I2C_STATE_LISTEN;
3229:../firmware/gd32f3x0_hal_peripheral/Source/gd32f3x0_hal_i2c.c ****             }
3230:../firmware/gd32f3x0_hal_peripheral/Source/gd32f3x0_hal_i2c.c ****         }
3231:../firmware/gd32f3x0_hal_peripheral/Source/gd32f3x0_hal_i2c.c ****     }
3232:../firmware/gd32f3x0_hal_peripheral/Source/gd32f3x0_hal_i2c.c **** }
 9070              		.loc 1 3232 1
 9071 0036 4CE0     		b	.L439
 9072              	.L436:
3212:../firmware/gd32f3x0_hal_peripheral/Source/gd32f3x0_hal_i2c.c ****     } else if((hals_i2c_interrupt_flag_get(p_i2c->periph, I2C_INT_FLAG_TBE)) && \
 9073              		.loc 1 3212 16
 9074 0038 7B69     		ldr	r3, [r7, #20]
 9075 003a 1B68     		ldr	r3, [r3]
 9076 003c 2849     		ldr	r1, .L440+4
 9077 003e 1846     		mov	r0, r3
 9078 0040 FFF7FEFF 		bl	hals_i2c_interrupt_flag_get
 9079 0044 0346     		mov	r3, r0
3212:../firmware/gd32f3x0_hal_peripheral/Source/gd32f3x0_hal_i2c.c ****     } else if((hals_i2c_interrupt_flag_get(p_i2c->periph, I2C_INT_FLAG_TBE)) && \
 9080              		.loc 1 3212 14
 9081 0046 002B     		cmp	r3, #0
 9082 0048 43D0     		beq	.L439
3213:../firmware/gd32f3x0_hal_peripheral/Source/gd32f3x0_hal_i2c.c ****         /* send a data byte */
 9083              		.loc 1 3213 17 discriminator 1
 9084 004a 7B69     		ldr	r3, [r7, #20]
 9085 004c 1B68     		ldr	r3, [r3]
 9086 004e 2549     		ldr	r1, .L440+8
 9087 0050 1846     		mov	r0, r3
 9088 0052 FFF7FEFF 		bl	hals_i2c_interrupt_flag_get
 9089 0056 0346     		mov	r3, r0
3212:../firmware/gd32f3x0_hal_peripheral/Source/gd32f3x0_hal_i2c.c ****     } else if((hals_i2c_interrupt_flag_get(p_i2c->periph, I2C_INT_FLAG_TBE)) && \
 9090              		.loc 1 3212 78 discriminator 1
 9091 0058 002B     		cmp	r3, #0
 9092 005a 3AD1     		bne	.L439
3215:../firmware/gd32f3x0_hal_peripheral/Source/gd32f3x0_hal_i2c.c ****         p_i2c->txbuffer.pos++;
 9093              		.loc 1 3215 9
 9094 005c 7B69     		ldr	r3, [r7, #20]
 9095 005e 1868     		ldr	r0, [r3]
3215:../firmware/gd32f3x0_hal_peripheral/Source/gd32f3x0_hal_i2c.c ****         p_i2c->txbuffer.pos++;
 9096              		.loc 1 3215 63
 9097 0060 7B69     		ldr	r3, [r7, #20]
 9098 0062 5B69     		ldr	r3, [r3, #20]
3215:../firmware/gd32f3x0_hal_peripheral/Source/gd32f3x0_hal_i2c.c ****         p_i2c->txbuffer.pos++;
 9099              		.loc 1 3215 70
 9100 0064 591C     		adds	r1, r3, #1
 9101 0066 7A69     		ldr	r2, [r7, #20]
 9102 0068 5161     		str	r1, [r2, #20]
3215:../firmware/gd32f3x0_hal_peripheral/Source/gd32f3x0_hal_i2c.c ****         p_i2c->txbuffer.pos++;
 9103              		.loc 1 3215 9
 9104 006a 1B78     		ldrb	r3, [r3]
 9105 006c DBB2     		uxtb	r3, r3
 9106 006e 1946     		mov	r1, r3
 9107 0070 FFF7FEFF 		bl	hals_i2c_data_transmit
3216:../firmware/gd32f3x0_hal_peripheral/Source/gd32f3x0_hal_i2c.c ****         if(p_i2c->txbuffer.pos == data_length) {
 9108              		.loc 1 3216 24
 9109 0074 7B69     		ldr	r3, [r7, #20]
 9110 0076 DB69     		ldr	r3, [r3, #28]
3216:../firmware/gd32f3x0_hal_peripheral/Source/gd32f3x0_hal_i2c.c ****         if(p_i2c->txbuffer.pos == data_length) {
 9111              		.loc 1 3216 28
 9112 0078 5A1C     		adds	r2, r3, #1
 9113 007a 7B69     		ldr	r3, [r7, #20]
 9114 007c DA61     		str	r2, [r3, #28]
3217:../firmware/gd32f3x0_hal_peripheral/Source/gd32f3x0_hal_i2c.c ****             if(NULL != p_func) {
 9115              		.loc 1 3217 27
 9116 007e 7B69     		ldr	r3, [r7, #20]
 9117 0080 DB69     		ldr	r3, [r3, #28]
3217:../firmware/gd32f3x0_hal_peripheral/Source/gd32f3x0_hal_i2c.c ****             if(NULL != p_func) {
 9118              		.loc 1 3217 11
 9119 0082 FA68     		ldr	r2, [r7, #12]
 9120 0084 9A42     		cmp	r2, r3
 9121 0086 24D1     		bne	.L439
3218:../firmware/gd32f3x0_hal_peripheral/Source/gd32f3x0_hal_i2c.c ****                 p_func(p_i2c);
 9122              		.loc 1 3218 15
 9123 0088 3B69     		ldr	r3, [r7, #16]
 9124 008a 002B     		cmp	r3, #0
 9125 008c 02D0     		beq	.L438
3219:../firmware/gd32f3x0_hal_peripheral/Source/gd32f3x0_hal_i2c.c ****             }
 9126              		.loc 1 3219 17
 9127 008e 3B69     		ldr	r3, [r7, #16]
 9128 0090 7869     		ldr	r0, [r7, #20]
 9129 0092 9847     		blx	r3
 9130              	.LVL7:
 9131              	.L438:
3223:../firmware/gd32f3x0_hal_peripheral/Source/gd32f3x0_hal_i2c.c ****             hals_i2c_interrupt_disable(p_i2c->periph, I2C_INT_BUF);
 9132              		.loc 1 3223 13
 9133 0094 7B69     		ldr	r3, [r7, #20]
 9134 0096 1B68     		ldr	r3, [r3]
 9135 0098 4FF48471 		mov	r1, #264
 9136 009c 1846     		mov	r0, r3
 9137 009e FFF7FEFF 		bl	hals_i2c_interrupt_disable
3224:../firmware/gd32f3x0_hal_peripheral/Source/gd32f3x0_hal_i2c.c ****             hals_i2c_interrupt_disable(p_i2c->periph, I2C_INT_EV);
 9138              		.loc 1 3224 13
 9139 00a2 7B69     		ldr	r3, [r7, #20]
 9140 00a4 1B68     		ldr	r3, [r3]
 9141 00a6 4FF48571 		mov	r1, #266
 9142 00aa 1846     		mov	r0, r3
 9143 00ac FFF7FEFF 		bl	hals_i2c_interrupt_disable
3225:../firmware/gd32f3x0_hal_peripheral/Source/gd32f3x0_hal_i2c.c **** 
 9144              		.loc 1 3225 13
 9145 00b0 7B69     		ldr	r3, [r7, #20]
 9146 00b2 1B68     		ldr	r3, [r3]
 9147 00b4 40F20911 		movw	r1, #265
 9148 00b8 1846     		mov	r0, r3
 9149 00ba FFF7FEFF 		bl	hals_i2c_interrupt_disable
3227:../firmware/gd32f3x0_hal_peripheral/Source/gd32f3x0_hal_i2c.c ****                 p_i2c->tx_state = HAL_I2C_STATE_LISTEN;
 9150              		.loc 1 3227 50
 9151 00be 7B69     		ldr	r3, [r7, #20]
 9152 00c0 93F84030 		ldrb	r3, [r3, #64]
 9153 00c4 DBB2     		uxtb	r3, r3
3227:../firmware/gd32f3x0_hal_peripheral/Source/gd32f3x0_hal_i2c.c ****                 p_i2c->tx_state = HAL_I2C_STATE_LISTEN;
 9154              		.loc 1 3227 15
 9155 00c6 052B     		cmp	r3, #5
 9156 00c8 03D1     		bne	.L439
3228:../firmware/gd32f3x0_hal_peripheral/Source/gd32f3x0_hal_i2c.c ****             }
 9157              		.loc 1 3228 33
 9158 00ca 7B69     		ldr	r3, [r7, #20]
 9159 00cc 0422     		movs	r2, #4
 9160 00ce 83F84020 		strb	r2, [r3, #64]
 9161              	.L439:
 9162              		.loc 1 3232 1
 9163 00d2 00BF     		nop
 9164 00d4 1837     		adds	r7, r7, #24
 9165              		.cfi_def_cfa_offset 8
 9166 00d6 BD46     		mov	sp, r7
 9167              		.cfi_def_cfa_register 13
 9168              		@ sp needed
 9169 00d8 80BD     		pop	{r7, pc}
 9170              	.L441:
 9171 00da 00BF     		.align	2
 9172              	.L440:
 9173 00dc 09010105 		.word	83951881
 9174 00e0 09010705 		.word	84345097
 9175 00e4 08010A05 		.word	84541704
 9176              		.cfi_endproc
 9177              	.LFE180:
 9179              		.section	.text._i2c_slave_receive_interrupt,"ax",%progbits
 9180              		.align	1
 9181              		.syntax unified
 9182              		.thumb
 9183              		.thumb_func
 9184              		.fpu softvfp
 9186              	_i2c_slave_receive_interrupt:
 9187              	.LFB181:
3233:../firmware/gd32f3x0_hal_peripheral/Source/gd32f3x0_hal_i2c.c **** 
3234:../firmware/gd32f3x0_hal_peripheral/Source/gd32f3x0_hal_i2c.c **** /*!
3235:../firmware/gd32f3x0_hal_peripheral/Source/gd32f3x0_hal_i2c.c ****     \brief      event handler in I2C slave receive mode
3236:../firmware/gd32f3x0_hal_peripheral/Source/gd32f3x0_hal_i2c.c ****     \param[in]  i2c: I2C device information structrue
3237:../firmware/gd32f3x0_hal_peripheral/Source/gd32f3x0_hal_i2c.c ****                   the structure is not necessary to be reconfigured after structrue initialization,
3238:../firmware/gd32f3x0_hal_peripheral/Source/gd32f3x0_hal_i2c.c ****                   the structure parameters altering is automatically configured by core
3239:../firmware/gd32f3x0_hal_peripheral/Source/gd32f3x0_hal_i2c.c ****     \param[out] none
3240:../firmware/gd32f3x0_hal_peripheral/Source/gd32f3x0_hal_i2c.c ****     \retval     none
3241:../firmware/gd32f3x0_hal_peripheral/Source/gd32f3x0_hal_i2c.c **** */
3242:../firmware/gd32f3x0_hal_peripheral/Source/gd32f3x0_hal_i2c.c **** static void _i2c_slave_receive_interrupt(void *i2c)
3243:../firmware/gd32f3x0_hal_peripheral/Source/gd32f3x0_hal_i2c.c **** {
 9188              		.loc 1 3243 1
 9189              		.cfi_startproc
 9190              		@ args = 0, pretend = 0, frame = 24
 9191              		@ frame_needed = 1, uses_anonymous_args = 0
 9192 0000 90B5     		push	{r4, r7, lr}
 9193              		.cfi_def_cfa_offset 12
 9194              		.cfi_offset 4, -12
 9195              		.cfi_offset 7, -8
 9196              		.cfi_offset 14, -4
 9197 0002 87B0     		sub	sp, sp, #28
 9198              		.cfi_def_cfa_offset 40
 9199 0004 00AF     		add	r7, sp, #0
 9200              		.cfi_def_cfa_register 7
 9201 0006 7860     		str	r0, [r7, #4]
3244:../firmware/gd32f3x0_hal_peripheral/Source/gd32f3x0_hal_i2c.c ****     hal_i2c_dev_struct *p_i2c = i2c;
 9202              		.loc 1 3244 25
 9203 0008 7B68     		ldr	r3, [r7, #4]
 9204 000a 7B61     		str	r3, [r7, #20]
3245:../firmware/gd32f3x0_hal_peripheral/Source/gd32f3x0_hal_i2c.c ****     hal_i2c_user_cb p_func = (hal_i2c_user_cb)p_i2c->rx_callback;
 9205              		.loc 1 3245 52
 9206 000c 7B69     		ldr	r3, [r7, #20]
 9207 000e 9B6C     		ldr	r3, [r3, #72]
 9208              		.loc 1 3245 21
 9209 0010 3B61     		str	r3, [r7, #16]
3246:../firmware/gd32f3x0_hal_peripheral/Source/gd32f3x0_hal_i2c.c ****     uint32_t data_length;
3247:../firmware/gd32f3x0_hal_peripheral/Source/gd32f3x0_hal_i2c.c **** 
3248:../firmware/gd32f3x0_hal_peripheral/Source/gd32f3x0_hal_i2c.c ****     data_length = p_i2c->rxbuffer.length;
 9210              		.loc 1 3248 17
 9211 0012 7B69     		ldr	r3, [r7, #20]
 9212 0014 5B6A     		ldr	r3, [r3, #36]
 9213 0016 FB60     		str	r3, [r7, #12]
3249:../firmware/gd32f3x0_hal_peripheral/Source/gd32f3x0_hal_i2c.c **** 
3250:../firmware/gd32f3x0_hal_peripheral/Source/gd32f3x0_hal_i2c.c ****     if(hals_i2c_interrupt_flag_get(p_i2c->periph, I2C_INT_FLAG_ADDSEND)) {
 9214              		.loc 1 3250 8
 9215 0018 7B69     		ldr	r3, [r7, #20]
 9216 001a 1B68     		ldr	r3, [r3]
 9217 001c 3A49     		ldr	r1, .L447
 9218 001e 1846     		mov	r0, r3
 9219 0020 FFF7FEFF 		bl	hals_i2c_interrupt_flag_get
 9220 0024 0346     		mov	r3, r0
 9221              		.loc 1 3250 7
 9222 0026 002B     		cmp	r3, #0
 9223 0028 06D0     		beq	.L443
3251:../firmware/gd32f3x0_hal_peripheral/Source/gd32f3x0_hal_i2c.c ****         /* clear the ADDSEND bit */
3252:../firmware/gd32f3x0_hal_peripheral/Source/gd32f3x0_hal_i2c.c ****         hals_i2c_interrupt_flag_clear(p_i2c->periph, I2C_INT_FLAG_ADDSEND);
 9224              		.loc 1 3252 9
 9225 002a 7B69     		ldr	r3, [r7, #20]
 9226 002c 1B68     		ldr	r3, [r3]
 9227 002e 3649     		ldr	r1, .L447
 9228 0030 1846     		mov	r0, r3
 9229 0032 FFF7FEFF 		bl	hals_i2c_interrupt_flag_clear
3253:../firmware/gd32f3x0_hal_peripheral/Source/gd32f3x0_hal_i2c.c ****     } else if(hals_i2c_interrupt_flag_get(p_i2c->periph, I2C_INT_FLAG_RBNE)) {
3254:../firmware/gd32f3x0_hal_peripheral/Source/gd32f3x0_hal_i2c.c ****         /* if reception data register is not empty ,I2C will read a data from I2C_DATA */
3255:../firmware/gd32f3x0_hal_peripheral/Source/gd32f3x0_hal_i2c.c ****         *p_i2c->rxbuffer.buffer++ = hals_i2c_data_receive(p_i2c->periph);
3256:../firmware/gd32f3x0_hal_peripheral/Source/gd32f3x0_hal_i2c.c ****         p_i2c->rxbuffer.pos++;
3257:../firmware/gd32f3x0_hal_peripheral/Source/gd32f3x0_hal_i2c.c ****         if((p_i2c->rxbuffer.pos == data_length) && (HAL_I2C_STATE_BUSY_LISTEN == p_i2c->rx_state)) 
3258:../firmware/gd32f3x0_hal_peripheral/Source/gd32f3x0_hal_i2c.c ****             p_i2c->rx_state = HAL_I2C_STATE_LISTEN;
3259:../firmware/gd32f3x0_hal_peripheral/Source/gd32f3x0_hal_i2c.c ****             hals_i2c_interrupt_disable(p_i2c->periph, I2C_INT_BUF);
3260:../firmware/gd32f3x0_hal_peripheral/Source/gd32f3x0_hal_i2c.c ****             if(NULL != p_func) {
3261:../firmware/gd32f3x0_hal_peripheral/Source/gd32f3x0_hal_i2c.c ****                 p_func(p_i2c);
3262:../firmware/gd32f3x0_hal_peripheral/Source/gd32f3x0_hal_i2c.c ****             }
3263:../firmware/gd32f3x0_hal_peripheral/Source/gd32f3x0_hal_i2c.c ****         }
3264:../firmware/gd32f3x0_hal_peripheral/Source/gd32f3x0_hal_i2c.c ****     } else if(hals_i2c_interrupt_flag_get(p_i2c->periph, I2C_INT_FLAG_STPDET)) {
3265:../firmware/gd32f3x0_hal_peripheral/Source/gd32f3x0_hal_i2c.c ****         /* clear the STPDET bit */
3266:../firmware/gd32f3x0_hal_peripheral/Source/gd32f3x0_hal_i2c.c ****         HAL_I2C_ENABLE(p_i2c->periph);
3267:../firmware/gd32f3x0_hal_peripheral/Source/gd32f3x0_hal_i2c.c ****         /* disable I2C interrupt */
3268:../firmware/gd32f3x0_hal_peripheral/Source/gd32f3x0_hal_i2c.c ****         hals_i2c_interrupt_disable(p_i2c->periph, I2C_INT_ERR);
3269:../firmware/gd32f3x0_hal_peripheral/Source/gd32f3x0_hal_i2c.c ****         hals_i2c_interrupt_disable(p_i2c->periph, I2C_INT_BUF);
3270:../firmware/gd32f3x0_hal_peripheral/Source/gd32f3x0_hal_i2c.c ****         hals_i2c_interrupt_disable(p_i2c->periph, I2C_INT_EV);
3271:../firmware/gd32f3x0_hal_peripheral/Source/gd32f3x0_hal_i2c.c ****         if(NULL != p_func) {
3272:../firmware/gd32f3x0_hal_peripheral/Source/gd32f3x0_hal_i2c.c ****             p_func(p_i2c);
3273:../firmware/gd32f3x0_hal_peripheral/Source/gd32f3x0_hal_i2c.c ****         }
3274:../firmware/gd32f3x0_hal_peripheral/Source/gd32f3x0_hal_i2c.c ****     }
3275:../firmware/gd32f3x0_hal_peripheral/Source/gd32f3x0_hal_i2c.c **** }
 9230              		.loc 1 3275 1
 9231 0036 62E0     		b	.L446
 9232              	.L443:
3253:../firmware/gd32f3x0_hal_peripheral/Source/gd32f3x0_hal_i2c.c ****     } else if(hals_i2c_interrupt_flag_get(p_i2c->periph, I2C_INT_FLAG_RBNE)) {
 9233              		.loc 1 3253 15
 9234 0038 7B69     		ldr	r3, [r7, #20]
 9235 003a 1B68     		ldr	r3, [r3]
 9236 003c 3349     		ldr	r1, .L447+4
 9237 003e 1846     		mov	r0, r3
 9238 0040 FFF7FEFF 		bl	hals_i2c_interrupt_flag_get
 9239 0044 0346     		mov	r3, r0
3253:../firmware/gd32f3x0_hal_peripheral/Source/gd32f3x0_hal_i2c.c ****     } else if(hals_i2c_interrupt_flag_get(p_i2c->periph, I2C_INT_FLAG_RBNE)) {
 9240              		.loc 1 3253 14
 9241 0046 002B     		cmp	r3, #0
 9242 0048 2DD0     		beq	.L445
3255:../firmware/gd32f3x0_hal_peripheral/Source/gd32f3x0_hal_i2c.c ****         p_i2c->rxbuffer.pos++;
 9243              		.loc 1 3255 37
 9244 004a 7B69     		ldr	r3, [r7, #20]
 9245 004c 1968     		ldr	r1, [r3]
3255:../firmware/gd32f3x0_hal_peripheral/Source/gd32f3x0_hal_i2c.c ****         p_i2c->rxbuffer.pos++;
 9246              		.loc 1 3255 25
 9247 004e 7B69     		ldr	r3, [r7, #20]
 9248 0050 1C6A     		ldr	r4, [r3, #32]
3255:../firmware/gd32f3x0_hal_peripheral/Source/gd32f3x0_hal_i2c.c ****         p_i2c->rxbuffer.pos++;
 9249              		.loc 1 3255 32
 9250 0052 621C     		adds	r2, r4, #1
 9251 0054 7B69     		ldr	r3, [r7, #20]
 9252 0056 1A62     		str	r2, [r3, #32]
3255:../firmware/gd32f3x0_hal_peripheral/Source/gd32f3x0_hal_i2c.c ****         p_i2c->rxbuffer.pos++;
 9253              		.loc 1 3255 37
 9254 0058 0846     		mov	r0, r1
 9255 005a FFF7FEFF 		bl	hals_i2c_data_receive
 9256 005e 0346     		mov	r3, r0
3255:../firmware/gd32f3x0_hal_peripheral/Source/gd32f3x0_hal_i2c.c ****         p_i2c->rxbuffer.pos++;
 9257              		.loc 1 3255 35
 9258 0060 2370     		strb	r3, [r4]
3256:../firmware/gd32f3x0_hal_peripheral/Source/gd32f3x0_hal_i2c.c ****         if((p_i2c->rxbuffer.pos == data_length) && (HAL_I2C_STATE_BUSY_LISTEN == p_i2c->rx_state)) 
 9259              		.loc 1 3256 24
 9260 0062 7B69     		ldr	r3, [r7, #20]
 9261 0064 9B6A     		ldr	r3, [r3, #40]
3256:../firmware/gd32f3x0_hal_peripheral/Source/gd32f3x0_hal_i2c.c ****         if((p_i2c->rxbuffer.pos == data_length) && (HAL_I2C_STATE_BUSY_LISTEN == p_i2c->rx_state)) 
 9262              		.loc 1 3256 28
 9263 0066 5A1C     		adds	r2, r3, #1
 9264 0068 7B69     		ldr	r3, [r7, #20]
 9265 006a 9A62     		str	r2, [r3, #40]
3257:../firmware/gd32f3x0_hal_peripheral/Source/gd32f3x0_hal_i2c.c ****             p_i2c->rx_state = HAL_I2C_STATE_LISTEN;
 9266              		.loc 1 3257 28
 9267 006c 7B69     		ldr	r3, [r7, #20]
 9268 006e 9B6A     		ldr	r3, [r3, #40]
3257:../firmware/gd32f3x0_hal_peripheral/Source/gd32f3x0_hal_i2c.c ****             p_i2c->rx_state = HAL_I2C_STATE_LISTEN;
 9269              		.loc 1 3257 11
 9270 0070 FA68     		ldr	r2, [r7, #12]
 9271 0072 9A42     		cmp	r2, r3
 9272 0074 43D1     		bne	.L446
3257:../firmware/gd32f3x0_hal_peripheral/Source/gd32f3x0_hal_i2c.c ****             p_i2c->rx_state = HAL_I2C_STATE_LISTEN;
 9273              		.loc 1 3257 87 discriminator 1
 9274 0076 7B69     		ldr	r3, [r7, #20]
 9275 0078 93F84130 		ldrb	r3, [r3, #65]
 9276 007c DBB2     		uxtb	r3, r3
3257:../firmware/gd32f3x0_hal_peripheral/Source/gd32f3x0_hal_i2c.c ****             p_i2c->rx_state = HAL_I2C_STATE_LISTEN;
 9277              		.loc 1 3257 49 discriminator 1
 9278 007e 052B     		cmp	r3, #5
 9279 0080 3DD1     		bne	.L446
3258:../firmware/gd32f3x0_hal_peripheral/Source/gd32f3x0_hal_i2c.c ****             hals_i2c_interrupt_disable(p_i2c->periph, I2C_INT_BUF);
 9280              		.loc 1 3258 29
 9281 0082 7B69     		ldr	r3, [r7, #20]
 9282 0084 0422     		movs	r2, #4
 9283 0086 83F84120 		strb	r2, [r3, #65]
3259:../firmware/gd32f3x0_hal_peripheral/Source/gd32f3x0_hal_i2c.c ****             if(NULL != p_func) {
 9284              		.loc 1 3259 13
 9285 008a 7B69     		ldr	r3, [r7, #20]
 9286 008c 1B68     		ldr	r3, [r3]
 9287 008e 4FF48571 		mov	r1, #266
 9288 0092 1846     		mov	r0, r3
 9289 0094 FFF7FEFF 		bl	hals_i2c_interrupt_disable
3260:../firmware/gd32f3x0_hal_peripheral/Source/gd32f3x0_hal_i2c.c ****                 p_func(p_i2c);
 9290              		.loc 1 3260 15
 9291 0098 3B69     		ldr	r3, [r7, #16]
 9292 009a 002B     		cmp	r3, #0
 9293 009c 2FD0     		beq	.L446
3261:../firmware/gd32f3x0_hal_peripheral/Source/gd32f3x0_hal_i2c.c ****             }
 9294              		.loc 1 3261 17
 9295 009e 3B69     		ldr	r3, [r7, #16]
 9296 00a0 7869     		ldr	r0, [r7, #20]
 9297 00a2 9847     		blx	r3
 9298              	.LVL8:
 9299              		.loc 1 3275 1
 9300 00a4 2BE0     		b	.L446
 9301              	.L445:
3264:../firmware/gd32f3x0_hal_peripheral/Source/gd32f3x0_hal_i2c.c ****         /* clear the STPDET bit */
 9302              		.loc 1 3264 15
 9303 00a6 7B69     		ldr	r3, [r7, #20]
 9304 00a8 1B68     		ldr	r3, [r3]
 9305 00aa 1949     		ldr	r1, .L447+8
 9306 00ac 1846     		mov	r0, r3
 9307 00ae FFF7FEFF 		bl	hals_i2c_interrupt_flag_get
 9308 00b2 0346     		mov	r3, r0
3264:../firmware/gd32f3x0_hal_peripheral/Source/gd32f3x0_hal_i2c.c ****         /* clear the STPDET bit */
 9309              		.loc 1 3264 14
 9310 00b4 002B     		cmp	r3, #0
 9311 00b6 22D0     		beq	.L446
3266:../firmware/gd32f3x0_hal_peripheral/Source/gd32f3x0_hal_i2c.c ****         /* disable I2C interrupt */
 9312              		.loc 1 3266 9
 9313 00b8 7B69     		ldr	r3, [r7, #20]
 9314 00ba 1B68     		ldr	r3, [r3]
 9315 00bc 1B68     		ldr	r3, [r3]
 9316 00be 7A69     		ldr	r2, [r7, #20]
 9317 00c0 1268     		ldr	r2, [r2]
 9318 00c2 43F00103 		orr	r3, r3, #1
 9319 00c6 1360     		str	r3, [r2]
3268:../firmware/gd32f3x0_hal_peripheral/Source/gd32f3x0_hal_i2c.c ****         hals_i2c_interrupt_disable(p_i2c->periph, I2C_INT_BUF);
 9320              		.loc 1 3268 9
 9321 00c8 7B69     		ldr	r3, [r7, #20]
 9322 00ca 1B68     		ldr	r3, [r3]
 9323 00cc 4FF48471 		mov	r1, #264
 9324 00d0 1846     		mov	r0, r3
 9325 00d2 FFF7FEFF 		bl	hals_i2c_interrupt_disable
3269:../firmware/gd32f3x0_hal_peripheral/Source/gd32f3x0_hal_i2c.c ****         hals_i2c_interrupt_disable(p_i2c->periph, I2C_INT_EV);
 9326              		.loc 1 3269 9
 9327 00d6 7B69     		ldr	r3, [r7, #20]
 9328 00d8 1B68     		ldr	r3, [r3]
 9329 00da 4FF48571 		mov	r1, #266
 9330 00de 1846     		mov	r0, r3
 9331 00e0 FFF7FEFF 		bl	hals_i2c_interrupt_disable
3270:../firmware/gd32f3x0_hal_peripheral/Source/gd32f3x0_hal_i2c.c ****         if(NULL != p_func) {
 9332              		.loc 1 3270 9
 9333 00e4 7B69     		ldr	r3, [r7, #20]
 9334 00e6 1B68     		ldr	r3, [r3]
 9335 00e8 40F20911 		movw	r1, #265
 9336 00ec 1846     		mov	r0, r3
 9337 00ee FFF7FEFF 		bl	hals_i2c_interrupt_disable
3271:../firmware/gd32f3x0_hal_peripheral/Source/gd32f3x0_hal_i2c.c ****             p_func(p_i2c);
 9338              		.loc 1 3271 11
 9339 00f2 3B69     		ldr	r3, [r7, #16]
 9340 00f4 002B     		cmp	r3, #0
 9341 00f6 02D0     		beq	.L446
3272:../firmware/gd32f3x0_hal_peripheral/Source/gd32f3x0_hal_i2c.c ****         }
 9342              		.loc 1 3272 13
 9343 00f8 3B69     		ldr	r3, [r7, #16]
 9344 00fa 7869     		ldr	r0, [r7, #20]
 9345 00fc 9847     		blx	r3
 9346              	.LVL9:
 9347              	.L446:
 9348              		.loc 1 3275 1
 9349 00fe 00BF     		nop
 9350 0100 1C37     		adds	r7, r7, #28
 9351              		.cfi_def_cfa_offset 12
 9352 0102 BD46     		mov	sp, r7
 9353              		.cfi_def_cfa_register 13
 9354              		@ sp needed
 9355 0104 90BD     		pop	{r4, r7, pc}
 9356              	.L448:
 9357 0106 00BF     		.align	2
 9358              	.L447:
 9359 0108 09010105 		.word	83951881
 9360 010c 09010605 		.word	84279561
 9361 0110 09010405 		.word	84148489
 9362              		.cfi_endproc
 9363              	.LFE181:
 9365              		.section	.text._i2c_slave_serial_receive_interrupt,"ax",%progbits
 9366              		.align	1
 9367              		.syntax unified
 9368              		.thumb
 9369              		.thumb_func
 9370              		.fpu softvfp
 9372              	_i2c_slave_serial_receive_interrupt:
 9373              	.LFB182:
3276:../firmware/gd32f3x0_hal_peripheral/Source/gd32f3x0_hal_i2c.c **** 
3277:../firmware/gd32f3x0_hal_peripheral/Source/gd32f3x0_hal_i2c.c **** /*!
3278:../firmware/gd32f3x0_hal_peripheral/Source/gd32f3x0_hal_i2c.c ****     \brief      event handler in I2C slave serial receive mode
3279:../firmware/gd32f3x0_hal_peripheral/Source/gd32f3x0_hal_i2c.c ****     \param[in]  i2c: I2C device information structrue
3280:../firmware/gd32f3x0_hal_peripheral/Source/gd32f3x0_hal_i2c.c ****                   the structure is not necessary to be reconfigured after structrue initialization,
3281:../firmware/gd32f3x0_hal_peripheral/Source/gd32f3x0_hal_i2c.c ****                   the structure parameters altering is automatically configured by core
3282:../firmware/gd32f3x0_hal_peripheral/Source/gd32f3x0_hal_i2c.c ****     \param[out] none
3283:../firmware/gd32f3x0_hal_peripheral/Source/gd32f3x0_hal_i2c.c ****     \retval     none
3284:../firmware/gd32f3x0_hal_peripheral/Source/gd32f3x0_hal_i2c.c **** */
3285:../firmware/gd32f3x0_hal_peripheral/Source/gd32f3x0_hal_i2c.c **** static void _i2c_slave_serial_receive_interrupt(void *i2c)
3286:../firmware/gd32f3x0_hal_peripheral/Source/gd32f3x0_hal_i2c.c **** {
 9374              		.loc 1 3286 1
 9375              		.cfi_startproc
 9376              		@ args = 0, pretend = 0, frame = 24
 9377              		@ frame_needed = 1, uses_anonymous_args = 0
 9378 0000 90B5     		push	{r4, r7, lr}
 9379              		.cfi_def_cfa_offset 12
 9380              		.cfi_offset 4, -12
 9381              		.cfi_offset 7, -8
 9382              		.cfi_offset 14, -4
 9383 0002 87B0     		sub	sp, sp, #28
 9384              		.cfi_def_cfa_offset 40
 9385 0004 00AF     		add	r7, sp, #0
 9386              		.cfi_def_cfa_register 7
 9387 0006 7860     		str	r0, [r7, #4]
3287:../firmware/gd32f3x0_hal_peripheral/Source/gd32f3x0_hal_i2c.c ****     hal_i2c_dev_struct *p_i2c = i2c;
 9388              		.loc 1 3287 25
 9389 0008 7B68     		ldr	r3, [r7, #4]
 9390 000a 7B61     		str	r3, [r7, #20]
3288:../firmware/gd32f3x0_hal_peripheral/Source/gd32f3x0_hal_i2c.c ****     hal_i2c_user_cb p_func = (hal_i2c_user_cb)p_i2c->rx_callback;
 9391              		.loc 1 3288 52
 9392 000c 7B69     		ldr	r3, [r7, #20]
 9393 000e 9B6C     		ldr	r3, [r3, #72]
 9394              		.loc 1 3288 21
 9395 0010 3B61     		str	r3, [r7, #16]
3289:../firmware/gd32f3x0_hal_peripheral/Source/gd32f3x0_hal_i2c.c ****     uint32_t data_length;
3290:../firmware/gd32f3x0_hal_peripheral/Source/gd32f3x0_hal_i2c.c **** 
3291:../firmware/gd32f3x0_hal_peripheral/Source/gd32f3x0_hal_i2c.c ****     data_length = p_i2c->rxbuffer.length;
 9396              		.loc 1 3291 17
 9397 0012 7B69     		ldr	r3, [r7, #20]
 9398 0014 5B6A     		ldr	r3, [r3, #36]
 9399 0016 FB60     		str	r3, [r7, #12]
3292:../firmware/gd32f3x0_hal_peripheral/Source/gd32f3x0_hal_i2c.c **** 
3293:../firmware/gd32f3x0_hal_peripheral/Source/gd32f3x0_hal_i2c.c ****     if(hals_i2c_interrupt_flag_get(p_i2c->periph, I2C_INT_FLAG_ADDSEND)) {
 9400              		.loc 1 3293 8
 9401 0018 7B69     		ldr	r3, [r7, #20]
 9402 001a 1B68     		ldr	r3, [r3]
 9403 001c 2D49     		ldr	r1, .L454
 9404 001e 1846     		mov	r0, r3
 9405 0020 FFF7FEFF 		bl	hals_i2c_interrupt_flag_get
 9406 0024 0346     		mov	r3, r0
 9407              		.loc 1 3293 7
 9408 0026 002B     		cmp	r3, #0
 9409 0028 06D0     		beq	.L450
3294:../firmware/gd32f3x0_hal_peripheral/Source/gd32f3x0_hal_i2c.c ****         /* clear the ADDSEND bit */
3295:../firmware/gd32f3x0_hal_peripheral/Source/gd32f3x0_hal_i2c.c ****         hals_i2c_interrupt_flag_clear(p_i2c->periph, I2C_INT_FLAG_ADDSEND);
 9410              		.loc 1 3295 9
 9411 002a 7B69     		ldr	r3, [r7, #20]
 9412 002c 1B68     		ldr	r3, [r3]
 9413 002e 2949     		ldr	r1, .L454
 9414 0030 1846     		mov	r0, r3
 9415 0032 FFF7FEFF 		bl	hals_i2c_interrupt_flag_clear
3296:../firmware/gd32f3x0_hal_peripheral/Source/gd32f3x0_hal_i2c.c ****     } else if(hals_i2c_interrupt_flag_get(p_i2c->periph, I2C_INT_FLAG_RBNE)) {
3297:../firmware/gd32f3x0_hal_peripheral/Source/gd32f3x0_hal_i2c.c ****         /* if reception data register is not empty ,I2C will read a data from I2C_DATA */
3298:../firmware/gd32f3x0_hal_peripheral/Source/gd32f3x0_hal_i2c.c ****         *p_i2c->rxbuffer.buffer++ = hals_i2c_data_receive(p_i2c->periph);
3299:../firmware/gd32f3x0_hal_peripheral/Source/gd32f3x0_hal_i2c.c ****         p_i2c->rxbuffer.pos++;
3300:../firmware/gd32f3x0_hal_peripheral/Source/gd32f3x0_hal_i2c.c **** 
3301:../firmware/gd32f3x0_hal_peripheral/Source/gd32f3x0_hal_i2c.c ****         if((p_i2c->rxbuffer.pos == data_length) && (HAL_I2C_STATE_BUSY_LISTEN == p_i2c->rx_state)) 
3302:../firmware/gd32f3x0_hal_peripheral/Source/gd32f3x0_hal_i2c.c ****             p_i2c->rx_state = HAL_I2C_STATE_LISTEN;
3303:../firmware/gd32f3x0_hal_peripheral/Source/gd32f3x0_hal_i2c.c ****             if(NULL != p_func) {
3304:../firmware/gd32f3x0_hal_peripheral/Source/gd32f3x0_hal_i2c.c ****                 p_func(p_i2c);
3305:../firmware/gd32f3x0_hal_peripheral/Source/gd32f3x0_hal_i2c.c ****             }
3306:../firmware/gd32f3x0_hal_peripheral/Source/gd32f3x0_hal_i2c.c **** 
3307:../firmware/gd32f3x0_hal_peripheral/Source/gd32f3x0_hal_i2c.c ****             /* disable I2C interrupt */
3308:../firmware/gd32f3x0_hal_peripheral/Source/gd32f3x0_hal_i2c.c ****             hals_i2c_interrupt_disable(p_i2c->periph, I2C_INT_ERR);
3309:../firmware/gd32f3x0_hal_peripheral/Source/gd32f3x0_hal_i2c.c ****             hals_i2c_interrupt_disable(p_i2c->periph, I2C_INT_BUF);
3310:../firmware/gd32f3x0_hal_peripheral/Source/gd32f3x0_hal_i2c.c ****             hals_i2c_interrupt_disable(p_i2c->periph, I2C_INT_EV);
3311:../firmware/gd32f3x0_hal_peripheral/Source/gd32f3x0_hal_i2c.c ****             if(NULL != p_func) {
3312:../firmware/gd32f3x0_hal_peripheral/Source/gd32f3x0_hal_i2c.c ****                 p_func(p_i2c);
3313:../firmware/gd32f3x0_hal_peripheral/Source/gd32f3x0_hal_i2c.c ****             }
3314:../firmware/gd32f3x0_hal_peripheral/Source/gd32f3x0_hal_i2c.c ****         }
3315:../firmware/gd32f3x0_hal_peripheral/Source/gd32f3x0_hal_i2c.c ****     }
3316:../firmware/gd32f3x0_hal_peripheral/Source/gd32f3x0_hal_i2c.c **** }
 9416              		.loc 1 3316 1
 9417 0036 49E0     		b	.L453
 9418              	.L450:
3296:../firmware/gd32f3x0_hal_peripheral/Source/gd32f3x0_hal_i2c.c ****     } else if(hals_i2c_interrupt_flag_get(p_i2c->periph, I2C_INT_FLAG_RBNE)) {
 9419              		.loc 1 3296 15
 9420 0038 7B69     		ldr	r3, [r7, #20]
 9421 003a 1B68     		ldr	r3, [r3]
 9422 003c 2649     		ldr	r1, .L454+4
 9423 003e 1846     		mov	r0, r3
 9424 0040 FFF7FEFF 		bl	hals_i2c_interrupt_flag_get
 9425 0044 0346     		mov	r3, r0
3296:../firmware/gd32f3x0_hal_peripheral/Source/gd32f3x0_hal_i2c.c ****     } else if(hals_i2c_interrupt_flag_get(p_i2c->periph, I2C_INT_FLAG_RBNE)) {
 9426              		.loc 1 3296 14
 9427 0046 002B     		cmp	r3, #0
 9428 0048 40D0     		beq	.L453
3298:../firmware/gd32f3x0_hal_peripheral/Source/gd32f3x0_hal_i2c.c ****         p_i2c->rxbuffer.pos++;
 9429              		.loc 1 3298 37
 9430 004a 7B69     		ldr	r3, [r7, #20]
 9431 004c 1968     		ldr	r1, [r3]
3298:../firmware/gd32f3x0_hal_peripheral/Source/gd32f3x0_hal_i2c.c ****         p_i2c->rxbuffer.pos++;
 9432              		.loc 1 3298 25
 9433 004e 7B69     		ldr	r3, [r7, #20]
 9434 0050 1C6A     		ldr	r4, [r3, #32]
3298:../firmware/gd32f3x0_hal_peripheral/Source/gd32f3x0_hal_i2c.c ****         p_i2c->rxbuffer.pos++;
 9435              		.loc 1 3298 32
 9436 0052 621C     		adds	r2, r4, #1
 9437 0054 7B69     		ldr	r3, [r7, #20]
 9438 0056 1A62     		str	r2, [r3, #32]
3298:../firmware/gd32f3x0_hal_peripheral/Source/gd32f3x0_hal_i2c.c ****         p_i2c->rxbuffer.pos++;
 9439              		.loc 1 3298 37
 9440 0058 0846     		mov	r0, r1
 9441 005a FFF7FEFF 		bl	hals_i2c_data_receive
 9442 005e 0346     		mov	r3, r0
3298:../firmware/gd32f3x0_hal_peripheral/Source/gd32f3x0_hal_i2c.c ****         p_i2c->rxbuffer.pos++;
 9443              		.loc 1 3298 35
 9444 0060 2370     		strb	r3, [r4]
3299:../firmware/gd32f3x0_hal_peripheral/Source/gd32f3x0_hal_i2c.c **** 
 9445              		.loc 1 3299 24
 9446 0062 7B69     		ldr	r3, [r7, #20]
 9447 0064 9B6A     		ldr	r3, [r3, #40]
3299:../firmware/gd32f3x0_hal_peripheral/Source/gd32f3x0_hal_i2c.c **** 
 9448              		.loc 1 3299 28
 9449 0066 5A1C     		adds	r2, r3, #1
 9450 0068 7B69     		ldr	r3, [r7, #20]
 9451 006a 9A62     		str	r2, [r3, #40]
3301:../firmware/gd32f3x0_hal_peripheral/Source/gd32f3x0_hal_i2c.c ****             p_i2c->rx_state = HAL_I2C_STATE_LISTEN;
 9452              		.loc 1 3301 28
 9453 006c 7B69     		ldr	r3, [r7, #20]
 9454 006e 9B6A     		ldr	r3, [r3, #40]
3301:../firmware/gd32f3x0_hal_peripheral/Source/gd32f3x0_hal_i2c.c ****             p_i2c->rx_state = HAL_I2C_STATE_LISTEN;
 9455              		.loc 1 3301 11
 9456 0070 FA68     		ldr	r2, [r7, #12]
 9457 0072 9A42     		cmp	r2, r3
 9458 0074 2AD1     		bne	.L453
3301:../firmware/gd32f3x0_hal_peripheral/Source/gd32f3x0_hal_i2c.c ****             p_i2c->rx_state = HAL_I2C_STATE_LISTEN;
 9459              		.loc 1 3301 87 discriminator 1
 9460 0076 7B69     		ldr	r3, [r7, #20]
 9461 0078 93F84130 		ldrb	r3, [r3, #65]
 9462 007c DBB2     		uxtb	r3, r3
3301:../firmware/gd32f3x0_hal_peripheral/Source/gd32f3x0_hal_i2c.c ****             p_i2c->rx_state = HAL_I2C_STATE_LISTEN;
 9463              		.loc 1 3301 49 discriminator 1
 9464 007e 052B     		cmp	r3, #5
 9465 0080 24D1     		bne	.L453
3302:../firmware/gd32f3x0_hal_peripheral/Source/gd32f3x0_hal_i2c.c ****             if(NULL != p_func) {
 9466              		.loc 1 3302 29
 9467 0082 7B69     		ldr	r3, [r7, #20]
 9468 0084 0422     		movs	r2, #4
 9469 0086 83F84120 		strb	r2, [r3, #65]
3303:../firmware/gd32f3x0_hal_peripheral/Source/gd32f3x0_hal_i2c.c ****                 p_func(p_i2c);
 9470              		.loc 1 3303 15
 9471 008a 3B69     		ldr	r3, [r7, #16]
 9472 008c 002B     		cmp	r3, #0
 9473 008e 02D0     		beq	.L452
3304:../firmware/gd32f3x0_hal_peripheral/Source/gd32f3x0_hal_i2c.c ****             }
 9474              		.loc 1 3304 17
 9475 0090 3B69     		ldr	r3, [r7, #16]
 9476 0092 7869     		ldr	r0, [r7, #20]
 9477 0094 9847     		blx	r3
 9478              	.LVL10:
 9479              	.L452:
3308:../firmware/gd32f3x0_hal_peripheral/Source/gd32f3x0_hal_i2c.c ****             hals_i2c_interrupt_disable(p_i2c->periph, I2C_INT_BUF);
 9480              		.loc 1 3308 13
 9481 0096 7B69     		ldr	r3, [r7, #20]
 9482 0098 1B68     		ldr	r3, [r3]
 9483 009a 4FF48471 		mov	r1, #264
 9484 009e 1846     		mov	r0, r3
 9485 00a0 FFF7FEFF 		bl	hals_i2c_interrupt_disable
3309:../firmware/gd32f3x0_hal_peripheral/Source/gd32f3x0_hal_i2c.c ****             hals_i2c_interrupt_disable(p_i2c->periph, I2C_INT_EV);
 9486              		.loc 1 3309 13
 9487 00a4 7B69     		ldr	r3, [r7, #20]
 9488 00a6 1B68     		ldr	r3, [r3]
 9489 00a8 4FF48571 		mov	r1, #266
 9490 00ac 1846     		mov	r0, r3
 9491 00ae FFF7FEFF 		bl	hals_i2c_interrupt_disable
3310:../firmware/gd32f3x0_hal_peripheral/Source/gd32f3x0_hal_i2c.c ****             if(NULL != p_func) {
 9492              		.loc 1 3310 13
 9493 00b2 7B69     		ldr	r3, [r7, #20]
 9494 00b4 1B68     		ldr	r3, [r3]
 9495 00b6 40F20911 		movw	r1, #265
 9496 00ba 1846     		mov	r0, r3
 9497 00bc FFF7FEFF 		bl	hals_i2c_interrupt_disable
3311:../firmware/gd32f3x0_hal_peripheral/Source/gd32f3x0_hal_i2c.c ****                 p_func(p_i2c);
 9498              		.loc 1 3311 15
 9499 00c0 3B69     		ldr	r3, [r7, #16]
 9500 00c2 002B     		cmp	r3, #0
 9501 00c4 02D0     		beq	.L453
3312:../firmware/gd32f3x0_hal_peripheral/Source/gd32f3x0_hal_i2c.c ****             }
 9502              		.loc 1 3312 17
 9503 00c6 3B69     		ldr	r3, [r7, #16]
 9504 00c8 7869     		ldr	r0, [r7, #20]
 9505 00ca 9847     		blx	r3
 9506              	.LVL11:
 9507              	.L453:
 9508              		.loc 1 3316 1
 9509 00cc 00BF     		nop
 9510 00ce 1C37     		adds	r7, r7, #28
 9511              		.cfi_def_cfa_offset 12
 9512 00d0 BD46     		mov	sp, r7
 9513              		.cfi_def_cfa_register 13
 9514              		@ sp needed
 9515 00d2 90BD     		pop	{r4, r7, pc}
 9516              	.L455:
 9517              		.align	2
 9518              	.L454:
 9519 00d4 09010105 		.word	83951881
 9520 00d8 09010605 		.word	84279561
 9521              		.cfi_endproc
 9522              	.LFE182:
 9524              		.section	.text._i2c_memory_write,"ax",%progbits
 9525              		.align	1
 9526              		.syntax unified
 9527              		.thumb
 9528              		.thumb_func
 9529              		.fpu softvfp
 9531              	_i2c_memory_write:
 9532              	.LFB183:
3317:../firmware/gd32f3x0_hal_peripheral/Source/gd32f3x0_hal_i2c.c **** 
3318:../firmware/gd32f3x0_hal_peripheral/Source/gd32f3x0_hal_i2c.c **** /*!
3319:../firmware/gd32f3x0_hal_peripheral/Source/gd32f3x0_hal_i2c.c ****     \brief      master sends device address for memory write request
3320:../firmware/gd32f3x0_hal_peripheral/Source/gd32f3x0_hal_i2c.c ****     \param[in]  i2c_dev: I2C device information structrue
3321:../firmware/gd32f3x0_hal_peripheral/Source/gd32f3x0_hal_i2c.c ****                   the structure is not necessary to be reconfigured after structrue initialization,
3322:../firmware/gd32f3x0_hal_peripheral/Source/gd32f3x0_hal_i2c.c ****                   the structure parameters altering is automatically configured by core
3323:../firmware/gd32f3x0_hal_peripheral/Source/gd32f3x0_hal_i2c.c ****     \param[in]  timeout_ms: timeout duration
3324:../firmware/gd32f3x0_hal_peripheral/Source/gd32f3x0_hal_i2c.c ****     \param[out] none
3325:../firmware/gd32f3x0_hal_peripheral/Source/gd32f3x0_hal_i2c.c ****     \retval     error code: HAL_ERR_NONE, HAL_ERR_TIMEOUT, details refer to gd32f3x0_hal.h
3326:../firmware/gd32f3x0_hal_peripheral/Source/gd32f3x0_hal_i2c.c **** */
3327:../firmware/gd32f3x0_hal_peripheral/Source/gd32f3x0_hal_i2c.c **** static int32_t _i2c_memory_write(hal_i2c_dev_struct *i2c_dev, uint32_t timeout_ms)
3328:../firmware/gd32f3x0_hal_peripheral/Source/gd32f3x0_hal_i2c.c **** {
 9533              		.loc 1 3328 1
 9534              		.cfi_startproc
 9535              		@ args = 0, pretend = 0, frame = 8
 9536              		@ frame_needed = 1, uses_anonymous_args = 0
 9537 0000 80B5     		push	{r7, lr}
 9538              		.cfi_def_cfa_offset 8
 9539              		.cfi_offset 7, -8
 9540              		.cfi_offset 14, -4
 9541 0002 82B0     		sub	sp, sp, #8
 9542              		.cfi_def_cfa_offset 16
 9543 0004 00AF     		add	r7, sp, #0
 9544              		.cfi_def_cfa_register 7
 9545 0006 7860     		str	r0, [r7, #4]
 9546 0008 3960     		str	r1, [r7]
3329:../firmware/gd32f3x0_hal_peripheral/Source/gd32f3x0_hal_i2c.c ****     /* send a start condition to I2C bus */
3330:../firmware/gd32f3x0_hal_peripheral/Source/gd32f3x0_hal_i2c.c ****     HAL_I2C_START_ON_BUS(i2c_dev->periph);
 9547              		.loc 1 3330 5
 9548 000a 7B68     		ldr	r3, [r7, #4]
 9549 000c 1B68     		ldr	r3, [r3]
 9550 000e 1B68     		ldr	r3, [r3]
 9551 0010 7A68     		ldr	r2, [r7, #4]
 9552 0012 1268     		ldr	r2, [r2]
 9553 0014 43F48073 		orr	r3, r3, #256
 9554 0018 1360     		str	r3, [r2]
3331:../firmware/gd32f3x0_hal_peripheral/Source/gd32f3x0_hal_i2c.c ****     /* wait until SBSEND bit is set */
3332:../firmware/gd32f3x0_hal_peripheral/Source/gd32f3x0_hal_i2c.c ****     if(HAL_ERR_NONE != _i2c_wait_flag_timeout(i2c_dev->periph, I2C_FLAG_SBSEND, SET, timeout_ms)) {
 9555              		.loc 1 3332 24
 9556 001a 7B68     		ldr	r3, [r7, #4]
 9557 001c 1868     		ldr	r0, [r3]
 9558 001e 3B68     		ldr	r3, [r7]
 9559 0020 0122     		movs	r2, #1
 9560 0022 4FF4A061 		mov	r1, #1280
 9561 0026 FFF7FEFF 		bl	_i2c_wait_flag_timeout
 9562 002a 0346     		mov	r3, r0
 9563              		.loc 1 3332 7
 9564 002c 002B     		cmp	r3, #0
 9565 002e 02D0     		beq	.L457
3333:../firmware/gd32f3x0_hal_peripheral/Source/gd32f3x0_hal_i2c.c ****         HAL_DEBUGW("i2c get SBSEND timeout");
3334:../firmware/gd32f3x0_hal_peripheral/Source/gd32f3x0_hal_i2c.c ****         return HAL_ERR_TIMEOUT;
 9566              		.loc 1 3334 16
 9567 0030 6FF00403 		mvn	r3, #4
 9568 0034 6AE0     		b	.L458
 9569              	.L457:
3335:../firmware/gd32f3x0_hal_peripheral/Source/gd32f3x0_hal_i2c.c ****     }
3336:../firmware/gd32f3x0_hal_peripheral/Source/gd32f3x0_hal_i2c.c ****     /* send slave address to I2C bus */
3337:../firmware/gd32f3x0_hal_peripheral/Source/gd32f3x0_hal_i2c.c ****     hals_i2c_master_addressing(i2c_dev->periph, i2c_dev->slave_address.device_address, I2C_TRANSMIT
 9570              		.loc 1 3337 5
 9571 0036 7B68     		ldr	r3, [r7, #4]
 9572 0038 1868     		ldr	r0, [r3]
 9573 003a 7B68     		ldr	r3, [r7, #4]
 9574 003c DB6A     		ldr	r3, [r3, #44]
 9575 003e 6FF00102 		mvn	r2, #1
 9576 0042 1946     		mov	r1, r3
 9577 0044 FFF7FEFF 		bl	hals_i2c_master_addressing
3338:../firmware/gd32f3x0_hal_peripheral/Source/gd32f3x0_hal_i2c.c ****     /* wait until ADDSEND bit is set */
3339:../firmware/gd32f3x0_hal_peripheral/Source/gd32f3x0_hal_i2c.c ****     if(HAL_ERR_NONE != _i2c_wait_flag_timeout(i2c_dev->periph, I2C_FLAG_ADDSEND, SET, timeout_ms)) 
 9578              		.loc 1 3339 24
 9579 0048 7B68     		ldr	r3, [r7, #4]
 9580 004a 1868     		ldr	r0, [r3]
 9581 004c 3B68     		ldr	r3, [r7]
 9582 004e 0122     		movs	r2, #1
 9583 0050 40F20151 		movw	r1, #1281
 9584 0054 FFF7FEFF 		bl	_i2c_wait_flag_timeout
 9585 0058 0346     		mov	r3, r0
 9586              		.loc 1 3339 7
 9587 005a 002B     		cmp	r3, #0
 9588 005c 02D0     		beq	.L459
3340:../firmware/gd32f3x0_hal_peripheral/Source/gd32f3x0_hal_i2c.c ****         HAL_DEBUGW("i2c get ADDSEND timeout");
3341:../firmware/gd32f3x0_hal_peripheral/Source/gd32f3x0_hal_i2c.c ****         return HAL_ERR_TIMEOUT;
 9589              		.loc 1 3341 16
 9590 005e 6FF00403 		mvn	r3, #4
 9591 0062 53E0     		b	.L458
 9592              	.L459:
3342:../firmware/gd32f3x0_hal_peripheral/Source/gd32f3x0_hal_i2c.c ****     }
3343:../firmware/gd32f3x0_hal_peripheral/Source/gd32f3x0_hal_i2c.c ****     /* clear ADDSEND bit */
3344:../firmware/gd32f3x0_hal_peripheral/Source/gd32f3x0_hal_i2c.c ****     hals_i2c_flag_clear(i2c_dev->periph, I2C_FLAG_ADDSEND);
 9593              		.loc 1 3344 5
 9594 0064 7B68     		ldr	r3, [r7, #4]
 9595 0066 1B68     		ldr	r3, [r3]
 9596 0068 40F20151 		movw	r1, #1281
 9597 006c 1846     		mov	r0, r3
 9598 006e FFF7FEFF 		bl	hals_i2c_flag_clear
3345:../firmware/gd32f3x0_hal_peripheral/Source/gd32f3x0_hal_i2c.c ****     /* wait until the transmission data register is empty*/
3346:../firmware/gd32f3x0_hal_peripheral/Source/gd32f3x0_hal_i2c.c ****     if(HAL_ERR_NONE != _i2c_wait_flag_timeout(i2c_dev->periph, I2C_FLAG_TBE, SET, timeout_ms)) {
 9599              		.loc 1 3346 24
 9600 0072 7B68     		ldr	r3, [r7, #4]
 9601 0074 1868     		ldr	r0, [r3]
 9602 0076 3B68     		ldr	r3, [r7]
 9603 0078 0122     		movs	r2, #1
 9604 007a 40F20751 		movw	r1, #1287
 9605 007e FFF7FEFF 		bl	_i2c_wait_flag_timeout
 9606 0082 0346     		mov	r3, r0
 9607              		.loc 1 3346 7
 9608 0084 002B     		cmp	r3, #0
 9609 0086 02D0     		beq	.L460
3347:../firmware/gd32f3x0_hal_peripheral/Source/gd32f3x0_hal_i2c.c ****         HAL_DEBUGW("i2c get TBE timeout");
3348:../firmware/gd32f3x0_hal_peripheral/Source/gd32f3x0_hal_i2c.c ****         return HAL_ERR_TIMEOUT;
 9610              		.loc 1 3348 16
 9611 0088 6FF00403 		mvn	r3, #4
 9612 008c 3EE0     		b	.L458
 9613              	.L460:
3349:../firmware/gd32f3x0_hal_peripheral/Source/gd32f3x0_hal_i2c.c ****     }
3350:../firmware/gd32f3x0_hal_peripheral/Source/gd32f3x0_hal_i2c.c ****     /* send memory address to write to */
3351:../firmware/gd32f3x0_hal_peripheral/Source/gd32f3x0_hal_i2c.c ****     if(I2C_MEMORY_ADDRESS_8BIT == i2c_dev->slave_address.address_size) {
 9614              		.loc 1 3351 57
 9615 008e 7B68     		ldr	r3, [r7, #4]
 9616 0090 5B8E     		ldrh	r3, [r3, #50]
 9617              		.loc 1 3351 7
 9618 0092 002B     		cmp	r3, #0
 9619 0094 09D1     		bne	.L461
3352:../firmware/gd32f3x0_hal_peripheral/Source/gd32f3x0_hal_i2c.c ****         /* one byte address */
3353:../firmware/gd32f3x0_hal_peripheral/Source/gd32f3x0_hal_i2c.c ****         hals_i2c_data_transmit(i2c_dev->periph, I2C_MEMORY_ADDRESS_LSB(i2c_dev->slave_address.memor
 9620              		.loc 1 3353 9
 9621 0096 7B68     		ldr	r3, [r7, #4]
 9622 0098 1A68     		ldr	r2, [r3]
 9623              		.loc 1 3353 49
 9624 009a 7B68     		ldr	r3, [r7, #4]
 9625 009c 1B8E     		ldrh	r3, [r3, #48]
 9626              		.loc 1 3353 9
 9627 009e DBB2     		uxtb	r3, r3
 9628 00a0 1946     		mov	r1, r3
 9629 00a2 1046     		mov	r0, r2
 9630 00a4 FFF7FEFF 		bl	hals_i2c_data_transmit
 9631 00a8 21E0     		b	.L462
 9632              	.L461:
3354:../firmware/gd32f3x0_hal_peripheral/Source/gd32f3x0_hal_i2c.c ****     } else {
3355:../firmware/gd32f3x0_hal_peripheral/Source/gd32f3x0_hal_i2c.c ****         /* two bytes address */
3356:../firmware/gd32f3x0_hal_peripheral/Source/gd32f3x0_hal_i2c.c ****         hals_i2c_data_transmit(i2c_dev->periph, I2C_MEMORY_ADDRESS_MSB(i2c_dev->slave_address.memor
 9633              		.loc 1 3356 9
 9634 00aa 7B68     		ldr	r3, [r7, #4]
 9635 00ac 1A68     		ldr	r2, [r3]
 9636              		.loc 1 3356 49
 9637 00ae 7B68     		ldr	r3, [r7, #4]
 9638 00b0 1B8E     		ldrh	r3, [r3, #48]
 9639 00b2 1B0A     		lsrs	r3, r3, #8
 9640 00b4 9BB2     		uxth	r3, r3
 9641              		.loc 1 3356 9
 9642 00b6 DBB2     		uxtb	r3, r3
 9643 00b8 1946     		mov	r1, r3
 9644 00ba 1046     		mov	r0, r2
 9645 00bc FFF7FEFF 		bl	hals_i2c_data_transmit
3357:../firmware/gd32f3x0_hal_peripheral/Source/gd32f3x0_hal_i2c.c ****         if(HAL_ERR_NONE != _i2c_wait_flag_timeout(i2c_dev->periph, I2C_FLAG_TBE, SET, timeout_ms)) 
 9646              		.loc 1 3357 28
 9647 00c0 7B68     		ldr	r3, [r7, #4]
 9648 00c2 1868     		ldr	r0, [r3]
 9649 00c4 3B68     		ldr	r3, [r7]
 9650 00c6 0122     		movs	r2, #1
 9651 00c8 40F20751 		movw	r1, #1287
 9652 00cc FFF7FEFF 		bl	_i2c_wait_flag_timeout
 9653 00d0 0346     		mov	r3, r0
 9654              		.loc 1 3357 11
 9655 00d2 002B     		cmp	r3, #0
 9656 00d4 02D0     		beq	.L463
3358:../firmware/gd32f3x0_hal_peripheral/Source/gd32f3x0_hal_i2c.c ****             HAL_DEBUGW("i2c get TBE timeout");
3359:../firmware/gd32f3x0_hal_peripheral/Source/gd32f3x0_hal_i2c.c ****             return HAL_ERR_TIMEOUT;
 9657              		.loc 1 3359 20
 9658 00d6 6FF00403 		mvn	r3, #4
 9659 00da 17E0     		b	.L458
 9660              	.L463:
3360:../firmware/gd32f3x0_hal_peripheral/Source/gd32f3x0_hal_i2c.c ****         }
3361:../firmware/gd32f3x0_hal_peripheral/Source/gd32f3x0_hal_i2c.c ****         hals_i2c_data_transmit(i2c_dev->periph, I2C_MEMORY_ADDRESS_LSB(i2c_dev->slave_address.memor
 9661              		.loc 1 3361 9
 9662 00dc 7B68     		ldr	r3, [r7, #4]
 9663 00de 1A68     		ldr	r2, [r3]
 9664              		.loc 1 3361 49
 9665 00e0 7B68     		ldr	r3, [r7, #4]
 9666 00e2 1B8E     		ldrh	r3, [r3, #48]
 9667              		.loc 1 3361 9
 9668 00e4 DBB2     		uxtb	r3, r3
 9669 00e6 1946     		mov	r1, r3
 9670 00e8 1046     		mov	r0, r2
 9671 00ea FFF7FEFF 		bl	hals_i2c_data_transmit
 9672              	.L462:
3362:../firmware/gd32f3x0_hal_peripheral/Source/gd32f3x0_hal_i2c.c ****     }
3363:../firmware/gd32f3x0_hal_peripheral/Source/gd32f3x0_hal_i2c.c ****     /* wait for BTC set */
3364:../firmware/gd32f3x0_hal_peripheral/Source/gd32f3x0_hal_i2c.c ****     if(HAL_ERR_NONE != _i2c_wait_flag_timeout(i2c_dev->periph, I2C_FLAG_BTC, SET, timeout_ms)) {
 9673              		.loc 1 3364 24
 9674 00ee 7B68     		ldr	r3, [r7, #4]
 9675 00f0 1868     		ldr	r0, [r3]
 9676 00f2 3B68     		ldr	r3, [r7]
 9677 00f4 0122     		movs	r2, #1
 9678 00f6 40F20251 		movw	r1, #1282
 9679 00fa FFF7FEFF 		bl	_i2c_wait_flag_timeout
 9680 00fe 0346     		mov	r3, r0
 9681              		.loc 1 3364 7
 9682 0100 002B     		cmp	r3, #0
 9683 0102 02D0     		beq	.L464
3365:../firmware/gd32f3x0_hal_peripheral/Source/gd32f3x0_hal_i2c.c ****         HAL_DEBUGW("i2c get BTC timeout");
3366:../firmware/gd32f3x0_hal_peripheral/Source/gd32f3x0_hal_i2c.c ****         return HAL_ERR_TIMEOUT;
 9684              		.loc 1 3366 16
 9685 0104 6FF00403 		mvn	r3, #4
 9686 0108 00E0     		b	.L458
 9687              	.L464:
3367:../firmware/gd32f3x0_hal_peripheral/Source/gd32f3x0_hal_i2c.c ****     }
3368:../firmware/gd32f3x0_hal_peripheral/Source/gd32f3x0_hal_i2c.c ****     return HAL_ERR_NONE;
 9688              		.loc 1 3368 12
 9689 010a 0023     		movs	r3, #0
 9690              	.L458:
3369:../firmware/gd32f3x0_hal_peripheral/Source/gd32f3x0_hal_i2c.c **** }
 9691              		.loc 1 3369 1
 9692 010c 1846     		mov	r0, r3
 9693 010e 0837     		adds	r7, r7, #8
 9694              		.cfi_def_cfa_offset 8
 9695 0110 BD46     		mov	sp, r7
 9696              		.cfi_def_cfa_register 13
 9697              		@ sp needed
 9698 0112 80BD     		pop	{r7, pc}
 9699              		.cfi_endproc
 9700              	.LFE183:
 9702              		.section	.text._i2c_memory_read,"ax",%progbits
 9703              		.align	1
 9704              		.syntax unified
 9705              		.thumb
 9706              		.thumb_func
 9707              		.fpu softvfp
 9709              	_i2c_memory_read:
 9710              	.LFB184:
3370:../firmware/gd32f3x0_hal_peripheral/Source/gd32f3x0_hal_i2c.c **** 
3371:../firmware/gd32f3x0_hal_peripheral/Source/gd32f3x0_hal_i2c.c **** /*!
3372:../firmware/gd32f3x0_hal_peripheral/Source/gd32f3x0_hal_i2c.c ****     \brief      master sends device address for memory read request
3373:../firmware/gd32f3x0_hal_peripheral/Source/gd32f3x0_hal_i2c.c ****     \param[in]  i2c_dev: I2C device information structrue
3374:../firmware/gd32f3x0_hal_peripheral/Source/gd32f3x0_hal_i2c.c ****                   the structure is not necessary to be reconfigured after structrue initialization,
3375:../firmware/gd32f3x0_hal_peripheral/Source/gd32f3x0_hal_i2c.c ****                   the structure parameters altering is automatically configured by core
3376:../firmware/gd32f3x0_hal_peripheral/Source/gd32f3x0_hal_i2c.c ****     \param[in]  timeout_ms: timeout duration
3377:../firmware/gd32f3x0_hal_peripheral/Source/gd32f3x0_hal_i2c.c ****     \param[out] none
3378:../firmware/gd32f3x0_hal_peripheral/Source/gd32f3x0_hal_i2c.c ****     \retval     error code: HAL_ERR_NONE, HAL_ERR_TIMEOUT, details refer to gd32f3x0_hal.h
3379:../firmware/gd32f3x0_hal_peripheral/Source/gd32f3x0_hal_i2c.c **** */
3380:../firmware/gd32f3x0_hal_peripheral/Source/gd32f3x0_hal_i2c.c **** static int32_t _i2c_memory_read(hal_i2c_dev_struct *i2c_dev, uint32_t timeout_ms)
3381:../firmware/gd32f3x0_hal_peripheral/Source/gd32f3x0_hal_i2c.c **** {
 9711              		.loc 1 3381 1
 9712              		.cfi_startproc
 9713              		@ args = 0, pretend = 0, frame = 8
 9714              		@ frame_needed = 1, uses_anonymous_args = 0
 9715 0000 80B5     		push	{r7, lr}
 9716              		.cfi_def_cfa_offset 8
 9717              		.cfi_offset 7, -8
 9718              		.cfi_offset 14, -4
 9719 0002 82B0     		sub	sp, sp, #8
 9720              		.cfi_def_cfa_offset 16
 9721 0004 00AF     		add	r7, sp, #0
 9722              		.cfi_def_cfa_register 7
 9723 0006 7860     		str	r0, [r7, #4]
 9724 0008 3960     		str	r1, [r7]
3382:../firmware/gd32f3x0_hal_peripheral/Source/gd32f3x0_hal_i2c.c ****     /* enable acknowledge */
3383:../firmware/gd32f3x0_hal_peripheral/Source/gd32f3x0_hal_i2c.c ****     hals_i2c_ack_config(i2c_dev->periph, I2C_ACK_ENABLE);
 9725              		.loc 1 3383 5
 9726 000a 7B68     		ldr	r3, [r7, #4]
 9727 000c 1B68     		ldr	r3, [r3]
 9728 000e 4FF48061 		mov	r1, #1024
 9729 0012 1846     		mov	r0, r3
 9730 0014 FFF7FEFF 		bl	hals_i2c_ack_config
3384:../firmware/gd32f3x0_hal_peripheral/Source/gd32f3x0_hal_i2c.c ****     /* send a start condition to I2C bus */
3385:../firmware/gd32f3x0_hal_peripheral/Source/gd32f3x0_hal_i2c.c ****     HAL_I2C_START_ON_BUS(i2c_dev->periph);
 9731              		.loc 1 3385 5
 9732 0018 7B68     		ldr	r3, [r7, #4]
 9733 001a 1B68     		ldr	r3, [r3]
 9734 001c 1B68     		ldr	r3, [r3]
 9735 001e 7A68     		ldr	r2, [r7, #4]
 9736 0020 1268     		ldr	r2, [r2]
 9737 0022 43F48073 		orr	r3, r3, #256
 9738 0026 1360     		str	r3, [r2]
3386:../firmware/gd32f3x0_hal_peripheral/Source/gd32f3x0_hal_i2c.c ****     /* wait until SBSEND bit is set */
3387:../firmware/gd32f3x0_hal_peripheral/Source/gd32f3x0_hal_i2c.c ****     if(HAL_ERR_NONE != _i2c_wait_flag_timeout(i2c_dev->periph, I2C_FLAG_SBSEND, SET, timeout_ms)) {
 9739              		.loc 1 3387 24
 9740 0028 7B68     		ldr	r3, [r7, #4]
 9741 002a 1868     		ldr	r0, [r3]
 9742 002c 3B68     		ldr	r3, [r7]
 9743 002e 0122     		movs	r2, #1
 9744 0030 4FF4A061 		mov	r1, #1280
 9745 0034 FFF7FEFF 		bl	_i2c_wait_flag_timeout
 9746 0038 0346     		mov	r3, r0
 9747              		.loc 1 3387 7
 9748 003a 002B     		cmp	r3, #0
 9749 003c 02D0     		beq	.L466
3388:../firmware/gd32f3x0_hal_peripheral/Source/gd32f3x0_hal_i2c.c ****         HAL_DEBUGW("i2c get SBSEND timeout");
3389:../firmware/gd32f3x0_hal_peripheral/Source/gd32f3x0_hal_i2c.c ****         return HAL_ERR_TIMEOUT;
 9750              		.loc 1 3389 16
 9751 003e 6FF00403 		mvn	r3, #4
 9752 0042 96E0     		b	.L467
 9753              	.L466:
3390:../firmware/gd32f3x0_hal_peripheral/Source/gd32f3x0_hal_i2c.c ****     }
3391:../firmware/gd32f3x0_hal_peripheral/Source/gd32f3x0_hal_i2c.c ****     /* send slave address to I2C bus */
3392:../firmware/gd32f3x0_hal_peripheral/Source/gd32f3x0_hal_i2c.c ****     hals_i2c_master_addressing(i2c_dev->periph, i2c_dev->slave_address.device_address, I2C_TRANSMIT
 9754              		.loc 1 3392 5
 9755 0044 7B68     		ldr	r3, [r7, #4]
 9756 0046 1868     		ldr	r0, [r3]
 9757 0048 7B68     		ldr	r3, [r7, #4]
 9758 004a DB6A     		ldr	r3, [r3, #44]
 9759 004c 6FF00102 		mvn	r2, #1
 9760 0050 1946     		mov	r1, r3
 9761 0052 FFF7FEFF 		bl	hals_i2c_master_addressing
3393:../firmware/gd32f3x0_hal_peripheral/Source/gd32f3x0_hal_i2c.c ****     /* wait until ADDSEND bit is set */
3394:../firmware/gd32f3x0_hal_peripheral/Source/gd32f3x0_hal_i2c.c ****     if(HAL_ERR_NONE != _i2c_wait_flag_timeout(i2c_dev->periph, I2C_FLAG_ADDSEND, SET, timeout_ms)) 
 9762              		.loc 1 3394 24
 9763 0056 7B68     		ldr	r3, [r7, #4]
 9764 0058 1868     		ldr	r0, [r3]
 9765 005a 3B68     		ldr	r3, [r7]
 9766 005c 0122     		movs	r2, #1
 9767 005e 40F20151 		movw	r1, #1281
 9768 0062 FFF7FEFF 		bl	_i2c_wait_flag_timeout
 9769 0066 0346     		mov	r3, r0
 9770              		.loc 1 3394 7
 9771 0068 002B     		cmp	r3, #0
 9772 006a 02D0     		beq	.L468
3395:../firmware/gd32f3x0_hal_peripheral/Source/gd32f3x0_hal_i2c.c ****         HAL_DEBUGW("i2c get ADDSEND timeout");
3396:../firmware/gd32f3x0_hal_peripheral/Source/gd32f3x0_hal_i2c.c ****         return HAL_ERR_TIMEOUT;
 9773              		.loc 1 3396 16
 9774 006c 6FF00403 		mvn	r3, #4
 9775 0070 7FE0     		b	.L467
 9776              	.L468:
3397:../firmware/gd32f3x0_hal_peripheral/Source/gd32f3x0_hal_i2c.c ****     }
3398:../firmware/gd32f3x0_hal_peripheral/Source/gd32f3x0_hal_i2c.c ****     /* clear ADDSEND bit */
3399:../firmware/gd32f3x0_hal_peripheral/Source/gd32f3x0_hal_i2c.c ****     hals_i2c_flag_clear(i2c_dev->periph, I2C_FLAG_ADDSEND);
 9777              		.loc 1 3399 5
 9778 0072 7B68     		ldr	r3, [r7, #4]
 9779 0074 1B68     		ldr	r3, [r3]
 9780 0076 40F20151 		movw	r1, #1281
 9781 007a 1846     		mov	r0, r3
 9782 007c FFF7FEFF 		bl	hals_i2c_flag_clear
3400:../firmware/gd32f3x0_hal_peripheral/Source/gd32f3x0_hal_i2c.c ****     /* wait until the TBE bit is set */
3401:../firmware/gd32f3x0_hal_peripheral/Source/gd32f3x0_hal_i2c.c ****     if(HAL_ERR_NONE != _i2c_wait_flag_timeout(i2c_dev->periph, I2C_FLAG_TBE, SET, timeout_ms)) {
 9783              		.loc 1 3401 24
 9784 0080 7B68     		ldr	r3, [r7, #4]
 9785 0082 1868     		ldr	r0, [r3]
 9786 0084 3B68     		ldr	r3, [r7]
 9787 0086 0122     		movs	r2, #1
 9788 0088 40F20751 		movw	r1, #1287
 9789 008c FFF7FEFF 		bl	_i2c_wait_flag_timeout
 9790 0090 0346     		mov	r3, r0
 9791              		.loc 1 3401 7
 9792 0092 002B     		cmp	r3, #0
 9793 0094 02D0     		beq	.L469
3402:../firmware/gd32f3x0_hal_peripheral/Source/gd32f3x0_hal_i2c.c ****         HAL_DEBUGW("i2c get TBE timeout");
3403:../firmware/gd32f3x0_hal_peripheral/Source/gd32f3x0_hal_i2c.c ****         return HAL_ERR_TIMEOUT;
 9794              		.loc 1 3403 16
 9795 0096 6FF00403 		mvn	r3, #4
 9796 009a 6AE0     		b	.L467
 9797              	.L469:
3404:../firmware/gd32f3x0_hal_peripheral/Source/gd32f3x0_hal_i2c.c ****     }
3405:../firmware/gd32f3x0_hal_peripheral/Source/gd32f3x0_hal_i2c.c ****     /* send memory address to I2C bus */
3406:../firmware/gd32f3x0_hal_peripheral/Source/gd32f3x0_hal_i2c.c ****     if(I2C_MEMORY_ADDRESS_8BIT == i2c_dev->slave_address.address_size) {
 9798              		.loc 1 3406 57
 9799 009c 7B68     		ldr	r3, [r7, #4]
 9800 009e 5B8E     		ldrh	r3, [r3, #50]
 9801              		.loc 1 3406 7
 9802 00a0 002B     		cmp	r3, #0
 9803 00a2 09D1     		bne	.L470
3407:../firmware/gd32f3x0_hal_peripheral/Source/gd32f3x0_hal_i2c.c ****         hals_i2c_data_transmit(i2c_dev->periph, I2C_MEMORY_ADDRESS_LSB(i2c_dev->slave_address.memor
 9804              		.loc 1 3407 9
 9805 00a4 7B68     		ldr	r3, [r7, #4]
 9806 00a6 1A68     		ldr	r2, [r3]
 9807              		.loc 1 3407 49
 9808 00a8 7B68     		ldr	r3, [r7, #4]
 9809 00aa 1B8E     		ldrh	r3, [r3, #48]
 9810              		.loc 1 3407 9
 9811 00ac DBB2     		uxtb	r3, r3
 9812 00ae 1946     		mov	r1, r3
 9813 00b0 1046     		mov	r0, r2
 9814 00b2 FFF7FEFF 		bl	hals_i2c_data_transmit
 9815 00b6 21E0     		b	.L471
 9816              	.L470:
3408:../firmware/gd32f3x0_hal_peripheral/Source/gd32f3x0_hal_i2c.c ****     } else {
3409:../firmware/gd32f3x0_hal_peripheral/Source/gd32f3x0_hal_i2c.c ****         hals_i2c_data_transmit(i2c_dev->periph, I2C_MEMORY_ADDRESS_MSB(i2c_dev->slave_address.memor
 9817              		.loc 1 3409 9
 9818 00b8 7B68     		ldr	r3, [r7, #4]
 9819 00ba 1A68     		ldr	r2, [r3]
 9820              		.loc 1 3409 49
 9821 00bc 7B68     		ldr	r3, [r7, #4]
 9822 00be 1B8E     		ldrh	r3, [r3, #48]
 9823 00c0 1B0A     		lsrs	r3, r3, #8
 9824 00c2 9BB2     		uxth	r3, r3
 9825              		.loc 1 3409 9
 9826 00c4 DBB2     		uxtb	r3, r3
 9827 00c6 1946     		mov	r1, r3
 9828 00c8 1046     		mov	r0, r2
 9829 00ca FFF7FEFF 		bl	hals_i2c_data_transmit
3410:../firmware/gd32f3x0_hal_peripheral/Source/gd32f3x0_hal_i2c.c ****         if(HAL_ERR_NONE != _i2c_wait_flag_timeout(i2c_dev->periph, I2C_FLAG_TBE, SET, timeout_ms)) 
 9830              		.loc 1 3410 28
 9831 00ce 7B68     		ldr	r3, [r7, #4]
 9832 00d0 1868     		ldr	r0, [r3]
 9833 00d2 3B68     		ldr	r3, [r7]
 9834 00d4 0122     		movs	r2, #1
 9835 00d6 40F20751 		movw	r1, #1287
 9836 00da FFF7FEFF 		bl	_i2c_wait_flag_timeout
 9837 00de 0346     		mov	r3, r0
 9838              		.loc 1 3410 11
 9839 00e0 002B     		cmp	r3, #0
 9840 00e2 02D0     		beq	.L472
3411:../firmware/gd32f3x0_hal_peripheral/Source/gd32f3x0_hal_i2c.c ****             HAL_DEBUGW("i2c get TBE timeout");
3412:../firmware/gd32f3x0_hal_peripheral/Source/gd32f3x0_hal_i2c.c ****             return HAL_ERR_TIMEOUT;
 9841              		.loc 1 3412 20
 9842 00e4 6FF00403 		mvn	r3, #4
 9843 00e8 43E0     		b	.L467
 9844              	.L472:
3413:../firmware/gd32f3x0_hal_peripheral/Source/gd32f3x0_hal_i2c.c ****         }
3414:../firmware/gd32f3x0_hal_peripheral/Source/gd32f3x0_hal_i2c.c ****         hals_i2c_data_transmit(i2c_dev->periph, I2C_MEMORY_ADDRESS_LSB(i2c_dev->slave_address.memor
 9845              		.loc 1 3414 9
 9846 00ea 7B68     		ldr	r3, [r7, #4]
 9847 00ec 1A68     		ldr	r2, [r3]
 9848              		.loc 1 3414 49
 9849 00ee 7B68     		ldr	r3, [r7, #4]
 9850 00f0 1B8E     		ldrh	r3, [r3, #48]
 9851              		.loc 1 3414 9
 9852 00f2 DBB2     		uxtb	r3, r3
 9853 00f4 1946     		mov	r1, r3
 9854 00f6 1046     		mov	r0, r2
 9855 00f8 FFF7FEFF 		bl	hals_i2c_data_transmit
 9856              	.L471:
3415:../firmware/gd32f3x0_hal_peripheral/Source/gd32f3x0_hal_i2c.c ****     }
3416:../firmware/gd32f3x0_hal_peripheral/Source/gd32f3x0_hal_i2c.c ****     /* wait until the BTC bit is set */
3417:../firmware/gd32f3x0_hal_peripheral/Source/gd32f3x0_hal_i2c.c ****     if(HAL_ERR_NONE != _i2c_wait_flag_timeout(i2c_dev->periph, I2C_FLAG_BTC, SET, timeout_ms)) {
 9857              		.loc 1 3417 24
 9858 00fc 7B68     		ldr	r3, [r7, #4]
 9859 00fe 1868     		ldr	r0, [r3]
 9860 0100 3B68     		ldr	r3, [r7]
 9861 0102 0122     		movs	r2, #1
 9862 0104 40F20251 		movw	r1, #1282
 9863 0108 FFF7FEFF 		bl	_i2c_wait_flag_timeout
 9864 010c 0346     		mov	r3, r0
 9865              		.loc 1 3417 7
 9866 010e 002B     		cmp	r3, #0
 9867 0110 02D0     		beq	.L473
3418:../firmware/gd32f3x0_hal_peripheral/Source/gd32f3x0_hal_i2c.c ****         HAL_DEBUGW("i2c get BTC timeout");
3419:../firmware/gd32f3x0_hal_peripheral/Source/gd32f3x0_hal_i2c.c ****         return HAL_ERR_TIMEOUT;
 9868              		.loc 1 3419 16
 9869 0112 6FF00403 		mvn	r3, #4
 9870 0116 2CE0     		b	.L467
 9871              	.L473:
3420:../firmware/gd32f3x0_hal_peripheral/Source/gd32f3x0_hal_i2c.c ****     }
3421:../firmware/gd32f3x0_hal_peripheral/Source/gd32f3x0_hal_i2c.c ****     /* send a start condition to I2C bus */
3422:../firmware/gd32f3x0_hal_peripheral/Source/gd32f3x0_hal_i2c.c ****     HAL_I2C_START_ON_BUS(i2c_dev->periph);
 9872              		.loc 1 3422 5
 9873 0118 7B68     		ldr	r3, [r7, #4]
 9874 011a 1B68     		ldr	r3, [r3]
 9875 011c 1B68     		ldr	r3, [r3]
 9876 011e 7A68     		ldr	r2, [r7, #4]
 9877 0120 1268     		ldr	r2, [r2]
 9878 0122 43F48073 		orr	r3, r3, #256
 9879 0126 1360     		str	r3, [r2]
3423:../firmware/gd32f3x0_hal_peripheral/Source/gd32f3x0_hal_i2c.c ****     /* wait until SBSEND bit is set */
3424:../firmware/gd32f3x0_hal_peripheral/Source/gd32f3x0_hal_i2c.c ****     if(HAL_ERR_NONE != _i2c_wait_flag_timeout(i2c_dev->periph, I2C_FLAG_SBSEND, SET, timeout_ms)) {
 9880              		.loc 1 3424 24
 9881 0128 7B68     		ldr	r3, [r7, #4]
 9882 012a 1868     		ldr	r0, [r3]
 9883 012c 3B68     		ldr	r3, [r7]
 9884 012e 0122     		movs	r2, #1
 9885 0130 4FF4A061 		mov	r1, #1280
 9886 0134 FFF7FEFF 		bl	_i2c_wait_flag_timeout
 9887 0138 0346     		mov	r3, r0
 9888              		.loc 1 3424 7
 9889 013a 002B     		cmp	r3, #0
 9890 013c 02D0     		beq	.L474
3425:../firmware/gd32f3x0_hal_peripheral/Source/gd32f3x0_hal_i2c.c ****         HAL_DEBUGW("i2c get SBSEND timeout");
3426:../firmware/gd32f3x0_hal_peripheral/Source/gd32f3x0_hal_i2c.c ****         return HAL_ERR_TIMEOUT;
 9891              		.loc 1 3426 16
 9892 013e 6FF00403 		mvn	r3, #4
 9893 0142 16E0     		b	.L467
 9894              	.L474:
3427:../firmware/gd32f3x0_hal_peripheral/Source/gd32f3x0_hal_i2c.c ****     }
3428:../firmware/gd32f3x0_hal_peripheral/Source/gd32f3x0_hal_i2c.c ****     /* send slave address to I2C bus */
3429:../firmware/gd32f3x0_hal_peripheral/Source/gd32f3x0_hal_i2c.c ****     hals_i2c_master_addressing(i2c_dev->periph, i2c_dev->slave_address.device_address, I2C_RECEIVER
 9895              		.loc 1 3429 5
 9896 0144 7B68     		ldr	r3, [r7, #4]
 9897 0146 1868     		ldr	r0, [r3]
 9898 0148 7B68     		ldr	r3, [r7, #4]
 9899 014a DB6A     		ldr	r3, [r3, #44]
 9900 014c 0122     		movs	r2, #1
 9901 014e 1946     		mov	r1, r3
 9902 0150 FFF7FEFF 		bl	hals_i2c_master_addressing
3430:../firmware/gd32f3x0_hal_peripheral/Source/gd32f3x0_hal_i2c.c ****     if(HAL_ERR_NONE != _i2c_wait_flag_timeout(i2c_dev->periph, I2C_FLAG_ADDSEND, SET, timeout_ms)) 
 9903              		.loc 1 3430 24
 9904 0154 7B68     		ldr	r3, [r7, #4]
 9905 0156 1868     		ldr	r0, [r3]
 9906 0158 3B68     		ldr	r3, [r7]
 9907 015a 0122     		movs	r2, #1
 9908 015c 40F20151 		movw	r1, #1281
 9909 0160 FFF7FEFF 		bl	_i2c_wait_flag_timeout
 9910 0164 0346     		mov	r3, r0
 9911              		.loc 1 3430 7
 9912 0166 002B     		cmp	r3, #0
 9913 0168 02D0     		beq	.L475
3431:../firmware/gd32f3x0_hal_peripheral/Source/gd32f3x0_hal_i2c.c ****         HAL_DEBUGW("i2c get ADDSEND timeout");
3432:../firmware/gd32f3x0_hal_peripheral/Source/gd32f3x0_hal_i2c.c ****         return HAL_ERR_TIMEOUT;
 9914              		.loc 1 3432 16
 9915 016a 6FF00403 		mvn	r3, #4
 9916 016e 00E0     		b	.L467
 9917              	.L475:
3433:../firmware/gd32f3x0_hal_peripheral/Source/gd32f3x0_hal_i2c.c ****     }
3434:../firmware/gd32f3x0_hal_peripheral/Source/gd32f3x0_hal_i2c.c ****     return HAL_ERR_NONE;
 9918              		.loc 1 3434 12
 9919 0170 0023     		movs	r3, #0
 9920              	.L467:
3435:../firmware/gd32f3x0_hal_peripheral/Source/gd32f3x0_hal_i2c.c **** }
 9921              		.loc 1 3435 1
 9922 0172 1846     		mov	r0, r3
 9923 0174 0837     		adds	r7, r7, #8
 9924              		.cfi_def_cfa_offset 8
 9925 0176 BD46     		mov	sp, r7
 9926              		.cfi_def_cfa_register 13
 9927              		@ sp needed
 9928 0178 80BD     		pop	{r7, pc}
 9929              		.cfi_endproc
 9930              	.LFE184:
 9932              		.section	.text._i2c_memmory_write_interrupt,"ax",%progbits
 9933              		.align	1
 9934              		.syntax unified
 9935              		.thumb
 9936              		.thumb_func
 9937              		.fpu softvfp
 9939              	_i2c_memmory_write_interrupt:
 9940              	.LFB185:
3436:../firmware/gd32f3x0_hal_peripheral/Source/gd32f3x0_hal_i2c.c **** 
3437:../firmware/gd32f3x0_hal_peripheral/Source/gd32f3x0_hal_i2c.c **** /*!
3438:../firmware/gd32f3x0_hal_peripheral/Source/gd32f3x0_hal_i2c.c ****     \brief      event handler of memory write in I2C master mode
3439:../firmware/gd32f3x0_hal_peripheral/Source/gd32f3x0_hal_i2c.c ****     \param[in]  i2c: I2C device information structrue
3440:../firmware/gd32f3x0_hal_peripheral/Source/gd32f3x0_hal_i2c.c ****                   the structure is not necessary to be reconfigured after structrue initialization,
3441:../firmware/gd32f3x0_hal_peripheral/Source/gd32f3x0_hal_i2c.c ****                   the structure parameters altering is automatically configured by core
3442:../firmware/gd32f3x0_hal_peripheral/Source/gd32f3x0_hal_i2c.c ****     \param[out] none
3443:../firmware/gd32f3x0_hal_peripheral/Source/gd32f3x0_hal_i2c.c ****     \retval     none
3444:../firmware/gd32f3x0_hal_peripheral/Source/gd32f3x0_hal_i2c.c **** */
3445:../firmware/gd32f3x0_hal_peripheral/Source/gd32f3x0_hal_i2c.c **** static void _i2c_memmory_write_interrupt(void *i2c)
3446:../firmware/gd32f3x0_hal_peripheral/Source/gd32f3x0_hal_i2c.c **** {
 9941              		.loc 1 3446 1
 9942              		.cfi_startproc
 9943              		@ args = 0, pretend = 0, frame = 24
 9944              		@ frame_needed = 1, uses_anonymous_args = 0
 9945 0000 80B5     		push	{r7, lr}
 9946              		.cfi_def_cfa_offset 8
 9947              		.cfi_offset 7, -8
 9948              		.cfi_offset 14, -4
 9949 0002 86B0     		sub	sp, sp, #24
 9950              		.cfi_def_cfa_offset 32
 9951 0004 00AF     		add	r7, sp, #0
 9952              		.cfi_def_cfa_register 7
 9953 0006 7860     		str	r0, [r7, #4]
3447:../firmware/gd32f3x0_hal_peripheral/Source/gd32f3x0_hal_i2c.c ****     hal_i2c_dev_struct *p_i2c = i2c;
 9954              		.loc 1 3447 25
 9955 0008 7B68     		ldr	r3, [r7, #4]
 9956 000a 7B61     		str	r3, [r7, #20]
3448:../firmware/gd32f3x0_hal_peripheral/Source/gd32f3x0_hal_i2c.c ****     hal_i2c_user_cb p_func = (hal_i2c_user_cb)p_i2c->tx_callback;
 9957              		.loc 1 3448 52
 9958 000c 7B69     		ldr	r3, [r7, #20]
 9959 000e DB6C     		ldr	r3, [r3, #76]
 9960              		.loc 1 3448 21
 9961 0010 3B61     		str	r3, [r7, #16]
3449:../firmware/gd32f3x0_hal_peripheral/Source/gd32f3x0_hal_i2c.c ****     uint32_t data_length;
3450:../firmware/gd32f3x0_hal_peripheral/Source/gd32f3x0_hal_i2c.c **** 
3451:../firmware/gd32f3x0_hal_peripheral/Source/gd32f3x0_hal_i2c.c ****     data_length = p_i2c->txbuffer.length;
 9962              		.loc 1 3451 17
 9963 0012 7B69     		ldr	r3, [r7, #20]
 9964 0014 9B69     		ldr	r3, [r3, #24]
 9965 0016 FB60     		str	r3, [r7, #12]
3452:../firmware/gd32f3x0_hal_peripheral/Source/gd32f3x0_hal_i2c.c **** 
3453:../firmware/gd32f3x0_hal_peripheral/Source/gd32f3x0_hal_i2c.c ****     if(hals_i2c_interrupt_flag_get(p_i2c->periph, I2C_INT_FLAG_SBSEND)) {
 9966              		.loc 1 3453 8
 9967 0018 7B69     		ldr	r3, [r7, #20]
 9968 001a 1B68     		ldr	r3, [r3]
 9969 001c 5449     		ldr	r1, .L487
 9970 001e 1846     		mov	r0, r3
 9971 0020 FFF7FEFF 		bl	hals_i2c_interrupt_flag_get
 9972 0024 0346     		mov	r3, r0
 9973              		.loc 1 3453 7
 9974 0026 002B     		cmp	r3, #0
 9975 0028 09D0     		beq	.L477
3454:../firmware/gd32f3x0_hal_peripheral/Source/gd32f3x0_hal_i2c.c ****         /* send slave address */
3455:../firmware/gd32f3x0_hal_peripheral/Source/gd32f3x0_hal_i2c.c ****         hals_i2c_master_addressing(p_i2c->periph, p_i2c->slave_address.device_address, I2C_TRANSMIT
 9976              		.loc 1 3455 9
 9977 002a 7B69     		ldr	r3, [r7, #20]
 9978 002c 1868     		ldr	r0, [r3]
 9979 002e 7B69     		ldr	r3, [r7, #20]
 9980 0030 DB6A     		ldr	r3, [r3, #44]
 9981 0032 6FF00102 		mvn	r2, #1
 9982 0036 1946     		mov	r1, r3
 9983 0038 FFF7FEFF 		bl	hals_i2c_master_addressing
3456:../firmware/gd32f3x0_hal_peripheral/Source/gd32f3x0_hal_i2c.c ****     } else if(hals_i2c_interrupt_flag_get(p_i2c->periph, I2C_INT_FLAG_ADDSEND)) {
3457:../firmware/gd32f3x0_hal_peripheral/Source/gd32f3x0_hal_i2c.c ****         /*clear ADDSEND bit */
3458:../firmware/gd32f3x0_hal_peripheral/Source/gd32f3x0_hal_i2c.c ****         hals_i2c_interrupt_flag_clear(p_i2c->periph, I2C_INT_FLAG_ADDSEND);
3459:../firmware/gd32f3x0_hal_peripheral/Source/gd32f3x0_hal_i2c.c ****     } else if(hals_i2c_interrupt_flag_get(p_i2c->periph, I2C_INT_FLAG_TBE)) {
3460:../firmware/gd32f3x0_hal_peripheral/Source/gd32f3x0_hal_i2c.c ****         if(RESET == p_i2c->slave_address.address_complete) {
3461:../firmware/gd32f3x0_hal_peripheral/Source/gd32f3x0_hal_i2c.c ****             if(I2C_MEMORY_ADDRESS_8BIT == p_i2c->slave_address.address_size) {
3462:../firmware/gd32f3x0_hal_peripheral/Source/gd32f3x0_hal_i2c.c ****                 hals_i2c_data_transmit(p_i2c->periph, I2C_MEMORY_ADDRESS_LSB(p_i2c->slave_address.m
3463:../firmware/gd32f3x0_hal_peripheral/Source/gd32f3x0_hal_i2c.c ****                 p_i2c->slave_address.address_complete = SET;
3464:../firmware/gd32f3x0_hal_peripheral/Source/gd32f3x0_hal_i2c.c ****             } else {
3465:../firmware/gd32f3x0_hal_peripheral/Source/gd32f3x0_hal_i2c.c ****                 if(0 == p_i2c->slave_address.address_count) {
3466:../firmware/gd32f3x0_hal_peripheral/Source/gd32f3x0_hal_i2c.c ****                     hals_i2c_data_transmit(p_i2c->periph, I2C_MEMORY_ADDRESS_MSB(p_i2c->slave_addre
3467:../firmware/gd32f3x0_hal_peripheral/Source/gd32f3x0_hal_i2c.c ****                     p_i2c->slave_address.address_count++;
3468:../firmware/gd32f3x0_hal_peripheral/Source/gd32f3x0_hal_i2c.c ****                 } else {
3469:../firmware/gd32f3x0_hal_peripheral/Source/gd32f3x0_hal_i2c.c ****                     hals_i2c_data_transmit(p_i2c->periph, I2C_MEMORY_ADDRESS_LSB(p_i2c->slave_addre
3470:../firmware/gd32f3x0_hal_peripheral/Source/gd32f3x0_hal_i2c.c ****                 }
3471:../firmware/gd32f3x0_hal_peripheral/Source/gd32f3x0_hal_i2c.c ****             }
3472:../firmware/gd32f3x0_hal_peripheral/Source/gd32f3x0_hal_i2c.c ****             p_i2c->slave_address.address_complete = SET;
3473:../firmware/gd32f3x0_hal_peripheral/Source/gd32f3x0_hal_i2c.c ****         } else {
3474:../firmware/gd32f3x0_hal_peripheral/Source/gd32f3x0_hal_i2c.c ****             if(data_length > p_i2c->txbuffer.pos) {
3475:../firmware/gd32f3x0_hal_peripheral/Source/gd32f3x0_hal_i2c.c ****                 /* the master sends a data byte */
3476:../firmware/gd32f3x0_hal_peripheral/Source/gd32f3x0_hal_i2c.c ****                 hals_i2c_data_transmit(p_i2c->periph, *p_i2c->txbuffer.buffer++);
3477:../firmware/gd32f3x0_hal_peripheral/Source/gd32f3x0_hal_i2c.c ****                 p_i2c->txbuffer.pos++;
3478:../firmware/gd32f3x0_hal_peripheral/Source/gd32f3x0_hal_i2c.c **** 
3479:../firmware/gd32f3x0_hal_peripheral/Source/gd32f3x0_hal_i2c.c ****             } else {
3480:../firmware/gd32f3x0_hal_peripheral/Source/gd32f3x0_hal_i2c.c ****                 /* the master sends a stop condition to I2C bus */
3481:../firmware/gd32f3x0_hal_peripheral/Source/gd32f3x0_hal_i2c.c ****                 HAL_I2C_STOP_ON_BUS(p_i2c->periph);
3482:../firmware/gd32f3x0_hal_peripheral/Source/gd32f3x0_hal_i2c.c ****                 /* disable the I2C interrupt */
3483:../firmware/gd32f3x0_hal_peripheral/Source/gd32f3x0_hal_i2c.c ****                 hals_i2c_interrupt_disable(p_i2c->periph, I2C_INT_BUF);
3484:../firmware/gd32f3x0_hal_peripheral/Source/gd32f3x0_hal_i2c.c ****                 hals_i2c_interrupt_disable(p_i2c->periph, I2C_INT_EV);
3485:../firmware/gd32f3x0_hal_peripheral/Source/gd32f3x0_hal_i2c.c ****                 hals_i2c_interrupt_disable(p_i2c->periph, I2C_INT_ERR);
3486:../firmware/gd32f3x0_hal_peripheral/Source/gd32f3x0_hal_i2c.c ****                 if(NULL != p_func) {
3487:../firmware/gd32f3x0_hal_peripheral/Source/gd32f3x0_hal_i2c.c ****                     p_func(p_i2c);
3488:../firmware/gd32f3x0_hal_peripheral/Source/gd32f3x0_hal_i2c.c ****                 }
3489:../firmware/gd32f3x0_hal_peripheral/Source/gd32f3x0_hal_i2c.c ****                 p_i2c->tx_state = HAL_I2C_STATE_READY;
3490:../firmware/gd32f3x0_hal_peripheral/Source/gd32f3x0_hal_i2c.c ****             }
3491:../firmware/gd32f3x0_hal_peripheral/Source/gd32f3x0_hal_i2c.c ****         }
3492:../firmware/gd32f3x0_hal_peripheral/Source/gd32f3x0_hal_i2c.c ****     }
3493:../firmware/gd32f3x0_hal_peripheral/Source/gd32f3x0_hal_i2c.c **** }
 9984              		.loc 1 3493 1
 9985 003c 94E0     		b	.L486
 9986              	.L477:
3456:../firmware/gd32f3x0_hal_peripheral/Source/gd32f3x0_hal_i2c.c ****     } else if(hals_i2c_interrupt_flag_get(p_i2c->periph, I2C_INT_FLAG_ADDSEND)) {
 9987              		.loc 1 3456 15
 9988 003e 7B69     		ldr	r3, [r7, #20]
 9989 0040 1B68     		ldr	r3, [r3]
 9990 0042 4C49     		ldr	r1, .L487+4
 9991 0044 1846     		mov	r0, r3
 9992 0046 FFF7FEFF 		bl	hals_i2c_interrupt_flag_get
 9993 004a 0346     		mov	r3, r0
3456:../firmware/gd32f3x0_hal_peripheral/Source/gd32f3x0_hal_i2c.c ****     } else if(hals_i2c_interrupt_flag_get(p_i2c->periph, I2C_INT_FLAG_ADDSEND)) {
 9994              		.loc 1 3456 14
 9995 004c 002B     		cmp	r3, #0
 9996 004e 06D0     		beq	.L479
3458:../firmware/gd32f3x0_hal_peripheral/Source/gd32f3x0_hal_i2c.c ****     } else if(hals_i2c_interrupt_flag_get(p_i2c->periph, I2C_INT_FLAG_TBE)) {
 9997              		.loc 1 3458 9
 9998 0050 7B69     		ldr	r3, [r7, #20]
 9999 0052 1B68     		ldr	r3, [r3]
 10000 0054 4749     		ldr	r1, .L487+4
 10001 0056 1846     		mov	r0, r3
 10002 0058 FFF7FEFF 		bl	hals_i2c_interrupt_flag_clear
 10003              		.loc 1 3493 1
 10004 005c 84E0     		b	.L486
 10005              	.L479:
3459:../firmware/gd32f3x0_hal_peripheral/Source/gd32f3x0_hal_i2c.c ****         if(RESET == p_i2c->slave_address.address_complete) {
 10006              		.loc 1 3459 15
 10007 005e 7B69     		ldr	r3, [r7, #20]
 10008 0060 1B68     		ldr	r3, [r3]
 10009 0062 4549     		ldr	r1, .L487+8
 10010 0064 1846     		mov	r0, r3
 10011 0066 FFF7FEFF 		bl	hals_i2c_interrupt_flag_get
 10012 006a 0346     		mov	r3, r0
3459:../firmware/gd32f3x0_hal_peripheral/Source/gd32f3x0_hal_i2c.c ****         if(RESET == p_i2c->slave_address.address_complete) {
 10013              		.loc 1 3459 14
 10014 006c 002B     		cmp	r3, #0
 10015 006e 7BD0     		beq	.L486
3460:../firmware/gd32f3x0_hal_peripheral/Source/gd32f3x0_hal_i2c.c ****             if(I2C_MEMORY_ADDRESS_8BIT == p_i2c->slave_address.address_size) {
 10016              		.loc 1 3460 41
 10017 0070 7B69     		ldr	r3, [r7, #20]
 10018 0072 93F83430 		ldrb	r3, [r3, #52]	@ zero_extendqisi2
3460:../firmware/gd32f3x0_hal_peripheral/Source/gd32f3x0_hal_i2c.c ****             if(I2C_MEMORY_ADDRESS_8BIT == p_i2c->slave_address.address_size) {
 10019              		.loc 1 3460 11
 10020 0076 002B     		cmp	r3, #0
 10021 0078 38D1     		bne	.L480
3461:../firmware/gd32f3x0_hal_peripheral/Source/gd32f3x0_hal_i2c.c ****                 hals_i2c_data_transmit(p_i2c->periph, I2C_MEMORY_ADDRESS_LSB(p_i2c->slave_address.m
 10022              		.loc 1 3461 63
 10023 007a 7B69     		ldr	r3, [r7, #20]
 10024 007c 5B8E     		ldrh	r3, [r3, #50]
3461:../firmware/gd32f3x0_hal_peripheral/Source/gd32f3x0_hal_i2c.c ****                 hals_i2c_data_transmit(p_i2c->periph, I2C_MEMORY_ADDRESS_LSB(p_i2c->slave_address.m
 10025              		.loc 1 3461 15
 10026 007e 002B     		cmp	r3, #0
 10027 0080 0DD1     		bne	.L481
3462:../firmware/gd32f3x0_hal_peripheral/Source/gd32f3x0_hal_i2c.c ****                 p_i2c->slave_address.address_complete = SET;
 10028              		.loc 1 3462 17
 10029 0082 7B69     		ldr	r3, [r7, #20]
 10030 0084 1A68     		ldr	r2, [r3]
3462:../firmware/gd32f3x0_hal_peripheral/Source/gd32f3x0_hal_i2c.c ****                 p_i2c->slave_address.address_complete = SET;
 10031              		.loc 1 3462 55
 10032 0086 7B69     		ldr	r3, [r7, #20]
 10033 0088 1B8E     		ldrh	r3, [r3, #48]
3462:../firmware/gd32f3x0_hal_peripheral/Source/gd32f3x0_hal_i2c.c ****                 p_i2c->slave_address.address_complete = SET;
 10034              		.loc 1 3462 17
 10035 008a DBB2     		uxtb	r3, r3
 10036 008c 1946     		mov	r1, r3
 10037 008e 1046     		mov	r0, r2
 10038 0090 FFF7FEFF 		bl	hals_i2c_data_transmit
3463:../firmware/gd32f3x0_hal_peripheral/Source/gd32f3x0_hal_i2c.c ****             } else {
 10039              		.loc 1 3463 55
 10040 0094 7B69     		ldr	r3, [r7, #20]
 10041 0096 0122     		movs	r2, #1
 10042 0098 83F83420 		strb	r2, [r3, #52]
 10043 009c 21E0     		b	.L482
 10044              	.L481:
3465:../firmware/gd32f3x0_hal_peripheral/Source/gd32f3x0_hal_i2c.c ****                     hals_i2c_data_transmit(p_i2c->periph, I2C_MEMORY_ADDRESS_MSB(p_i2c->slave_addre
 10045              		.loc 1 3465 45
 10046 009e 7B69     		ldr	r3, [r7, #20]
 10047 00a0 93F83530 		ldrb	r3, [r3, #53]	@ zero_extendqisi2
3465:../firmware/gd32f3x0_hal_peripheral/Source/gd32f3x0_hal_i2c.c ****                     hals_i2c_data_transmit(p_i2c->periph, I2C_MEMORY_ADDRESS_MSB(p_i2c->slave_addre
 10048              		.loc 1 3465 19
 10049 00a4 002B     		cmp	r3, #0
 10050 00a6 13D1     		bne	.L483
3466:../firmware/gd32f3x0_hal_peripheral/Source/gd32f3x0_hal_i2c.c ****                     p_i2c->slave_address.address_count++;
 10051              		.loc 1 3466 21
 10052 00a8 7B69     		ldr	r3, [r7, #20]
 10053 00aa 1A68     		ldr	r2, [r3]
3466:../firmware/gd32f3x0_hal_peripheral/Source/gd32f3x0_hal_i2c.c ****                     p_i2c->slave_address.address_count++;
 10054              		.loc 1 3466 59
 10055 00ac 7B69     		ldr	r3, [r7, #20]
 10056 00ae 1B8E     		ldrh	r3, [r3, #48]
 10057 00b0 1B0A     		lsrs	r3, r3, #8
 10058 00b2 9BB2     		uxth	r3, r3
3466:../firmware/gd32f3x0_hal_peripheral/Source/gd32f3x0_hal_i2c.c ****                     p_i2c->slave_address.address_count++;
 10059              		.loc 1 3466 21
 10060 00b4 DBB2     		uxtb	r3, r3
 10061 00b6 1946     		mov	r1, r3
 10062 00b8 1046     		mov	r0, r2
 10063 00ba FFF7FEFF 		bl	hals_i2c_data_transmit
3467:../firmware/gd32f3x0_hal_peripheral/Source/gd32f3x0_hal_i2c.c ****                 } else {
 10064              		.loc 1 3467 41
 10065 00be 7B69     		ldr	r3, [r7, #20]
 10066 00c0 93F83530 		ldrb	r3, [r3, #53]	@ zero_extendqisi2
3467:../firmware/gd32f3x0_hal_peripheral/Source/gd32f3x0_hal_i2c.c ****                 } else {
 10067              		.loc 1 3467 55
 10068 00c4 0133     		adds	r3, r3, #1
 10069 00c6 DAB2     		uxtb	r2, r3
 10070 00c8 7B69     		ldr	r3, [r7, #20]
 10071 00ca 83F83520 		strb	r2, [r3, #53]
 10072 00ce 08E0     		b	.L482
 10073              	.L483:
3469:../firmware/gd32f3x0_hal_peripheral/Source/gd32f3x0_hal_i2c.c ****                 }
 10074              		.loc 1 3469 21
 10075 00d0 7B69     		ldr	r3, [r7, #20]
 10076 00d2 1A68     		ldr	r2, [r3]
3469:../firmware/gd32f3x0_hal_peripheral/Source/gd32f3x0_hal_i2c.c ****                 }
 10077              		.loc 1 3469 59
 10078 00d4 7B69     		ldr	r3, [r7, #20]
 10079 00d6 1B8E     		ldrh	r3, [r3, #48]
3469:../firmware/gd32f3x0_hal_peripheral/Source/gd32f3x0_hal_i2c.c ****                 }
 10080              		.loc 1 3469 21
 10081 00d8 DBB2     		uxtb	r3, r3
 10082 00da 1946     		mov	r1, r3
 10083 00dc 1046     		mov	r0, r2
 10084 00de FFF7FEFF 		bl	hals_i2c_data_transmit
 10085              	.L482:
3472:../firmware/gd32f3x0_hal_peripheral/Source/gd32f3x0_hal_i2c.c ****         } else {
 10086              		.loc 1 3472 51
 10087 00e2 7B69     		ldr	r3, [r7, #20]
 10088 00e4 0122     		movs	r2, #1
 10089 00e6 83F83420 		strb	r2, [r3, #52]
 10090              		.loc 1 3493 1
 10091 00ea 3DE0     		b	.L486
 10092              	.L480:
3474:../firmware/gd32f3x0_hal_peripheral/Source/gd32f3x0_hal_i2c.c ****                 /* the master sends a data byte */
 10093              		.loc 1 3474 45
 10094 00ec 7B69     		ldr	r3, [r7, #20]
 10095 00ee DB69     		ldr	r3, [r3, #28]
3474:../firmware/gd32f3x0_hal_peripheral/Source/gd32f3x0_hal_i2c.c ****                 /* the master sends a data byte */
 10096              		.loc 1 3474 15
 10097 00f0 FA68     		ldr	r2, [r7, #12]
 10098 00f2 9A42     		cmp	r2, r3
 10099 00f4 11D9     		bls	.L484
3476:../firmware/gd32f3x0_hal_peripheral/Source/gd32f3x0_hal_i2c.c ****                 p_i2c->txbuffer.pos++;
 10100              		.loc 1 3476 17
 10101 00f6 7B69     		ldr	r3, [r7, #20]
 10102 00f8 1868     		ldr	r0, [r3]
3476:../firmware/gd32f3x0_hal_peripheral/Source/gd32f3x0_hal_i2c.c ****                 p_i2c->txbuffer.pos++;
 10103              		.loc 1 3476 71
 10104 00fa 7B69     		ldr	r3, [r7, #20]
 10105 00fc 5B69     		ldr	r3, [r3, #20]
3476:../firmware/gd32f3x0_hal_peripheral/Source/gd32f3x0_hal_i2c.c ****                 p_i2c->txbuffer.pos++;
 10106              		.loc 1 3476 78
 10107 00fe 591C     		adds	r1, r3, #1
 10108 0100 7A69     		ldr	r2, [r7, #20]
 10109 0102 5161     		str	r1, [r2, #20]
3476:../firmware/gd32f3x0_hal_peripheral/Source/gd32f3x0_hal_i2c.c ****                 p_i2c->txbuffer.pos++;
 10110              		.loc 1 3476 17
 10111 0104 1B78     		ldrb	r3, [r3]
 10112 0106 DBB2     		uxtb	r3, r3
 10113 0108 1946     		mov	r1, r3
 10114 010a FFF7FEFF 		bl	hals_i2c_data_transmit
3477:../firmware/gd32f3x0_hal_peripheral/Source/gd32f3x0_hal_i2c.c **** 
 10115              		.loc 1 3477 32
 10116 010e 7B69     		ldr	r3, [r7, #20]
 10117 0110 DB69     		ldr	r3, [r3, #28]
3477:../firmware/gd32f3x0_hal_peripheral/Source/gd32f3x0_hal_i2c.c **** 
 10118              		.loc 1 3477 36
 10119 0112 5A1C     		adds	r2, r3, #1
 10120 0114 7B69     		ldr	r3, [r7, #20]
 10121 0116 DA61     		str	r2, [r3, #28]
 10122              		.loc 1 3493 1
 10123 0118 26E0     		b	.L486
 10124              	.L484:
3481:../firmware/gd32f3x0_hal_peripheral/Source/gd32f3x0_hal_i2c.c ****                 /* disable the I2C interrupt */
 10125              		.loc 1 3481 17
 10126 011a 7B69     		ldr	r3, [r7, #20]
 10127 011c 1B68     		ldr	r3, [r3]
 10128 011e 1B68     		ldr	r3, [r3]
 10129 0120 7A69     		ldr	r2, [r7, #20]
 10130 0122 1268     		ldr	r2, [r2]
 10131 0124 43F40073 		orr	r3, r3, #512
 10132 0128 1360     		str	r3, [r2]
3483:../firmware/gd32f3x0_hal_peripheral/Source/gd32f3x0_hal_i2c.c ****                 hals_i2c_interrupt_disable(p_i2c->periph, I2C_INT_EV);
 10133              		.loc 1 3483 17
 10134 012a 7B69     		ldr	r3, [r7, #20]
 10135 012c 1B68     		ldr	r3, [r3]
 10136 012e 4FF48571 		mov	r1, #266
 10137 0132 1846     		mov	r0, r3
 10138 0134 FFF7FEFF 		bl	hals_i2c_interrupt_disable
3484:../firmware/gd32f3x0_hal_peripheral/Source/gd32f3x0_hal_i2c.c ****                 hals_i2c_interrupt_disable(p_i2c->periph, I2C_INT_ERR);
 10139              		.loc 1 3484 17
 10140 0138 7B69     		ldr	r3, [r7, #20]
 10141 013a 1B68     		ldr	r3, [r3]
 10142 013c 40F20911 		movw	r1, #265
 10143 0140 1846     		mov	r0, r3
 10144 0142 FFF7FEFF 		bl	hals_i2c_interrupt_disable
3485:../firmware/gd32f3x0_hal_peripheral/Source/gd32f3x0_hal_i2c.c ****                 if(NULL != p_func) {
 10145              		.loc 1 3485 17
 10146 0146 7B69     		ldr	r3, [r7, #20]
 10147 0148 1B68     		ldr	r3, [r3]
 10148 014a 4FF48471 		mov	r1, #264
 10149 014e 1846     		mov	r0, r3
 10150 0150 FFF7FEFF 		bl	hals_i2c_interrupt_disable
3486:../firmware/gd32f3x0_hal_peripheral/Source/gd32f3x0_hal_i2c.c ****                     p_func(p_i2c);
 10151              		.loc 1 3486 19
 10152 0154 3B69     		ldr	r3, [r7, #16]
 10153 0156 002B     		cmp	r3, #0
 10154 0158 02D0     		beq	.L485
3487:../firmware/gd32f3x0_hal_peripheral/Source/gd32f3x0_hal_i2c.c ****                 }
 10155              		.loc 1 3487 21
 10156 015a 3B69     		ldr	r3, [r7, #16]
 10157 015c 7869     		ldr	r0, [r7, #20]
 10158 015e 9847     		blx	r3
 10159              	.LVL12:
 10160              	.L485:
3489:../firmware/gd32f3x0_hal_peripheral/Source/gd32f3x0_hal_i2c.c ****             }
 10161              		.loc 1 3489 33
 10162 0160 7B69     		ldr	r3, [r7, #20]
 10163 0162 0022     		movs	r2, #0
 10164 0164 83F84020 		strb	r2, [r3, #64]
 10165              	.L486:
 10166              		.loc 1 3493 1
 10167 0168 00BF     		nop
 10168 016a 1837     		adds	r7, r7, #24
 10169              		.cfi_def_cfa_offset 8
 10170 016c BD46     		mov	sp, r7
 10171              		.cfi_def_cfa_register 13
 10172              		@ sp needed
 10173 016e 80BD     		pop	{r7, pc}
 10174              	.L488:
 10175              		.align	2
 10176              	.L487:
 10177 0170 09010005 		.word	83886345
 10178 0174 09010105 		.word	83951881
 10179 0178 09010705 		.word	84345097
 10180              		.cfi_endproc
 10181              	.LFE185:
 10183              		.section	.text._i2c_memory_read_interrupt,"ax",%progbits
 10184              		.align	1
 10185              		.syntax unified
 10186              		.thumb
 10187              		.thumb_func
 10188              		.fpu softvfp
 10190              	_i2c_memory_read_interrupt:
 10191              	.LFB186:
3494:../firmware/gd32f3x0_hal_peripheral/Source/gd32f3x0_hal_i2c.c **** 
3495:../firmware/gd32f3x0_hal_peripheral/Source/gd32f3x0_hal_i2c.c **** /*!
3496:../firmware/gd32f3x0_hal_peripheral/Source/gd32f3x0_hal_i2c.c ****     \brief      event handler of memory read in I2C master mode
3497:../firmware/gd32f3x0_hal_peripheral/Source/gd32f3x0_hal_i2c.c ****     \param[in]  i2c: I2C device information structrue
3498:../firmware/gd32f3x0_hal_peripheral/Source/gd32f3x0_hal_i2c.c ****                   the structure is not necessary to be reconfigured after structrue initialization,
3499:../firmware/gd32f3x0_hal_peripheral/Source/gd32f3x0_hal_i2c.c ****                   the structure parameters altering is automatically configured by core
3500:../firmware/gd32f3x0_hal_peripheral/Source/gd32f3x0_hal_i2c.c ****     \param[out] none
3501:../firmware/gd32f3x0_hal_peripheral/Source/gd32f3x0_hal_i2c.c ****     \retval     none
3502:../firmware/gd32f3x0_hal_peripheral/Source/gd32f3x0_hal_i2c.c **** */
3503:../firmware/gd32f3x0_hal_peripheral/Source/gd32f3x0_hal_i2c.c **** static void _i2c_memory_read_interrupt(void *i2c)
3504:../firmware/gd32f3x0_hal_peripheral/Source/gd32f3x0_hal_i2c.c **** {
 10192              		.loc 1 3504 1
 10193              		.cfi_startproc
 10194              		@ args = 0, pretend = 0, frame = 24
 10195              		@ frame_needed = 1, uses_anonymous_args = 0
 10196 0000 90B5     		push	{r4, r7, lr}
 10197              		.cfi_def_cfa_offset 12
 10198              		.cfi_offset 4, -12
 10199              		.cfi_offset 7, -8
 10200              		.cfi_offset 14, -4
 10201 0002 87B0     		sub	sp, sp, #28
 10202              		.cfi_def_cfa_offset 40
 10203 0004 00AF     		add	r7, sp, #0
 10204              		.cfi_def_cfa_register 7
 10205 0006 7860     		str	r0, [r7, #4]
3505:../firmware/gd32f3x0_hal_peripheral/Source/gd32f3x0_hal_i2c.c ****     hal_i2c_dev_struct *p_i2c = i2c;
 10206              		.loc 1 3505 25
 10207 0008 7B68     		ldr	r3, [r7, #4]
 10208 000a 7B61     		str	r3, [r7, #20]
3506:../firmware/gd32f3x0_hal_peripheral/Source/gd32f3x0_hal_i2c.c ****     hal_i2c_user_cb p_func = (hal_i2c_user_cb)p_i2c->rx_callback;
 10209              		.loc 1 3506 52
 10210 000c 7B69     		ldr	r3, [r7, #20]
 10211 000e 9B6C     		ldr	r3, [r3, #72]
 10212              		.loc 1 3506 21
 10213 0010 3B61     		str	r3, [r7, #16]
3507:../firmware/gd32f3x0_hal_peripheral/Source/gd32f3x0_hal_i2c.c ****     uint32_t data_length;
3508:../firmware/gd32f3x0_hal_peripheral/Source/gd32f3x0_hal_i2c.c **** 
3509:../firmware/gd32f3x0_hal_peripheral/Source/gd32f3x0_hal_i2c.c ****     data_length = p_i2c->rxbuffer.length;
 10214              		.loc 1 3509 17
 10215 0012 7B69     		ldr	r3, [r7, #20]
 10216 0014 5B6A     		ldr	r3, [r3, #36]
 10217 0016 FB60     		str	r3, [r7, #12]
3510:../firmware/gd32f3x0_hal_peripheral/Source/gd32f3x0_hal_i2c.c **** 
3511:../firmware/gd32f3x0_hal_peripheral/Source/gd32f3x0_hal_i2c.c ****     if(hals_i2c_interrupt_flag_get(p_i2c->periph, I2C_INT_FLAG_SBSEND)) {
 10218              		.loc 1 3511 8
 10219 0018 7B69     		ldr	r3, [r7, #20]
 10220 001a 1B68     		ldr	r3, [r3]
 10221 001c 8A49     		ldr	r1, .L507
 10222 001e 1846     		mov	r0, r3
 10223 0020 FFF7FEFF 		bl	hals_i2c_interrupt_flag_get
 10224 0024 0346     		mov	r3, r0
 10225              		.loc 1 3511 7
 10226 0026 002B     		cmp	r3, #0
 10227 0028 17D0     		beq	.L490
3512:../firmware/gd32f3x0_hal_peripheral/Source/gd32f3x0_hal_i2c.c ****         if(RESET == p_i2c->slave_address.second_addressing) {
 10228              		.loc 1 3512 41
 10229 002a 7B69     		ldr	r3, [r7, #20]
 10230 002c 93F83630 		ldrb	r3, [r3, #54]	@ zero_extendqisi2
 10231              		.loc 1 3512 11
 10232 0030 002B     		cmp	r3, #0
 10233 0032 09D1     		bne	.L491
3513:../firmware/gd32f3x0_hal_peripheral/Source/gd32f3x0_hal_i2c.c ****             hals_i2c_master_addressing(p_i2c->periph, p_i2c->slave_address.device_address, I2C_TRAN
 10234              		.loc 1 3513 13
 10235 0034 7B69     		ldr	r3, [r7, #20]
 10236 0036 1868     		ldr	r0, [r3]
 10237 0038 7B69     		ldr	r3, [r7, #20]
 10238 003a DB6A     		ldr	r3, [r3, #44]
 10239 003c 6FF00102 		mvn	r2, #1
 10240 0040 1946     		mov	r1, r3
 10241 0042 FFF7FEFF 		bl	hals_i2c_master_addressing
3514:../firmware/gd32f3x0_hal_peripheral/Source/gd32f3x0_hal_i2c.c **** 
3515:../firmware/gd32f3x0_hal_peripheral/Source/gd32f3x0_hal_i2c.c ****         } else {
3516:../firmware/gd32f3x0_hal_peripheral/Source/gd32f3x0_hal_i2c.c ****             /* the master sends slave address */
3517:../firmware/gd32f3x0_hal_peripheral/Source/gd32f3x0_hal_i2c.c ****             hals_i2c_master_addressing(p_i2c->periph, p_i2c->slave_address.device_address, I2C_RECE
3518:../firmware/gd32f3x0_hal_peripheral/Source/gd32f3x0_hal_i2c.c ****         }
3519:../firmware/gd32f3x0_hal_peripheral/Source/gd32f3x0_hal_i2c.c ****     } else if(hals_i2c_interrupt_flag_get(p_i2c->periph, I2C_INT_FLAG_ADDSEND)) {
3520:../firmware/gd32f3x0_hal_peripheral/Source/gd32f3x0_hal_i2c.c ****         if(RESET == p_i2c->slave_address.second_addressing) {
3521:../firmware/gd32f3x0_hal_peripheral/Source/gd32f3x0_hal_i2c.c ****             /* clear the ADDSEND bit */
3522:../firmware/gd32f3x0_hal_peripheral/Source/gd32f3x0_hal_i2c.c ****             hals_i2c_interrupt_flag_clear(p_i2c->periph, I2C_INT_FLAG_ADDSEND);
3523:../firmware/gd32f3x0_hal_peripheral/Source/gd32f3x0_hal_i2c.c ****         } else {
3524:../firmware/gd32f3x0_hal_peripheral/Source/gd32f3x0_hal_i2c.c ****             if((1 == data_length - p_i2c->rxbuffer.pos) || \
3525:../firmware/gd32f3x0_hal_peripheral/Source/gd32f3x0_hal_i2c.c ****                     (2 == data_length - p_i2c->rxbuffer.pos)) {
3526:../firmware/gd32f3x0_hal_peripheral/Source/gd32f3x0_hal_i2c.c ****                 /* clear the ACKEN before the ADDSEND is cleared */
3527:../firmware/gd32f3x0_hal_peripheral/Source/gd32f3x0_hal_i2c.c ****                 hals_i2c_ack_config(p_i2c->periph, I2C_ACK_DISABLE);
3528:../firmware/gd32f3x0_hal_peripheral/Source/gd32f3x0_hal_i2c.c ****                 /* clear the ADDSEND bit */
3529:../firmware/gd32f3x0_hal_peripheral/Source/gd32f3x0_hal_i2c.c ****                 hals_i2c_interrupt_flag_clear(p_i2c->periph, I2C_INT_FLAG_ADDSEND);
3530:../firmware/gd32f3x0_hal_peripheral/Source/gd32f3x0_hal_i2c.c ****             } else {
3531:../firmware/gd32f3x0_hal_peripheral/Source/gd32f3x0_hal_i2c.c ****                 /* clear the ADDSEND bit */
3532:../firmware/gd32f3x0_hal_peripheral/Source/gd32f3x0_hal_i2c.c ****                 hals_i2c_interrupt_flag_clear(p_i2c->periph, I2C_INT_FLAG_ADDSEND);
3533:../firmware/gd32f3x0_hal_peripheral/Source/gd32f3x0_hal_i2c.c ****             }
3534:../firmware/gd32f3x0_hal_peripheral/Source/gd32f3x0_hal_i2c.c ****         }
3535:../firmware/gd32f3x0_hal_peripheral/Source/gd32f3x0_hal_i2c.c ****     } else if(hals_i2c_interrupt_flag_get(p_i2c->periph, I2C_INT_FLAG_RBNE)) {
3536:../firmware/gd32f3x0_hal_peripheral/Source/gd32f3x0_hal_i2c.c ****         if(data_length > p_i2c->rxbuffer.pos) {
3537:../firmware/gd32f3x0_hal_peripheral/Source/gd32f3x0_hal_i2c.c ****             if(3 == data_length - p_i2c->rxbuffer.pos) {
3538:../firmware/gd32f3x0_hal_peripheral/Source/gd32f3x0_hal_i2c.c ****                 /* wait until the second last data byte is received into the shift register */
3539:../firmware/gd32f3x0_hal_peripheral/Source/gd32f3x0_hal_i2c.c ****                 while(!hals_i2c_interrupt_flag_get(p_i2c->periph, I2C_INT_FLAG_BTC));
3540:../firmware/gd32f3x0_hal_peripheral/Source/gd32f3x0_hal_i2c.c ****                 /* send a NACK for the last data byte */
3541:../firmware/gd32f3x0_hal_peripheral/Source/gd32f3x0_hal_i2c.c ****                 hals_i2c_ack_config(p_i2c->periph, I2C_ACK_DISABLE);
3542:../firmware/gd32f3x0_hal_peripheral/Source/gd32f3x0_hal_i2c.c ****             }
3543:../firmware/gd32f3x0_hal_peripheral/Source/gd32f3x0_hal_i2c.c ****             /* read a data byte from I2C_DATA*/
3544:../firmware/gd32f3x0_hal_peripheral/Source/gd32f3x0_hal_i2c.c ****             *p_i2c->rxbuffer.buffer++ = hals_i2c_data_receive(p_i2c->periph);
3545:../firmware/gd32f3x0_hal_peripheral/Source/gd32f3x0_hal_i2c.c ****             p_i2c->rxbuffer.pos++;
3546:../firmware/gd32f3x0_hal_peripheral/Source/gd32f3x0_hal_i2c.c ****             if(0 == data_length - p_i2c->rxbuffer.pos) {
3547:../firmware/gd32f3x0_hal_peripheral/Source/gd32f3x0_hal_i2c.c ****                 /* send a stop condition */
3548:../firmware/gd32f3x0_hal_peripheral/Source/gd32f3x0_hal_i2c.c ****                 HAL_I2C_STOP_ON_BUS(p_i2c->periph);
3549:../firmware/gd32f3x0_hal_peripheral/Source/gd32f3x0_hal_i2c.c ****                 hals_i2c_ack_config(p_i2c->periph, I2C_ACK_ENABLE);
3550:../firmware/gd32f3x0_hal_peripheral/Source/gd32f3x0_hal_i2c.c ****                 hals_i2c_ackpos_config(p_i2c->periph, I2C_ACKPOS_CURRENT);
3551:../firmware/gd32f3x0_hal_peripheral/Source/gd32f3x0_hal_i2c.c ****                 /* disable the I2C interrupt */
3552:../firmware/gd32f3x0_hal_peripheral/Source/gd32f3x0_hal_i2c.c ****                 hals_i2c_interrupt_disable(p_i2c->periph, I2C_INT_BUF);
3553:../firmware/gd32f3x0_hal_peripheral/Source/gd32f3x0_hal_i2c.c ****                 hals_i2c_interrupt_disable(p_i2c->periph, I2C_INT_EV);
3554:../firmware/gd32f3x0_hal_peripheral/Source/gd32f3x0_hal_i2c.c ****                 hals_i2c_interrupt_disable(p_i2c->periph, I2C_INT_ERR);
3555:../firmware/gd32f3x0_hal_peripheral/Source/gd32f3x0_hal_i2c.c ****                 if(NULL != p_func) {
3556:../firmware/gd32f3x0_hal_peripheral/Source/gd32f3x0_hal_i2c.c ****                     p_func(p_i2c);
3557:../firmware/gd32f3x0_hal_peripheral/Source/gd32f3x0_hal_i2c.c ****                 }
3558:../firmware/gd32f3x0_hal_peripheral/Source/gd32f3x0_hal_i2c.c ****             }
3559:../firmware/gd32f3x0_hal_peripheral/Source/gd32f3x0_hal_i2c.c ****         }
3560:../firmware/gd32f3x0_hal_peripheral/Source/gd32f3x0_hal_i2c.c ****     } else if(hals_i2c_interrupt_flag_get(p_i2c->periph, I2C_INT_FLAG_TBE)) {
3561:../firmware/gd32f3x0_hal_peripheral/Source/gd32f3x0_hal_i2c.c ****         if(I2C_MEMORY_ADDRESS_8BIT == p_i2c->slave_address.address_size) {
3562:../firmware/gd32f3x0_hal_peripheral/Source/gd32f3x0_hal_i2c.c ****             hals_i2c_data_transmit(p_i2c->periph, I2C_MEMORY_ADDRESS_LSB(p_i2c->slave_address.memor
3563:../firmware/gd32f3x0_hal_peripheral/Source/gd32f3x0_hal_i2c.c ****             p_i2c->slave_address.second_addressing = SET;
3564:../firmware/gd32f3x0_hal_peripheral/Source/gd32f3x0_hal_i2c.c ****         } else {
3565:../firmware/gd32f3x0_hal_peripheral/Source/gd32f3x0_hal_i2c.c ****             if(0 == p_i2c->slave_address.address_count) {
3566:../firmware/gd32f3x0_hal_peripheral/Source/gd32f3x0_hal_i2c.c ****                 hals_i2c_data_transmit(p_i2c->periph, I2C_MEMORY_ADDRESS_MSB(p_i2c->slave_address.m
3567:../firmware/gd32f3x0_hal_peripheral/Source/gd32f3x0_hal_i2c.c ****                 p_i2c->slave_address.address_count++;
3568:../firmware/gd32f3x0_hal_peripheral/Source/gd32f3x0_hal_i2c.c ****             } else {
3569:../firmware/gd32f3x0_hal_peripheral/Source/gd32f3x0_hal_i2c.c ****                 hals_i2c_data_transmit(p_i2c->periph, I2C_MEMORY_ADDRESS_LSB(p_i2c->slave_address.m
3570:../firmware/gd32f3x0_hal_peripheral/Source/gd32f3x0_hal_i2c.c ****             }
3571:../firmware/gd32f3x0_hal_peripheral/Source/gd32f3x0_hal_i2c.c ****         }
3572:../firmware/gd32f3x0_hal_peripheral/Source/gd32f3x0_hal_i2c.c ****         /* wait until BTC bit is set */
3573:../firmware/gd32f3x0_hal_peripheral/Source/gd32f3x0_hal_i2c.c ****         while(!hals_i2c_flag_get(p_i2c->periph, I2C_FLAG_BTC));
3574:../firmware/gd32f3x0_hal_peripheral/Source/gd32f3x0_hal_i2c.c ****         /* send a start condition to I2C bus */
3575:../firmware/gd32f3x0_hal_peripheral/Source/gd32f3x0_hal_i2c.c ****         HAL_I2C_START_ON_BUS(p_i2c->periph);
3576:../firmware/gd32f3x0_hal_peripheral/Source/gd32f3x0_hal_i2c.c ****     }
3577:../firmware/gd32f3x0_hal_peripheral/Source/gd32f3x0_hal_i2c.c **** }
 10242              		.loc 1 3577 1
 10243 0046 FAE0     		b	.L505
 10244              	.L491:
3517:../firmware/gd32f3x0_hal_peripheral/Source/gd32f3x0_hal_i2c.c ****         }
 10245              		.loc 1 3517 13
 10246 0048 7B69     		ldr	r3, [r7, #20]
 10247 004a 1868     		ldr	r0, [r3]
 10248 004c 7B69     		ldr	r3, [r7, #20]
 10249 004e DB6A     		ldr	r3, [r3, #44]
 10250 0050 0122     		movs	r2, #1
 10251 0052 1946     		mov	r1, r3
 10252 0054 FFF7FEFF 		bl	hals_i2c_master_addressing
 10253              		.loc 1 3577 1
 10254 0058 F1E0     		b	.L505
 10255              	.L490:
3519:../firmware/gd32f3x0_hal_peripheral/Source/gd32f3x0_hal_i2c.c ****         if(RESET == p_i2c->slave_address.second_addressing) {
 10256              		.loc 1 3519 15
 10257 005a 7B69     		ldr	r3, [r7, #20]
 10258 005c 1B68     		ldr	r3, [r3]
 10259 005e 7B49     		ldr	r1, .L507+4
 10260 0060 1846     		mov	r0, r3
 10261 0062 FFF7FEFF 		bl	hals_i2c_interrupt_flag_get
 10262 0066 0346     		mov	r3, r0
3519:../firmware/gd32f3x0_hal_peripheral/Source/gd32f3x0_hal_i2c.c ****         if(RESET == p_i2c->slave_address.second_addressing) {
 10263              		.loc 1 3519 14
 10264 0068 002B     		cmp	r3, #0
 10265 006a 2BD0     		beq	.L493
3520:../firmware/gd32f3x0_hal_peripheral/Source/gd32f3x0_hal_i2c.c ****             /* clear the ADDSEND bit */
 10266              		.loc 1 3520 41
 10267 006c 7B69     		ldr	r3, [r7, #20]
 10268 006e 93F83630 		ldrb	r3, [r3, #54]	@ zero_extendqisi2
3520:../firmware/gd32f3x0_hal_peripheral/Source/gd32f3x0_hal_i2c.c ****             /* clear the ADDSEND bit */
 10269              		.loc 1 3520 11
 10270 0072 002B     		cmp	r3, #0
 10271 0074 06D1     		bne	.L494
3522:../firmware/gd32f3x0_hal_peripheral/Source/gd32f3x0_hal_i2c.c ****         } else {
 10272              		.loc 1 3522 13
 10273 0076 7B69     		ldr	r3, [r7, #20]
 10274 0078 1B68     		ldr	r3, [r3]
 10275 007a 7449     		ldr	r1, .L507+4
 10276 007c 1846     		mov	r0, r3
 10277 007e FFF7FEFF 		bl	hals_i2c_interrupt_flag_clear
 10278              		.loc 1 3577 1
 10279 0082 DCE0     		b	.L505
 10280              	.L494:
3524:../firmware/gd32f3x0_hal_peripheral/Source/gd32f3x0_hal_i2c.c ****                     (2 == data_length - p_i2c->rxbuffer.pos)) {
 10281              		.loc 1 3524 51
 10282 0084 7B69     		ldr	r3, [r7, #20]
 10283 0086 9B6A     		ldr	r3, [r3, #40]
3524:../firmware/gd32f3x0_hal_peripheral/Source/gd32f3x0_hal_i2c.c ****                     (2 == data_length - p_i2c->rxbuffer.pos)) {
 10284              		.loc 1 3524 34
 10285 0088 FA68     		ldr	r2, [r7, #12]
 10286 008a D31A     		subs	r3, r2, r3
3524:../firmware/gd32f3x0_hal_peripheral/Source/gd32f3x0_hal_i2c.c ****                     (2 == data_length - p_i2c->rxbuffer.pos)) {
 10287              		.loc 1 3524 15
 10288 008c 012B     		cmp	r3, #1
 10289 008e 05D0     		beq	.L496
3525:../firmware/gd32f3x0_hal_peripheral/Source/gd32f3x0_hal_i2c.c ****                 /* clear the ACKEN before the ADDSEND is cleared */
 10290              		.loc 1 3525 56 discriminator 1
 10291 0090 7B69     		ldr	r3, [r7, #20]
 10292 0092 9B6A     		ldr	r3, [r3, #40]
3525:../firmware/gd32f3x0_hal_peripheral/Source/gd32f3x0_hal_i2c.c ****                 /* clear the ACKEN before the ADDSEND is cleared */
 10293              		.loc 1 3525 39 discriminator 1
 10294 0094 FA68     		ldr	r2, [r7, #12]
 10295 0096 D31A     		subs	r3, r2, r3
3524:../firmware/gd32f3x0_hal_peripheral/Source/gd32f3x0_hal_i2c.c ****                     (2 == data_length - p_i2c->rxbuffer.pos)) {
 10296              		.loc 1 3524 57 discriminator 1
 10297 0098 022B     		cmp	r3, #2
 10298 009a 0CD1     		bne	.L497
 10299              	.L496:
3527:../firmware/gd32f3x0_hal_peripheral/Source/gd32f3x0_hal_i2c.c ****                 /* clear the ADDSEND bit */
 10300              		.loc 1 3527 17
 10301 009c 7B69     		ldr	r3, [r7, #20]
 10302 009e 1B68     		ldr	r3, [r3]
 10303 00a0 0021     		movs	r1, #0
 10304 00a2 1846     		mov	r0, r3
 10305 00a4 FFF7FEFF 		bl	hals_i2c_ack_config
3529:../firmware/gd32f3x0_hal_peripheral/Source/gd32f3x0_hal_i2c.c ****             } else {
 10306              		.loc 1 3529 17
 10307 00a8 7B69     		ldr	r3, [r7, #20]
 10308 00aa 1B68     		ldr	r3, [r3]
 10309 00ac 6749     		ldr	r1, .L507+4
 10310 00ae 1846     		mov	r0, r3
 10311 00b0 FFF7FEFF 		bl	hals_i2c_interrupt_flag_clear
 10312              		.loc 1 3577 1
 10313 00b4 C3E0     		b	.L505
 10314              	.L497:
3532:../firmware/gd32f3x0_hal_peripheral/Source/gd32f3x0_hal_i2c.c ****             }
 10315              		.loc 1 3532 17
 10316 00b6 7B69     		ldr	r3, [r7, #20]
 10317 00b8 1B68     		ldr	r3, [r3]
 10318 00ba 6449     		ldr	r1, .L507+4
 10319 00bc 1846     		mov	r0, r3
 10320 00be FFF7FEFF 		bl	hals_i2c_interrupt_flag_clear
 10321              		.loc 1 3577 1
 10322 00c2 BCE0     		b	.L505
 10323              	.L493:
3535:../firmware/gd32f3x0_hal_peripheral/Source/gd32f3x0_hal_i2c.c ****         if(data_length > p_i2c->rxbuffer.pos) {
 10324              		.loc 1 3535 15
 10325 00c4 7B69     		ldr	r3, [r7, #20]
 10326 00c6 1B68     		ldr	r3, [r3]
 10327 00c8 6149     		ldr	r1, .L507+8
 10328 00ca 1846     		mov	r0, r3
 10329 00cc FFF7FEFF 		bl	hals_i2c_interrupt_flag_get
 10330 00d0 0346     		mov	r3, r0
3535:../firmware/gd32f3x0_hal_peripheral/Source/gd32f3x0_hal_i2c.c ****         if(data_length > p_i2c->rxbuffer.pos) {
 10331              		.loc 1 3535 14
 10332 00d2 002B     		cmp	r3, #0
 10333 00d4 63D0     		beq	.L498
3536:../firmware/gd32f3x0_hal_peripheral/Source/gd32f3x0_hal_i2c.c ****             if(3 == data_length - p_i2c->rxbuffer.pos) {
 10334              		.loc 1 3536 41
 10335 00d6 7B69     		ldr	r3, [r7, #20]
 10336 00d8 9B6A     		ldr	r3, [r3, #40]
3536:../firmware/gd32f3x0_hal_peripheral/Source/gd32f3x0_hal_i2c.c ****             if(3 == data_length - p_i2c->rxbuffer.pos) {
 10337              		.loc 1 3536 11
 10338 00da FA68     		ldr	r2, [r7, #12]
 10339 00dc 9A42     		cmp	r2, r3
 10340 00de 40F2AE80 		bls	.L505
3537:../firmware/gd32f3x0_hal_peripheral/Source/gd32f3x0_hal_i2c.c ****                 /* wait until the second last data byte is received into the shift register */
 10341              		.loc 1 3537 50
 10342 00e2 7B69     		ldr	r3, [r7, #20]
 10343 00e4 9B6A     		ldr	r3, [r3, #40]
3537:../firmware/gd32f3x0_hal_peripheral/Source/gd32f3x0_hal_i2c.c ****                 /* wait until the second last data byte is received into the shift register */
 10344              		.loc 1 3537 33
 10345 00e6 FA68     		ldr	r2, [r7, #12]
 10346 00e8 D31A     		subs	r3, r2, r3
3537:../firmware/gd32f3x0_hal_peripheral/Source/gd32f3x0_hal_i2c.c ****                 /* wait until the second last data byte is received into the shift register */
 10347              		.loc 1 3537 15
 10348 00ea 032B     		cmp	r3, #3
 10349 00ec 0FD1     		bne	.L499
3539:../firmware/gd32f3x0_hal_peripheral/Source/gd32f3x0_hal_i2c.c ****                 /* send a NACK for the last data byte */
 10350              		.loc 1 3539 22
 10351 00ee 00BF     		nop
 10352              	.L500:
3539:../firmware/gd32f3x0_hal_peripheral/Source/gd32f3x0_hal_i2c.c ****                 /* send a NACK for the last data byte */
 10353              		.loc 1 3539 24 discriminator 1
 10354 00f0 7B69     		ldr	r3, [r7, #20]
 10355 00f2 1B68     		ldr	r3, [r3]
 10356 00f4 5749     		ldr	r1, .L507+12
 10357 00f6 1846     		mov	r0, r3
 10358 00f8 FFF7FEFF 		bl	hals_i2c_interrupt_flag_get
 10359 00fc 0346     		mov	r3, r0
3539:../firmware/gd32f3x0_hal_peripheral/Source/gd32f3x0_hal_i2c.c ****                 /* send a NACK for the last data byte */
 10360              		.loc 1 3539 22 discriminator 1
 10361 00fe 002B     		cmp	r3, #0
 10362 0100 F6D0     		beq	.L500
3541:../firmware/gd32f3x0_hal_peripheral/Source/gd32f3x0_hal_i2c.c ****             }
 10363              		.loc 1 3541 17
 10364 0102 7B69     		ldr	r3, [r7, #20]
 10365 0104 1B68     		ldr	r3, [r3]
 10366 0106 0021     		movs	r1, #0
 10367 0108 1846     		mov	r0, r3
 10368 010a FFF7FEFF 		bl	hals_i2c_ack_config
 10369              	.L499:
3544:../firmware/gd32f3x0_hal_peripheral/Source/gd32f3x0_hal_i2c.c ****             p_i2c->rxbuffer.pos++;
 10370              		.loc 1 3544 41
 10371 010e 7B69     		ldr	r3, [r7, #20]
 10372 0110 1968     		ldr	r1, [r3]
3544:../firmware/gd32f3x0_hal_peripheral/Source/gd32f3x0_hal_i2c.c ****             p_i2c->rxbuffer.pos++;
 10373              		.loc 1 3544 29
 10374 0112 7B69     		ldr	r3, [r7, #20]
 10375 0114 1C6A     		ldr	r4, [r3, #32]
3544:../firmware/gd32f3x0_hal_peripheral/Source/gd32f3x0_hal_i2c.c ****             p_i2c->rxbuffer.pos++;
 10376              		.loc 1 3544 36
 10377 0116 621C     		adds	r2, r4, #1
 10378 0118 7B69     		ldr	r3, [r7, #20]
 10379 011a 1A62     		str	r2, [r3, #32]
3544:../firmware/gd32f3x0_hal_peripheral/Source/gd32f3x0_hal_i2c.c ****             p_i2c->rxbuffer.pos++;
 10380              		.loc 1 3544 41
 10381 011c 0846     		mov	r0, r1
 10382 011e FFF7FEFF 		bl	hals_i2c_data_receive
 10383 0122 0346     		mov	r3, r0
3544:../firmware/gd32f3x0_hal_peripheral/Source/gd32f3x0_hal_i2c.c ****             p_i2c->rxbuffer.pos++;
 10384              		.loc 1 3544 39
 10385 0124 2370     		strb	r3, [r4]
3545:../firmware/gd32f3x0_hal_peripheral/Source/gd32f3x0_hal_i2c.c ****             if(0 == data_length - p_i2c->rxbuffer.pos) {
 10386              		.loc 1 3545 28
 10387 0126 7B69     		ldr	r3, [r7, #20]
 10388 0128 9B6A     		ldr	r3, [r3, #40]
3545:../firmware/gd32f3x0_hal_peripheral/Source/gd32f3x0_hal_i2c.c ****             if(0 == data_length - p_i2c->rxbuffer.pos) {
 10389              		.loc 1 3545 32
 10390 012a 5A1C     		adds	r2, r3, #1
 10391 012c 7B69     		ldr	r3, [r7, #20]
 10392 012e 9A62     		str	r2, [r3, #40]
3546:../firmware/gd32f3x0_hal_peripheral/Source/gd32f3x0_hal_i2c.c ****                 /* send a stop condition */
 10393              		.loc 1 3546 50
 10394 0130 7B69     		ldr	r3, [r7, #20]
 10395 0132 9B6A     		ldr	r3, [r3, #40]
3546:../firmware/gd32f3x0_hal_peripheral/Source/gd32f3x0_hal_i2c.c ****                 /* send a stop condition */
 10396              		.loc 1 3546 15
 10397 0134 FA68     		ldr	r2, [r7, #12]
 10398 0136 9A42     		cmp	r2, r3
 10399 0138 40F08180 		bne	.L505
3548:../firmware/gd32f3x0_hal_peripheral/Source/gd32f3x0_hal_i2c.c ****                 hals_i2c_ack_config(p_i2c->periph, I2C_ACK_ENABLE);
 10400              		.loc 1 3548 17
 10401 013c 7B69     		ldr	r3, [r7, #20]
 10402 013e 1B68     		ldr	r3, [r3]
 10403 0140 1B68     		ldr	r3, [r3]
 10404 0142 7A69     		ldr	r2, [r7, #20]
 10405 0144 1268     		ldr	r2, [r2]
 10406 0146 43F40073 		orr	r3, r3, #512
 10407 014a 1360     		str	r3, [r2]
3549:../firmware/gd32f3x0_hal_peripheral/Source/gd32f3x0_hal_i2c.c ****                 hals_i2c_ackpos_config(p_i2c->periph, I2C_ACKPOS_CURRENT);
 10408              		.loc 1 3549 17
 10409 014c 7B69     		ldr	r3, [r7, #20]
 10410 014e 1B68     		ldr	r3, [r3]
 10411 0150 4FF48061 		mov	r1, #1024
 10412 0154 1846     		mov	r0, r3
 10413 0156 FFF7FEFF 		bl	hals_i2c_ack_config
3550:../firmware/gd32f3x0_hal_peripheral/Source/gd32f3x0_hal_i2c.c ****                 /* disable the I2C interrupt */
 10414              		.loc 1 3550 17
 10415 015a 7B69     		ldr	r3, [r7, #20]
 10416 015c 1B68     		ldr	r3, [r3]
 10417 015e 0021     		movs	r1, #0
 10418 0160 1846     		mov	r0, r3
 10419 0162 FFF7FEFF 		bl	hals_i2c_ackpos_config
3552:../firmware/gd32f3x0_hal_peripheral/Source/gd32f3x0_hal_i2c.c ****                 hals_i2c_interrupt_disable(p_i2c->periph, I2C_INT_EV);
 10420              		.loc 1 3552 17
 10421 0166 7B69     		ldr	r3, [r7, #20]
 10422 0168 1B68     		ldr	r3, [r3]
 10423 016a 4FF48571 		mov	r1, #266
 10424 016e 1846     		mov	r0, r3
 10425 0170 FFF7FEFF 		bl	hals_i2c_interrupt_disable
3553:../firmware/gd32f3x0_hal_peripheral/Source/gd32f3x0_hal_i2c.c ****                 hals_i2c_interrupt_disable(p_i2c->periph, I2C_INT_ERR);
 10426              		.loc 1 3553 17
 10427 0174 7B69     		ldr	r3, [r7, #20]
 10428 0176 1B68     		ldr	r3, [r3]
 10429 0178 40F20911 		movw	r1, #265
 10430 017c 1846     		mov	r0, r3
 10431 017e FFF7FEFF 		bl	hals_i2c_interrupt_disable
3554:../firmware/gd32f3x0_hal_peripheral/Source/gd32f3x0_hal_i2c.c ****                 if(NULL != p_func) {
 10432              		.loc 1 3554 17
 10433 0182 7B69     		ldr	r3, [r7, #20]
 10434 0184 1B68     		ldr	r3, [r3]
 10435 0186 4FF48471 		mov	r1, #264
 10436 018a 1846     		mov	r0, r3
 10437 018c FFF7FEFF 		bl	hals_i2c_interrupt_disable
3555:../firmware/gd32f3x0_hal_peripheral/Source/gd32f3x0_hal_i2c.c ****                     p_func(p_i2c);
 10438              		.loc 1 3555 19
 10439 0190 3B69     		ldr	r3, [r7, #16]
 10440 0192 002B     		cmp	r3, #0
 10441 0194 53D0     		beq	.L505
3556:../firmware/gd32f3x0_hal_peripheral/Source/gd32f3x0_hal_i2c.c ****                 }
 10442              		.loc 1 3556 21
 10443 0196 3B69     		ldr	r3, [r7, #16]
 10444 0198 7869     		ldr	r0, [r7, #20]
 10445 019a 9847     		blx	r3
 10446              	.LVL13:
 10447              		.loc 1 3577 1
 10448 019c 4FE0     		b	.L505
 10449              	.L498:
3560:../firmware/gd32f3x0_hal_peripheral/Source/gd32f3x0_hal_i2c.c ****         if(I2C_MEMORY_ADDRESS_8BIT == p_i2c->slave_address.address_size) {
 10450              		.loc 1 3560 15
 10451 019e 7B69     		ldr	r3, [r7, #20]
 10452 01a0 1B68     		ldr	r3, [r3]
 10453 01a2 2D49     		ldr	r1, .L507+16
 10454 01a4 1846     		mov	r0, r3
 10455 01a6 FFF7FEFF 		bl	hals_i2c_interrupt_flag_get
 10456 01aa 0346     		mov	r3, r0
3560:../firmware/gd32f3x0_hal_peripheral/Source/gd32f3x0_hal_i2c.c ****         if(I2C_MEMORY_ADDRESS_8BIT == p_i2c->slave_address.address_size) {
 10457              		.loc 1 3560 14
 10458 01ac 002B     		cmp	r3, #0
 10459 01ae 46D0     		beq	.L505
3561:../firmware/gd32f3x0_hal_peripheral/Source/gd32f3x0_hal_i2c.c ****             hals_i2c_data_transmit(p_i2c->periph, I2C_MEMORY_ADDRESS_LSB(p_i2c->slave_address.memor
 10460              		.loc 1 3561 59
 10461 01b0 7B69     		ldr	r3, [r7, #20]
 10462 01b2 5B8E     		ldrh	r3, [r3, #50]
3561:../firmware/gd32f3x0_hal_peripheral/Source/gd32f3x0_hal_i2c.c ****             hals_i2c_data_transmit(p_i2c->periph, I2C_MEMORY_ADDRESS_LSB(p_i2c->slave_address.memor
 10463              		.loc 1 3561 11
 10464 01b4 002B     		cmp	r3, #0
 10465 01b6 0DD1     		bne	.L501
3562:../firmware/gd32f3x0_hal_peripheral/Source/gd32f3x0_hal_i2c.c ****             p_i2c->slave_address.second_addressing = SET;
 10466              		.loc 1 3562 13
 10467 01b8 7B69     		ldr	r3, [r7, #20]
 10468 01ba 1A68     		ldr	r2, [r3]
3562:../firmware/gd32f3x0_hal_peripheral/Source/gd32f3x0_hal_i2c.c ****             p_i2c->slave_address.second_addressing = SET;
 10469              		.loc 1 3562 51
 10470 01bc 7B69     		ldr	r3, [r7, #20]
 10471 01be 1B8E     		ldrh	r3, [r3, #48]
3562:../firmware/gd32f3x0_hal_peripheral/Source/gd32f3x0_hal_i2c.c ****             p_i2c->slave_address.second_addressing = SET;
 10472              		.loc 1 3562 13
 10473 01c0 DBB2     		uxtb	r3, r3
 10474 01c2 1946     		mov	r1, r3
 10475 01c4 1046     		mov	r0, r2
 10476 01c6 FFF7FEFF 		bl	hals_i2c_data_transmit
3563:../firmware/gd32f3x0_hal_peripheral/Source/gd32f3x0_hal_i2c.c ****         } else {
 10477              		.loc 1 3563 52
 10478 01ca 7B69     		ldr	r3, [r7, #20]
 10479 01cc 0122     		movs	r2, #1
 10480 01ce 83F83620 		strb	r2, [r3, #54]
 10481 01d2 21E0     		b	.L506
 10482              	.L501:
3565:../firmware/gd32f3x0_hal_peripheral/Source/gd32f3x0_hal_i2c.c ****                 hals_i2c_data_transmit(p_i2c->periph, I2C_MEMORY_ADDRESS_MSB(p_i2c->slave_address.m
 10483              		.loc 1 3565 41
 10484 01d4 7B69     		ldr	r3, [r7, #20]
 10485 01d6 93F83530 		ldrb	r3, [r3, #53]	@ zero_extendqisi2
3565:../firmware/gd32f3x0_hal_peripheral/Source/gd32f3x0_hal_i2c.c ****                 hals_i2c_data_transmit(p_i2c->periph, I2C_MEMORY_ADDRESS_MSB(p_i2c->slave_address.m
 10486              		.loc 1 3565 15
 10487 01da 002B     		cmp	r3, #0
 10488 01dc 13D1     		bne	.L503
3566:../firmware/gd32f3x0_hal_peripheral/Source/gd32f3x0_hal_i2c.c ****                 p_i2c->slave_address.address_count++;
 10489              		.loc 1 3566 17
 10490 01de 7B69     		ldr	r3, [r7, #20]
 10491 01e0 1A68     		ldr	r2, [r3]
3566:../firmware/gd32f3x0_hal_peripheral/Source/gd32f3x0_hal_i2c.c ****                 p_i2c->slave_address.address_count++;
 10492              		.loc 1 3566 55
 10493 01e2 7B69     		ldr	r3, [r7, #20]
 10494 01e4 1B8E     		ldrh	r3, [r3, #48]
 10495 01e6 1B0A     		lsrs	r3, r3, #8
 10496 01e8 9BB2     		uxth	r3, r3
3566:../firmware/gd32f3x0_hal_peripheral/Source/gd32f3x0_hal_i2c.c ****                 p_i2c->slave_address.address_count++;
 10497              		.loc 1 3566 17
 10498 01ea DBB2     		uxtb	r3, r3
 10499 01ec 1946     		mov	r1, r3
 10500 01ee 1046     		mov	r0, r2
 10501 01f0 FFF7FEFF 		bl	hals_i2c_data_transmit
3567:../firmware/gd32f3x0_hal_peripheral/Source/gd32f3x0_hal_i2c.c ****             } else {
 10502              		.loc 1 3567 37
 10503 01f4 7B69     		ldr	r3, [r7, #20]
 10504 01f6 93F83530 		ldrb	r3, [r3, #53]	@ zero_extendqisi2
3567:../firmware/gd32f3x0_hal_peripheral/Source/gd32f3x0_hal_i2c.c ****             } else {
 10505              		.loc 1 3567 51
 10506 01fa 0133     		adds	r3, r3, #1
 10507 01fc DAB2     		uxtb	r2, r3
 10508 01fe 7B69     		ldr	r3, [r7, #20]
 10509 0200 83F83520 		strb	r2, [r3, #53]
 10510 0204 08E0     		b	.L506
 10511              	.L503:
3569:../firmware/gd32f3x0_hal_peripheral/Source/gd32f3x0_hal_i2c.c ****             }
 10512              		.loc 1 3569 17
 10513 0206 7B69     		ldr	r3, [r7, #20]
 10514 0208 1A68     		ldr	r2, [r3]
3569:../firmware/gd32f3x0_hal_peripheral/Source/gd32f3x0_hal_i2c.c ****             }
 10515              		.loc 1 3569 55
 10516 020a 7B69     		ldr	r3, [r7, #20]
 10517 020c 1B8E     		ldrh	r3, [r3, #48]
3569:../firmware/gd32f3x0_hal_peripheral/Source/gd32f3x0_hal_i2c.c ****             }
 10518              		.loc 1 3569 17
 10519 020e DBB2     		uxtb	r3, r3
 10520 0210 1946     		mov	r1, r3
 10521 0212 1046     		mov	r0, r2
 10522 0214 FFF7FEFF 		bl	hals_i2c_data_transmit
 10523              	.L506:
3573:../firmware/gd32f3x0_hal_peripheral/Source/gd32f3x0_hal_i2c.c ****         /* send a start condition to I2C bus */
 10524              		.loc 1 3573 14
 10525 0218 00BF     		nop
 10526              	.L504:
3573:../firmware/gd32f3x0_hal_peripheral/Source/gd32f3x0_hal_i2c.c ****         /* send a start condition to I2C bus */
 10527              		.loc 1 3573 16 discriminator 1
 10528 021a 7B69     		ldr	r3, [r7, #20]
 10529 021c 1B68     		ldr	r3, [r3]
 10530 021e 40F20251 		movw	r1, #1282
 10531 0222 1846     		mov	r0, r3
 10532 0224 FFF7FEFF 		bl	hals_i2c_flag_get
 10533 0228 0346     		mov	r3, r0
3573:../firmware/gd32f3x0_hal_peripheral/Source/gd32f3x0_hal_i2c.c ****         /* send a start condition to I2C bus */
 10534              		.loc 1 3573 14 discriminator 1
 10535 022a 002B     		cmp	r3, #0
 10536 022c F5D0     		beq	.L504
3575:../firmware/gd32f3x0_hal_peripheral/Source/gd32f3x0_hal_i2c.c ****     }
 10537              		.loc 1 3575 9
 10538 022e 7B69     		ldr	r3, [r7, #20]
 10539 0230 1B68     		ldr	r3, [r3]
 10540 0232 1B68     		ldr	r3, [r3]
 10541 0234 7A69     		ldr	r2, [r7, #20]
 10542 0236 1268     		ldr	r2, [r2]
 10543 0238 43F48073 		orr	r3, r3, #256
 10544 023c 1360     		str	r3, [r2]
 10545              	.L505:
 10546              		.loc 1 3577 1
 10547 023e 00BF     		nop
 10548 0240 1C37     		adds	r7, r7, #28
 10549              		.cfi_def_cfa_offset 12
 10550 0242 BD46     		mov	sp, r7
 10551              		.cfi_def_cfa_register 13
 10552              		@ sp needed
 10553 0244 90BD     		pop	{r4, r7, pc}
 10554              	.L508:
 10555 0246 00BF     		.align	2
 10556              	.L507:
 10557 0248 09010005 		.word	83886345
 10558 024c 09010105 		.word	83951881
 10559 0250 09010605 		.word	84279561
 10560 0254 09010205 		.word	84017417
 10561 0258 09010705 		.word	84345097
 10562              		.cfi_endproc
 10563              	.LFE186:
 10565              		.section	.text._i2c_address_listen_interrupt,"ax",%progbits
 10566              		.align	1
 10567              		.syntax unified
 10568              		.thumb
 10569              		.thumb_func
 10570              		.fpu softvfp
 10572              	_i2c_address_listen_interrupt:
 10573              	.LFB187:
3578:../firmware/gd32f3x0_hal_peripheral/Source/gd32f3x0_hal_i2c.c **** 
3579:../firmware/gd32f3x0_hal_peripheral/Source/gd32f3x0_hal_i2c.c **** /*!
3580:../firmware/gd32f3x0_hal_peripheral/Source/gd32f3x0_hal_i2c.c ****     \brief      event handler for address listen in slave mode
3581:../firmware/gd32f3x0_hal_peripheral/Source/gd32f3x0_hal_i2c.c ****     \param[in]  i2c: I2C device information structrue
3582:../firmware/gd32f3x0_hal_peripheral/Source/gd32f3x0_hal_i2c.c ****                   the structure is not necessary to be reconfigured after structrue initialization,
3583:../firmware/gd32f3x0_hal_peripheral/Source/gd32f3x0_hal_i2c.c ****                   the structure parameters altering is automatically configured by core
3584:../firmware/gd32f3x0_hal_peripheral/Source/gd32f3x0_hal_i2c.c ****     \param[out] none
3585:../firmware/gd32f3x0_hal_peripheral/Source/gd32f3x0_hal_i2c.c ****     \retval     none
3586:../firmware/gd32f3x0_hal_peripheral/Source/gd32f3x0_hal_i2c.c **** */
3587:../firmware/gd32f3x0_hal_peripheral/Source/gd32f3x0_hal_i2c.c **** static void _i2c_address_listen_interrupt(void *i2c)
3588:../firmware/gd32f3x0_hal_peripheral/Source/gd32f3x0_hal_i2c.c **** {
 10574              		.loc 1 3588 1
 10575              		.cfi_startproc
 10576              		@ args = 0, pretend = 0, frame = 16
 10577              		@ frame_needed = 1, uses_anonymous_args = 0
 10578 0000 80B5     		push	{r7, lr}
 10579              		.cfi_def_cfa_offset 8
 10580              		.cfi_offset 7, -8
 10581              		.cfi_offset 14, -4
 10582 0002 84B0     		sub	sp, sp, #16
 10583              		.cfi_def_cfa_offset 24
 10584 0004 00AF     		add	r7, sp, #0
 10585              		.cfi_def_cfa_register 7
 10586 0006 7860     		str	r0, [r7, #4]
3589:../firmware/gd32f3x0_hal_peripheral/Source/gd32f3x0_hal_i2c.c ****     hal_i2c_dev_struct *p_i2c = i2c;
 10587              		.loc 1 3589 25
 10588 0008 7B68     		ldr	r3, [r7, #4]
 10589 000a FB60     		str	r3, [r7, #12]
3590:../firmware/gd32f3x0_hal_peripheral/Source/gd32f3x0_hal_i2c.c ****     hal_i2c_user_cb p_func = (hal_i2c_user_cb)p_i2c->rx_callback;
 10590              		.loc 1 3590 52
 10591 000c FB68     		ldr	r3, [r7, #12]
 10592 000e 9B6C     		ldr	r3, [r3, #72]
 10593              		.loc 1 3590 21
 10594 0010 BB60     		str	r3, [r7, #8]
3591:../firmware/gd32f3x0_hal_peripheral/Source/gd32f3x0_hal_i2c.c **** 
3592:../firmware/gd32f3x0_hal_peripheral/Source/gd32f3x0_hal_i2c.c ****     hals_i2c_interrupt_disable(p_i2c->periph, I2C_INT_ERR);
 10595              		.loc 1 3592 5
 10596 0012 FB68     		ldr	r3, [r7, #12]
 10597 0014 1B68     		ldr	r3, [r3]
 10598 0016 4FF48471 		mov	r1, #264
 10599 001a 1846     		mov	r0, r3
 10600 001c FFF7FEFF 		bl	hals_i2c_interrupt_disable
3593:../firmware/gd32f3x0_hal_peripheral/Source/gd32f3x0_hal_i2c.c ****     hals_i2c_interrupt_disable(p_i2c->periph, I2C_INT_EV);
 10601              		.loc 1 3593 5
 10602 0020 FB68     		ldr	r3, [r7, #12]
 10603 0022 1B68     		ldr	r3, [r3]
 10604 0024 40F20911 		movw	r1, #265
 10605 0028 1846     		mov	r0, r3
 10606 002a FFF7FEFF 		bl	hals_i2c_interrupt_disable
3594:../firmware/gd32f3x0_hal_peripheral/Source/gd32f3x0_hal_i2c.c **** 
3595:../firmware/gd32f3x0_hal_peripheral/Source/gd32f3x0_hal_i2c.c ****     /* check transfer direction in p_func, so that the user knows
3596:../firmware/gd32f3x0_hal_peripheral/Source/gd32f3x0_hal_i2c.c ****     which function to call next(hal_i2c_slave_serial_transmit_interrupt
3597:../firmware/gd32f3x0_hal_peripheral/Source/gd32f3x0_hal_i2c.c ****     or hal_i2c_slave_serial_receive_interrupt) */
3598:../firmware/gd32f3x0_hal_peripheral/Source/gd32f3x0_hal_i2c.c ****     if(NULL != p_func) {
 10607              		.loc 1 3598 7
 10608 002e BB68     		ldr	r3, [r7, #8]
 10609 0030 002B     		cmp	r3, #0
 10610 0032 02D0     		beq	.L511
3599:../firmware/gd32f3x0_hal_peripheral/Source/gd32f3x0_hal_i2c.c ****         p_func(p_i2c);
 10611              		.loc 1 3599 9
 10612 0034 BB68     		ldr	r3, [r7, #8]
 10613 0036 F868     		ldr	r0, [r7, #12]
 10614 0038 9847     		blx	r3
 10615              	.LVL14:
 10616              	.L511:
3600:../firmware/gd32f3x0_hal_peripheral/Source/gd32f3x0_hal_i2c.c ****     }
3601:../firmware/gd32f3x0_hal_peripheral/Source/gd32f3x0_hal_i2c.c **** 
3602:../firmware/gd32f3x0_hal_peripheral/Source/gd32f3x0_hal_i2c.c **** }
 10617              		.loc 1 3602 1
 10618 003a 00BF     		nop
 10619 003c 1037     		adds	r7, r7, #16
 10620              		.cfi_def_cfa_offset 8
 10621 003e BD46     		mov	sp, r7
 10622              		.cfi_def_cfa_register 13
 10623              		@ sp needed
 10624 0040 80BD     		pop	{r7, pc}
 10625              		.cfi_endproc
 10626              	.LFE187:
 10628              		.text
 10629              	.Letext0:
 10630              		.file 2 "c:\\program files\\embeddedbuilder_v1.1.0.18805\\tools\\gnu tools arm embedded\\xpack-arm
 10631              		.file 3 "c:\\program files\\embeddedbuilder_v1.1.0.18805\\tools\\gnu tools arm embedded\\xpack-arm
 10632              		.file 4 "c:\\program files\\embeddedbuilder_v1.1.0.18805\\tools\\gnu tools arm embedded\\xpack-arm
 10633              		.file 5 "c:\\program files\\embeddedbuilder_v1.1.0.18805\\tools\\gnu tools arm embedded\\xpack-arm
 10634              		.file 6 "c:\\program files\\embeddedbuilder_v1.1.0.18805\\tools\\gnu tools arm embedded\\xpack-arm
 10635              		.file 7 "c:\\program files\\embeddedbuilder_v1.1.0.18805\\tools\\gnu tools arm embedded\\xpack-arm
 10636              		.file 8 "../firmware/GD32f3x0_hal_peripheral/Include/gd32f3x0_hal.h"
 10637              		.file 9 "../firmware/cmsis/inc/core_cm4.h"
 10638              		.file 10 "../firmware/cmsis/inc/system_gd32f3x0.h"
 10639              		.file 11 "../firmware/cmsis/inc/gd32f3x0.h"
 10640              		.file 12 "../firmware/GD32f3x0_hal_peripheral/Include/gd32f3x0_hal_dma.h"
 10641              		.file 13 "c:\\program files\\embeddedbuilder_v1.1.0.18805\\tools\\gnu tools arm embedded\\xpack-ar
 10642              		.file 14 "../firmware/GD32f3x0_hal_peripheral/Include/gd32f3x0_hal_rcu.h"
 10643              		.file 15 "../firmware/GD32f3x0_hal_peripheral/Include/gd32f3x0_hal_i2c.h"
DEFINED SYMBOLS
                            *ABS*:00000000 gd32f3x0_hal_i2c.c
C:\Users\peter\AppData\Local\Temp\ccorXwjz.s:16     .text.hal_i2c_struct_init:00000000 $t
C:\Users\peter\AppData\Local\Temp\ccorXwjz.s:24     .text.hal_i2c_struct_init:00000000 hal_i2c_struct_init
C:\Users\peter\AppData\Local\Temp\ccorXwjz.s:219    .text.hal_i2c_struct_init:00000110 $d
C:\Users\peter\AppData\Local\Temp\ccorXwjz.s:224    .text.hal_i2c_deinit:00000000 $t
C:\Users\peter\AppData\Local\Temp\ccorXwjz.s:231    .text.hal_i2c_deinit:00000000 hal_i2c_deinit
C:\Users\peter\AppData\Local\Temp\ccorXwjz.s:303    .text.hal_i2c_deinit:00000064 $d
C:\Users\peter\AppData\Local\Temp\ccorXwjz.s:309    .text.hal_i2c_init:00000000 $t
C:\Users\peter\AppData\Local\Temp\ccorXwjz.s:316    .text.hal_i2c_init:00000000 hal_i2c_init
C:\Users\peter\AppData\Local\Temp\ccorXwjz.s:5918   .text.hals_i2c_clock_config:00000000 hals_i2c_clock_config
C:\Users\peter\AppData\Local\Temp\ccorXwjz.s:6260   .text.hals_i2c_mode_addr_config:00000000 hals_i2c_mode_addr_config
C:\Users\peter\AppData\Local\Temp\ccorXwjz.s:6517   .text.hals_i2c_dualaddr_enable:00000000 hals_i2c_dualaddr_enable
C:\Users\peter\AppData\Local\Temp\ccorXwjz.s:6568   .text.hals_i2c_dualaddr_disable:00000000 hals_i2c_dualaddr_disable
C:\Users\peter\AppData\Local\Temp\ccorXwjz.s:6613   .text.hals_i2c_stretch_scl_low_config:00000000 hals_i2c_stretch_scl_low_config
C:\Users\peter\AppData\Local\Temp\ccorXwjz.s:6673   .text.hals_i2c_slave_response_to_gcall_config:00000000 hals_i2c_slave_response_to_gcall_config
C:\Users\peter\AppData\Local\Temp\ccorXwjz.s:6336   .text.hals_i2c_ack_config:00000000 hals_i2c_ack_config
C:\Users\peter\AppData\Local\Temp\ccorXwjz.s:431    .text.hal_i2c_error_irq:00000000 $t
C:\Users\peter\AppData\Local\Temp\ccorXwjz.s:438    .text.hal_i2c_error_irq:00000000 hal_i2c_error_irq
C:\Users\peter\AppData\Local\Temp\ccorXwjz.s:7216   .text.hals_i2c_interrupt_flag_get:00000000 hals_i2c_interrupt_flag_get
C:\Users\peter\AppData\Local\Temp\ccorXwjz.s:7345   .text.hals_i2c_interrupt_flag_clear:00000000 hals_i2c_interrupt_flag_clear
C:\Users\peter\AppData\Local\Temp\ccorXwjz.s:623    .text.hal_i2c_error_irq:00000120 $d
C:\Users\peter\AppData\Local\Temp\ccorXwjz.s:632    .text.hal_i2c_event_irq:00000000 $t
C:\Users\peter\AppData\Local\Temp\ccorXwjz.s:639    .text.hal_i2c_event_irq:00000000 hal_i2c_event_irq
C:\Users\peter\AppData\Local\Temp\ccorXwjz.s:681    .text.hal_i2c_start:00000000 $t
C:\Users\peter\AppData\Local\Temp\ccorXwjz.s:688    .text.hal_i2c_start:00000000 hal_i2c_start
C:\Users\peter\AppData\Local\Temp\ccorXwjz.s:729    .text.hal_i2c_stop:00000000 $t
C:\Users\peter\AppData\Local\Temp\ccorXwjz.s:736    .text.hal_i2c_stop:00000000 hal_i2c_stop
C:\Users\peter\AppData\Local\Temp\ccorXwjz.s:777    .text.hal_i2c_irq_handle_set:00000000 $t
C:\Users\peter\AppData\Local\Temp\ccorXwjz.s:784    .text.hal_i2c_irq_handle_set:00000000 hal_i2c_irq_handle_set
C:\Users\peter\AppData\Local\Temp\ccorXwjz.s:7092   .text.hals_i2c_interrupt_enable:00000000 hals_i2c_interrupt_enable
C:\Users\peter\AppData\Local\Temp\ccorXwjz.s:7153   .text.hals_i2c_interrupt_disable:00000000 hals_i2c_interrupt_disable
C:\Users\peter\AppData\Local\Temp\ccorXwjz.s:887    .text.hal_i2c_irq_handle_all_reset:00000000 $t
C:\Users\peter\AppData\Local\Temp\ccorXwjz.s:894    .text.hal_i2c_irq_handle_all_reset:00000000 hal_i2c_irq_handle_all_reset
C:\Users\peter\AppData\Local\Temp\ccorXwjz.s:932    .text.hal_i2c_master_transmit_poll:00000000 $t
C:\Users\peter\AppData\Local\Temp\ccorXwjz.s:939    .text.hal_i2c_master_transmit_poll:00000000 hal_i2c_master_transmit_poll
C:\Users\peter\AppData\Local\Temp\ccorXwjz.s:7424   .text._i2c_wait_flag_timeout:00000000 _i2c_wait_flag_timeout
C:\Users\peter\AppData\Local\Temp\ccorXwjz.s:7528   .text._i2c_master_write:00000000 _i2c_master_write
C:\Users\peter\AppData\Local\Temp\ccorXwjz.s:7012   .text.hals_i2c_flag_clear:00000000 hals_i2c_flag_clear
C:\Users\peter\AppData\Local\Temp\ccorXwjz.s:6733   .text.hals_i2c_data_transmit:00000000 hals_i2c_data_transmit
C:\Users\peter\AppData\Local\Temp\ccorXwjz.s:1133   .text.hal_i2c_master_receive_poll:00000000 $t
C:\Users\peter\AppData\Local\Temp\ccorXwjz.s:1140   .text.hal_i2c_master_receive_poll:00000000 hal_i2c_master_receive_poll
C:\Users\peter\AppData\Local\Temp\ccorXwjz.s:8287   .text._i2c_master_read:00000000 _i2c_master_read
C:\Users\peter\AppData\Local\Temp\ccorXwjz.s:6396   .text.hals_i2c_ackpos_config:00000000 hals_i2c_ackpos_config
C:\Users\peter\AppData\Local\Temp\ccorXwjz.s:6780   .text.hals_i2c_data_receive:00000000 hals_i2c_data_receive
C:\Users\peter\AppData\Local\Temp\ccorXwjz.s:1683   .text.hal_i2c_slave_transmit_poll:00000000 $t
C:\Users\peter\AppData\Local\Temp\ccorXwjz.s:1690   .text.hal_i2c_slave_transmit_poll:00000000 hal_i2c_slave_transmit_poll
C:\Users\peter\AppData\Local\Temp\ccorXwjz.s:1929   .text.hal_i2c_slave_receive_poll:00000000 $t
C:\Users\peter\AppData\Local\Temp\ccorXwjz.s:1936   .text.hal_i2c_slave_receive_poll:00000000 hal_i2c_slave_receive_poll
C:\Users\peter\AppData\Local\Temp\ccorXwjz.s:2134   .text.hal_i2c_memory_write_poll:00000000 $t
C:\Users\peter\AppData\Local\Temp\ccorXwjz.s:2141   .text.hal_i2c_memory_write_poll:00000000 hal_i2c_memory_write_poll
C:\Users\peter\AppData\Local\Temp\ccorXwjz.s:9531   .text._i2c_memory_write:00000000 _i2c_memory_write
C:\Users\peter\AppData\Local\Temp\ccorXwjz.s:6949   .text.hals_i2c_flag_get:00000000 hals_i2c_flag_get
C:\Users\peter\AppData\Local\Temp\ccorXwjz.s:2333   .text.hal_i2c_memory_read_poll:00000000 $t
C:\Users\peter\AppData\Local\Temp\ccorXwjz.s:2340   .text.hal_i2c_memory_read_poll:00000000 hal_i2c_memory_read_poll
C:\Users\peter\AppData\Local\Temp\ccorXwjz.s:9709   .text._i2c_memory_read:00000000 _i2c_memory_read
C:\Users\peter\AppData\Local\Temp\ccorXwjz.s:2782   .text.hal_i2c_master_transmit_interrupt:00000000 $t
C:\Users\peter\AppData\Local\Temp\ccorXwjz.s:2789   .text.hal_i2c_master_transmit_interrupt:00000000 hal_i2c_master_transmit_interrupt
C:\Users\peter\AppData\Local\Temp\ccorXwjz.s:2918   .text.hal_i2c_master_transmit_interrupt:000000d0 $d
C:\Users\peter\AppData\Local\Temp\ccorXwjz.s:7683   .text._i2c_master_transmit_interrupt:00000000 _i2c_master_transmit_interrupt
C:\Users\peter\AppData\Local\Temp\ccorXwjz.s:2923   .text.hal_i2c_master_receive_interrupt:00000000 $t
C:\Users\peter\AppData\Local\Temp\ccorXwjz.s:2930   .text.hal_i2c_master_receive_interrupt:00000000 hal_i2c_master_receive_interrupt
C:\Users\peter\AppData\Local\Temp\ccorXwjz.s:3072   .text.hal_i2c_master_receive_interrupt:000000e4 $d
C:\Users\peter\AppData\Local\Temp\ccorXwjz.s:8493   .text._i2c_master_receive_interrupt:00000000 _i2c_master_receive_interrupt
C:\Users\peter\AppData\Local\Temp\ccorXwjz.s:3077   .text.hal_i2c_slave_transmit_interrupt:00000000 $t
C:\Users\peter\AppData\Local\Temp\ccorXwjz.s:3084   .text.hal_i2c_slave_transmit_interrupt:00000000 hal_i2c_slave_transmit_interrupt
C:\Users\peter\AppData\Local\Temp\ccorXwjz.s:3190   .text.hal_i2c_slave_transmit_interrupt:000000a0 $d
C:\Users\peter\AppData\Local\Temp\ccorXwjz.s:9027   .text._i2c_slave_transmit_interrupt:00000000 _i2c_slave_transmit_interrupt
C:\Users\peter\AppData\Local\Temp\ccorXwjz.s:3195   .text.hal_i2c_slave_receive_interrupt:00000000 $t
C:\Users\peter\AppData\Local\Temp\ccorXwjz.s:3202   .text.hal_i2c_slave_receive_interrupt:00000000 hal_i2c_slave_receive_interrupt
C:\Users\peter\AppData\Local\Temp\ccorXwjz.s:3308   .text.hal_i2c_slave_receive_interrupt:000000a0 $d
C:\Users\peter\AppData\Local\Temp\ccorXwjz.s:9186   .text._i2c_slave_receive_interrupt:00000000 _i2c_slave_receive_interrupt
C:\Users\peter\AppData\Local\Temp\ccorXwjz.s:3313   .text.hal_i2c_memory_write_interrupt:00000000 $t
C:\Users\peter\AppData\Local\Temp\ccorXwjz.s:3320   .text.hal_i2c_memory_write_interrupt:00000000 hal_i2c_memory_write_interrupt
C:\Users\peter\AppData\Local\Temp\ccorXwjz.s:3449   .text.hal_i2c_memory_write_interrupt:000000d0 $d
C:\Users\peter\AppData\Local\Temp\ccorXwjz.s:9939   .text._i2c_memmory_write_interrupt:00000000 _i2c_memmory_write_interrupt
C:\Users\peter\AppData\Local\Temp\ccorXwjz.s:3454   .text.hal_i2c_memory_read_interrupt:00000000 $t
C:\Users\peter\AppData\Local\Temp\ccorXwjz.s:3461   .text.hal_i2c_memory_read_interrupt:00000000 hal_i2c_memory_read_interrupt
C:\Users\peter\AppData\Local\Temp\ccorXwjz.s:3603   .text.hal_i2c_memory_read_interrupt:000000e4 $d
C:\Users\peter\AppData\Local\Temp\ccorXwjz.s:10190  .text._i2c_memory_read_interrupt:00000000 _i2c_memory_read_interrupt
C:\Users\peter\AppData\Local\Temp\ccorXwjz.s:3608   .text.hal_i2c_master_transmit_dma:00000000 $t
C:\Users\peter\AppData\Local\Temp\ccorXwjz.s:3615   .text.hal_i2c_master_transmit_dma:00000000 hal_i2c_master_transmit_dma
C:\Users\peter\AppData\Local\Temp\ccorXwjz.s:6823   .text.hals_i2c_dma_config:00000000 hals_i2c_dma_config
C:\Users\peter\AppData\Local\Temp\ccorXwjz.s:3794   .text.hal_i2c_master_transmit_dma:00000118 $d
C:\Users\peter\AppData\Local\Temp\ccorXwjz.s:7967   .text._i2c_transmit_dma:00000000 _i2c_transmit_dma
C:\Users\peter\AppData\Local\Temp\ccorXwjz.s:8124   .text._i2c_dma_error:00000000 _i2c_dma_error
C:\Users\peter\AppData\Local\Temp\ccorXwjz.s:3801   .text.hal_i2c_master_receive_dma:00000000 $t
C:\Users\peter\AppData\Local\Temp\ccorXwjz.s:3808   .text.hal_i2c_master_receive_dma:00000000 hal_i2c_master_receive_dma
C:\Users\peter\AppData\Local\Temp\ccorXwjz.s:6886   .text.hals_i2c_dma_last_transfer_config:00000000 hals_i2c_dma_last_transfer_config
C:\Users\peter\AppData\Local\Temp\ccorXwjz.s:4006   .text.hal_i2c_master_receive_dma:00000138 $d
C:\Users\peter\AppData\Local\Temp\ccorXwjz.s:8880   .text._i2c_receive_dma:00000000 _i2c_receive_dma
C:\Users\peter\AppData\Local\Temp\ccorXwjz.s:4013   .text.hal_i2c_slave_transmit_dma:00000000 $t
C:\Users\peter\AppData\Local\Temp\ccorXwjz.s:4020   .text.hal_i2c_slave_transmit_dma:00000000 hal_i2c_slave_transmit_dma
C:\Users\peter\AppData\Local\Temp\ccorXwjz.s:4238   .text.hal_i2c_slave_transmit_dma:00000160 $d
C:\Users\peter\AppData\Local\Temp\ccorXwjz.s:4244   .text.hal_i2c_slave_receive_dma:00000000 $t
C:\Users\peter\AppData\Local\Temp\ccorXwjz.s:4251   .text.hal_i2c_slave_receive_dma:00000000 hal_i2c_slave_receive_dma
C:\Users\peter\AppData\Local\Temp\ccorXwjz.s:4424   .text.hal_i2c_slave_receive_dma:00000110 $d
C:\Users\peter\AppData\Local\Temp\ccorXwjz.s:4430   .text.hal_i2c_memory_write_dma:00000000 $t
C:\Users\peter\AppData\Local\Temp\ccorXwjz.s:4437   .text.hal_i2c_memory_write_dma:00000000 hal_i2c_memory_write_dma
C:\Users\peter\AppData\Local\Temp\ccorXwjz.s:4599   .text.hal_i2c_memory_write_dma:000000f8 $d
C:\Users\peter\AppData\Local\Temp\ccorXwjz.s:4606   .text.hal_i2c_memory_read_dma:00000000 $t
C:\Users\peter\AppData\Local\Temp\ccorXwjz.s:4613   .text.hal_i2c_memory_read_dma:00000000 hal_i2c_memory_read_dma
C:\Users\peter\AppData\Local\Temp\ccorXwjz.s:4811   .text.hal_i2c_memory_read_dma:0000013c $d
C:\Users\peter\AppData\Local\Temp\ccorXwjz.s:4818   .text.hal_i2c_device_ready_check:00000000 $t
C:\Users\peter\AppData\Local\Temp\ccorXwjz.s:4825   .text.hal_i2c_device_ready_check:00000000 hal_i2c_device_ready_check
C:\Users\peter\AppData\Local\Temp\ccorXwjz.s:6456   .text.hals_i2c_master_addressing:00000000 hals_i2c_master_addressing
C:\Users\peter\AppData\Local\Temp\ccorXwjz.s:5041   .text.hal_i2c_master_serial_transmit_interrupt:00000000 $t
C:\Users\peter\AppData\Local\Temp\ccorXwjz.s:5048   .text.hal_i2c_master_serial_transmit_interrupt:00000000 hal_i2c_master_serial_transmit_interrupt
C:\Users\peter\AppData\Local\Temp\ccorXwjz.s:5234   .text.hal_i2c_master_serial_transmit_interrupt:0000011c $d
C:\Users\peter\AppData\Local\Temp\ccorXwjz.s:5239   .text.hal_i2c_master_serial_receive_interrupt:00000000 $t
C:\Users\peter\AppData\Local\Temp\ccorXwjz.s:5246   .text.hal_i2c_master_serial_receive_interrupt:00000000 hal_i2c_master_serial_receive_interrupt
C:\Users\peter\AppData\Local\Temp\ccorXwjz.s:5437   .text.hal_i2c_master_serial_receive_interrupt:00000128 $d
C:\Users\peter\AppData\Local\Temp\ccorXwjz.s:5442   .text.hal_i2c_slave_serial_transmit_interrupt:00000000 $t
C:\Users\peter\AppData\Local\Temp\ccorXwjz.s:5449   .text.hal_i2c_slave_serial_transmit_interrupt:00000000 hal_i2c_slave_serial_transmit_interrupt
C:\Users\peter\AppData\Local\Temp\ccorXwjz.s:5573   .text.hal_i2c_slave_serial_transmit_interrupt:000000c0 $d
C:\Users\peter\AppData\Local\Temp\ccorXwjz.s:5578   .text.hal_i2c_slave_serial_receive_interrupt:00000000 $t
C:\Users\peter\AppData\Local\Temp\ccorXwjz.s:5585   .text.hal_i2c_slave_serial_receive_interrupt:00000000 hal_i2c_slave_serial_receive_interrupt
C:\Users\peter\AppData\Local\Temp\ccorXwjz.s:5709   .text.hal_i2c_slave_serial_receive_interrupt:000000c0 $d
C:\Users\peter\AppData\Local\Temp\ccorXwjz.s:9372   .text._i2c_slave_serial_receive_interrupt:00000000 _i2c_slave_serial_receive_interrupt
C:\Users\peter\AppData\Local\Temp\ccorXwjz.s:5714   .text.hal_i2c_address_listen_interrupt_enable:00000000 $t
C:\Users\peter\AppData\Local\Temp\ccorXwjz.s:5721   .text.hal_i2c_address_listen_interrupt_enable:00000000 hal_i2c_address_listen_interrupt_enable
C:\Users\peter\AppData\Local\Temp\ccorXwjz.s:5825   .text.hal_i2c_address_listen_interrupt_enable:0000009c $d
C:\Users\peter\AppData\Local\Temp\ccorXwjz.s:10572  .text._i2c_address_listen_interrupt:00000000 _i2c_address_listen_interrupt
C:\Users\peter\AppData\Local\Temp\ccorXwjz.s:5830   .text.hal_i2c_address_listen_interrupt_disable:00000000 $t
C:\Users\peter\AppData\Local\Temp\ccorXwjz.s:5837   .text.hal_i2c_address_listen_interrupt_disable:00000000 hal_i2c_address_listen_interrupt_disable
C:\Users\peter\AppData\Local\Temp\ccorXwjz.s:5911   .text.hals_i2c_clock_config:00000000 $t
C:\Users\peter\AppData\Local\Temp\ccorXwjz.s:6245   .text.hals_i2c_clock_config:000001fc $d
C:\Users\peter\AppData\Local\Temp\ccorXwjz.s:6253   .text.hals_i2c_mode_addr_config:00000000 $t
C:\Users\peter\AppData\Local\Temp\ccorXwjz.s:6329   .text.hals_i2c_ack_config:00000000 $t
C:\Users\peter\AppData\Local\Temp\ccorXwjz.s:6389   .text.hals_i2c_ackpos_config:00000000 $t
C:\Users\peter\AppData\Local\Temp\ccorXwjz.s:6449   .text.hals_i2c_master_addressing:00000000 $t
C:\Users\peter\AppData\Local\Temp\ccorXwjz.s:6510   .text.hals_i2c_dualaddr_enable:00000000 $t
C:\Users\peter\AppData\Local\Temp\ccorXwjz.s:6561   .text.hals_i2c_dualaddr_disable:00000000 $t
C:\Users\peter\AppData\Local\Temp\ccorXwjz.s:6606   .text.hals_i2c_stretch_scl_low_config:00000000 $t
C:\Users\peter\AppData\Local\Temp\ccorXwjz.s:6666   .text.hals_i2c_slave_response_to_gcall_config:00000000 $t
C:\Users\peter\AppData\Local\Temp\ccorXwjz.s:6726   .text.hals_i2c_data_transmit:00000000 $t
C:\Users\peter\AppData\Local\Temp\ccorXwjz.s:6773   .text.hals_i2c_data_receive:00000000 $t
C:\Users\peter\AppData\Local\Temp\ccorXwjz.s:6816   .text.hals_i2c_dma_config:00000000 $t
C:\Users\peter\AppData\Local\Temp\ccorXwjz.s:6879   .text.hals_i2c_dma_last_transfer_config:00000000 $t
C:\Users\peter\AppData\Local\Temp\ccorXwjz.s:6942   .text.hals_i2c_flag_get:00000000 $t
C:\Users\peter\AppData\Local\Temp\ccorXwjz.s:7005   .text.hals_i2c_flag_clear:00000000 $t
C:\Users\peter\AppData\Local\Temp\ccorXwjz.s:7085   .text.hals_i2c_interrupt_enable:00000000 $t
C:\Users\peter\AppData\Local\Temp\ccorXwjz.s:7146   .text.hals_i2c_interrupt_disable:00000000 $t
C:\Users\peter\AppData\Local\Temp\ccorXwjz.s:7209   .text.hals_i2c_interrupt_flag_get:00000000 $t
C:\Users\peter\AppData\Local\Temp\ccorXwjz.s:7332   .text.hals_i2c_interrupt_flag_get:0000009c $d
C:\Users\peter\AppData\Local\Temp\ccorXwjz.s:7338   .text.hals_i2c_interrupt_flag_clear:00000000 $t
C:\Users\peter\AppData\Local\Temp\ccorXwjz.s:7413   .text.hals_i2c_interrupt_flag_clear:00000050 $d
C:\Users\peter\AppData\Local\Temp\ccorXwjz.s:7418   .text._i2c_wait_flag_timeout:00000000 $t
C:\Users\peter\AppData\Local\Temp\ccorXwjz.s:7522   .text._i2c_master_write:00000000 $t
C:\Users\peter\AppData\Local\Temp\ccorXwjz.s:7677   .text._i2c_master_transmit_interrupt:00000000 $t
C:\Users\peter\AppData\Local\Temp\ccorXwjz.s:7953   .text._i2c_master_transmit_interrupt:000001b4 $d
C:\Users\peter\AppData\Local\Temp\ccorXwjz.s:7961   .text._i2c_transmit_dma:00000000 $t
C:\Users\peter\AppData\Local\Temp\ccorXwjz.s:8113   .text._i2c_transmit_dma:000000d8 $d
C:\Users\peter\AppData\Local\Temp\ccorXwjz.s:8118   .text._i2c_dma_error:00000000 $t
C:\Users\peter\AppData\Local\Temp\ccorXwjz.s:8281   .text._i2c_master_read:00000000 $t
C:\Users\peter\AppData\Local\Temp\ccorXwjz.s:8487   .text._i2c_master_receive_interrupt:00000000 $t
C:\Users\peter\AppData\Local\Temp\ccorXwjz.s:8865   .text._i2c_master_receive_interrupt:0000024c $d
C:\Users\peter\AppData\Local\Temp\ccorXwjz.s:8874   .text._i2c_receive_dma:00000000 $t
C:\Users\peter\AppData\Local\Temp\ccorXwjz.s:9016   .text._i2c_receive_dma:000000c4 $d
C:\Users\peter\AppData\Local\Temp\ccorXwjz.s:9021   .text._i2c_slave_transmit_interrupt:00000000 $t
C:\Users\peter\AppData\Local\Temp\ccorXwjz.s:9173   .text._i2c_slave_transmit_interrupt:000000dc $d
C:\Users\peter\AppData\Local\Temp\ccorXwjz.s:9180   .text._i2c_slave_receive_interrupt:00000000 $t
C:\Users\peter\AppData\Local\Temp\ccorXwjz.s:9359   .text._i2c_slave_receive_interrupt:00000108 $d
C:\Users\peter\AppData\Local\Temp\ccorXwjz.s:9366   .text._i2c_slave_serial_receive_interrupt:00000000 $t
C:\Users\peter\AppData\Local\Temp\ccorXwjz.s:9519   .text._i2c_slave_serial_receive_interrupt:000000d4 $d
C:\Users\peter\AppData\Local\Temp\ccorXwjz.s:9525   .text._i2c_memory_write:00000000 $t
C:\Users\peter\AppData\Local\Temp\ccorXwjz.s:9703   .text._i2c_memory_read:00000000 $t
C:\Users\peter\AppData\Local\Temp\ccorXwjz.s:9933   .text._i2c_memmory_write_interrupt:00000000 $t
C:\Users\peter\AppData\Local\Temp\ccorXwjz.s:10177  .text._i2c_memmory_write_interrupt:00000170 $d
C:\Users\peter\AppData\Local\Temp\ccorXwjz.s:10184  .text._i2c_memory_read_interrupt:00000000 $t
C:\Users\peter\AppData\Local\Temp\ccorXwjz.s:10557  .text._i2c_memory_read_interrupt:00000248 $d
C:\Users\peter\AppData\Local\Temp\ccorXwjz.s:10566  .text._i2c_address_listen_interrupt:00000000 $t
                           .group:00000000 wm4.0.b316ac8f61e0e6e0285f1e03e5bd3513
                           .group:00000000 wm4.stdarg.h.31.b55da1089056868966f25de5dbfc7d3c
                           .group:00000000 wm4._newlib_version.h.4.9ba035841e762c3308916a0ce96032e7
                           .group:00000000 wm4.newlib.h.18.ac66930cc5dc086504ebba5cc05ab7f1
                           .group:00000000 wm4.ieeefp.h.77.d5685ba212d3ed6e914898d045f873e3
                           .group:00000000 wm4.features.h.22.fad1cec3bc7ff06488171438dbdcfd02
                           .group:00000000 wm4.config.h.220.6cac6a9685cfce5e83c17784171638d9
                           .group:00000000 wm4._ansi.h.31.de524f58584151836e90d8620a16f8e8
                           .group:00000000 wm4.stdio.h.31.7c0e28c411445f3f9c5b11accf882760
                           .group:00000000 wm4._default_types.h.6.959254cf5f09734ea7516c89e8bb21bd
                           .group:00000000 wm4.stddef.h.181.c3f52a3b0f4c288bddb5dda1562858e2
                           .group:00000000 wm4.cdefs.h.49.6260d97adb8d27534cbdc0f868b8ea87
                           .group:00000000 wm4.stddef.h.39.b727a6c3269d9d6ef9fc646b721a8287
                           .group:00000000 wm4.lock.h.2.1461d1fff82dffe8bfddc23307f6484f
                           .group:00000000 wm4._types.h.125.5cf8a495f1f7ef36777ad868a1e32068
                           .group:00000000 wm4.stddef.h.155.3588ebfdd1e8c7ede80509bb9c3b8009
                           .group:00000000 wm4._types.h.184.03611d4f6b5bec9997bcf4279eceba07
                           .group:00000000 wm4.reent.h.17.90c2574d4acdcfce933db5cb09ff35fe
                           .group:00000000 wm4.types.h.40.e8c16e7ec36ba55f133d0616070e25fc
                           .group:00000000 wm4._stdint.h.10.c24fa3af3bc1706662bb5593a907e841
                           .group:00000000 wm4._endian.h.31.65a10590763c3dde1ac4a7f66d7d4891
                           .group:00000000 wm4.endian.h.9.49f3a4695c1b61e8a0808de3c4a106cb
                           .group:00000000 wm4._timeval.h.30.0e8bfd94e85db17dda3286ee81496fe6
                           .group:00000000 wm4.timespec.h.41.d855182eb0e690443ab8651bcedca6e1
                           .group:00000000 wm4.select.h.19.97ca6fd0c752a0f3b6719fd314d361e6
                           .group:00000000 wm4.types.h.69.ed3eae3cf73030a737515151ebcab7a1
                           .group:00000000 wm4.sched.h.22.c60982713a5c428609783c78f9c78d95
                           .group:00000000 wm4._pthreadtypes.h.36.fcee9961c35163dde6267ef772ad1972
                           .group:00000000 wm4.stdio.h.2.4aa87247282eca6c8f36f9de33d8df1a
                           .group:00000000 wm4.stdio.h.81.932d0c162786b883f622b8d05c120c78
                           .group:00000000 wm4.gd32f3x0_hal.h.52.43337a488df56bad1a66550eb74593ea
                           .group:00000000 wm4.gd32f3x0.h.36.5dfcb46b6e5e152feffb6039fee007e2
                           .group:00000000 wm4.core_cm4.h.47.434d5634a5df7142236685d6945e71d7
                           .group:00000000 wm4._intsup.h.10.cce27fed8484c08a33f522034c30d2b5
                           .group:00000000 wm4.stdint.h.23.d53047a68f4a85177f80b422d52785ed
                           .group:00000000 wm4.core_cmInstr.h.25.d8165482ef3061013a2fc83e2d85f3d9
                           .group:00000000 wm4.core_cm4_simd.h.43.bf657009d9c246d6ac6e7b120cdd899a
                           .group:00000000 wm4.core_cm4.h.196.7d82f39a4c9e2de723b837137e6ae289
                           .group:00000000 wm4.gd32f3x0.h.180.82f67477079136206c5871e7542ee564
                           .group:00000000 wm4.gd32f3x0_libopt.h.36.45b869ab1209cc1a50f3dfc76a311cb9
                           .group:00000000 wm4.gd32f3x0_hal_dma.h.41.ca879783be1737b965b3ae4e7f93f872
                           .group:00000000 wm4.string.h.8.c4b8571ce60dff2817f43fec8b86aecd
                           .group:00000000 wm4.stddef.h.155.ba788add86a0e365f264484f110c3c29
                           .group:00000000 wm4.stdlib.h.13.4ed386f5c1a80d71e72172885d946ef2
                           .group:00000000 wm4.alloca.h.8.dfc0c703c47ec3e69746825b17d9e66d
                           .group:00000000 wm4.stdlib.h.56.d4493cd3736e51e9d56335045f26df45
                           .group:00000000 wm4.gd32f3x0_hal_fmc.h.43.2987de260e370bf3f5b8a24cb7cf3bf8
                           .group:00000000 wm4.gd32f3x0_hal_pmu.h.36.5635520c461bb7aaf91bffd9cbfc72ad
                           .group:00000000 wm4.gd32f3x0_hal_gpio.h.36.a12be1408d39f193128846456cde3d37
                           .group:00000000 wm4.gd32f3x0_hal_rcu.h.38.87d0c22ec8715f857cfeeefdccb19c2d
                           .group:00000000 wm4.gd32f3x0_hal_exti.h.36.1ea5944bb2717abba6eb4f5f2b24bf84
                           .group:00000000 wm4.gd32f3x0_hal_sys.h.35.2ceb07a2f85f308445b52768bbccb36f
                           .group:00000000 wm4.gd32f3x0_hal_syscfg.h.36.72a727ef72a22345530b3ff53cbe3ce3
                           .group:00000000 wm4.gd32f3x0_hal_nvic.h.36.4aa8cd20672a0a2c198d8567b1de409e
                           .group:00000000 wm4.gd32f3x0_hal_cmp.h.36.f85d9d5e9ce0d5ec5a6c328e83b87368
                           .group:00000000 wm4.gd32f3x0_hal_crc.h.36.1900d76e2c07c18b1ef1c9b856f287b8
                           .group:00000000 wm4.gd32f3x0_hal_adc.h.36.8c3322d47f1ee3cab423f686efb96e34
                           .group:00000000 wm4.gd32f3x0_hal_ctc.h.36.847bc0cba62101d5ce7e8bf46a1d8bff
                           .group:00000000 wm4.gd32f3x0_hal_fwdgt.h.37.9a77d48f0ebb1bea9efac8306d3abfa3
                           .group:00000000 wm4.gd32f3x0_hal_wwdgt.h.36.19843a8487f7f073536e58bdf0d3f2d3
                           .group:00000000 wm4.gd32f3x0_hal_spi_com.h.36.6baebef46bf9bda5babad635e2a47342
                           .group:00000000 wm4.gd32f3x0_hal_spi.h.36.c5af6148e40a30fadbbdd1f06ceea13d
                           .group:00000000 wm4.gd32f3x0_hal_i2s.h.36.e903082eeeee8f5fb4aff85df922f163
                           .group:00000000 wm4.gd32f3x0_hal_usart_com.h.36.69752e97184d87492213ad2f277017fc
                           .group:00000000 wm4.gd32f3x0_hal_uart.h.36.cbee0c6c192eff6011d6338977fcd04b
                           .group:00000000 wm4.gd32f3x0_hal_usrt.h.36.ffd63cfab4e0501d677bc717158e43a6
                           .group:00000000 wm4.gd32f3x0_hal_irda.h.36.3910de0ccf8d5623643304fed3f81eb2
                           .group:00000000 wm4.gd32f3x0_hal_smartcard.h.36.ab9bc113f17ef2e0fb1ebed69f0678d8
                           .group:00000000 wm4.gd32f3x0_hal_rtc.h.36.5e01e9f7c643662797b76c8fb127db6a
                           .group:00000000 wm4.gd32f3x0_hal_i2c_com.h.36.93c032b15c0ba33e15ba767e036a725b
                           .group:00000000 wm4.gd32f3x0_hal_i2c.h.36.5070b63e35481aadf06d643445a9b538
                           .group:00000000 wm4.gd32f3x0_hal_smbus.h.36.ff84c1a5256828a88dd698d2f412ded9
                           .group:00000000 wm4.gd32f3x0_hal_timer.h.36.1cc370b1b382cdb697c16ab5f59079f9
                           .group:00000000 wm4.gd32f3x0_hal.h.138.6420920baed40fecd6e3a38f9485824a

UNDEFINED SYMBOLS
hal_rcu_periph_reset_enable
hal_rcu_periph_reset_disable
hal_dma_struct_init
hal_dma_start_interrupt
hals_dma_flag_clear
hals_rcu_clock_freq_get
hal_sys_basetick_count_get
hal_sys_basetick_timeout_check
