   1              		.cpu cortex-m4
   2              		.eabi_attribute 20, 1
   3              		.eabi_attribute 21, 1
   4              		.eabi_attribute 23, 3
   5              		.eabi_attribute 24, 1
   6              		.eabi_attribute 25, 1
   7              		.eabi_attribute 26, 1
   8              		.eabi_attribute 30, 6
   9              		.eabi_attribute 34, 1
  10              		.eabi_attribute 18, 4
  11              		.file	"gd32f3x0_hal_uart.c"
  12              		.text
  13              	.Ltext0:
  14              		.cfi_sections	.debug_frame
  15              		.section	.text.hal_uart_struct_init,"ax",%progbits
  16              		.align	1
  17              		.global	hal_uart_struct_init
  18              		.arch armv7e-m
  19              		.syntax unified
  20              		.thumb
  21              		.thumb_func
  22              		.fpu softvfp
  24              	hal_uart_struct_init:
  25              	.LFB119:
  26              		.file 1 "../firmware/gd32f3x0_hal_peripheral/Source/gd32f3x0_hal_uart.c"
   1:../firmware/gd32f3x0_hal_peripheral/Source/gd32f3x0_hal_uart.c **** /*!
   2:../firmware/gd32f3x0_hal_peripheral/Source/gd32f3x0_hal_uart.c ****     \file    gd32f3x0_hal_uart.c
   3:../firmware/gd32f3x0_hal_peripheral/Source/gd32f3x0_hal_uart.c ****     \brief   UART driver
   4:../firmware/gd32f3x0_hal_peripheral/Source/gd32f3x0_hal_uart.c **** 
   5:../firmware/gd32f3x0_hal_peripheral/Source/gd32f3x0_hal_uart.c ****     \version 2023-08-01, V1.0.0, HAL firmware for GD32F3x0
   6:../firmware/gd32f3x0_hal_peripheral/Source/gd32f3x0_hal_uart.c **** */
   7:../firmware/gd32f3x0_hal_peripheral/Source/gd32f3x0_hal_uart.c **** 
   8:../firmware/gd32f3x0_hal_peripheral/Source/gd32f3x0_hal_uart.c **** /*
   9:../firmware/gd32f3x0_hal_peripheral/Source/gd32f3x0_hal_uart.c ****     Copyright (c) 2023, GigaDevice Semiconductor Inc.
  10:../firmware/gd32f3x0_hal_peripheral/Source/gd32f3x0_hal_uart.c **** 
  11:../firmware/gd32f3x0_hal_peripheral/Source/gd32f3x0_hal_uart.c ****     Redistribution and use in source and binary forms, with or without modification,
  12:../firmware/gd32f3x0_hal_peripheral/Source/gd32f3x0_hal_uart.c **** are permitted provided that the following conditions are met:
  13:../firmware/gd32f3x0_hal_peripheral/Source/gd32f3x0_hal_uart.c **** 
  14:../firmware/gd32f3x0_hal_peripheral/Source/gd32f3x0_hal_uart.c ****     1. Redistributions of source code must retain the above copyright notice, this
  15:../firmware/gd32f3x0_hal_peripheral/Source/gd32f3x0_hal_uart.c ****        list of conditions and the following disclaimer.
  16:../firmware/gd32f3x0_hal_peripheral/Source/gd32f3x0_hal_uart.c ****     2. Redistributions in binary form must reproduce the above copyright notice,
  17:../firmware/gd32f3x0_hal_peripheral/Source/gd32f3x0_hal_uart.c ****        this list of conditions and the following disclaimer in the documentation
  18:../firmware/gd32f3x0_hal_peripheral/Source/gd32f3x0_hal_uart.c ****        and/or other materials provided with the distribution.
  19:../firmware/gd32f3x0_hal_peripheral/Source/gd32f3x0_hal_uart.c ****     3. Neither the name of the copyright holder nor the names of its contributors
  20:../firmware/gd32f3x0_hal_peripheral/Source/gd32f3x0_hal_uart.c ****        may be used to endorse or promote products derived from this software without
  21:../firmware/gd32f3x0_hal_peripheral/Source/gd32f3x0_hal_uart.c ****        specific prior written permission.
  22:../firmware/gd32f3x0_hal_peripheral/Source/gd32f3x0_hal_uart.c **** 
  23:../firmware/gd32f3x0_hal_peripheral/Source/gd32f3x0_hal_uart.c ****     THIS SOFTWARE IS PROVIDED BY THE COPYRIGHT HOLDERS AND CONTRIBUTORS "AS IS"
  24:../firmware/gd32f3x0_hal_peripheral/Source/gd32f3x0_hal_uart.c **** AND ANY EXPRESS OR IMPLIED WARRANTIES, INCLUDING, BUT NOT LIMITED TO, THE IMPLIED
  25:../firmware/gd32f3x0_hal_peripheral/Source/gd32f3x0_hal_uart.c **** WARRANTIES OF MERCHANTABILITY AND FITNESS FOR A PARTICULAR PURPOSE ARE DISCLAIMED.
  26:../firmware/gd32f3x0_hal_peripheral/Source/gd32f3x0_hal_uart.c **** IN NO EVENT SHALL THE COPYRIGHT HOLDER OR CONTRIBUTORS BE LIABLE FOR ANY DIRECT,
  27:../firmware/gd32f3x0_hal_peripheral/Source/gd32f3x0_hal_uart.c **** INDIRECT, INCIDENTAL, SPECIAL, EXEMPLARY, OR CONSEQUENTIAL DAMAGES (INCLUDING, BUT
  28:../firmware/gd32f3x0_hal_peripheral/Source/gd32f3x0_hal_uart.c **** NOT LIMITED TO, PROCUREMENT OF SUBSTITUTE GOODS OR SERVICES; LOSS OF USE, DATA, OR
  29:../firmware/gd32f3x0_hal_peripheral/Source/gd32f3x0_hal_uart.c **** PROFITS; OR BUSINESS INTERRUPTION) HOWEVER CAUSED AND ON ANY THEORY OF LIABILITY,
  30:../firmware/gd32f3x0_hal_peripheral/Source/gd32f3x0_hal_uart.c **** WHETHER IN CONTRACT, STRICT LIABILITY, OR TORT (INCLUDING NEGLIGENCE OR OTHERWISE)
  31:../firmware/gd32f3x0_hal_peripheral/Source/gd32f3x0_hal_uart.c **** ARISING IN ANY WAY OUT OF THE USE OF THIS SOFTWARE, EVEN IF ADVISED OF THE POSSIBILITY
  32:../firmware/gd32f3x0_hal_peripheral/Source/gd32f3x0_hal_uart.c **** OF SUCH DAMAGE.
  33:../firmware/gd32f3x0_hal_peripheral/Source/gd32f3x0_hal_uart.c **** */
  34:../firmware/gd32f3x0_hal_peripheral/Source/gd32f3x0_hal_uart.c **** 
  35:../firmware/gd32f3x0_hal_peripheral/Source/gd32f3x0_hal_uart.c **** #include "gd32f3x0_hal.h"
  36:../firmware/gd32f3x0_hal_peripheral/Source/gd32f3x0_hal_uart.c **** 
  37:../firmware/gd32f3x0_hal_peripheral/Source/gd32f3x0_hal_uart.c **** static uint16_t _uart_data_bit_mask_get(hal_uart_dev_struct *uart);
  38:../firmware/gd32f3x0_hal_peripheral/Source/gd32f3x0_hal_uart.c **** static FlagStatus _uart_error_flag_get(hal_uart_dev_struct *uart);
  39:../firmware/gd32f3x0_hal_peripheral/Source/gd32f3x0_hal_uart.c **** static void _uart_transmit_complete_interrupt(void *uart);
  40:../firmware/gd32f3x0_hal_peripheral/Source/gd32f3x0_hal_uart.c **** static void _uart_transmit_interrupt(void *uart);
  41:../firmware/gd32f3x0_hal_peripheral/Source/gd32f3x0_hal_uart.c **** static void _uart_receive_interrupt(void *uart);
  42:../firmware/gd32f3x0_hal_peripheral/Source/gd32f3x0_hal_uart.c **** static void _uart_transmit_dma(void *dma);
  43:../firmware/gd32f3x0_hal_peripheral/Source/gd32f3x0_hal_uart.c **** static void _uart_receive_dma(void *dma);
  44:../firmware/gd32f3x0_hal_peripheral/Source/gd32f3x0_hal_uart.c **** static void _uart_dma_error(void *dma);
  45:../firmware/gd32f3x0_hal_peripheral/Source/gd32f3x0_hal_uart.c **** 
  46:../firmware/gd32f3x0_hal_peripheral/Source/gd32f3x0_hal_uart.c **** /*!
  47:../firmware/gd32f3x0_hal_peripheral/Source/gd32f3x0_hal_uart.c ****     \brief      initialize the uart structure with the default values
  48:../firmware/gd32f3x0_hal_peripheral/Source/gd32f3x0_hal_uart.c ****                 note: this function must be called after the structure is created
  49:../firmware/gd32f3x0_hal_peripheral/Source/gd32f3x0_hal_uart.c ****     \param[in]  hal_struct_type: type of uart structure for initialization
  50:../firmware/gd32f3x0_hal_peripheral/Source/gd32f3x0_hal_uart.c ****       \arg        HAL_UART_INIT_STRUCT: initialization structure
  51:../firmware/gd32f3x0_hal_peripheral/Source/gd32f3x0_hal_uart.c ****       \arg        HAL_UART_DEV_STRUCT: device information structure
  52:../firmware/gd32f3x0_hal_peripheral/Source/gd32f3x0_hal_uart.c ****       \arg        HAL_UART_USER_CALLBCAK_STRUCT: user callback structure
  53:../firmware/gd32f3x0_hal_peripheral/Source/gd32f3x0_hal_uart.c ****       \arg        HAL_UART_IRQ_INIT_STRUCT: interrupt callback initialization structure
  54:../firmware/gd32f3x0_hal_peripheral/Source/gd32f3x0_hal_uart.c ****     \param[in]  p_struct: structure pointer
  55:../firmware/gd32f3x0_hal_peripheral/Source/gd32f3x0_hal_uart.c ****     \param[out] none
  56:../firmware/gd32f3x0_hal_peripheral/Source/gd32f3x0_hal_uart.c ****     \retval     none
  57:../firmware/gd32f3x0_hal_peripheral/Source/gd32f3x0_hal_uart.c **** */
  58:../firmware/gd32f3x0_hal_peripheral/Source/gd32f3x0_hal_uart.c **** void hal_uart_struct_init(hal_uart_struct_type_enum hal_struct_type, void *p_struct)
  59:../firmware/gd32f3x0_hal_peripheral/Source/gd32f3x0_hal_uart.c **** {
  27              		.loc 1 59 1
  28              		.cfi_startproc
  29              		@ args = 0, pretend = 0, frame = 8
  30              		@ frame_needed = 1, uses_anonymous_args = 0
  31              		@ link register save eliminated.
  32 0000 80B4     		push	{r7}
  33              		.cfi_def_cfa_offset 4
  34              		.cfi_offset 7, -4
  35 0002 83B0     		sub	sp, sp, #12
  36              		.cfi_def_cfa_offset 16
  37 0004 00AF     		add	r7, sp, #0
  38              		.cfi_def_cfa_register 7
  39 0006 0346     		mov	r3, r0
  40 0008 3960     		str	r1, [r7]
  41 000a FB71     		strb	r3, [r7, #7]
  60:../firmware/gd32f3x0_hal_peripheral/Source/gd32f3x0_hal_uart.c **** #if (1 == HAL_PARAMETER_CHECK)
  61:../firmware/gd32f3x0_hal_peripheral/Source/gd32f3x0_hal_uart.c ****     if(NULL == p_struct) {
  62:../firmware/gd32f3x0_hal_peripheral/Source/gd32f3x0_hal_uart.c ****         HAL_DEBUGE("parameter [*p_struct] value is invalid");
  63:../firmware/gd32f3x0_hal_peripheral/Source/gd32f3x0_hal_uart.c ****         return;
  64:../firmware/gd32f3x0_hal_peripheral/Source/gd32f3x0_hal_uart.c ****     }
  65:../firmware/gd32f3x0_hal_peripheral/Source/gd32f3x0_hal_uart.c **** #endif /* 1 == HAL_PARAMETER_CHECK */
  66:../firmware/gd32f3x0_hal_peripheral/Source/gd32f3x0_hal_uart.c **** 
  67:../firmware/gd32f3x0_hal_peripheral/Source/gd32f3x0_hal_uart.c ****     switch(hal_struct_type) {
  42              		.loc 1 67 5
  43 000c FB79     		ldrb	r3, [r7, #7]	@ zero_extendqisi2
  44 000e 032B     		cmp	r3, #3
  45 0010 00F2EB80 		bhi	.L9
  46 0014 01A2     		adr	r2, .L4
  47 0016 52F823F0 		ldr	pc, [r2, r3, lsl #2]
  48 001a 00BF     		.p2align 2
  49              	.L4:
  50 001c 2D000000 		.word	.L7+1
  51 0020 E9000000 		.word	.L6+1
  52 0024 9F010000 		.word	.L5+1
  53 0028 AD010000 		.word	.L3+1
  54              		.p2align 1
  55              	.L7:
  68:../firmware/gd32f3x0_hal_peripheral/Source/gd32f3x0_hal_uart.c ****     case HAL_UART_INIT_STRUCT:
  69:../firmware/gd32f3x0_hal_peripheral/Source/gd32f3x0_hal_uart.c ****         /* initialize uart initialization structure with the default values */
  70:../firmware/gd32f3x0_hal_peripheral/Source/gd32f3x0_hal_uart.c ****         ((hal_uart_init_struct *)p_struct)->work_mode = UART_WORK_MODE_ASYN;
  56              		.loc 1 70 55
  57 002c 3B68     		ldr	r3, [r7]
  58 002e 0022     		movs	r2, #0
  59 0030 1A70     		strb	r2, [r3]
  71:../firmware/gd32f3x0_hal_peripheral/Source/gd32f3x0_hal_uart.c ****         ((hal_uart_init_struct *)p_struct)->baudrate = 115200U;
  60              		.loc 1 71 54
  61 0032 3B68     		ldr	r3, [r7]
  62 0034 4FF4E132 		mov	r2, #115200
  63 0038 5A60     		str	r2, [r3, #4]
  72:../firmware/gd32f3x0_hal_peripheral/Source/gd32f3x0_hal_uart.c ****         ((hal_uart_init_struct *)p_struct)->parity = UART_PARITY_NONE;
  64              		.loc 1 72 52
  65 003a 3B68     		ldr	r3, [r7]
  66 003c 0022     		movs	r2, #0
  67 003e 9A60     		str	r2, [r3, #8]
  73:../firmware/gd32f3x0_hal_peripheral/Source/gd32f3x0_hal_uart.c ****         ((hal_uart_init_struct *)p_struct)->word_length = UART_WORD_LENGTH_8BIT;
  68              		.loc 1 73 57
  69 0040 3B68     		ldr	r3, [r7]
  70 0042 0022     		movs	r2, #0
  71 0044 DA60     		str	r2, [r3, #12]
  74:../firmware/gd32f3x0_hal_peripheral/Source/gd32f3x0_hal_uart.c ****         ((hal_uart_init_struct *)p_struct)->stop_bit = UART_STOP_BIT_1;
  72              		.loc 1 74 54
  73 0046 3B68     		ldr	r3, [r7]
  74 0048 0022     		movs	r2, #0
  75 004a 1A61     		str	r2, [r3, #16]
  75:../firmware/gd32f3x0_hal_peripheral/Source/gd32f3x0_hal_uart.c ****         ((hal_uart_init_struct *)p_struct)->direction = UART_DIRECTION_RX_TX;
  76              		.loc 1 75 55
  77 004c 3B68     		ldr	r3, [r7]
  78 004e 0C22     		movs	r2, #12
  79 0050 5A61     		str	r2, [r3, #20]
  76:../firmware/gd32f3x0_hal_peripheral/Source/gd32f3x0_hal_uart.c ****         ((hal_uart_init_struct *)p_struct)->over_sample = UART_OVER_SAMPLE_16;
  80              		.loc 1 76 57
  81 0052 3B68     		ldr	r3, [r7]
  82 0054 0022     		movs	r2, #0
  83 0056 9A61     		str	r2, [r3, #24]
  77:../firmware/gd32f3x0_hal_peripheral/Source/gd32f3x0_hal_uart.c ****         ((hal_uart_init_struct *)p_struct)->sample_method = UART_THREE_SAMPLE_BIT;
  84              		.loc 1 77 59
  85 0058 3B68     		ldr	r3, [r7]
  86 005a 0022     		movs	r2, #0
  87 005c DA61     		str	r2, [r3, #28]
  78:../firmware/gd32f3x0_hal_peripheral/Source/gd32f3x0_hal_uart.c ****         ((hal_uart_init_struct *)p_struct)->hardware_flow = UART_HARDWARE_FLOW_NONE;
  88              		.loc 1 78 59
  89 005e 3B68     		ldr	r3, [r7]
  90 0060 0022     		movs	r2, #0
  91 0062 1A62     		str	r2, [r3, #32]
  79:../firmware/gd32f3x0_hal_peripheral/Source/gd32f3x0_hal_uart.c ****         ((hal_uart_init_struct *)p_struct)->rx_fifo_en = DISABLE;
  92              		.loc 1 79 56
  93 0064 3B68     		ldr	r3, [r7]
  94 0066 0022     		movs	r2, #0
  95 0068 83F82420 		strb	r2, [r3, #36]
  80:../firmware/gd32f3x0_hal_peripheral/Source/gd32f3x0_hal_uart.c ****         ((hal_uart_init_struct *)p_struct)->timeout_enable = DISABLE;
  96              		.loc 1 80 60
  97 006c 3B68     		ldr	r3, [r7]
  98 006e 0022     		movs	r2, #0
  99 0070 83F82520 		strb	r2, [r3, #37]
  81:../firmware/gd32f3x0_hal_peripheral/Source/gd32f3x0_hal_uart.c ****         ((hal_uart_init_struct *)p_struct)->timeout_value = 0U;
 100              		.loc 1 81 59
 101 0074 3B68     		ldr	r3, [r7]
 102 0076 0022     		movs	r2, #0
 103 0078 9A62     		str	r2, [r3, #40]
  82:../firmware/gd32f3x0_hal_peripheral/Source/gd32f3x0_hal_uart.c ****         ((hal_uart_init_struct *)p_struct)->first_bit_msb     = DISABLE;
 104              		.loc 1 82 63
 105 007a 3B68     		ldr	r3, [r7]
 106 007c 0022     		movs	r2, #0
 107 007e 83F82C20 		strb	r2, [r3, #44]
  83:../firmware/gd32f3x0_hal_peripheral/Source/gd32f3x0_hal_uart.c ****         ((hal_uart_init_struct *)p_struct)->tx_rx_swap        = DISABLE;
 108              		.loc 1 83 63
 109 0082 3B68     		ldr	r3, [r7]
 110 0084 0022     		movs	r2, #0
 111 0086 83F82D20 		strb	r2, [r3, #45]
  84:../firmware/gd32f3x0_hal_peripheral/Source/gd32f3x0_hal_uart.c ****         ((hal_uart_init_struct *)p_struct)->rx_level_invert   = DISABLE;
 112              		.loc 1 84 63
 113 008a 3B68     		ldr	r3, [r7]
 114 008c 0022     		movs	r2, #0
 115 008e 83F82E20 		strb	r2, [r3, #46]
  85:../firmware/gd32f3x0_hal_peripheral/Source/gd32f3x0_hal_uart.c ****         ((hal_uart_init_struct *)p_struct)->tx_level_invert   = DISABLE;
 116              		.loc 1 85 63
 117 0092 3B68     		ldr	r3, [r7]
 118 0094 0022     		movs	r2, #0
 119 0096 83F82F20 		strb	r2, [r3, #47]
  86:../firmware/gd32f3x0_hal_peripheral/Source/gd32f3x0_hal_uart.c ****         ((hal_uart_init_struct *)p_struct)->data_bit_invert   = DISABLE;
 120              		.loc 1 86 63
 121 009a 3B68     		ldr	r3, [r7]
 122 009c 0022     		movs	r2, #0
 123 009e 83F83020 		strb	r2, [r3, #48]
  87:../firmware/gd32f3x0_hal_peripheral/Source/gd32f3x0_hal_uart.c ****         ((hal_uart_init_struct *)p_struct)->overrun_disable   = DISABLE;
 124              		.loc 1 87 63
 125 00a2 3B68     		ldr	r3, [r7]
 126 00a4 0022     		movs	r2, #0
 127 00a6 83F83120 		strb	r2, [r3, #49]
  88:../firmware/gd32f3x0_hal_peripheral/Source/gd32f3x0_hal_uart.c ****         ((hal_uart_init_struct *)p_struct)->rx_error_dma_stop = DISABLE;
 128              		.loc 1 88 63
 129 00aa 3B68     		ldr	r3, [r7]
 130 00ac 0022     		movs	r2, #0
 131 00ae 83F83220 		strb	r2, [r3, #50]
  89:../firmware/gd32f3x0_hal_peripheral/Source/gd32f3x0_hal_uart.c ****         ((hal_uart_init_struct *)p_struct)->break_frame_length = UART_LIN_BREAK_DETECTION_10BIT;
 132              		.loc 1 89 64
 133 00b2 3B68     		ldr	r3, [r7]
 134 00b4 0022     		movs	r2, #0
 135 00b6 5A63     		str	r2, [r3, #52]
  90:../firmware/gd32f3x0_hal_peripheral/Source/gd32f3x0_hal_uart.c ****         ((hal_uart_init_struct *)p_struct)->rs485_mode = DISABLE;
 136              		.loc 1 90 56
 137 00b8 3B68     		ldr	r3, [r7]
 138 00ba 0022     		movs	r2, #0
 139 00bc 83F83820 		strb	r2, [r3, #56]
  91:../firmware/gd32f3x0_hal_peripheral/Source/gd32f3x0_hal_uart.c ****         ((hal_uart_init_struct *)p_struct)->de_polarity = UART_RS485_DE_POLARITY_HIGH;
 140              		.loc 1 91 57
 141 00c0 3B68     		ldr	r3, [r7]
 142 00c2 0022     		movs	r2, #0
 143 00c4 DA63     		str	r2, [r3, #60]
  92:../firmware/gd32f3x0_hal_peripheral/Source/gd32f3x0_hal_uart.c ****         ((hal_uart_init_struct *)p_struct)->de_assertion_time = 0U;
 144              		.loc 1 92 63
 145 00c6 3B68     		ldr	r3, [r7]
 146 00c8 0022     		movs	r2, #0
 147 00ca 1A64     		str	r2, [r3, #64]
  93:../firmware/gd32f3x0_hal_peripheral/Source/gd32f3x0_hal_uart.c ****         ((hal_uart_init_struct *)p_struct)->de_deassertion_time = 0U;
 148              		.loc 1 93 65
 149 00cc 3B68     		ldr	r3, [r7]
 150 00ce 0022     		movs	r2, #0
 151 00d0 5A64     		str	r2, [r3, #68]
  94:../firmware/gd32f3x0_hal_peripheral/Source/gd32f3x0_hal_uart.c ****         ((hal_uart_init_struct *)p_struct)->wakeup_mode = UART_MULTIPROCESSOR_WAKEUP_IDLE;
 152              		.loc 1 94 57
 153 00d2 3B68     		ldr	r3, [r7]
 154 00d4 0022     		movs	r2, #0
 155 00d6 9A64     		str	r2, [r3, #72]
  95:../firmware/gd32f3x0_hal_peripheral/Source/gd32f3x0_hal_uart.c ****         ((hal_uart_init_struct *)p_struct)->address = 0U;
 156              		.loc 1 95 53
 157 00d8 3B68     		ldr	r3, [r7]
 158 00da 0022     		movs	r2, #0
 159 00dc 83F84C20 		strb	r2, [r3, #76]
  96:../firmware/gd32f3x0_hal_peripheral/Source/gd32f3x0_hal_uart.c ****         ((hal_uart_init_struct *)p_struct)->addr_length = UART_MULTIPROCESSOR_ADDRESS_4BIT;
 160              		.loc 1 96 57
 161 00e0 3B68     		ldr	r3, [r7]
 162 00e2 0022     		movs	r2, #0
 163 00e4 1A65     		str	r2, [r3, #80]
  97:../firmware/gd32f3x0_hal_peripheral/Source/gd32f3x0_hal_uart.c ****         break;
 164              		.loc 1 97 9
 165 00e6 81E0     		b	.L8
 166              	.L6:
  98:../firmware/gd32f3x0_hal_peripheral/Source/gd32f3x0_hal_uart.c **** 
  99:../firmware/gd32f3x0_hal_peripheral/Source/gd32f3x0_hal_uart.c ****     case HAL_UART_DEV_STRUCT:
 100:../firmware/gd32f3x0_hal_peripheral/Source/gd32f3x0_hal_uart.c ****         /* initialize uart device information structure with the default values */
 101:../firmware/gd32f3x0_hal_peripheral/Source/gd32f3x0_hal_uart.c ****         ((hal_uart_dev_struct *)p_struct)->periph = 0U;
 167              		.loc 1 101 51
 168 00e8 3B68     		ldr	r3, [r7]
 169 00ea 0022     		movs	r2, #0
 170 00ec 1A60     		str	r2, [r3]
 102:../firmware/gd32f3x0_hal_peripheral/Source/gd32f3x0_hal_uart.c ****         ((hal_uart_dev_struct *)p_struct)->uart_irq.receive_complete_handle = NULL;
 171              		.loc 1 102 77
 172 00ee 3B68     		ldr	r3, [r7]
 173 00f0 0022     		movs	r2, #0
 174 00f2 5A60     		str	r2, [r3, #4]
 103:../firmware/gd32f3x0_hal_peripheral/Source/gd32f3x0_hal_uart.c ****         ((hal_uart_dev_struct *)p_struct)->uart_irq.receive_timeout_handle = NULL;
 175              		.loc 1 103 76
 176 00f4 3B68     		ldr	r3, [r7]
 177 00f6 0022     		movs	r2, #0
 178 00f8 9A60     		str	r2, [r3, #8]
 104:../firmware/gd32f3x0_hal_peripheral/Source/gd32f3x0_hal_uart.c ****         ((hal_uart_dev_struct *)p_struct)->uart_irq.transmit_ready_handle = NULL;
 179              		.loc 1 104 75
 180 00fa 3B68     		ldr	r3, [r7]
 181 00fc 0022     		movs	r2, #0
 182 00fe DA60     		str	r2, [r3, #12]
 105:../firmware/gd32f3x0_hal_peripheral/Source/gd32f3x0_hal_uart.c ****         ((hal_uart_dev_struct *)p_struct)->uart_irq.transmit_complete_handle = NULL;
 183              		.loc 1 105 78
 184 0100 3B68     		ldr	r3, [r7]
 185 0102 0022     		movs	r2, #0
 186 0104 1A61     		str	r2, [r3, #16]
 106:../firmware/gd32f3x0_hal_peripheral/Source/gd32f3x0_hal_uart.c ****         ((hal_uart_dev_struct *)p_struct)->uart_irq.error_handle = NULL;
 187              		.loc 1 106 66
 188 0106 3B68     		ldr	r3, [r7]
 189 0108 0022     		movs	r2, #0
 190 010a 5A61     		str	r2, [r3, #20]
 107:../firmware/gd32f3x0_hal_peripheral/Source/gd32f3x0_hal_uart.c ****         ((hal_uart_dev_struct *)p_struct)->uart_irq.wakeup_handle = NULL;
 191              		.loc 1 107 67
 192 010c 3B68     		ldr	r3, [r7]
 193 010e 0022     		movs	r2, #0
 194 0110 9A61     		str	r2, [r3, #24]
 108:../firmware/gd32f3x0_hal_peripheral/Source/gd32f3x0_hal_uart.c ****         ((hal_uart_dev_struct *)p_struct)->uart_irq.idle_line_detected_handle = NULL;
 195              		.loc 1 108 79
 196 0112 3B68     		ldr	r3, [r7]
 197 0114 0022     		movs	r2, #0
 198 0116 DA61     		str	r2, [r3, #28]
 109:../firmware/gd32f3x0_hal_peripheral/Source/gd32f3x0_hal_uart.c ****         ((hal_uart_dev_struct *)p_struct)->uart_irq.address_match_handle = NULL;
 199              		.loc 1 109 74
 200 0118 3B68     		ldr	r3, [r7]
 201 011a 0022     		movs	r2, #0
 202 011c 1A62     		str	r2, [r3, #32]
 110:../firmware/gd32f3x0_hal_peripheral/Source/gd32f3x0_hal_uart.c ****         ((hal_uart_dev_struct *)p_struct)->uart_irq.lin_break_detected_handle = NULL;
 203              		.loc 1 110 79
 204 011e 3B68     		ldr	r3, [r7]
 205 0120 0022     		movs	r2, #0
 206 0122 5A62     		str	r2, [r3, #36]
 111:../firmware/gd32f3x0_hal_peripheral/Source/gd32f3x0_hal_uart.c ****         ((hal_uart_dev_struct *)p_struct)->uart_irq.cts_change_handle = NULL;
 207              		.loc 1 111 71
 208 0124 3B68     		ldr	r3, [r7]
 209 0126 0022     		movs	r2, #0
 210 0128 9A62     		str	r2, [r3, #40]
 112:../firmware/gd32f3x0_hal_peripheral/Source/gd32f3x0_hal_uart.c ****         ((hal_uart_dev_struct *)p_struct)->p_dma_rx = NULL;
 211              		.loc 1 112 53
 212 012a 3B68     		ldr	r3, [r7]
 213 012c 0022     		movs	r2, #0
 214 012e DA62     		str	r2, [r3, #44]
 113:../firmware/gd32f3x0_hal_peripheral/Source/gd32f3x0_hal_uart.c ****         ((hal_uart_dev_struct *)p_struct)->p_dma_tx = NULL;
 215              		.loc 1 113 53
 216 0130 3B68     		ldr	r3, [r7]
 217 0132 0022     		movs	r2, #0
 218 0134 1A63     		str	r2, [r3, #48]
 114:../firmware/gd32f3x0_hal_peripheral/Source/gd32f3x0_hal_uart.c ****         ((hal_uart_dev_struct *)p_struct)->txbuffer.buffer = NULL;
 219              		.loc 1 114 60
 220 0136 3B68     		ldr	r3, [r7]
 221 0138 0022     		movs	r2, #0
 222 013a 5A63     		str	r2, [r3, #52]
 115:../firmware/gd32f3x0_hal_peripheral/Source/gd32f3x0_hal_uart.c ****         ((hal_uart_dev_struct *)p_struct)->txbuffer.length = 0U;
 223              		.loc 1 115 60
 224 013c 3B68     		ldr	r3, [r7]
 225 013e 0022     		movs	r2, #0
 226 0140 9A63     		str	r2, [r3, #56]
 116:../firmware/gd32f3x0_hal_peripheral/Source/gd32f3x0_hal_uart.c ****         ((hal_uart_dev_struct *)p_struct)->txbuffer.pos = 0U;
 227              		.loc 1 116 57
 228 0142 3B68     		ldr	r3, [r7]
 229 0144 0022     		movs	r2, #0
 230 0146 DA63     		str	r2, [r3, #60]
 117:../firmware/gd32f3x0_hal_peripheral/Source/gd32f3x0_hal_uart.c ****         ((hal_uart_dev_struct *)p_struct)->rxbuffer.buffer = NULL;
 231              		.loc 1 117 60
 232 0148 3B68     		ldr	r3, [r7]
 233 014a 0022     		movs	r2, #0
 234 014c 1A64     		str	r2, [r3, #64]
 118:../firmware/gd32f3x0_hal_peripheral/Source/gd32f3x0_hal_uart.c ****         ((hal_uart_dev_struct *)p_struct)->rxbuffer.length = 0U;
 235              		.loc 1 118 60
 236 014e 3B68     		ldr	r3, [r7]
 237 0150 0022     		movs	r2, #0
 238 0152 5A64     		str	r2, [r3, #68]
 119:../firmware/gd32f3x0_hal_peripheral/Source/gd32f3x0_hal_uart.c ****         ((hal_uart_dev_struct *)p_struct)->rxbuffer.pos = 0U;
 239              		.loc 1 119 57
 240 0154 3B68     		ldr	r3, [r7]
 241 0156 0022     		movs	r2, #0
 242 0158 9A64     		str	r2, [r3, #72]
 120:../firmware/gd32f3x0_hal_peripheral/Source/gd32f3x0_hal_uart.c ****         ((hal_uart_dev_struct *)p_struct)->data_bit_mask = 0U;
 243              		.loc 1 120 58
 244 015a 3B68     		ldr	r3, [r7]
 245 015c 0022     		movs	r2, #0
 246 015e A3F84C20 		strh	r2, [r3, #76]	@ movhi
 121:../firmware/gd32f3x0_hal_peripheral/Source/gd32f3x0_hal_uart.c ****         ((hal_uart_dev_struct *)p_struct)->last_error = HAL_UART_ERROR_NONE;
 247              		.loc 1 121 55
 248 0162 3B68     		ldr	r3, [r7]
 249 0164 0022     		movs	r2, #0
 250 0166 A3F84E20 		strh	r2, [r3, #78]	@ movhi
 122:../firmware/gd32f3x0_hal_peripheral/Source/gd32f3x0_hal_uart.c ****         ((hal_uart_dev_struct *)p_struct)->error_state = HAL_UART_ERROR_NONE;
 251              		.loc 1 122 56
 252 016a 3B68     		ldr	r3, [r7]
 253 016c 0022     		movs	r2, #0
 254 016e A3F85020 		strh	r2, [r3, #80]	@ movhi
 123:../firmware/gd32f3x0_hal_peripheral/Source/gd32f3x0_hal_uart.c ****         ((hal_uart_dev_struct *)p_struct)->tx_state = UART_STATE_FREE;
 255              		.loc 1 123 53
 256 0172 3B68     		ldr	r3, [r7]
 257 0174 0022     		movs	r2, #0
 258 0176 83F85220 		strb	r2, [r3, #82]
 124:../firmware/gd32f3x0_hal_peripheral/Source/gd32f3x0_hal_uart.c ****         ((hal_uart_dev_struct *)p_struct)->rx_state = UART_STATE_FREE;
 259              		.loc 1 124 53
 260 017a 3B68     		ldr	r3, [r7]
 261 017c 0022     		movs	r2, #0
 262 017e 83F85320 		strb	r2, [r3, #83]
 125:../firmware/gd32f3x0_hal_peripheral/Source/gd32f3x0_hal_uart.c ****         ((hal_uart_dev_struct *)p_struct)->rx_callback = NULL;
 263              		.loc 1 125 56
 264 0182 3B68     		ldr	r3, [r7]
 265 0184 0022     		movs	r2, #0
 266 0186 5A65     		str	r2, [r3, #84]
 126:../firmware/gd32f3x0_hal_peripheral/Source/gd32f3x0_hal_uart.c ****         ((hal_uart_dev_struct *)p_struct)->tx_callback = NULL;
 267              		.loc 1 126 56
 268 0188 3B68     		ldr	r3, [r7]
 269 018a 0022     		movs	r2, #0
 270 018c 9A65     		str	r2, [r3, #88]
 127:../firmware/gd32f3x0_hal_peripheral/Source/gd32f3x0_hal_uart.c ****         ((hal_uart_dev_struct *)p_struct)->mutex = HAL_MUTEX_UNLOCKED;
 271              		.loc 1 127 50
 272 018e 3B68     		ldr	r3, [r7]
 273 0190 0022     		movs	r2, #0
 274 0192 83F85C20 		strb	r2, [r3, #92]
 128:../firmware/gd32f3x0_hal_peripheral/Source/gd32f3x0_hal_uart.c ****         ((hal_uart_dev_struct *)p_struct)->priv = NULL;
 275              		.loc 1 128 49
 276 0196 3B68     		ldr	r3, [r7]
 277 0198 0022     		movs	r2, #0
 278 019a 1A66     		str	r2, [r3, #96]
 129:../firmware/gd32f3x0_hal_peripheral/Source/gd32f3x0_hal_uart.c ****         break;
 279              		.loc 1 129 9
 280 019c 26E0     		b	.L8
 281              	.L5:
 130:../firmware/gd32f3x0_hal_peripheral/Source/gd32f3x0_hal_uart.c **** 
 131:../firmware/gd32f3x0_hal_peripheral/Source/gd32f3x0_hal_uart.c ****     case HAL_UART_USER_CALLBCAK_STRUCT:
 132:../firmware/gd32f3x0_hal_peripheral/Source/gd32f3x0_hal_uart.c ****         /* initialize user callback structure with the default values */
 133:../firmware/gd32f3x0_hal_peripheral/Source/gd32f3x0_hal_uart.c ****         ((hal_uart_user_callback_struct *)p_struct)->complete_func = NULL;
 282              		.loc 1 133 68
 283 019e 3B68     		ldr	r3, [r7]
 284 01a0 0022     		movs	r2, #0
 285 01a2 1A60     		str	r2, [r3]
 134:../firmware/gd32f3x0_hal_peripheral/Source/gd32f3x0_hal_uart.c ****         ((hal_uart_user_callback_struct *)p_struct)->error_func = NULL;
 286              		.loc 1 134 65
 287 01a4 3B68     		ldr	r3, [r7]
 288 01a6 0022     		movs	r2, #0
 289 01a8 5A60     		str	r2, [r3, #4]
 135:../firmware/gd32f3x0_hal_peripheral/Source/gd32f3x0_hal_uart.c ****         break;
 290              		.loc 1 135 9
 291 01aa 1FE0     		b	.L8
 292              	.L3:
 136:../firmware/gd32f3x0_hal_peripheral/Source/gd32f3x0_hal_uart.c **** 
 137:../firmware/gd32f3x0_hal_peripheral/Source/gd32f3x0_hal_uart.c ****     case HAL_UART_IRQ_INIT_STRUCT:
 138:../firmware/gd32f3x0_hal_peripheral/Source/gd32f3x0_hal_uart.c ****         /* initialize interrupt callback structure with the default values */
 139:../firmware/gd32f3x0_hal_peripheral/Source/gd32f3x0_hal_uart.c ****         ((hal_uart_irq_struct *)p_struct)->address_match_handle = NULL;
 293              		.loc 1 139 65
 294 01ac 3B68     		ldr	r3, [r7]
 295 01ae 0022     		movs	r2, #0
 296 01b0 DA61     		str	r2, [r3, #28]
 140:../firmware/gd32f3x0_hal_peripheral/Source/gd32f3x0_hal_uart.c ****         ((hal_uart_irq_struct *)p_struct)->cts_change_handle = NULL;
 297              		.loc 1 140 62
 298 01b2 3B68     		ldr	r3, [r7]
 299 01b4 0022     		movs	r2, #0
 300 01b6 5A62     		str	r2, [r3, #36]
 141:../firmware/gd32f3x0_hal_peripheral/Source/gd32f3x0_hal_uart.c ****         ((hal_uart_irq_struct *)p_struct)->error_handle = NULL;
 301              		.loc 1 141 57
 302 01b8 3B68     		ldr	r3, [r7]
 303 01ba 0022     		movs	r2, #0
 304 01bc 1A61     		str	r2, [r3, #16]
 142:../firmware/gd32f3x0_hal_peripheral/Source/gd32f3x0_hal_uart.c ****         ((hal_uart_irq_struct *)p_struct)->idle_line_detected_handle = NULL;
 305              		.loc 1 142 70
 306 01be 3B68     		ldr	r3, [r7]
 307 01c0 0022     		movs	r2, #0
 308 01c2 9A61     		str	r2, [r3, #24]
 143:../firmware/gd32f3x0_hal_peripheral/Source/gd32f3x0_hal_uart.c ****         ((hal_uart_irq_struct *)p_struct)->lin_break_detected_handle = NULL;
 309              		.loc 1 143 70
 310 01c4 3B68     		ldr	r3, [r7]
 311 01c6 0022     		movs	r2, #0
 312 01c8 1A62     		str	r2, [r3, #32]
 144:../firmware/gd32f3x0_hal_peripheral/Source/gd32f3x0_hal_uart.c ****         ((hal_uart_irq_struct *)p_struct)->receive_complete_handle = NULL;
 313              		.loc 1 144 68
 314 01ca 3B68     		ldr	r3, [r7]
 315 01cc 0022     		movs	r2, #0
 316 01ce 1A60     		str	r2, [r3]
 145:../firmware/gd32f3x0_hal_peripheral/Source/gd32f3x0_hal_uart.c ****         ((hal_uart_irq_struct *)p_struct)->receive_timeout_handle = NULL;
 317              		.loc 1 145 67
 318 01d0 3B68     		ldr	r3, [r7]
 319 01d2 0022     		movs	r2, #0
 320 01d4 5A60     		str	r2, [r3, #4]
 146:../firmware/gd32f3x0_hal_peripheral/Source/gd32f3x0_hal_uart.c ****         ((hal_uart_irq_struct *)p_struct)->transmit_complete_handle = NULL;
 321              		.loc 1 146 69
 322 01d6 3B68     		ldr	r3, [r7]
 323 01d8 0022     		movs	r2, #0
 324 01da DA60     		str	r2, [r3, #12]
 147:../firmware/gd32f3x0_hal_peripheral/Source/gd32f3x0_hal_uart.c ****         ((hal_uart_irq_struct *)p_struct)->transmit_ready_handle = NULL;
 325              		.loc 1 147 66
 326 01dc 3B68     		ldr	r3, [r7]
 327 01de 0022     		movs	r2, #0
 328 01e0 9A60     		str	r2, [r3, #8]
 148:../firmware/gd32f3x0_hal_peripheral/Source/gd32f3x0_hal_uart.c ****         ((hal_uart_irq_struct *)p_struct)->wakeup_handle = NULL;
 329              		.loc 1 148 58
 330 01e2 3B68     		ldr	r3, [r7]
 331 01e4 0022     		movs	r2, #0
 332 01e6 5A61     		str	r2, [r3, #20]
 149:../firmware/gd32f3x0_hal_peripheral/Source/gd32f3x0_hal_uart.c ****         break;
 333              		.loc 1 149 9
 334 01e8 00E0     		b	.L8
 335              	.L9:
 150:../firmware/gd32f3x0_hal_peripheral/Source/gd32f3x0_hal_uart.c ****     default:
 151:../firmware/gd32f3x0_hal_peripheral/Source/gd32f3x0_hal_uart.c ****         HAL_DEBUGW("parameter [hal_struct_type] value is undefine");
 152:../firmware/gd32f3x0_hal_peripheral/Source/gd32f3x0_hal_uart.c ****         break;
 336              		.loc 1 152 9
 337 01ea 00BF     		nop
 338              	.L8:
 153:../firmware/gd32f3x0_hal_peripheral/Source/gd32f3x0_hal_uart.c ****     }
 154:../firmware/gd32f3x0_hal_peripheral/Source/gd32f3x0_hal_uart.c **** }
 339              		.loc 1 154 1
 340 01ec 00BF     		nop
 341 01ee 0C37     		adds	r7, r7, #12
 342              		.cfi_def_cfa_offset 4
 343 01f0 BD46     		mov	sp, r7
 344              		.cfi_def_cfa_register 13
 345              		@ sp needed
 346 01f2 80BC     		pop	{r7}
 347              		.cfi_restore 7
 348              		.cfi_def_cfa_offset 0
 349 01f4 7047     		bx	lr
 350              		.cfi_endproc
 351              	.LFE119:
 353              		.section	.text.hal_uart_deinit,"ax",%progbits
 354              		.align	1
 355              		.global	hal_uart_deinit
 356              		.syntax unified
 357              		.thumb
 358              		.thumb_func
 359              		.fpu softvfp
 361              	hal_uart_deinit:
 362              	.LFB120:
 155:../firmware/gd32f3x0_hal_peripheral/Source/gd32f3x0_hal_uart.c **** 
 156:../firmware/gd32f3x0_hal_peripheral/Source/gd32f3x0_hal_uart.c **** /*!
 157:../firmware/gd32f3x0_hal_peripheral/Source/gd32f3x0_hal_uart.c ****     \brief      deinitialize the uart
 158:../firmware/gd32f3x0_hal_peripheral/Source/gd32f3x0_hal_uart.c ****     \param[in]  uart: uart device information structure
 159:../firmware/gd32f3x0_hal_peripheral/Source/gd32f3x0_hal_uart.c ****                     the structure is not necessary to be reconfigured after structrue initializatio
 160:../firmware/gd32f3x0_hal_peripheral/Source/gd32f3x0_hal_uart.c ****                     the structure parameters altering is automatically configured by core
 161:../firmware/gd32f3x0_hal_peripheral/Source/gd32f3x0_hal_uart.c ****     \param[out] none
 162:../firmware/gd32f3x0_hal_peripheral/Source/gd32f3x0_hal_uart.c ****     \retval     none
 163:../firmware/gd32f3x0_hal_peripheral/Source/gd32f3x0_hal_uart.c **** */
 164:../firmware/gd32f3x0_hal_peripheral/Source/gd32f3x0_hal_uart.c **** void hal_uart_deinit(hal_uart_dev_struct *uart)
 165:../firmware/gd32f3x0_hal_peripheral/Source/gd32f3x0_hal_uart.c **** {
 363              		.loc 1 165 1
 364              		.cfi_startproc
 365              		@ args = 0, pretend = 0, frame = 16
 366              		@ frame_needed = 1, uses_anonymous_args = 0
 367 0000 80B5     		push	{r7, lr}
 368              		.cfi_def_cfa_offset 8
 369              		.cfi_offset 7, -8
 370              		.cfi_offset 14, -4
 371 0002 84B0     		sub	sp, sp, #16
 372              		.cfi_def_cfa_offset 24
 373 0004 00AF     		add	r7, sp, #0
 374              		.cfi_def_cfa_register 7
 375 0006 7860     		str	r0, [r7, #4]
 166:../firmware/gd32f3x0_hal_peripheral/Source/gd32f3x0_hal_uart.c ****     uint32_t periph;
 167:../firmware/gd32f3x0_hal_peripheral/Source/gd32f3x0_hal_uart.c **** 
 168:../firmware/gd32f3x0_hal_peripheral/Source/gd32f3x0_hal_uart.c ****     periph = uart->periph;
 376              		.loc 1 168 12
 377 0008 7B68     		ldr	r3, [r7, #4]
 378 000a 1B68     		ldr	r3, [r3]
 379 000c FB60     		str	r3, [r7, #12]
 169:../firmware/gd32f3x0_hal_peripheral/Source/gd32f3x0_hal_uart.c ****     if((USART0 == periph) || (USART1 == periph)) {
 380              		.loc 1 169 7
 381 000e FB68     		ldr	r3, [r7, #12]
 382 0010 0A4A     		ldr	r2, .L14
 383 0012 9342     		cmp	r3, r2
 384 0014 03D0     		beq	.L11
 385              		.loc 1 169 27 discriminator 1
 386 0016 FB68     		ldr	r3, [r7, #12]
 387 0018 094A     		ldr	r2, .L14+4
 388 001a 9342     		cmp	r3, r2
 389 001c 09D1     		bne	.L13
 390              	.L11:
 170:../firmware/gd32f3x0_hal_peripheral/Source/gd32f3x0_hal_uart.c ****         /* deinitialize the periph and the device information sturcture */
 171:../firmware/gd32f3x0_hal_peripheral/Source/gd32f3x0_hal_uart.c ****         hals_uart_deinit(periph);
 391              		.loc 1 171 9
 392 001e F868     		ldr	r0, [r7, #12]
 393 0020 FFF7FEFF 		bl	hals_uart_deinit
 172:../firmware/gd32f3x0_hal_peripheral/Source/gd32f3x0_hal_uart.c ****         hal_uart_struct_init(HAL_UART_DEV_STRUCT, uart);
 394              		.loc 1 172 9
 395 0024 7968     		ldr	r1, [r7, #4]
 396 0026 0120     		movs	r0, #1
 397 0028 FFF7FEFF 		bl	hal_uart_struct_init
 173:../firmware/gd32f3x0_hal_peripheral/Source/gd32f3x0_hal_uart.c ****         uart->periph = periph;
 398              		.loc 1 173 22
 399 002c 7B68     		ldr	r3, [r7, #4]
 400 002e FA68     		ldr	r2, [r7, #12]
 401 0030 1A60     		str	r2, [r3]
 402              	.L13:
 174:../firmware/gd32f3x0_hal_peripheral/Source/gd32f3x0_hal_uart.c ****     } else {
 175:../firmware/gd32f3x0_hal_peripheral/Source/gd32f3x0_hal_uart.c ****         HAL_DEBUGE("parameter [uart->periph] value is invalid");
 176:../firmware/gd32f3x0_hal_peripheral/Source/gd32f3x0_hal_uart.c ****     }
 177:../firmware/gd32f3x0_hal_peripheral/Source/gd32f3x0_hal_uart.c **** }
 403              		.loc 1 177 1
 404 0032 00BF     		nop
 405 0034 1037     		adds	r7, r7, #16
 406              		.cfi_def_cfa_offset 8
 407 0036 BD46     		mov	sp, r7
 408              		.cfi_def_cfa_register 13
 409              		@ sp needed
 410 0038 80BD     		pop	{r7, pc}
 411              	.L15:
 412 003a 00BF     		.align	2
 413              	.L14:
 414 003c 00380140 		.word	1073821696
 415 0040 00440040 		.word	1073759232
 416              		.cfi_endproc
 417              	.LFE120:
 419              		.section	.text.hal_uart_init,"ax",%progbits
 420              		.align	1
 421              		.global	hal_uart_init
 422              		.syntax unified
 423              		.thumb
 424              		.thumb_func
 425              		.fpu softvfp
 427              	hal_uart_init:
 428              	.LFB121:
 178:../firmware/gd32f3x0_hal_peripheral/Source/gd32f3x0_hal_uart.c **** 
 179:../firmware/gd32f3x0_hal_peripheral/Source/gd32f3x0_hal_uart.c **** /*!
 180:../firmware/gd32f3x0_hal_peripheral/Source/gd32f3x0_hal_uart.c ****     \brief      initialize uart
 181:../firmware/gd32f3x0_hal_peripheral/Source/gd32f3x0_hal_uart.c ****     \param[in]  uart: uart device information structure
 182:../firmware/gd32f3x0_hal_peripheral/Source/gd32f3x0_hal_uart.c ****                     the structure is not necessary to be reconfigured after structrue initializatio
 183:../firmware/gd32f3x0_hal_peripheral/Source/gd32f3x0_hal_uart.c ****                     the structure parameters altering is automatically configured by core
 184:../firmware/gd32f3x0_hal_peripheral/Source/gd32f3x0_hal_uart.c ****     \param[in]  periph: specify which UART is initialized
 185:../firmware/gd32f3x0_hal_peripheral/Source/gd32f3x0_hal_uart.c ****     \param[in]  p_init: the initialization data needed to initialize uart
 186:../firmware/gd32f3x0_hal_peripheral/Source/gd32f3x0_hal_uart.c ****                   work_mode: UART_WORK_MODE_ASYN, UART_WORK_MODE_SINGLE_WIRE, UART_WORK_MODE_MULTIP
 187:../firmware/gd32f3x0_hal_peripheral/Source/gd32f3x0_hal_uart.c ****                              UART_WORK_MODE_LIN
 188:../firmware/gd32f3x0_hal_peripheral/Source/gd32f3x0_hal_uart.c ****                   baudrate: communication baudrate
 189:../firmware/gd32f3x0_hal_peripheral/Source/gd32f3x0_hal_uart.c ****                   parity: UART_PARITY_NONE, UART_PARITY_EVEN, UART_PARITY_ODD
 190:../firmware/gd32f3x0_hal_peripheral/Source/gd32f3x0_hal_uart.c ****                   word_length: UART_WORD_LENGTH_8BIT, UART_WORD_LENGTH_9BIT
 191:../firmware/gd32f3x0_hal_peripheral/Source/gd32f3x0_hal_uart.c ****                   stop_bit: UART_STOP_BIT_1, UART_STOP_BIT_0_5, UART_STOP_BIT_2, UART_STOP_BIT_1_5
 192:../firmware/gd32f3x0_hal_peripheral/Source/gd32f3x0_hal_uart.c ****                   over_sample: UART_OVER_SAMPLE_8, UART_OVER_SAMPLE_16
 193:../firmware/gd32f3x0_hal_peripheral/Source/gd32f3x0_hal_uart.c ****                   sample_method: UART_THREE_SAMPLE_BIT, UART_ONE_SAMPLE_BIT
 194:../firmware/gd32f3x0_hal_peripheral/Source/gd32f3x0_hal_uart.c ****                   direction: UART_DIRECTION_RX_TX, UART_DIRECTION_RX_ONLY, UART_DIRECTION_TX_ONLY
 195:../firmware/gd32f3x0_hal_peripheral/Source/gd32f3x0_hal_uart.c ****                   hardware_flow: UART_HARDWARE_FLOW_NONE, UART_HARDWARE_FLOW_RTS_ONLY, UART_HARDWAR
 196:../firmware/gd32f3x0_hal_peripheral/Source/gd32f3x0_hal_uart.c ****                                 UART_HARDWARE_FLOW_RTS_CTS
 197:../firmware/gd32f3x0_hal_peripheral/Source/gd32f3x0_hal_uart.c ****                   rx_fifo_en：DISABLE, ENABLE
 198:../firmware/gd32f3x0_hal_peripheral/Source/gd32f3x0_hal_uart.c ****                   timeout_enable: DISABLE, ENABLE
 199:../firmware/gd32f3x0_hal_peripheral/Source/gd32f3x0_hal_uart.c ****                   timeout_value: 0 - (2^24-1)
 200:../firmware/gd32f3x0_hal_peripheral/Source/gd32f3x0_hal_uart.c ****                   first_bit_msb: DISABLE, ENABLE
 201:../firmware/gd32f3x0_hal_peripheral/Source/gd32f3x0_hal_uart.c ****                   tx_rx_swap: DISABLE, ENABLE
 202:../firmware/gd32f3x0_hal_peripheral/Source/gd32f3x0_hal_uart.c ****                   rx_level_invert: DISABLE, ENABLE
 203:../firmware/gd32f3x0_hal_peripheral/Source/gd32f3x0_hal_uart.c ****                   tx_level_invert: DISABLE, ENABLE
 204:../firmware/gd32f3x0_hal_peripheral/Source/gd32f3x0_hal_uart.c ****                   data_bit_invert: DISABLE, ENABLE
 205:../firmware/gd32f3x0_hal_peripheral/Source/gd32f3x0_hal_uart.c ****                   overrun_disable: DISABLE, ENABLE
 206:../firmware/gd32f3x0_hal_peripheral/Source/gd32f3x0_hal_uart.c ****                   rx_error_dma_stop: DISABLE, ENABLE
 207:../firmware/gd32f3x0_hal_peripheral/Source/gd32f3x0_hal_uart.c ****                   lin_mode: (USART0 only)
 208:../firmware/gd32f3x0_hal_peripheral/Source/gd32f3x0_hal_uart.c ****                     break_frame_length: UART_LIN_BREAK_DETECTION_10BIT, UART_LIN_BREAK_DETECTION_11
 209:../firmware/gd32f3x0_hal_peripheral/Source/gd32f3x0_hal_uart.c ****                   rs485_mode:
 210:../firmware/gd32f3x0_hal_peripheral/Source/gd32f3x0_hal_uart.c ****                     rs485_mode: DISABLE, ENABLE
 211:../firmware/gd32f3x0_hal_peripheral/Source/gd32f3x0_hal_uart.c ****                     de_polarity: UART_RS485_DE_POLARITY_HIGH, UART_RS485_DE_POLARITY_LOW
 212:../firmware/gd32f3x0_hal_peripheral/Source/gd32f3x0_hal_uart.c ****                     de_assertion_time: 0 - 31
 213:../firmware/gd32f3x0_hal_peripheral/Source/gd32f3x0_hal_uart.c ****                     de_deassertion_time: 0 - 31
 214:../firmware/gd32f3x0_hal_peripheral/Source/gd32f3x0_hal_uart.c ****                   multiprocessor_mode:
 215:../firmware/gd32f3x0_hal_peripheral/Source/gd32f3x0_hal_uart.c ****                     wakeup_mode: UART_MULTIPROCESSOR_WAKEUP_IDLE, UART_MULTIPROCESSOR_WAKEUP_ADDRES
 216:../firmware/gd32f3x0_hal_peripheral/Source/gd32f3x0_hal_uart.c ****                     address: 0 - 15(4-bit address detection), 0 - 255(full-bit address detection)
 217:../firmware/gd32f3x0_hal_peripheral/Source/gd32f3x0_hal_uart.c ****                     addr_length: UART_MULTIPROCESSOR_ADDRESS_4BIT, UART_MULTIPROCESSOR_ADDRESS_FULL
 218:../firmware/gd32f3x0_hal_peripheral/Source/gd32f3x0_hal_uart.c ****     \param[out] none
 219:../firmware/gd32f3x0_hal_peripheral/Source/gd32f3x0_hal_uart.c ****     \retval     error code: HAL_ERR_NONE, HAL_ERR_ADDRESS, HAL_ERR_VAL details refer to gd32f3x0_ha
 220:../firmware/gd32f3x0_hal_peripheral/Source/gd32f3x0_hal_uart.c **** */
 221:../firmware/gd32f3x0_hal_peripheral/Source/gd32f3x0_hal_uart.c **** int32_t hal_uart_init(hal_uart_dev_struct *uart, uint32_t periph, hal_uart_init_struct *p_init)
 222:../firmware/gd32f3x0_hal_peripheral/Source/gd32f3x0_hal_uart.c **** {
 429              		.loc 1 222 1
 430              		.cfi_startproc
 431              		@ args = 0, pretend = 0, frame = 24
 432              		@ frame_needed = 1, uses_anonymous_args = 0
 433 0000 80B5     		push	{r7, lr}
 434              		.cfi_def_cfa_offset 8
 435              		.cfi_offset 7, -8
 436              		.cfi_offset 14, -4
 437 0002 86B0     		sub	sp, sp, #24
 438              		.cfi_def_cfa_offset 32
 439 0004 00AF     		add	r7, sp, #0
 440              		.cfi_def_cfa_register 7
 441 0006 F860     		str	r0, [r7, #12]
 442 0008 B960     		str	r1, [r7, #8]
 443 000a 7A60     		str	r2, [r7, #4]
 223:../firmware/gd32f3x0_hal_peripheral/Source/gd32f3x0_hal_uart.c ****     uint32_t reg_temp;
 224:../firmware/gd32f3x0_hal_peripheral/Source/gd32f3x0_hal_uart.c **** 
 225:../firmware/gd32f3x0_hal_peripheral/Source/gd32f3x0_hal_uart.c **** #if (1 == HAL_PARAMETER_CHECK)
 226:../firmware/gd32f3x0_hal_peripheral/Source/gd32f3x0_hal_uart.c ****     /* check uart pointer and p_init address */
 227:../firmware/gd32f3x0_hal_peripheral/Source/gd32f3x0_hal_uart.c ****     if((NULL == uart) || (NULL == p_init)) {
 228:../firmware/gd32f3x0_hal_peripheral/Source/gd32f3x0_hal_uart.c ****         HAL_DEBUGE("pointer [uart] or [p_init] address is invalid");
 229:../firmware/gd32f3x0_hal_peripheral/Source/gd32f3x0_hal_uart.c ****         return HAL_ERR_ADDRESS;
 230:../firmware/gd32f3x0_hal_peripheral/Source/gd32f3x0_hal_uart.c ****     }
 231:../firmware/gd32f3x0_hal_peripheral/Source/gd32f3x0_hal_uart.c **** 
 232:../firmware/gd32f3x0_hal_peripheral/Source/gd32f3x0_hal_uart.c ****     /* check periph parameter */
 233:../firmware/gd32f3x0_hal_peripheral/Source/gd32f3x0_hal_uart.c ****     if((USART0 != periph) && (USART1 != periph)) {
 234:../firmware/gd32f3x0_hal_peripheral/Source/gd32f3x0_hal_uart.c ****         HAL_DEBUGE("parameter [periph] value is invalid");
 235:../firmware/gd32f3x0_hal_peripheral/Source/gd32f3x0_hal_uart.c ****         return HAL_ERR_VAL;
 236:../firmware/gd32f3x0_hal_peripheral/Source/gd32f3x0_hal_uart.c ****     }
 237:../firmware/gd32f3x0_hal_peripheral/Source/gd32f3x0_hal_uart.c **** 
 238:../firmware/gd32f3x0_hal_peripheral/Source/gd32f3x0_hal_uart.c ****     /* check periph value from uart device struct */
 239:../firmware/gd32f3x0_hal_peripheral/Source/gd32f3x0_hal_uart.c ****     if(0 != uart->periph) {
 240:../firmware/gd32f3x0_hal_peripheral/Source/gd32f3x0_hal_uart.c ****         HAL_DEBUGI("periph value from uart device struct has been rewrite");
 241:../firmware/gd32f3x0_hal_peripheral/Source/gd32f3x0_hal_uart.c ****     }
 242:../firmware/gd32f3x0_hal_peripheral/Source/gd32f3x0_hal_uart.c **** #endif /* 1 == HAL_PARAMETER_CHECK */
 243:../firmware/gd32f3x0_hal_peripheral/Source/gd32f3x0_hal_uart.c **** 
 244:../firmware/gd32f3x0_hal_peripheral/Source/gd32f3x0_hal_uart.c ****     /* lock uart */
 245:../firmware/gd32f3x0_hal_peripheral/Source/gd32f3x0_hal_uart.c ****     HAL_LOCK(uart);
 444              		.loc 1 245 5
 445 000c FB68     		ldr	r3, [r7, #12]
 446 000e 93F85C30 		ldrb	r3, [r3, #92]	@ zero_extendqisi2
 447 0012 012B     		cmp	r3, #1
 448 0014 02D1     		bne	.L17
 449              		.loc 1 245 5 is_stmt 0 discriminator 1
 450 0016 6FF00103 		mvn	r3, #1
 451 001a B6E1     		b	.L18
 452              	.L17:
 453              		.loc 1 245 5 discriminator 2
 454 001c FB68     		ldr	r3, [r7, #12]
 455 001e 0122     		movs	r2, #1
 456 0020 83F85C20 		strb	r2, [r3, #92]
 246:../firmware/gd32f3x0_hal_peripheral/Source/gd32f3x0_hal_uart.c **** 
 247:../firmware/gd32f3x0_hal_peripheral/Source/gd32f3x0_hal_uart.c ****     uart->periph    = periph;
 457              		.loc 1 247 21 is_stmt 1 discriminator 2
 458 0024 FB68     		ldr	r3, [r7, #12]
 459 0026 BA68     		ldr	r2, [r7, #8]
 460 0028 1A60     		str	r2, [r3]
 248:../firmware/gd32f3x0_hal_peripheral/Source/gd32f3x0_hal_uart.c **** 
 249:../firmware/gd32f3x0_hal_peripheral/Source/gd32f3x0_hal_uart.c ****     /* disable uart */
 250:../firmware/gd32f3x0_hal_peripheral/Source/gd32f3x0_hal_uart.c ****     hals_uart_disable(periph);
 461              		.loc 1 250 5 discriminator 2
 462 002a B868     		ldr	r0, [r7, #8]
 463 002c FFF7FEFF 		bl	hals_uart_disable
 251:../firmware/gd32f3x0_hal_peripheral/Source/gd32f3x0_hal_uart.c **** 
 252:../firmware/gd32f3x0_hal_peripheral/Source/gd32f3x0_hal_uart.c ****     /* configure CTL0 register */
 253:../firmware/gd32f3x0_hal_peripheral/Source/gd32f3x0_hal_uart.c ****     reg_temp = USART_CTL0(periph);
 464              		.loc 1 253 16 discriminator 2
 465 0030 BB68     		ldr	r3, [r7, #8]
 466              		.loc 1 253 14 discriminator 2
 467 0032 1B68     		ldr	r3, [r3]
 468 0034 7B61     		str	r3, [r7, #20]
 254:../firmware/gd32f3x0_hal_peripheral/Source/gd32f3x0_hal_uart.c ****     reg_temp &= ~(USART_CTL0_PM | USART_CTL0_PCEN | USART_CTL0_WL | USART_CTL0_OVSMOD | USART_CTL0_
 469              		.loc 1 254 14 discriminator 2
 470 0036 7B69     		ldr	r3, [r7, #20]
 471 0038 23F41643 		bic	r3, r3, #38400
 472 003c 23F00C03 		bic	r3, r3, #12
 473 0040 7B61     		str	r3, [r7, #20]
 255:../firmware/gd32f3x0_hal_peripheral/Source/gd32f3x0_hal_uart.c ****     reg_temp |= (p_init->direction | p_init->over_sample | p_init->parity | p_init->word_length);
 474              		.loc 1 255 24 discriminator 2
 475 0042 7B68     		ldr	r3, [r7, #4]
 476 0044 5A69     		ldr	r2, [r3, #20]
 477              		.loc 1 255 44 discriminator 2
 478 0046 7B68     		ldr	r3, [r7, #4]
 479 0048 9B69     		ldr	r3, [r3, #24]
 480              		.loc 1 255 36 discriminator 2
 481 004a 1A43     		orrs	r2, r2, r3
 482              		.loc 1 255 66 discriminator 2
 483 004c 7B68     		ldr	r3, [r7, #4]
 484 004e 9B68     		ldr	r3, [r3, #8]
 485              		.loc 1 255 58 discriminator 2
 486 0050 1A43     		orrs	r2, r2, r3
 487              		.loc 1 255 83 discriminator 2
 488 0052 7B68     		ldr	r3, [r7, #4]
 489 0054 DB68     		ldr	r3, [r3, #12]
 490              		.loc 1 255 75 discriminator 2
 491 0056 1343     		orrs	r3, r3, r2
 492              		.loc 1 255 14 discriminator 2
 493 0058 7A69     		ldr	r2, [r7, #20]
 494 005a 1343     		orrs	r3, r3, r2
 495 005c 7B61     		str	r3, [r7, #20]
 256:../firmware/gd32f3x0_hal_peripheral/Source/gd32f3x0_hal_uart.c ****     USART_CTL0(periph) = reg_temp;
 496              		.loc 1 256 5 discriminator 2
 497 005e BB68     		ldr	r3, [r7, #8]
 498              		.loc 1 256 24 discriminator 2
 499 0060 7A69     		ldr	r2, [r7, #20]
 500 0062 1A60     		str	r2, [r3]
 257:../firmware/gd32f3x0_hal_peripheral/Source/gd32f3x0_hal_uart.c **** 
 258:../firmware/gd32f3x0_hal_peripheral/Source/gd32f3x0_hal_uart.c ****     /* configure CTL1 register */
 259:../firmware/gd32f3x0_hal_peripheral/Source/gd32f3x0_hal_uart.c ****     reg_temp = USART_CTL1(periph);
 501              		.loc 1 259 16 discriminator 2
 502 0064 BB68     		ldr	r3, [r7, #8]
 503 0066 0433     		adds	r3, r3, #4
 504              		.loc 1 259 14 discriminator 2
 505 0068 1B68     		ldr	r3, [r3]
 506 006a 7B61     		str	r3, [r7, #20]
 260:../firmware/gd32f3x0_hal_peripheral/Source/gd32f3x0_hal_uart.c ****     reg_temp &= ~(USART_CTL1_STB);
 507              		.loc 1 260 14 discriminator 2
 508 006c 7B69     		ldr	r3, [r7, #20]
 509 006e 23F44053 		bic	r3, r3, #12288
 510 0072 7B61     		str	r3, [r7, #20]
 261:../firmware/gd32f3x0_hal_peripheral/Source/gd32f3x0_hal_uart.c ****     reg_temp |= (p_init->stop_bit);
 511              		.loc 1 261 24 discriminator 2
 512 0074 7B68     		ldr	r3, [r7, #4]
 513 0076 1B69     		ldr	r3, [r3, #16]
 514              		.loc 1 261 14 discriminator 2
 515 0078 7A69     		ldr	r2, [r7, #20]
 516 007a 1343     		orrs	r3, r3, r2
 517 007c 7B61     		str	r3, [r7, #20]
 262:../firmware/gd32f3x0_hal_peripheral/Source/gd32f3x0_hal_uart.c ****     USART_CTL1(periph) = reg_temp;
 518              		.loc 1 262 5 discriminator 2
 519 007e BB68     		ldr	r3, [r7, #8]
 520 0080 0433     		adds	r3, r3, #4
 521 0082 1A46     		mov	r2, r3
 522              		.loc 1 262 24 discriminator 2
 523 0084 7B69     		ldr	r3, [r7, #20]
 524 0086 1360     		str	r3, [r2]
 263:../firmware/gd32f3x0_hal_peripheral/Source/gd32f3x0_hal_uart.c **** 
 264:../firmware/gd32f3x0_hal_peripheral/Source/gd32f3x0_hal_uart.c ****     /* configure timeout enable */
 265:../firmware/gd32f3x0_hal_peripheral/Source/gd32f3x0_hal_uart.c ****     if(ENABLE == p_init->timeout_enable) {
 525              		.loc 1 265 24 discriminator 2
 526 0088 7B68     		ldr	r3, [r7, #4]
 527 008a 93F82530 		ldrb	r3, [r3, #37]	@ zero_extendqisi2
 528              		.loc 1 265 7 discriminator 2
 529 008e 012B     		cmp	r3, #1
 530 0090 08D1     		bne	.L19
 266:../firmware/gd32f3x0_hal_peripheral/Source/gd32f3x0_hal_uart.c ****         USART_CTL1(periph) |= USART_CTL1_RTEN;
 531              		.loc 1 266 28
 532 0092 BB68     		ldr	r3, [r7, #8]
 533 0094 0433     		adds	r3, r3, #4
 534 0096 1B68     		ldr	r3, [r3]
 535 0098 BA68     		ldr	r2, [r7, #8]
 536 009a 0432     		adds	r2, r2, #4
 537 009c 43F40003 		orr	r3, r3, #8388608
 538 00a0 1360     		str	r3, [r2]
 539 00a2 07E0     		b	.L20
 540              	.L19:
 267:../firmware/gd32f3x0_hal_peripheral/Source/gd32f3x0_hal_uart.c ****     } else {
 268:../firmware/gd32f3x0_hal_peripheral/Source/gd32f3x0_hal_uart.c ****         USART_CTL1(periph) &= ~(USART_CTL1_RTEN);
 541              		.loc 1 268 28
 542 00a4 BB68     		ldr	r3, [r7, #8]
 543 00a6 0433     		adds	r3, r3, #4
 544 00a8 1B68     		ldr	r3, [r3]
 545 00aa BA68     		ldr	r2, [r7, #8]
 546 00ac 0432     		adds	r2, r2, #4
 547 00ae 23F40003 		bic	r3, r3, #8388608
 548 00b2 1360     		str	r3, [r2]
 549              	.L20:
 269:../firmware/gd32f3x0_hal_peripheral/Source/gd32f3x0_hal_uart.c ****     }
 270:../firmware/gd32f3x0_hal_peripheral/Source/gd32f3x0_hal_uart.c ****     /* configure the data bit invert function */
 271:../firmware/gd32f3x0_hal_peripheral/Source/gd32f3x0_hal_uart.c ****     if(ENABLE == p_init->data_bit_invert) {
 550              		.loc 1 271 24
 551 00b4 7B68     		ldr	r3, [r7, #4]
 552 00b6 93F83030 		ldrb	r3, [r3, #48]	@ zero_extendqisi2
 553              		.loc 1 271 7
 554 00ba 012B     		cmp	r3, #1
 555 00bc 08D1     		bne	.L21
 272:../firmware/gd32f3x0_hal_peripheral/Source/gd32f3x0_hal_uart.c ****         USART_CTL1(periph) |= USART_CTL1_DINV;
 556              		.loc 1 272 28
 557 00be BB68     		ldr	r3, [r7, #8]
 558 00c0 0433     		adds	r3, r3, #4
 559 00c2 1B68     		ldr	r3, [r3]
 560 00c4 BA68     		ldr	r2, [r7, #8]
 561 00c6 0432     		adds	r2, r2, #4
 562 00c8 43F48023 		orr	r3, r3, #262144
 563 00cc 1360     		str	r3, [r2]
 564 00ce 07E0     		b	.L22
 565              	.L21:
 273:../firmware/gd32f3x0_hal_peripheral/Source/gd32f3x0_hal_uart.c ****     } else {
 274:../firmware/gd32f3x0_hal_peripheral/Source/gd32f3x0_hal_uart.c ****         USART_CTL1(periph) &= ~(USART_CTL1_DINV);
 566              		.loc 1 274 28
 567 00d0 BB68     		ldr	r3, [r7, #8]
 568 00d2 0433     		adds	r3, r3, #4
 569 00d4 1B68     		ldr	r3, [r3]
 570 00d6 BA68     		ldr	r2, [r7, #8]
 571 00d8 0432     		adds	r2, r2, #4
 572 00da 23F48023 		bic	r3, r3, #262144
 573 00de 1360     		str	r3, [r2]
 574              	.L22:
 275:../firmware/gd32f3x0_hal_peripheral/Source/gd32f3x0_hal_uart.c ****     }
 276:../firmware/gd32f3x0_hal_peripheral/Source/gd32f3x0_hal_uart.c ****     /* configure the rx level invert function */
 277:../firmware/gd32f3x0_hal_peripheral/Source/gd32f3x0_hal_uart.c ****     if(ENABLE == p_init->rx_level_invert) {
 575              		.loc 1 277 24
 576 00e0 7B68     		ldr	r3, [r7, #4]
 577 00e2 93F82E30 		ldrb	r3, [r3, #46]	@ zero_extendqisi2
 578              		.loc 1 277 7
 579 00e6 012B     		cmp	r3, #1
 580 00e8 08D1     		bne	.L23
 278:../firmware/gd32f3x0_hal_peripheral/Source/gd32f3x0_hal_uart.c ****         USART_CTL1(periph) |= USART_CTL1_RINV;
 581              		.loc 1 278 28
 582 00ea BB68     		ldr	r3, [r7, #8]
 583 00ec 0433     		adds	r3, r3, #4
 584 00ee 1B68     		ldr	r3, [r3]
 585 00f0 BA68     		ldr	r2, [r7, #8]
 586 00f2 0432     		adds	r2, r2, #4
 587 00f4 43F48033 		orr	r3, r3, #65536
 588 00f8 1360     		str	r3, [r2]
 589 00fa 07E0     		b	.L24
 590              	.L23:
 279:../firmware/gd32f3x0_hal_peripheral/Source/gd32f3x0_hal_uart.c ****     } else {
 280:../firmware/gd32f3x0_hal_peripheral/Source/gd32f3x0_hal_uart.c ****         USART_CTL1(periph) &= ~(USART_CTL1_RINV);
 591              		.loc 1 280 28
 592 00fc BB68     		ldr	r3, [r7, #8]
 593 00fe 0433     		adds	r3, r3, #4
 594 0100 1B68     		ldr	r3, [r3]
 595 0102 BA68     		ldr	r2, [r7, #8]
 596 0104 0432     		adds	r2, r2, #4
 597 0106 23F48033 		bic	r3, r3, #65536
 598 010a 1360     		str	r3, [r2]
 599              	.L24:
 281:../firmware/gd32f3x0_hal_peripheral/Source/gd32f3x0_hal_uart.c ****     }
 282:../firmware/gd32f3x0_hal_peripheral/Source/gd32f3x0_hal_uart.c ****     /* configure the tx level invert function */
 283:../firmware/gd32f3x0_hal_peripheral/Source/gd32f3x0_hal_uart.c ****     if(ENABLE == p_init->tx_level_invert) {
 600              		.loc 1 283 24
 601 010c 7B68     		ldr	r3, [r7, #4]
 602 010e 93F82F30 		ldrb	r3, [r3, #47]	@ zero_extendqisi2
 603              		.loc 1 283 7
 604 0112 012B     		cmp	r3, #1
 605 0114 08D1     		bne	.L25
 284:../firmware/gd32f3x0_hal_peripheral/Source/gd32f3x0_hal_uart.c ****         USART_CTL1(periph) |= USART_CTL1_TINV;
 606              		.loc 1 284 28
 607 0116 BB68     		ldr	r3, [r7, #8]
 608 0118 0433     		adds	r3, r3, #4
 609 011a 1B68     		ldr	r3, [r3]
 610 011c BA68     		ldr	r2, [r7, #8]
 611 011e 0432     		adds	r2, r2, #4
 612 0120 43F40033 		orr	r3, r3, #131072
 613 0124 1360     		str	r3, [r2]
 614 0126 07E0     		b	.L26
 615              	.L25:
 285:../firmware/gd32f3x0_hal_peripheral/Source/gd32f3x0_hal_uart.c ****     } else {
 286:../firmware/gd32f3x0_hal_peripheral/Source/gd32f3x0_hal_uart.c ****         USART_CTL1(periph) &= ~(USART_CTL1_TINV);
 616              		.loc 1 286 28
 617 0128 BB68     		ldr	r3, [r7, #8]
 618 012a 0433     		adds	r3, r3, #4
 619 012c 1B68     		ldr	r3, [r3]
 620 012e BA68     		ldr	r2, [r7, #8]
 621 0130 0432     		adds	r2, r2, #4
 622 0132 23F40033 		bic	r3, r3, #131072
 623 0136 1360     		str	r3, [r2]
 624              	.L26:
 287:../firmware/gd32f3x0_hal_peripheral/Source/gd32f3x0_hal_uart.c ****     }
 288:../firmware/gd32f3x0_hal_peripheral/Source/gd32f3x0_hal_uart.c ****     /* configure the tx rx swap function */
 289:../firmware/gd32f3x0_hal_peripheral/Source/gd32f3x0_hal_uart.c ****     if(ENABLE == p_init->tx_rx_swap) {
 625              		.loc 1 289 24
 626 0138 7B68     		ldr	r3, [r7, #4]
 627 013a 93F82D30 		ldrb	r3, [r3, #45]	@ zero_extendqisi2
 628              		.loc 1 289 7
 629 013e 012B     		cmp	r3, #1
 630 0140 08D1     		bne	.L27
 290:../firmware/gd32f3x0_hal_peripheral/Source/gd32f3x0_hal_uart.c ****         USART_CTL1(periph) |= USART_CTL1_STRP;
 631              		.loc 1 290 28
 632 0142 BB68     		ldr	r3, [r7, #8]
 633 0144 0433     		adds	r3, r3, #4
 634 0146 1B68     		ldr	r3, [r3]
 635 0148 BA68     		ldr	r2, [r7, #8]
 636 014a 0432     		adds	r2, r2, #4
 637 014c 43F40043 		orr	r3, r3, #32768
 638 0150 1360     		str	r3, [r2]
 639 0152 07E0     		b	.L28
 640              	.L27:
 291:../firmware/gd32f3x0_hal_peripheral/Source/gd32f3x0_hal_uart.c ****     } else {
 292:../firmware/gd32f3x0_hal_peripheral/Source/gd32f3x0_hal_uart.c ****         USART_CTL1(periph) &= ~(USART_CTL1_STRP);
 641              		.loc 1 292 28
 642 0154 BB68     		ldr	r3, [r7, #8]
 643 0156 0433     		adds	r3, r3, #4
 644 0158 1B68     		ldr	r3, [r3]
 645 015a BA68     		ldr	r2, [r7, #8]
 646 015c 0432     		adds	r2, r2, #4
 647 015e 23F40043 		bic	r3, r3, #32768
 648 0162 1360     		str	r3, [r2]
 649              	.L28:
 293:../firmware/gd32f3x0_hal_peripheral/Source/gd32f3x0_hal_uart.c ****     }
 294:../firmware/gd32f3x0_hal_peripheral/Source/gd32f3x0_hal_uart.c ****     /* configure the first bit MSB function */
 295:../firmware/gd32f3x0_hal_peripheral/Source/gd32f3x0_hal_uart.c ****     if(ENABLE == p_init->first_bit_msb) {
 650              		.loc 1 295 24
 651 0164 7B68     		ldr	r3, [r7, #4]
 652 0166 93F82C30 		ldrb	r3, [r3, #44]	@ zero_extendqisi2
 653              		.loc 1 295 7
 654 016a 012B     		cmp	r3, #1
 655 016c 08D1     		bne	.L29
 296:../firmware/gd32f3x0_hal_peripheral/Source/gd32f3x0_hal_uart.c ****         USART_CTL1(periph) |= USART_CTL1_MSBF;
 656              		.loc 1 296 28
 657 016e BB68     		ldr	r3, [r7, #8]
 658 0170 0433     		adds	r3, r3, #4
 659 0172 1B68     		ldr	r3, [r3]
 660 0174 BA68     		ldr	r2, [r7, #8]
 661 0176 0432     		adds	r2, r2, #4
 662 0178 43F40023 		orr	r3, r3, #524288
 663 017c 1360     		str	r3, [r2]
 664 017e 07E0     		b	.L30
 665              	.L29:
 297:../firmware/gd32f3x0_hal_peripheral/Source/gd32f3x0_hal_uart.c ****     } else {
 298:../firmware/gd32f3x0_hal_peripheral/Source/gd32f3x0_hal_uart.c ****         USART_CTL1(periph) &= ~(USART_CTL1_MSBF);
 666              		.loc 1 298 28
 667 0180 BB68     		ldr	r3, [r7, #8]
 668 0182 0433     		adds	r3, r3, #4
 669 0184 1B68     		ldr	r3, [r3]
 670 0186 BA68     		ldr	r2, [r7, #8]
 671 0188 0432     		adds	r2, r2, #4
 672 018a 23F40023 		bic	r3, r3, #524288
 673 018e 1360     		str	r3, [r2]
 674              	.L30:
 299:../firmware/gd32f3x0_hal_peripheral/Source/gd32f3x0_hal_uart.c ****     }
 300:../firmware/gd32f3x0_hal_peripheral/Source/gd32f3x0_hal_uart.c **** 
 301:../firmware/gd32f3x0_hal_peripheral/Source/gd32f3x0_hal_uart.c ****     /* configure CTL2 register */
 302:../firmware/gd32f3x0_hal_peripheral/Source/gd32f3x0_hal_uart.c ****     reg_temp = USART_CTL2(periph);
 675              		.loc 1 302 16
 676 0190 BB68     		ldr	r3, [r7, #8]
 677 0192 0833     		adds	r3, r3, #8
 678              		.loc 1 302 14
 679 0194 1B68     		ldr	r3, [r3]
 680 0196 7B61     		str	r3, [r7, #20]
 303:../firmware/gd32f3x0_hal_peripheral/Source/gd32f3x0_hal_uart.c ****     reg_temp &= ~(USART_CTL2_CTSEN | USART_CTL2_RTSEN | USART_CTL2_OSB);
 681              		.loc 1 303 14
 682 0198 7B69     		ldr	r3, [r7, #20]
 683 019a 23F43063 		bic	r3, r3, #2816
 684 019e 7B61     		str	r3, [r7, #20]
 304:../firmware/gd32f3x0_hal_peripheral/Source/gd32f3x0_hal_uart.c ****     reg_temp |= (p_init->hardware_flow | p_init->sample_method);
 685              		.loc 1 304 24
 686 01a0 7B68     		ldr	r3, [r7, #4]
 687 01a2 1A6A     		ldr	r2, [r3, #32]
 688              		.loc 1 304 48
 689 01a4 7B68     		ldr	r3, [r7, #4]
 690 01a6 DB69     		ldr	r3, [r3, #28]
 691              		.loc 1 304 40
 692 01a8 1343     		orrs	r3, r3, r2
 693              		.loc 1 304 14
 694 01aa 7A69     		ldr	r2, [r7, #20]
 695 01ac 1343     		orrs	r3, r3, r2
 696 01ae 7B61     		str	r3, [r7, #20]
 305:../firmware/gd32f3x0_hal_peripheral/Source/gd32f3x0_hal_uart.c ****     USART_CTL2(periph) = reg_temp;
 697              		.loc 1 305 5
 698 01b0 BB68     		ldr	r3, [r7, #8]
 699 01b2 0833     		adds	r3, r3, #8
 700 01b4 1A46     		mov	r2, r3
 701              		.loc 1 305 24
 702 01b6 7B69     		ldr	r3, [r7, #20]
 703 01b8 1360     		str	r3, [r2]
 306:../firmware/gd32f3x0_hal_peripheral/Source/gd32f3x0_hal_uart.c ****     /* configure the overrun function */
 307:../firmware/gd32f3x0_hal_peripheral/Source/gd32f3x0_hal_uart.c ****     if(ENABLE == p_init->overrun_disable) {
 704              		.loc 1 307 24
 705 01ba 7B68     		ldr	r3, [r7, #4]
 706 01bc 93F83130 		ldrb	r3, [r3, #49]	@ zero_extendqisi2
 707              		.loc 1 307 7
 708 01c0 012B     		cmp	r3, #1
 709 01c2 08D1     		bne	.L31
 308:../firmware/gd32f3x0_hal_peripheral/Source/gd32f3x0_hal_uart.c ****         USART_CTL2(periph) |= USART_CTL2_OVRD;
 710              		.loc 1 308 28
 711 01c4 BB68     		ldr	r3, [r7, #8]
 712 01c6 0833     		adds	r3, r3, #8
 713 01c8 1B68     		ldr	r3, [r3]
 714 01ca BA68     		ldr	r2, [r7, #8]
 715 01cc 0832     		adds	r2, r2, #8
 716 01ce 43F48053 		orr	r3, r3, #4096
 717 01d2 1360     		str	r3, [r2]
 718 01d4 07E0     		b	.L32
 719              	.L31:
 309:../firmware/gd32f3x0_hal_peripheral/Source/gd32f3x0_hal_uart.c ****     } else {
 310:../firmware/gd32f3x0_hal_peripheral/Source/gd32f3x0_hal_uart.c ****         USART_CTL2(periph) &= ~(USART_CTL2_OVRD);
 720              		.loc 1 310 28
 721 01d6 BB68     		ldr	r3, [r7, #8]
 722 01d8 0833     		adds	r3, r3, #8
 723 01da 1B68     		ldr	r3, [r3]
 724 01dc BA68     		ldr	r2, [r7, #8]
 725 01de 0832     		adds	r2, r2, #8
 726 01e0 23F48053 		bic	r3, r3, #4096
 727 01e4 1360     		str	r3, [r2]
 728              	.L32:
 311:../firmware/gd32f3x0_hal_peripheral/Source/gd32f3x0_hal_uart.c ****     }
 312:../firmware/gd32f3x0_hal_peripheral/Source/gd32f3x0_hal_uart.c ****     /* configure the rx error DMA stop function */
 313:../firmware/gd32f3x0_hal_peripheral/Source/gd32f3x0_hal_uart.c ****     if(ENABLE == p_init->rx_error_dma_stop) {
 729              		.loc 1 313 24
 730 01e6 7B68     		ldr	r3, [r7, #4]
 731 01e8 93F83230 		ldrb	r3, [r3, #50]	@ zero_extendqisi2
 732              		.loc 1 313 7
 733 01ec 012B     		cmp	r3, #1
 734 01ee 08D1     		bne	.L33
 314:../firmware/gd32f3x0_hal_peripheral/Source/gd32f3x0_hal_uart.c ****         USART_CTL2(periph) |= USART_CTL2_DDRE;
 735              		.loc 1 314 28
 736 01f0 BB68     		ldr	r3, [r7, #8]
 737 01f2 0833     		adds	r3, r3, #8
 738 01f4 1B68     		ldr	r3, [r3]
 739 01f6 BA68     		ldr	r2, [r7, #8]
 740 01f8 0832     		adds	r2, r2, #8
 741 01fa 43F40053 		orr	r3, r3, #8192
 742 01fe 1360     		str	r3, [r2]
 743 0200 07E0     		b	.L34
 744              	.L33:
 315:../firmware/gd32f3x0_hal_peripheral/Source/gd32f3x0_hal_uart.c ****     } else {
 316:../firmware/gd32f3x0_hal_peripheral/Source/gd32f3x0_hal_uart.c ****         USART_CTL2(periph) &= ~(USART_CTL2_DDRE);
 745              		.loc 1 316 28
 746 0202 BB68     		ldr	r3, [r7, #8]
 747 0204 0833     		adds	r3, r3, #8
 748 0206 1B68     		ldr	r3, [r3]
 749 0208 BA68     		ldr	r2, [r7, #8]
 750 020a 0832     		adds	r2, r2, #8
 751 020c 23F40053 		bic	r3, r3, #8192
 752 0210 1360     		str	r3, [r2]
 753              	.L34:
 317:../firmware/gd32f3x0_hal_peripheral/Source/gd32f3x0_hal_uart.c ****     }
 318:../firmware/gd32f3x0_hal_peripheral/Source/gd32f3x0_hal_uart.c **** 
 319:../firmware/gd32f3x0_hal_peripheral/Source/gd32f3x0_hal_uart.c ****     /* configure RT register */
 320:../firmware/gd32f3x0_hal_peripheral/Source/gd32f3x0_hal_uart.c ****     reg_temp = USART_RT(periph);
 754              		.loc 1 320 16
 755 0212 BB68     		ldr	r3, [r7, #8]
 756 0214 1433     		adds	r3, r3, #20
 757              		.loc 1 320 14
 758 0216 1B68     		ldr	r3, [r3]
 759 0218 7B61     		str	r3, [r7, #20]
 321:../firmware/gd32f3x0_hal_peripheral/Source/gd32f3x0_hal_uart.c ****     reg_temp &= ~USART_RT_RT;
 760              		.loc 1 321 14
 761 021a 7B69     		ldr	r3, [r7, #20]
 762 021c 03F07F43 		and	r3, r3, #-16777216
 763 0220 7B61     		str	r3, [r7, #20]
 322:../firmware/gd32f3x0_hal_peripheral/Source/gd32f3x0_hal_uart.c ****     if(ENABLE == p_init->timeout_enable) {
 764              		.loc 1 322 24
 765 0222 7B68     		ldr	r3, [r7, #4]
 766 0224 93F82530 		ldrb	r3, [r3, #37]	@ zero_extendqisi2
 767              		.loc 1 322 7
 768 0228 012B     		cmp	r3, #1
 769 022a 04D1     		bne	.L35
 323:../firmware/gd32f3x0_hal_peripheral/Source/gd32f3x0_hal_uart.c ****         reg_temp |= p_init->timeout_value;
 770              		.loc 1 323 27
 771 022c 7B68     		ldr	r3, [r7, #4]
 772 022e 9B6A     		ldr	r3, [r3, #40]
 773              		.loc 1 323 18
 774 0230 7A69     		ldr	r2, [r7, #20]
 775 0232 1343     		orrs	r3, r3, r2
 776 0234 7B61     		str	r3, [r7, #20]
 777              	.L35:
 324:../firmware/gd32f3x0_hal_peripheral/Source/gd32f3x0_hal_uart.c ****     }
 325:../firmware/gd32f3x0_hal_peripheral/Source/gd32f3x0_hal_uart.c ****     USART_RT(periph) = reg_temp;
 778              		.loc 1 325 5
 779 0236 BB68     		ldr	r3, [r7, #8]
 780 0238 1433     		adds	r3, r3, #20
 781 023a 1A46     		mov	r2, r3
 782              		.loc 1 325 22
 783 023c 7B69     		ldr	r3, [r7, #20]
 784 023e 1360     		str	r3, [r2]
 326:../firmware/gd32f3x0_hal_peripheral/Source/gd32f3x0_hal_uart.c **** 
 327:../firmware/gd32f3x0_hal_peripheral/Source/gd32f3x0_hal_uart.c ****     /* configure RFCS register */
 328:../firmware/gd32f3x0_hal_peripheral/Source/gd32f3x0_hal_uart.c ****     if(ENABLE == p_init->rx_fifo_en) {
 785              		.loc 1 328 24
 786 0240 7B68     		ldr	r3, [r7, #4]
 787 0242 93F82430 		ldrb	r3, [r3, #36]	@ zero_extendqisi2
 788              		.loc 1 328 7
 789 0246 012B     		cmp	r3, #1
 790 0248 08D1     		bne	.L36
 329:../firmware/gd32f3x0_hal_peripheral/Source/gd32f3x0_hal_uart.c ****         USART_RFCS(periph) |= USART_RFCS_RFEN;
 791              		.loc 1 329 28
 792 024a BB68     		ldr	r3, [r7, #8]
 793 024c D033     		adds	r3, r3, #208
 794 024e 1B68     		ldr	r3, [r3]
 795 0250 BA68     		ldr	r2, [r7, #8]
 796 0252 D032     		adds	r2, r2, #208
 797 0254 43F48073 		orr	r3, r3, #256
 798 0258 1360     		str	r3, [r2]
 799 025a 07E0     		b	.L37
 800              	.L36:
 330:../firmware/gd32f3x0_hal_peripheral/Source/gd32f3x0_hal_uart.c ****     } else {
 331:../firmware/gd32f3x0_hal_peripheral/Source/gd32f3x0_hal_uart.c ****         USART_RFCS(periph) &= ~USART_RFCS_RFEN;
 801              		.loc 1 331 28
 802 025c BB68     		ldr	r3, [r7, #8]
 803 025e D033     		adds	r3, r3, #208
 804 0260 1B68     		ldr	r3, [r3]
 805 0262 BA68     		ldr	r2, [r7, #8]
 806 0264 D032     		adds	r2, r2, #208
 807 0266 23F48073 		bic	r3, r3, #256
 808 026a 1360     		str	r3, [r2]
 809              	.L37:
 332:../firmware/gd32f3x0_hal_peripheral/Source/gd32f3x0_hal_uart.c ****     }
 333:../firmware/gd32f3x0_hal_peripheral/Source/gd32f3x0_hal_uart.c **** 
 334:../firmware/gd32f3x0_hal_peripheral/Source/gd32f3x0_hal_uart.c ****     /* configure baudrate */
 335:../firmware/gd32f3x0_hal_peripheral/Source/gd32f3x0_hal_uart.c ****     hals_uart_baudrate_set(periph, p_init->baudrate);
 810              		.loc 1 335 5
 811 026c 7B68     		ldr	r3, [r7, #4]
 812 026e 5B68     		ldr	r3, [r3, #4]
 813 0270 1946     		mov	r1, r3
 814 0272 B868     		ldr	r0, [r7, #8]
 815 0274 FFF7FEFF 		bl	hals_uart_baudrate_set
 336:../firmware/gd32f3x0_hal_peripheral/Source/gd32f3x0_hal_uart.c **** 
 337:../firmware/gd32f3x0_hal_peripheral/Source/gd32f3x0_hal_uart.c ****     /* get the data bit mask */
 338:../firmware/gd32f3x0_hal_peripheral/Source/gd32f3x0_hal_uart.c ****     uart->data_bit_mask = _uart_data_bit_mask_get(uart);
 816              		.loc 1 338 27
 817 0278 F868     		ldr	r0, [r7, #12]
 818 027a FFF7FEFF 		bl	_uart_data_bit_mask_get
 819 027e 0346     		mov	r3, r0
 820 0280 1A46     		mov	r2, r3
 821              		.loc 1 338 25
 822 0282 FB68     		ldr	r3, [r7, #12]
 823 0284 A3F84C20 		strh	r2, [r3, #76]	@ movhi
 339:../firmware/gd32f3x0_hal_peripheral/Source/gd32f3x0_hal_uart.c **** 
 340:../firmware/gd32f3x0_hal_peripheral/Source/gd32f3x0_hal_uart.c ****     /* disable the SMARTCARD mode, Half-Duplex mode, IRDA mode, LIN mode and clock */
 341:../firmware/gd32f3x0_hal_peripheral/Source/gd32f3x0_hal_uart.c ****     hals_smartcard_mode_disable(periph);
 824              		.loc 1 341 5
 825 0288 B868     		ldr	r0, [r7, #8]
 826 028a FFF7FEFF 		bl	hals_smartcard_mode_disable
 342:../firmware/gd32f3x0_hal_peripheral/Source/gd32f3x0_hal_uart.c ****     hals_uart_halfduplex_disable(periph);
 827              		.loc 1 342 5
 828 028e B868     		ldr	r0, [r7, #8]
 829 0290 FFF7FEFF 		bl	hals_uart_halfduplex_disable
 343:../firmware/gd32f3x0_hal_peripheral/Source/gd32f3x0_hal_uart.c ****     hals_irda_mode_disable(periph);
 830              		.loc 1 343 5
 831 0294 B868     		ldr	r0, [r7, #8]
 832 0296 FFF7FEFF 		bl	hals_irda_mode_disable
 344:../firmware/gd32f3x0_hal_peripheral/Source/gd32f3x0_hal_uart.c ****     hals_usrt_clock_disable(periph);
 833              		.loc 1 344 5
 834 029a B868     		ldr	r0, [r7, #8]
 835 029c FFF7FEFF 		bl	hals_usrt_clock_disable
 345:../firmware/gd32f3x0_hal_peripheral/Source/gd32f3x0_hal_uart.c ****     hals_uart_lin_mode_disable(periph);
 836              		.loc 1 345 5
 837 02a0 B868     		ldr	r0, [r7, #8]
 838 02a2 FFF7FEFF 		bl	hals_uart_lin_mode_disable
 346:../firmware/gd32f3x0_hal_peripheral/Source/gd32f3x0_hal_uart.c **** 
 347:../firmware/gd32f3x0_hal_peripheral/Source/gd32f3x0_hal_uart.c ****     if(UART_WORK_MODE_ASYN != p_init->work_mode) {
 839              		.loc 1 347 37
 840 02a6 7B68     		ldr	r3, [r7, #4]
 841 02a8 1B78     		ldrb	r3, [r3]	@ zero_extendqisi2
 842              		.loc 1 347 7
 843 02aa 002B     		cmp	r3, #0
 844 02ac 32D0     		beq	.L44
 348:../firmware/gd32f3x0_hal_peripheral/Source/gd32f3x0_hal_uart.c ****         switch(p_init->work_mode) {
 845              		.loc 1 348 22
 846 02ae 7B68     		ldr	r3, [r7, #4]
 847 02b0 1B78     		ldrb	r3, [r3]	@ zero_extendqisi2
 848              		.loc 1 348 9
 849 02b2 032B     		cmp	r3, #3
 850 02b4 20D0     		beq	.L39
 851 02b6 032B     		cmp	r3, #3
 852 02b8 2EDC     		bgt	.L45
 853 02ba 012B     		cmp	r3, #1
 854 02bc 26D0     		beq	.L41
 855 02be 022B     		cmp	r3, #2
 856 02c0 2AD1     		bne	.L45
 349:../firmware/gd32f3x0_hal_peripheral/Source/gd32f3x0_hal_uart.c ****         case UART_WORK_MODE_MULTIPROCESSCOR:
 350:../firmware/gd32f3x0_hal_peripheral/Source/gd32f3x0_hal_uart.c ****             /* multiprocessor mode configure */
 351:../firmware/gd32f3x0_hal_peripheral/Source/gd32f3x0_hal_uart.c ****             hals_uart_mute_mode_wakeup_config(periph, p_init->wakeup_mode);
 857              		.loc 1 351 13
 858 02c2 7B68     		ldr	r3, [r7, #4]
 859 02c4 9B6C     		ldr	r3, [r3, #72]
 860 02c6 1946     		mov	r1, r3
 861 02c8 B868     		ldr	r0, [r7, #8]
 862 02ca FFF7FEFF 		bl	hals_uart_mute_mode_wakeup_config
 352:../firmware/gd32f3x0_hal_peripheral/Source/gd32f3x0_hal_uart.c ****             if(UART_MULTIPROCESSOR_WAKEUP_IDLE != p_init->wakeup_mode) {
 863              		.loc 1 352 57
 864 02ce 7B68     		ldr	r3, [r7, #4]
 865 02d0 9B6C     		ldr	r3, [r3, #72]
 866              		.loc 1 352 15
 867 02d2 002B     		cmp	r3, #0
 868 02d4 0CD0     		beq	.L42
 353:../firmware/gd32f3x0_hal_peripheral/Source/gd32f3x0_hal_uart.c ****                 hals_uart_address_detection_mode_config(periph, p_init->addr_length);
 869              		.loc 1 353 17
 870 02d6 7B68     		ldr	r3, [r7, #4]
 871 02d8 1B6D     		ldr	r3, [r3, #80]
 872 02da 1946     		mov	r1, r3
 873 02dc B868     		ldr	r0, [r7, #8]
 874 02de FFF7FEFF 		bl	hals_uart_address_detection_mode_config
 354:../firmware/gd32f3x0_hal_peripheral/Source/gd32f3x0_hal_uart.c ****                 hals_uart_address_config(periph, p_init->address);
 875              		.loc 1 354 17
 876 02e2 7B68     		ldr	r3, [r7, #4]
 877 02e4 93F84C30 		ldrb	r3, [r3, #76]	@ zero_extendqisi2
 878 02e8 1946     		mov	r1, r3
 879 02ea B868     		ldr	r0, [r7, #8]
 880 02ec FFF7FEFF 		bl	hals_uart_address_config
 881              	.L42:
 355:../firmware/gd32f3x0_hal_peripheral/Source/gd32f3x0_hal_uart.c ****             }
 356:../firmware/gd32f3x0_hal_peripheral/Source/gd32f3x0_hal_uart.c ****             /* enable mute mode */
 357:../firmware/gd32f3x0_hal_peripheral/Source/gd32f3x0_hal_uart.c ****             hals_uart_mute_mode_enable(periph);
 882              		.loc 1 357 13
 883 02f0 B868     		ldr	r0, [r7, #8]
 884 02f2 FFF7FEFF 		bl	hals_uart_mute_mode_enable
 358:../firmware/gd32f3x0_hal_peripheral/Source/gd32f3x0_hal_uart.c ****             break;
 885              		.loc 1 358 13
 886 02f6 10E0     		b	.L38
 887              	.L39:
 359:../firmware/gd32f3x0_hal_peripheral/Source/gd32f3x0_hal_uart.c ****         case UART_WORK_MODE_LIN:
 360:../firmware/gd32f3x0_hal_peripheral/Source/gd32f3x0_hal_uart.c ****             /* LIN mode configure */
 361:../firmware/gd32f3x0_hal_peripheral/Source/gd32f3x0_hal_uart.c ****             hals_uart_lin_break_detection_length_config(periph, p_init->break_frame_length);
 888              		.loc 1 361 13
 889 02f8 7B68     		ldr	r3, [r7, #4]
 890 02fa 5B6B     		ldr	r3, [r3, #52]
 891 02fc 1946     		mov	r1, r3
 892 02fe B868     		ldr	r0, [r7, #8]
 893 0300 FFF7FEFF 		bl	hals_uart_lin_break_detection_length_config
 362:../firmware/gd32f3x0_hal_peripheral/Source/gd32f3x0_hal_uart.c ****             hals_uart_lin_mode_enable(periph);
 894              		.loc 1 362 13
 895 0304 B868     		ldr	r0, [r7, #8]
 896 0306 FFF7FEFF 		bl	hals_uart_lin_mode_enable
 363:../firmware/gd32f3x0_hal_peripheral/Source/gd32f3x0_hal_uart.c ****             break;
 897              		.loc 1 363 13
 898 030a 06E0     		b	.L38
 899              	.L41:
 364:../firmware/gd32f3x0_hal_peripheral/Source/gd32f3x0_hal_uart.c **** 
 365:../firmware/gd32f3x0_hal_peripheral/Source/gd32f3x0_hal_uart.c ****         case UART_WORK_MODE_SINGLE_WIRE:
 366:../firmware/gd32f3x0_hal_peripheral/Source/gd32f3x0_hal_uart.c ****             /* enable single wire(half-duplex) mode */
 367:../firmware/gd32f3x0_hal_peripheral/Source/gd32f3x0_hal_uart.c ****             hals_uart_halfduplex_enable(periph);
 900              		.loc 1 367 13
 901 030c B868     		ldr	r0, [r7, #8]
 902 030e FFF7FEFF 		bl	hals_uart_halfduplex_enable
 368:../firmware/gd32f3x0_hal_peripheral/Source/gd32f3x0_hal_uart.c ****             break;
 903              		.loc 1 368 13
 904 0312 02E0     		b	.L38
 905              	.L44:
 369:../firmware/gd32f3x0_hal_peripheral/Source/gd32f3x0_hal_uart.c ****         default:
 370:../firmware/gd32f3x0_hal_peripheral/Source/gd32f3x0_hal_uart.c ****             break;
 371:../firmware/gd32f3x0_hal_peripheral/Source/gd32f3x0_hal_uart.c ****         }
 372:../firmware/gd32f3x0_hal_peripheral/Source/gd32f3x0_hal_uart.c ****     }
 906              		.loc 1 372 5
 907 0314 00BF     		nop
 908 0316 00E0     		b	.L38
 909              	.L45:
 370:../firmware/gd32f3x0_hal_peripheral/Source/gd32f3x0_hal_uart.c ****         }
 910              		.loc 1 370 13
 911 0318 00BF     		nop
 912              	.L38:
 373:../firmware/gd32f3x0_hal_peripheral/Source/gd32f3x0_hal_uart.c **** 
 374:../firmware/gd32f3x0_hal_peripheral/Source/gd32f3x0_hal_uart.c ****     if(ENABLE == p_init->rs485_mode) {
 913              		.loc 1 374 24
 914 031a 7B68     		ldr	r3, [r7, #4]
 915 031c 93F83830 		ldrb	r3, [r3, #56]	@ zero_extendqisi2
 916              		.loc 1 374 7
 917 0320 012B     		cmp	r3, #1
 918 0322 20D1     		bne	.L43
 375:../firmware/gd32f3x0_hal_peripheral/Source/gd32f3x0_hal_uart.c ****         p_init->de_assertion_time &= BITS(0, 4);
 919              		.loc 1 375 35
 920 0324 7B68     		ldr	r3, [r7, #4]
 921 0326 1B6C     		ldr	r3, [r3, #64]
 922 0328 03F01F02 		and	r2, r3, #31
 923 032c 7B68     		ldr	r3, [r7, #4]
 924 032e 1A64     		str	r2, [r3, #64]
 376:../firmware/gd32f3x0_hal_peripheral/Source/gd32f3x0_hal_uart.c ****         p_init->de_deassertion_time &= BITS(0, 4);
 925              		.loc 1 376 37
 926 0330 7B68     		ldr	r3, [r7, #4]
 927 0332 5B6C     		ldr	r3, [r3, #68]
 928 0334 03F01F02 		and	r2, r3, #31
 929 0338 7B68     		ldr	r3, [r7, #4]
 930 033a 5A64     		str	r2, [r3, #68]
 377:../firmware/gd32f3x0_hal_peripheral/Source/gd32f3x0_hal_uart.c **** 
 378:../firmware/gd32f3x0_hal_peripheral/Source/gd32f3x0_hal_uart.c ****         /* RS485 mode configure */
 379:../firmware/gd32f3x0_hal_peripheral/Source/gd32f3x0_hal_uart.c ****         hals_uart_driver_assertime_config(periph, p_init->de_assertion_time);
 931              		.loc 1 379 9
 932 033c 7B68     		ldr	r3, [r7, #4]
 933 033e 1B6C     		ldr	r3, [r3, #64]
 934 0340 1946     		mov	r1, r3
 935 0342 B868     		ldr	r0, [r7, #8]
 936 0344 FFF7FEFF 		bl	hals_uart_driver_assertime_config
 380:../firmware/gd32f3x0_hal_peripheral/Source/gd32f3x0_hal_uart.c ****         hals_uart_driver_deassertime_config(periph, p_init->de_deassertion_time);
 937              		.loc 1 380 9
 938 0348 7B68     		ldr	r3, [r7, #4]
 939 034a 5B6C     		ldr	r3, [r3, #68]
 940 034c 1946     		mov	r1, r3
 941 034e B868     		ldr	r0, [r7, #8]
 942 0350 FFF7FEFF 		bl	hals_uart_driver_deassertime_config
 381:../firmware/gd32f3x0_hal_peripheral/Source/gd32f3x0_hal_uart.c ****         hals_uart_depolarity_config(periph, p_init->de_polarity);
 943              		.loc 1 381 9
 944 0354 7B68     		ldr	r3, [r7, #4]
 945 0356 DB6B     		ldr	r3, [r3, #60]
 946 0358 1946     		mov	r1, r3
 947 035a B868     		ldr	r0, [r7, #8]
 948 035c FFF7FEFF 		bl	hals_uart_depolarity_config
 382:../firmware/gd32f3x0_hal_peripheral/Source/gd32f3x0_hal_uart.c ****         /* enable RS485 driver */
 383:../firmware/gd32f3x0_hal_peripheral/Source/gd32f3x0_hal_uart.c ****         hals_uart_rs485_driver_enable(periph);
 949              		.loc 1 383 9
 950 0360 B868     		ldr	r0, [r7, #8]
 951 0362 FFF7FEFF 		bl	hals_uart_rs485_driver_enable
 952              	.L43:
 384:../firmware/gd32f3x0_hal_peripheral/Source/gd32f3x0_hal_uart.c ****     }
 385:../firmware/gd32f3x0_hal_peripheral/Source/gd32f3x0_hal_uart.c **** 
 386:../firmware/gd32f3x0_hal_peripheral/Source/gd32f3x0_hal_uart.c ****     /* reset the Rx and Tx state */
 387:../firmware/gd32f3x0_hal_peripheral/Source/gd32f3x0_hal_uart.c ****     uart->tx_state = UART_STATE_FREE;
 953              		.loc 1 387 20
 954 0366 FB68     		ldr	r3, [r7, #12]
 955 0368 0022     		movs	r2, #0
 956 036a 83F85220 		strb	r2, [r3, #82]
 388:../firmware/gd32f3x0_hal_peripheral/Source/gd32f3x0_hal_uart.c ****     uart->rx_state = UART_STATE_FREE;
 957              		.loc 1 388 20
 958 036e FB68     		ldr	r3, [r7, #12]
 959 0370 0022     		movs	r2, #0
 960 0372 83F85320 		strb	r2, [r3, #83]
 389:../firmware/gd32f3x0_hal_peripheral/Source/gd32f3x0_hal_uart.c **** 
 390:../firmware/gd32f3x0_hal_peripheral/Source/gd32f3x0_hal_uart.c ****     /* enable usart */
 391:../firmware/gd32f3x0_hal_peripheral/Source/gd32f3x0_hal_uart.c ****     hals_uart_enable(uart->periph);
 961              		.loc 1 391 5
 962 0376 FB68     		ldr	r3, [r7, #12]
 963 0378 1B68     		ldr	r3, [r3]
 964 037a 1846     		mov	r0, r3
 965 037c FFF7FEFF 		bl	hals_uart_enable
 392:../firmware/gd32f3x0_hal_peripheral/Source/gd32f3x0_hal_uart.c **** 
 393:../firmware/gd32f3x0_hal_peripheral/Source/gd32f3x0_hal_uart.c ****     /* unlock uart */
 394:../firmware/gd32f3x0_hal_peripheral/Source/gd32f3x0_hal_uart.c ****     HAL_UNLOCK(uart);
 966              		.loc 1 394 5
 967 0380 FB68     		ldr	r3, [r7, #12]
 968 0382 0022     		movs	r2, #0
 969 0384 83F85C20 		strb	r2, [r3, #92]
 395:../firmware/gd32f3x0_hal_peripheral/Source/gd32f3x0_hal_uart.c **** 
 396:../firmware/gd32f3x0_hal_peripheral/Source/gd32f3x0_hal_uart.c ****     return HAL_ERR_NONE;
 970              		.loc 1 396 12
 971 0388 0023     		movs	r3, #0
 972              	.L18:
 397:../firmware/gd32f3x0_hal_peripheral/Source/gd32f3x0_hal_uart.c **** }
 973              		.loc 1 397 1
 974 038a 1846     		mov	r0, r3
 975 038c 1837     		adds	r7, r7, #24
 976              		.cfi_def_cfa_offset 8
 977 038e BD46     		mov	sp, r7
 978              		.cfi_def_cfa_register 13
 979              		@ sp needed
 980 0390 80BD     		pop	{r7, pc}
 981              		.cfi_endproc
 982              	.LFE121:
 984              		.section	.text.hal_uart_irq,"ax",%progbits
 985              		.align	1
 986              		.global	hal_uart_irq
 987              		.syntax unified
 988              		.thumb
 989              		.thumb_func
 990              		.fpu softvfp
 992              	hal_uart_irq:
 993              	.LFB122:
 398:../firmware/gd32f3x0_hal_peripheral/Source/gd32f3x0_hal_uart.c **** 
 399:../firmware/gd32f3x0_hal_peripheral/Source/gd32f3x0_hal_uart.c **** /*!
 400:../firmware/gd32f3x0_hal_peripheral/Source/gd32f3x0_hal_uart.c ****     \brief      uart interrupt handler content function,which is merely used in uart_handler
 401:../firmware/gd32f3x0_hal_peripheral/Source/gd32f3x0_hal_uart.c ****     \param[in]  uart: uart device information structure
 402:../firmware/gd32f3x0_hal_peripheral/Source/gd32f3x0_hal_uart.c ****                     the structure is not necessary to be reconfigured after structrue initializatio
 403:../firmware/gd32f3x0_hal_peripheral/Source/gd32f3x0_hal_uart.c ****                     the structure parameters altering is automatically configured by core
 404:../firmware/gd32f3x0_hal_peripheral/Source/gd32f3x0_hal_uart.c ****     \param[out] none
 405:../firmware/gd32f3x0_hal_peripheral/Source/gd32f3x0_hal_uart.c ****     \retval     none
 406:../firmware/gd32f3x0_hal_peripheral/Source/gd32f3x0_hal_uart.c **** */
 407:../firmware/gd32f3x0_hal_peripheral/Source/gd32f3x0_hal_uart.c **** void hal_uart_irq(hal_uart_dev_struct *uart)
 408:../firmware/gd32f3x0_hal_peripheral/Source/gd32f3x0_hal_uart.c **** {
 994              		.loc 1 408 1
 995              		.cfi_startproc
 996              		@ args = 0, pretend = 0, frame = 8
 997              		@ frame_needed = 1, uses_anonymous_args = 0
 998 0000 80B5     		push	{r7, lr}
 999              		.cfi_def_cfa_offset 8
 1000              		.cfi_offset 7, -8
 1001              		.cfi_offset 14, -4
 1002 0002 82B0     		sub	sp, sp, #8
 1003              		.cfi_def_cfa_offset 16
 1004 0004 00AF     		add	r7, sp, #0
 1005              		.cfi_def_cfa_register 7
 1006 0006 7860     		str	r0, [r7, #4]
 409:../firmware/gd32f3x0_hal_peripheral/Source/gd32f3x0_hal_uart.c ****     if(RESET == _uart_error_flag_get(uart)) {
 1007              		.loc 1 409 17
 1008 0008 7868     		ldr	r0, [r7, #4]
 1009 000a FFF7FEFF 		bl	_uart_error_flag_get
 1010 000e 0346     		mov	r3, r0
 1011              		.loc 1 409 7
 1012 0010 002B     		cmp	r3, #0
 1013 0012 2CD1     		bne	.L47
 410:../firmware/gd32f3x0_hal_peripheral/Source/gd32f3x0_hal_uart.c ****         /* check whether UART is in receiver mode or not */
 411:../firmware/gd32f3x0_hal_peripheral/Source/gd32f3x0_hal_uart.c ****         if(RESET != hals_uart_interrupt_flag_get(uart->periph, USART_INT_FLAG_RBNE)) {
 1014              		.loc 1 411 21
 1015 0014 7B68     		ldr	r3, [r7, #4]
 1016 0016 1B68     		ldr	r3, [r3]
 1017 0018 6749     		ldr	r1, .L72
 1018 001a 1846     		mov	r0, r3
 1019 001c FFF7FEFF 		bl	hals_uart_interrupt_flag_get
 1020 0020 0346     		mov	r3, r0
 1021              		.loc 1 411 11
 1022 0022 002B     		cmp	r3, #0
 1023 0024 09D0     		beq	.L48
 412:../firmware/gd32f3x0_hal_peripheral/Source/gd32f3x0_hal_uart.c ****             if(NULL != uart->uart_irq.receive_complete_handle) {
 1024              		.loc 1 412 38
 1025 0026 7B68     		ldr	r3, [r7, #4]
 1026 0028 5B68     		ldr	r3, [r3, #4]
 1027              		.loc 1 412 15
 1028 002a 002B     		cmp	r3, #0
 1029 002c 00F07781 		beq	.L67
 413:../firmware/gd32f3x0_hal_peripheral/Source/gd32f3x0_hal_uart.c ****                 uart->uart_irq.receive_complete_handle(uart);
 1030              		.loc 1 413 31
 1031 0030 7B68     		ldr	r3, [r7, #4]
 1032 0032 5B68     		ldr	r3, [r3, #4]
 1033              		.loc 1 413 17
 1034 0034 7868     		ldr	r0, [r7, #4]
 1035 0036 9847     		blx	r3
 1036              	.LVL0:
 414:../firmware/gd32f3x0_hal_peripheral/Source/gd32f3x0_hal_uart.c ****             }
 415:../firmware/gd32f3x0_hal_peripheral/Source/gd32f3x0_hal_uart.c ****             return;
 1037              		.loc 1 415 13
 1038 0038 71E1     		b	.L67
 1039              	.L48:
 416:../firmware/gd32f3x0_hal_peripheral/Source/gd32f3x0_hal_uart.c ****         }
 417:../firmware/gd32f3x0_hal_peripheral/Source/gd32f3x0_hal_uart.c ****         /* check whether UART is in receiver timeout or not */
 418:../firmware/gd32f3x0_hal_peripheral/Source/gd32f3x0_hal_uart.c ****         if(RESET != hals_uart_interrupt_flag_get(uart->periph, USART_INT_FLAG_RT)) {
 1040              		.loc 1 418 21
 1041 003a 7B68     		ldr	r3, [r7, #4]
 1042 003c 1B68     		ldr	r3, [r3]
 1043 003e 5F49     		ldr	r1, .L72+4
 1044 0040 1846     		mov	r0, r3
 1045 0042 FFF7FEFF 		bl	hals_uart_interrupt_flag_get
 1046 0046 0346     		mov	r3, r0
 1047              		.loc 1 418 11
 1048 0048 002B     		cmp	r3, #0
 1049 004a 00F0C380 		beq	.L51
 419:../firmware/gd32f3x0_hal_peripheral/Source/gd32f3x0_hal_uart.c ****             hals_uart_interrupt_flag_clear(uart->periph, USART_INT_FLAG_RT);
 1050              		.loc 1 419 13
 1051 004e 7B68     		ldr	r3, [r7, #4]
 1052 0050 1B68     		ldr	r3, [r3]
 1053 0052 5A49     		ldr	r1, .L72+4
 1054 0054 1846     		mov	r0, r3
 1055 0056 FFF7FEFF 		bl	hals_uart_interrupt_flag_clear
 420:../firmware/gd32f3x0_hal_peripheral/Source/gd32f3x0_hal_uart.c ****             if(NULL != uart->uart_irq.receive_timeout_handle) {
 1056              		.loc 1 420 38
 1057 005a 7B68     		ldr	r3, [r7, #4]
 1058 005c 9B68     		ldr	r3, [r3, #8]
 1059              		.loc 1 420 15
 1060 005e 002B     		cmp	r3, #0
 1061 0060 00F05F81 		beq	.L68
 421:../firmware/gd32f3x0_hal_peripheral/Source/gd32f3x0_hal_uart.c ****                 uart->uart_irq.receive_timeout_handle(uart);
 1062              		.loc 1 421 31
 1063 0064 7B68     		ldr	r3, [r7, #4]
 1064 0066 9B68     		ldr	r3, [r3, #8]
 1065              		.loc 1 421 17
 1066 0068 7868     		ldr	r0, [r7, #4]
 1067 006a 9847     		blx	r3
 1068              	.LVL1:
 422:../firmware/gd32f3x0_hal_peripheral/Source/gd32f3x0_hal_uart.c ****             }
 423:../firmware/gd32f3x0_hal_peripheral/Source/gd32f3x0_hal_uart.c ****             return;
 1069              		.loc 1 423 13
 1070 006c 59E1     		b	.L68
 1071              	.L47:
 424:../firmware/gd32f3x0_hal_peripheral/Source/gd32f3x0_hal_uart.c ****         }
 425:../firmware/gd32f3x0_hal_peripheral/Source/gd32f3x0_hal_uart.c ****     } else {
 426:../firmware/gd32f3x0_hal_peripheral/Source/gd32f3x0_hal_uart.c ****         /* check whether the PERR flag is set or not */
 427:../firmware/gd32f3x0_hal_peripheral/Source/gd32f3x0_hal_uart.c ****         if(RESET != hals_uart_interrupt_flag_get(uart->periph, USART_INT_FLAG_PERR)) {
 1072              		.loc 1 427 21
 1073 006e 7B68     		ldr	r3, [r7, #4]
 1074 0070 1B68     		ldr	r3, [r3]
 1075 0072 5349     		ldr	r1, .L72+8
 1076 0074 1846     		mov	r0, r3
 1077 0076 FFF7FEFF 		bl	hals_uart_interrupt_flag_get
 1078 007a 0346     		mov	r3, r0
 1079              		.loc 1 427 11
 1080 007c 002B     		cmp	r3, #0
 1081 007e 13D0     		beq	.L53
 428:../firmware/gd32f3x0_hal_peripheral/Source/gd32f3x0_hal_uart.c ****             hals_uart_interrupt_flag_clear(uart->periph, USART_INT_FLAG_PERR);
 1082              		.loc 1 428 13
 1083 0080 7B68     		ldr	r3, [r7, #4]
 1084 0082 1B68     		ldr	r3, [r3]
 1085 0084 4E49     		ldr	r1, .L72+8
 1086 0086 1846     		mov	r0, r3
 1087 0088 FFF7FEFF 		bl	hals_uart_interrupt_flag_clear
 429:../firmware/gd32f3x0_hal_peripheral/Source/gd32f3x0_hal_uart.c ****             uart->error_state |= HAL_UART_ERROR_PERR;
 1088              		.loc 1 429 31
 1089 008c 7B68     		ldr	r3, [r7, #4]
 1090 008e B3F85030 		ldrh	r3, [r3, #80]	@ movhi
 1091 0092 9BB2     		uxth	r3, r3
 1092 0094 43F00103 		orr	r3, r3, #1
 1093 0098 9AB2     		uxth	r2, r3
 1094 009a 7B68     		ldr	r3, [r7, #4]
 1095 009c A3F85020 		strh	r2, [r3, #80]	@ movhi
 430:../firmware/gd32f3x0_hal_peripheral/Source/gd32f3x0_hal_uart.c ****             uart->last_error = HAL_UART_ERROR_PERR;
 1096              		.loc 1 430 30
 1097 00a0 7B68     		ldr	r3, [r7, #4]
 1098 00a2 0122     		movs	r2, #1
 1099 00a4 A3F84E20 		strh	r2, [r3, #78]	@ movhi
 1100              	.L53:
 431:../firmware/gd32f3x0_hal_peripheral/Source/gd32f3x0_hal_uart.c ****         }
 432:../firmware/gd32f3x0_hal_peripheral/Source/gd32f3x0_hal_uart.c **** 
 433:../firmware/gd32f3x0_hal_peripheral/Source/gd32f3x0_hal_uart.c ****         /* check whether the NERR flag is set or not */
 434:../firmware/gd32f3x0_hal_peripheral/Source/gd32f3x0_hal_uart.c ****         if(RESET != hals_uart_interrupt_flag_get(uart->periph, USART_INT_FLAG_ERR_NERR)) {
 1101              		.loc 1 434 21
 1102 00a8 7B68     		ldr	r3, [r7, #4]
 1103 00aa 1B68     		ldr	r3, [r3]
 1104 00ac 4549     		ldr	r1, .L72+12
 1105 00ae 1846     		mov	r0, r3
 1106 00b0 FFF7FEFF 		bl	hals_uart_interrupt_flag_get
 1107 00b4 0346     		mov	r3, r0
 1108              		.loc 1 434 11
 1109 00b6 002B     		cmp	r3, #0
 1110 00b8 13D0     		beq	.L54
 435:../firmware/gd32f3x0_hal_peripheral/Source/gd32f3x0_hal_uart.c ****             hals_uart_interrupt_flag_clear(uart->periph, USART_INT_FLAG_ERR_NERR);
 1111              		.loc 1 435 13
 1112 00ba 7B68     		ldr	r3, [r7, #4]
 1113 00bc 1B68     		ldr	r3, [r3]
 1114 00be 4149     		ldr	r1, .L72+12
 1115 00c0 1846     		mov	r0, r3
 1116 00c2 FFF7FEFF 		bl	hals_uart_interrupt_flag_clear
 436:../firmware/gd32f3x0_hal_peripheral/Source/gd32f3x0_hal_uart.c ****             uart->error_state |= HAL_UART_ERROR_NERR;
 1117              		.loc 1 436 31
 1118 00c6 7B68     		ldr	r3, [r7, #4]
 1119 00c8 B3F85030 		ldrh	r3, [r3, #80]	@ movhi
 1120 00cc 9BB2     		uxth	r3, r3
 1121 00ce 43F00203 		orr	r3, r3, #2
 1122 00d2 9AB2     		uxth	r2, r3
 1123 00d4 7B68     		ldr	r3, [r7, #4]
 1124 00d6 A3F85020 		strh	r2, [r3, #80]	@ movhi
 437:../firmware/gd32f3x0_hal_peripheral/Source/gd32f3x0_hal_uart.c ****             uart->last_error = HAL_UART_ERROR_NERR;
 1125              		.loc 1 437 30
 1126 00da 7B68     		ldr	r3, [r7, #4]
 1127 00dc 0222     		movs	r2, #2
 1128 00de A3F84E20 		strh	r2, [r3, #78]	@ movhi
 1129              	.L54:
 438:../firmware/gd32f3x0_hal_peripheral/Source/gd32f3x0_hal_uart.c ****         }
 439:../firmware/gd32f3x0_hal_peripheral/Source/gd32f3x0_hal_uart.c **** 
 440:../firmware/gd32f3x0_hal_peripheral/Source/gd32f3x0_hal_uart.c ****         /* check whether the FERR flag is set or not */
 441:../firmware/gd32f3x0_hal_peripheral/Source/gd32f3x0_hal_uart.c ****         if(RESET != hals_uart_interrupt_flag_get(uart->periph, USART_INT_FLAG_ERR_FERR)) {
 1130              		.loc 1 441 21
 1131 00e2 7B68     		ldr	r3, [r7, #4]
 1132 00e4 1B68     		ldr	r3, [r3]
 1133 00e6 3849     		ldr	r1, .L72+16
 1134 00e8 1846     		mov	r0, r3
 1135 00ea FFF7FEFF 		bl	hals_uart_interrupt_flag_get
 1136 00ee 0346     		mov	r3, r0
 1137              		.loc 1 441 11
 1138 00f0 002B     		cmp	r3, #0
 1139 00f2 13D0     		beq	.L55
 442:../firmware/gd32f3x0_hal_peripheral/Source/gd32f3x0_hal_uart.c ****             hals_uart_interrupt_flag_clear(uart->periph, USART_INT_FLAG_ERR_FERR);
 1140              		.loc 1 442 13
 1141 00f4 7B68     		ldr	r3, [r7, #4]
 1142 00f6 1B68     		ldr	r3, [r3]
 1143 00f8 3349     		ldr	r1, .L72+16
 1144 00fa 1846     		mov	r0, r3
 1145 00fc FFF7FEFF 		bl	hals_uart_interrupt_flag_clear
 443:../firmware/gd32f3x0_hal_peripheral/Source/gd32f3x0_hal_uart.c ****             uart->error_state |= HAL_UART_ERROR_FERR;
 1146              		.loc 1 443 31
 1147 0100 7B68     		ldr	r3, [r7, #4]
 1148 0102 B3F85030 		ldrh	r3, [r3, #80]	@ movhi
 1149 0106 9BB2     		uxth	r3, r3
 1150 0108 43F00403 		orr	r3, r3, #4
 1151 010c 9AB2     		uxth	r2, r3
 1152 010e 7B68     		ldr	r3, [r7, #4]
 1153 0110 A3F85020 		strh	r2, [r3, #80]	@ movhi
 444:../firmware/gd32f3x0_hal_peripheral/Source/gd32f3x0_hal_uart.c ****             uart->last_error = HAL_UART_ERROR_FERR;
 1154              		.loc 1 444 30
 1155 0114 7B68     		ldr	r3, [r7, #4]
 1156 0116 0422     		movs	r2, #4
 1157 0118 A3F84E20 		strh	r2, [r3, #78]	@ movhi
 1158              	.L55:
 445:../firmware/gd32f3x0_hal_peripheral/Source/gd32f3x0_hal_uart.c ****         }
 446:../firmware/gd32f3x0_hal_peripheral/Source/gd32f3x0_hal_uart.c **** 
 447:../firmware/gd32f3x0_hal_peripheral/Source/gd32f3x0_hal_uart.c ****         /* check whether the ERR ORERR is set or not */
 448:../firmware/gd32f3x0_hal_peripheral/Source/gd32f3x0_hal_uart.c ****         if(RESET != hals_uart_interrupt_flag_get(uart->periph, USART_INT_FLAG_ERR_ORERR)) {
 1159              		.loc 1 448 21
 1160 011c 7B68     		ldr	r3, [r7, #4]
 1161 011e 1B68     		ldr	r3, [r3]
 1162 0120 2A49     		ldr	r1, .L72+20
 1163 0122 1846     		mov	r0, r3
 1164 0124 FFF7FEFF 		bl	hals_uart_interrupt_flag_get
 1165 0128 0346     		mov	r3, r0
 1166              		.loc 1 448 11
 1167 012a 002B     		cmp	r3, #0
 1168 012c 13D0     		beq	.L56
 449:../firmware/gd32f3x0_hal_peripheral/Source/gd32f3x0_hal_uart.c ****             hals_uart_interrupt_flag_clear(uart->periph, USART_INT_FLAG_ERR_ORERR);
 1169              		.loc 1 449 13
 1170 012e 7B68     		ldr	r3, [r7, #4]
 1171 0130 1B68     		ldr	r3, [r3]
 1172 0132 2649     		ldr	r1, .L72+20
 1173 0134 1846     		mov	r0, r3
 1174 0136 FFF7FEFF 		bl	hals_uart_interrupt_flag_clear
 450:../firmware/gd32f3x0_hal_peripheral/Source/gd32f3x0_hal_uart.c ****             uart->error_state |= HAL_UART_ERROR_ORERR;
 1175              		.loc 1 450 31
 1176 013a 7B68     		ldr	r3, [r7, #4]
 1177 013c B3F85030 		ldrh	r3, [r3, #80]	@ movhi
 1178 0140 9BB2     		uxth	r3, r3
 1179 0142 43F00803 		orr	r3, r3, #8
 1180 0146 9AB2     		uxth	r2, r3
 1181 0148 7B68     		ldr	r3, [r7, #4]
 1182 014a A3F85020 		strh	r2, [r3, #80]	@ movhi
 451:../firmware/gd32f3x0_hal_peripheral/Source/gd32f3x0_hal_uart.c ****             uart->last_error = HAL_UART_ERROR_ORERR;
 1183              		.loc 1 451 30
 1184 014e 7B68     		ldr	r3, [r7, #4]
 1185 0150 0822     		movs	r2, #8
 1186 0152 A3F84E20 		strh	r2, [r3, #78]	@ movhi
 1187              	.L56:
 452:../firmware/gd32f3x0_hal_peripheral/Source/gd32f3x0_hal_uart.c ****         }
 453:../firmware/gd32f3x0_hal_peripheral/Source/gd32f3x0_hal_uart.c **** 
 454:../firmware/gd32f3x0_hal_peripheral/Source/gd32f3x0_hal_uart.c ****         /* check whether RBNE ORERR is set or not */
 455:../firmware/gd32f3x0_hal_peripheral/Source/gd32f3x0_hal_uart.c ****         if(RESET != hals_uart_interrupt_flag_get(uart->periph, USART_INT_FLAG_RBNE_ORERR)) {
 1188              		.loc 1 455 21
 1189 0156 7B68     		ldr	r3, [r7, #4]
 1190 0158 1B68     		ldr	r3, [r3]
 1191 015a 1D49     		ldr	r1, .L72+24
 1192 015c 1846     		mov	r0, r3
 1193 015e FFF7FEFF 		bl	hals_uart_interrupt_flag_get
 1194 0162 0346     		mov	r3, r0
 1195              		.loc 1 455 11
 1196 0164 002B     		cmp	r3, #0
 1197 0166 13D0     		beq	.L57
 456:../firmware/gd32f3x0_hal_peripheral/Source/gd32f3x0_hal_uart.c ****             hals_uart_interrupt_flag_clear(uart->periph, USART_INT_FLAG_RBNE_ORERR);
 1198              		.loc 1 456 13
 1199 0168 7B68     		ldr	r3, [r7, #4]
 1200 016a 1B68     		ldr	r3, [r3]
 1201 016c 1849     		ldr	r1, .L72+24
 1202 016e 1846     		mov	r0, r3
 1203 0170 FFF7FEFF 		bl	hals_uart_interrupt_flag_clear
 457:../firmware/gd32f3x0_hal_peripheral/Source/gd32f3x0_hal_uart.c ****             uart->error_state |= HAL_UART_ERROR_ORERR;
 1204              		.loc 1 457 31
 1205 0174 7B68     		ldr	r3, [r7, #4]
 1206 0176 B3F85030 		ldrh	r3, [r3, #80]	@ movhi
 1207 017a 9BB2     		uxth	r3, r3
 1208 017c 43F00803 		orr	r3, r3, #8
 1209 0180 9AB2     		uxth	r2, r3
 1210 0182 7B68     		ldr	r3, [r7, #4]
 1211 0184 A3F85020 		strh	r2, [r3, #80]	@ movhi
 458:../firmware/gd32f3x0_hal_peripheral/Source/gd32f3x0_hal_uart.c ****             uart->last_error = HAL_UART_ERROR_ORERR;
 1212              		.loc 1 458 30
 1213 0188 7B68     		ldr	r3, [r7, #4]
 1214 018a 0822     		movs	r2, #8
 1215 018c A3F84E20 		strh	r2, [r3, #78]	@ movhi
 1216              	.L57:
 459:../firmware/gd32f3x0_hal_peripheral/Source/gd32f3x0_hal_uart.c ****         }
 460:../firmware/gd32f3x0_hal_peripheral/Source/gd32f3x0_hal_uart.c **** 
 461:../firmware/gd32f3x0_hal_peripheral/Source/gd32f3x0_hal_uart.c ****         /* check whether error state is none or not */
 462:../firmware/gd32f3x0_hal_peripheral/Source/gd32f3x0_hal_uart.c ****         if(HAL_UART_ERROR_NONE != uart->error_state) {
 1217              		.loc 1 462 39
 1218 0190 7B68     		ldr	r3, [r7, #4]
 1219 0192 B3F85030 		ldrh	r3, [r3, #80]	@ movhi
 1220 0196 9BB2     		uxth	r3, r3
 1221              		.loc 1 462 11
 1222 0198 002B     		cmp	r3, #0
 1223 019a 1BD0     		beq	.L51
 463:../firmware/gd32f3x0_hal_peripheral/Source/gd32f3x0_hal_uart.c ****             if(uart->uart_irq.error_handle != NULL) {
 1224              		.loc 1 463 30
 1225 019c 7B68     		ldr	r3, [r7, #4]
 1226 019e 5B69     		ldr	r3, [r3, #20]
 1227              		.loc 1 463 15
 1228 01a0 002B     		cmp	r3, #0
 1229 01a2 00F0C080 		beq	.L69
 464:../firmware/gd32f3x0_hal_peripheral/Source/gd32f3x0_hal_uart.c ****                 uart->uart_irq.error_handle(uart);
 1230              		.loc 1 464 31
 1231 01a6 7B68     		ldr	r3, [r7, #4]
 1232 01a8 5B69     		ldr	r3, [r3, #20]
 1233              		.loc 1 464 17
 1234 01aa 7868     		ldr	r0, [r7, #4]
 1235 01ac 9847     		blx	r3
 1236              	.LVL2:
 465:../firmware/gd32f3x0_hal_peripheral/Source/gd32f3x0_hal_uart.c ****                 uart->error_state = HAL_UART_ERROR_NONE;
 1237              		.loc 1 465 35
 1238 01ae 7B68     		ldr	r3, [r7, #4]
 1239 01b0 0022     		movs	r2, #0
 1240 01b2 A3F85020 		strh	r2, [r3, #80]	@ movhi
 466:../firmware/gd32f3x0_hal_peripheral/Source/gd32f3x0_hal_uart.c ****             }
 467:../firmware/gd32f3x0_hal_peripheral/Source/gd32f3x0_hal_uart.c ****             return;
 1241              		.loc 1 467 13
 1242 01b6 B6E0     		b	.L69
 1243              	.L73:
 1244              		.align	2
 1245              	.L72:
 1246 01b8 05000507 		.word	117768197
 1247 01bc 1A000B07 		.word	118161434
 1248 01c0 08000007 		.word	117440520
 1249 01c4 00020207 		.word	117572096
 1250 01c8 00020107 		.word	117506560
 1251 01cc 00020307 		.word	117637632
 1252 01d0 05000307 		.word	117637125
 1253              	.L51:
 468:../firmware/gd32f3x0_hal_peripheral/Source/gd32f3x0_hal_uart.c ****         }
 469:../firmware/gd32f3x0_hal_peripheral/Source/gd32f3x0_hal_uart.c ****     }
 470:../firmware/gd32f3x0_hal_peripheral/Source/gd32f3x0_hal_uart.c **** 
 471:../firmware/gd32f3x0_hal_peripheral/Source/gd32f3x0_hal_uart.c ****     /* multi-processor mode interrupt handle */
 472:../firmware/gd32f3x0_hal_peripheral/Source/gd32f3x0_hal_uart.c ****     if(RESET != hals_uart_interrupt_flag_get(uart->periph, USART_INT_FLAG_IDLE)) {
 1254              		.loc 1 472 17
 1255 01d4 7B68     		ldr	r3, [r7, #4]
 1256 01d6 1B68     		ldr	r3, [r3]
 1257 01d8 5749     		ldr	r1, .L74
 1258 01da 1846     		mov	r0, r3
 1259 01dc FFF7FEFF 		bl	hals_uart_interrupt_flag_get
 1260 01e0 0346     		mov	r3, r0
 1261              		.loc 1 472 7
 1262 01e2 002B     		cmp	r3, #0
 1263 01e4 0DD0     		beq	.L59
 473:../firmware/gd32f3x0_hal_peripheral/Source/gd32f3x0_hal_uart.c ****         hals_uart_interrupt_flag_clear(uart->periph, USART_INT_FLAG_IDLE);
 1264              		.loc 1 473 9
 1265 01e6 7B68     		ldr	r3, [r7, #4]
 1266 01e8 1B68     		ldr	r3, [r3]
 1267 01ea 5349     		ldr	r1, .L74
 1268 01ec 1846     		mov	r0, r3
 1269 01ee FFF7FEFF 		bl	hals_uart_interrupt_flag_clear
 474:../firmware/gd32f3x0_hal_peripheral/Source/gd32f3x0_hal_uart.c ****         if(NULL != uart->uart_irq.idle_line_detected_handle) {
 1270              		.loc 1 474 34
 1271 01f2 7B68     		ldr	r3, [r7, #4]
 1272 01f4 DB69     		ldr	r3, [r3, #28]
 1273              		.loc 1 474 11
 1274 01f6 002B     		cmp	r3, #0
 1275 01f8 03D0     		beq	.L59
 475:../firmware/gd32f3x0_hal_peripheral/Source/gd32f3x0_hal_uart.c ****             uart->uart_irq.idle_line_detected_handle(uart);
 1276              		.loc 1 475 27
 1277 01fa 7B68     		ldr	r3, [r7, #4]
 1278 01fc DB69     		ldr	r3, [r3, #28]
 1279              		.loc 1 475 13
 1280 01fe 7868     		ldr	r0, [r7, #4]
 1281 0200 9847     		blx	r3
 1282              	.LVL3:
 1283              	.L59:
 476:../firmware/gd32f3x0_hal_peripheral/Source/gd32f3x0_hal_uart.c ****         }
 477:../firmware/gd32f3x0_hal_peripheral/Source/gd32f3x0_hal_uart.c ****     }
 478:../firmware/gd32f3x0_hal_peripheral/Source/gd32f3x0_hal_uart.c **** 
 479:../firmware/gd32f3x0_hal_peripheral/Source/gd32f3x0_hal_uart.c ****     /* address match interrput handle */
 480:../firmware/gd32f3x0_hal_peripheral/Source/gd32f3x0_hal_uart.c ****     if(RESET != hals_uart_interrupt_flag_get(uart->periph, USART_INT_FLAG_AM)) {
 1284              		.loc 1 480 17
 1285 0202 7B68     		ldr	r3, [r7, #4]
 1286 0204 1B68     		ldr	r3, [r3]
 1287 0206 4D49     		ldr	r1, .L74+4
 1288 0208 1846     		mov	r0, r3
 1289 020a FFF7FEFF 		bl	hals_uart_interrupt_flag_get
 1290 020e 0346     		mov	r3, r0
 1291              		.loc 1 480 7
 1292 0210 002B     		cmp	r3, #0
 1293 0212 0DD0     		beq	.L60
 481:../firmware/gd32f3x0_hal_peripheral/Source/gd32f3x0_hal_uart.c ****         hals_uart_interrupt_flag_clear(uart->periph, USART_INT_FLAG_AM);
 1294              		.loc 1 481 9
 1295 0214 7B68     		ldr	r3, [r7, #4]
 1296 0216 1B68     		ldr	r3, [r3]
 1297 0218 4849     		ldr	r1, .L74+4
 1298 021a 1846     		mov	r0, r3
 1299 021c FFF7FEFF 		bl	hals_uart_interrupt_flag_clear
 482:../firmware/gd32f3x0_hal_peripheral/Source/gd32f3x0_hal_uart.c ****         if(NULL != uart->uart_irq.address_match_handle) {
 1300              		.loc 1 482 34
 1301 0220 7B68     		ldr	r3, [r7, #4]
 1302 0222 1B6A     		ldr	r3, [r3, #32]
 1303              		.loc 1 482 11
 1304 0224 002B     		cmp	r3, #0
 1305 0226 03D0     		beq	.L60
 483:../firmware/gd32f3x0_hal_peripheral/Source/gd32f3x0_hal_uart.c ****             uart->uart_irq.address_match_handle(uart);
 1306              		.loc 1 483 27
 1307 0228 7B68     		ldr	r3, [r7, #4]
 1308 022a 1B6A     		ldr	r3, [r3, #32]
 1309              		.loc 1 483 13
 1310 022c 7868     		ldr	r0, [r7, #4]
 1311 022e 9847     		blx	r3
 1312              	.LVL4:
 1313              	.L60:
 484:../firmware/gd32f3x0_hal_peripheral/Source/gd32f3x0_hal_uart.c ****         }
 485:../firmware/gd32f3x0_hal_peripheral/Source/gd32f3x0_hal_uart.c ****     }
 486:../firmware/gd32f3x0_hal_peripheral/Source/gd32f3x0_hal_uart.c **** 
 487:../firmware/gd32f3x0_hal_peripheral/Source/gd32f3x0_hal_uart.c ****     /* LIN mode interrupt handle */
 488:../firmware/gd32f3x0_hal_peripheral/Source/gd32f3x0_hal_uart.c ****     if(RESET != hals_uart_interrupt_flag_get(uart->periph, USART_INT_FLAG_LBD)) {
 1314              		.loc 1 488 17
 1315 0230 7B68     		ldr	r3, [r7, #4]
 1316 0232 1B68     		ldr	r3, [r3]
 1317 0234 4249     		ldr	r1, .L74+8
 1318 0236 1846     		mov	r0, r3
 1319 0238 FFF7FEFF 		bl	hals_uart_interrupt_flag_get
 1320 023c 0346     		mov	r3, r0
 1321              		.loc 1 488 7
 1322 023e 002B     		cmp	r3, #0
 1323 0240 0DD0     		beq	.L61
 489:../firmware/gd32f3x0_hal_peripheral/Source/gd32f3x0_hal_uart.c ****         hals_uart_interrupt_flag_clear(uart->periph, USART_INT_FLAG_LBD);
 1324              		.loc 1 489 9
 1325 0242 7B68     		ldr	r3, [r7, #4]
 1326 0244 1B68     		ldr	r3, [r3]
 1327 0246 3E49     		ldr	r1, .L74+8
 1328 0248 1846     		mov	r0, r3
 1329 024a FFF7FEFF 		bl	hals_uart_interrupt_flag_clear
 490:../firmware/gd32f3x0_hal_peripheral/Source/gd32f3x0_hal_uart.c ****         if(NULL != uart->uart_irq.lin_break_detected_handle) {
 1330              		.loc 1 490 34
 1331 024e 7B68     		ldr	r3, [r7, #4]
 1332 0250 5B6A     		ldr	r3, [r3, #36]
 1333              		.loc 1 490 11
 1334 0252 002B     		cmp	r3, #0
 1335 0254 03D0     		beq	.L61
 491:../firmware/gd32f3x0_hal_peripheral/Source/gd32f3x0_hal_uart.c ****             uart->uart_irq.lin_break_detected_handle(uart);
 1336              		.loc 1 491 27
 1337 0256 7B68     		ldr	r3, [r7, #4]
 1338 0258 5B6A     		ldr	r3, [r3, #36]
 1339              		.loc 1 491 13
 1340 025a 7868     		ldr	r0, [r7, #4]
 1341 025c 9847     		blx	r3
 1342              	.LVL5:
 1343              	.L61:
 492:../firmware/gd32f3x0_hal_peripheral/Source/gd32f3x0_hal_uart.c ****         }
 493:../firmware/gd32f3x0_hal_peripheral/Source/gd32f3x0_hal_uart.c ****     }
 494:../firmware/gd32f3x0_hal_peripheral/Source/gd32f3x0_hal_uart.c **** 
 495:../firmware/gd32f3x0_hal_peripheral/Source/gd32f3x0_hal_uart.c ****     /* wakeup from deepsleep mode interrupt handle */
 496:../firmware/gd32f3x0_hal_peripheral/Source/gd32f3x0_hal_uart.c ****     if(RESET != hals_uart_interrupt_flag_get(uart->periph, USART_INT_FLAG_WU)) {
 1344              		.loc 1 496 17
 1345 025e 7B68     		ldr	r3, [r7, #4]
 1346 0260 1B68     		ldr	r3, [r3]
 1347 0262 3849     		ldr	r1, .L74+12
 1348 0264 1846     		mov	r0, r3
 1349 0266 FFF7FEFF 		bl	hals_uart_interrupt_flag_get
 1350 026a 0346     		mov	r3, r0
 1351              		.loc 1 496 7
 1352 026c 002B     		cmp	r3, #0
 1353 026e 15D0     		beq	.L62
 497:../firmware/gd32f3x0_hal_peripheral/Source/gd32f3x0_hal_uart.c ****         hals_uart_interrupt_flag_clear(uart->periph, USART_INT_FLAG_WU);
 1354              		.loc 1 497 9
 1355 0270 7B68     		ldr	r3, [r7, #4]
 1356 0272 1B68     		ldr	r3, [r3]
 1357 0274 3349     		ldr	r1, .L74+12
 1358 0276 1846     		mov	r0, r3
 1359 0278 FFF7FEFF 		bl	hals_uart_interrupt_flag_clear
 498:../firmware/gd32f3x0_hal_peripheral/Source/gd32f3x0_hal_uart.c ****         uart->rx_state = UART_STATE_FREE;
 1360              		.loc 1 498 24
 1361 027c 7B68     		ldr	r3, [r7, #4]
 1362 027e 0022     		movs	r2, #0
 1363 0280 83F85320 		strb	r2, [r3, #83]
 499:../firmware/gd32f3x0_hal_peripheral/Source/gd32f3x0_hal_uart.c ****         uart->tx_state = UART_STATE_FREE;
 1364              		.loc 1 499 24
 1365 0284 7B68     		ldr	r3, [r7, #4]
 1366 0286 0022     		movs	r2, #0
 1367 0288 83F85220 		strb	r2, [r3, #82]
 500:../firmware/gd32f3x0_hal_peripheral/Source/gd32f3x0_hal_uart.c ****         if(NULL != uart->uart_irq.wakeup_handle) {
 1368              		.loc 1 500 34
 1369 028c 7B68     		ldr	r3, [r7, #4]
 1370 028e 9B69     		ldr	r3, [r3, #24]
 1371              		.loc 1 500 11
 1372 0290 002B     		cmp	r3, #0
 1373 0292 03D0     		beq	.L62
 501:../firmware/gd32f3x0_hal_peripheral/Source/gd32f3x0_hal_uart.c ****             uart->uart_irq.wakeup_handle(uart);
 1374              		.loc 1 501 27
 1375 0294 7B68     		ldr	r3, [r7, #4]
 1376 0296 9B69     		ldr	r3, [r3, #24]
 1377              		.loc 1 501 13
 1378 0298 7868     		ldr	r0, [r7, #4]
 1379 029a 9847     		blx	r3
 1380              	.LVL6:
 1381              	.L62:
 502:../firmware/gd32f3x0_hal_peripheral/Source/gd32f3x0_hal_uart.c ****         }
 503:../firmware/gd32f3x0_hal_peripheral/Source/gd32f3x0_hal_uart.c ****     }
 504:../firmware/gd32f3x0_hal_peripheral/Source/gd32f3x0_hal_uart.c **** 
 505:../firmware/gd32f3x0_hal_peripheral/Source/gd32f3x0_hal_uart.c ****     /* hardware flow mode interrupt handle */
 506:../firmware/gd32f3x0_hal_peripheral/Source/gd32f3x0_hal_uart.c ****     if(RESET != hals_uart_interrupt_flag_get(uart->periph, USART_INT_FLAG_CTS)) {
 1382              		.loc 1 506 17
 1383 029c 7B68     		ldr	r3, [r7, #4]
 1384 029e 1B68     		ldr	r3, [r3]
 1385 02a0 2949     		ldr	r1, .L74+16
 1386 02a2 1846     		mov	r0, r3
 1387 02a4 FFF7FEFF 		bl	hals_uart_interrupt_flag_get
 1388 02a8 0346     		mov	r3, r0
 1389              		.loc 1 506 7
 1390 02aa 002B     		cmp	r3, #0
 1391 02ac 0DD0     		beq	.L63
 507:../firmware/gd32f3x0_hal_peripheral/Source/gd32f3x0_hal_uart.c ****         hals_uart_interrupt_flag_clear(uart->periph, USART_INT_FLAG_CTS);
 1392              		.loc 1 507 9
 1393 02ae 7B68     		ldr	r3, [r7, #4]
 1394 02b0 1B68     		ldr	r3, [r3]
 1395 02b2 2549     		ldr	r1, .L74+16
 1396 02b4 1846     		mov	r0, r3
 1397 02b6 FFF7FEFF 		bl	hals_uart_interrupt_flag_clear
 508:../firmware/gd32f3x0_hal_peripheral/Source/gd32f3x0_hal_uart.c ****         if(NULL != uart->uart_irq.cts_change_handle) {
 1398              		.loc 1 508 34
 1399 02ba 7B68     		ldr	r3, [r7, #4]
 1400 02bc 9B6A     		ldr	r3, [r3, #40]
 1401              		.loc 1 508 11
 1402 02be 002B     		cmp	r3, #0
 1403 02c0 03D0     		beq	.L63
 509:../firmware/gd32f3x0_hal_peripheral/Source/gd32f3x0_hal_uart.c ****             uart->uart_irq.cts_change_handle(uart);
 1404              		.loc 1 509 27
 1405 02c2 7B68     		ldr	r3, [r7, #4]
 1406 02c4 9B6A     		ldr	r3, [r3, #40]
 1407              		.loc 1 509 13
 1408 02c6 7868     		ldr	r0, [r7, #4]
 1409 02c8 9847     		blx	r3
 1410              	.LVL7:
 1411              	.L63:
 510:../firmware/gd32f3x0_hal_peripheral/Source/gd32f3x0_hal_uart.c ****         }
 511:../firmware/gd32f3x0_hal_peripheral/Source/gd32f3x0_hal_uart.c ****     }
 512:../firmware/gd32f3x0_hal_peripheral/Source/gd32f3x0_hal_uart.c **** 
 513:../firmware/gd32f3x0_hal_peripheral/Source/gd32f3x0_hal_uart.c ****     /* transmitter buffer empty interrupt handle */
 514:../firmware/gd32f3x0_hal_peripheral/Source/gd32f3x0_hal_uart.c ****     if(RESET != hals_uart_interrupt_flag_get(uart->periph, USART_INT_FLAG_TBE)) {
 1412              		.loc 1 514 17
 1413 02ca 7B68     		ldr	r3, [r7, #4]
 1414 02cc 1B68     		ldr	r3, [r3]
 1415 02ce 1F49     		ldr	r1, .L74+20
 1416 02d0 1846     		mov	r0, r3
 1417 02d2 FFF7FEFF 		bl	hals_uart_interrupt_flag_get
 1418 02d6 0346     		mov	r3, r0
 1419              		.loc 1 514 7
 1420 02d8 002B     		cmp	r3, #0
 1421 02da 08D0     		beq	.L64
 515:../firmware/gd32f3x0_hal_peripheral/Source/gd32f3x0_hal_uart.c ****         if(NULL != uart->uart_irq.transmit_ready_handle) {
 1422              		.loc 1 515 34
 1423 02dc 7B68     		ldr	r3, [r7, #4]
 1424 02de DB68     		ldr	r3, [r3, #12]
 1425              		.loc 1 515 11
 1426 02e0 002B     		cmp	r3, #0
 1427 02e2 22D0     		beq	.L70
 516:../firmware/gd32f3x0_hal_peripheral/Source/gd32f3x0_hal_uart.c ****             uart->uart_irq.transmit_ready_handle(uart);
 1428              		.loc 1 516 27
 1429 02e4 7B68     		ldr	r3, [r7, #4]
 1430 02e6 DB68     		ldr	r3, [r3, #12]
 1431              		.loc 1 516 13
 1432 02e8 7868     		ldr	r0, [r7, #4]
 1433 02ea 9847     		blx	r3
 1434              	.LVL8:
 517:../firmware/gd32f3x0_hal_peripheral/Source/gd32f3x0_hal_uart.c ****         }
 518:../firmware/gd32f3x0_hal_peripheral/Source/gd32f3x0_hal_uart.c ****         return;
 1435              		.loc 1 518 9
 1436 02ec 1DE0     		b	.L70
 1437              	.L64:
 519:../firmware/gd32f3x0_hal_peripheral/Source/gd32f3x0_hal_uart.c ****     }
 520:../firmware/gd32f3x0_hal_peripheral/Source/gd32f3x0_hal_uart.c **** 
 521:../firmware/gd32f3x0_hal_peripheral/Source/gd32f3x0_hal_uart.c ****     /* transmission complete interrupt handle */
 522:../firmware/gd32f3x0_hal_peripheral/Source/gd32f3x0_hal_uart.c ****     if(RESET != hals_uart_interrupt_flag_get(uart->periph, USART_INT_FLAG_TC)) {
 1438              		.loc 1 522 17
 1439 02ee 7B68     		ldr	r3, [r7, #4]
 1440 02f0 1B68     		ldr	r3, [r3]
 1441 02f2 1749     		ldr	r1, .L74+24
 1442 02f4 1846     		mov	r0, r3
 1443 02f6 FFF7FEFF 		bl	hals_uart_interrupt_flag_get
 1444 02fa 0346     		mov	r3, r0
 1445              		.loc 1 522 7
 1446 02fc 002B     		cmp	r3, #0
 1447 02fe 17D0     		beq	.L46
 523:../firmware/gd32f3x0_hal_peripheral/Source/gd32f3x0_hal_uart.c ****         hals_uart_interrupt_flag_clear(uart->periph, USART_INT_FLAG_TC);
 1448              		.loc 1 523 9
 1449 0300 7B68     		ldr	r3, [r7, #4]
 1450 0302 1B68     		ldr	r3, [r3]
 1451 0304 1249     		ldr	r1, .L74+24
 1452 0306 1846     		mov	r0, r3
 1453 0308 FFF7FEFF 		bl	hals_uart_interrupt_flag_clear
 524:../firmware/gd32f3x0_hal_peripheral/Source/gd32f3x0_hal_uart.c ****         if(NULL != uart->uart_irq.transmit_complete_handle) {
 1454              		.loc 1 524 34
 1455 030c 7B68     		ldr	r3, [r7, #4]
 1456 030e 1B69     		ldr	r3, [r3, #16]
 1457              		.loc 1 524 11
 1458 0310 002B     		cmp	r3, #0
 1459 0312 0CD0     		beq	.L71
 525:../firmware/gd32f3x0_hal_peripheral/Source/gd32f3x0_hal_uart.c ****             uart->uart_irq.transmit_complete_handle(uart);
 1460              		.loc 1 525 27
 1461 0314 7B68     		ldr	r3, [r7, #4]
 1462 0316 1B69     		ldr	r3, [r3, #16]
 1463              		.loc 1 525 13
 1464 0318 7868     		ldr	r0, [r7, #4]
 1465 031a 9847     		blx	r3
 1466              	.LVL9:
 526:../firmware/gd32f3x0_hal_peripheral/Source/gd32f3x0_hal_uart.c ****         }
 527:../firmware/gd32f3x0_hal_peripheral/Source/gd32f3x0_hal_uart.c ****         return;
 1467              		.loc 1 527 9
 1468 031c 07E0     		b	.L71
 1469              	.L67:
 415:../firmware/gd32f3x0_hal_peripheral/Source/gd32f3x0_hal_uart.c ****         }
 1470              		.loc 1 415 13
 1471 031e 00BF     		nop
 1472 0320 06E0     		b	.L46
 1473              	.L68:
 423:../firmware/gd32f3x0_hal_peripheral/Source/gd32f3x0_hal_uart.c ****         }
 1474              		.loc 1 423 13
 1475 0322 00BF     		nop
 1476 0324 04E0     		b	.L46
 1477              	.L69:
 467:../firmware/gd32f3x0_hal_peripheral/Source/gd32f3x0_hal_uart.c ****         }
 1478              		.loc 1 467 13
 1479 0326 00BF     		nop
 1480 0328 02E0     		b	.L46
 1481              	.L70:
 518:../firmware/gd32f3x0_hal_peripheral/Source/gd32f3x0_hal_uart.c ****     }
 1482              		.loc 1 518 9
 1483 032a 00BF     		nop
 1484 032c 00E0     		b	.L46
 1485              	.L71:
 1486              		.loc 1 527 9
 1487 032e 00BF     		nop
 1488              	.L46:
 528:../firmware/gd32f3x0_hal_peripheral/Source/gd32f3x0_hal_uart.c ****     }
 529:../firmware/gd32f3x0_hal_peripheral/Source/gd32f3x0_hal_uart.c **** }
 1489              		.loc 1 529 1
 1490 0330 0837     		adds	r7, r7, #8
 1491              		.cfi_def_cfa_offset 8
 1492 0332 BD46     		mov	sp, r7
 1493              		.cfi_def_cfa_register 13
 1494              		@ sp needed
 1495 0334 80BD     		pop	{r7, pc}
 1496              	.L75:
 1497 0336 00BF     		.align	2
 1498              	.L74:
 1499 0338 04000407 		.word	117702660
 1500 033c 0E001107 		.word	118554638
 1501 0340 06010807 		.word	117965062
 1502 0344 16021407 		.word	118751766
 1503 0348 0A020907 		.word	118030858
 1504 034c 07000707 		.word	117899271
 1505 0350 06000607 		.word	117833734
 1506              		.cfi_endproc
 1507              	.LFE122:
 1509              		.section	.text.hal_uart_irq_handle_set,"ax",%progbits
 1510              		.align	1
 1511              		.global	hal_uart_irq_handle_set
 1512              		.syntax unified
 1513              		.thumb
 1514              		.thumb_func
 1515              		.fpu softvfp
 1517              	hal_uart_irq_handle_set:
 1518              	.LFB123:
 530:../firmware/gd32f3x0_hal_peripheral/Source/gd32f3x0_hal_uart.c **** 
 531:../firmware/gd32f3x0_hal_peripheral/Source/gd32f3x0_hal_uart.c **** /*!
 532:../firmware/gd32f3x0_hal_peripheral/Source/gd32f3x0_hal_uart.c ****     \brief      set user-defined interrupt callback function,
 533:../firmware/gd32f3x0_hal_peripheral/Source/gd32f3x0_hal_uart.c ****                 which will be registered and called when corresponding interrupt be triggered
 534:../firmware/gd32f3x0_hal_peripheral/Source/gd32f3x0_hal_uart.c ****     \param[in]  uart: uart device information structrue
 535:../firmware/gd32f3x0_hal_peripheral/Source/gd32f3x0_hal_uart.c ****                   the structure is not necessary to be reconfigured after structrue initialization,
 536:../firmware/gd32f3x0_hal_peripheral/Source/gd32f3x0_hal_uart.c ****                   the structure parameters altering is automatically configured by core
 537:../firmware/gd32f3x0_hal_peripheral/Source/gd32f3x0_hal_uart.c ****     \param[in]  p_irq: point to uart interrupt callback functions structure
 538:../firmware/gd32f3x0_hal_peripheral/Source/gd32f3x0_hal_uart.c ****                   The structure member can be assigned as following parameters:
 539:../firmware/gd32f3x0_hal_peripheral/Source/gd32f3x0_hal_uart.c ****       \arg        hal_irq_handle_cb function pointer: the function is user-defined,
 540:../firmware/gd32f3x0_hal_peripheral/Source/gd32f3x0_hal_uart.c ****                     the corresponding callback mechanism is in use, and enable corresponding interr
 541:../firmware/gd32f3x0_hal_peripheral/Source/gd32f3x0_hal_uart.c ****       \arg        NULL: The corresponding callback mechanism is out of use, and
 542:../firmware/gd32f3x0_hal_peripheral/Source/gd32f3x0_hal_uart.c ****                     disable corresponding interrupt
 543:../firmware/gd32f3x0_hal_peripheral/Source/gd32f3x0_hal_uart.c ****     \param[out] none
 544:../firmware/gd32f3x0_hal_peripheral/Source/gd32f3x0_hal_uart.c ****     \retval     none
 545:../firmware/gd32f3x0_hal_peripheral/Source/gd32f3x0_hal_uart.c **** */
 546:../firmware/gd32f3x0_hal_peripheral/Source/gd32f3x0_hal_uart.c **** void hal_uart_irq_handle_set(hal_uart_dev_struct *uart, hal_uart_irq_struct *p_irq)
 547:../firmware/gd32f3x0_hal_peripheral/Source/gd32f3x0_hal_uart.c **** {
 1519              		.loc 1 547 1
 1520              		.cfi_startproc
 1521              		@ args = 0, pretend = 0, frame = 8
 1522              		@ frame_needed = 1, uses_anonymous_args = 0
 1523 0000 80B5     		push	{r7, lr}
 1524              		.cfi_def_cfa_offset 8
 1525              		.cfi_offset 7, -8
 1526              		.cfi_offset 14, -4
 1527 0002 82B0     		sub	sp, sp, #8
 1528              		.cfi_def_cfa_offset 16
 1529 0004 00AF     		add	r7, sp, #0
 1530              		.cfi_def_cfa_register 7
 1531 0006 7860     		str	r0, [r7, #4]
 1532 0008 3960     		str	r1, [r7]
 548:../firmware/gd32f3x0_hal_peripheral/Source/gd32f3x0_hal_uart.c ****     /* set user-defined address match interrupt callback */
 549:../firmware/gd32f3x0_hal_peripheral/Source/gd32f3x0_hal_uart.c ****     if(NULL != p_irq->address_match_handle) {
 1533              		.loc 1 549 21
 1534 000a 3B68     		ldr	r3, [r7]
 1535 000c DB69     		ldr	r3, [r3, #28]
 1536              		.loc 1 549 7
 1537 000e 002B     		cmp	r3, #0
 1538 0010 0AD0     		beq	.L77
 550:../firmware/gd32f3x0_hal_peripheral/Source/gd32f3x0_hal_uart.c ****         uart->uart_irq.address_match_handle = p_irq->address_match_handle;
 1539              		.loc 1 550 52
 1540 0012 3B68     		ldr	r3, [r7]
 1541 0014 DA69     		ldr	r2, [r3, #28]
 1542              		.loc 1 550 45
 1543 0016 7B68     		ldr	r3, [r7, #4]
 1544 0018 1A62     		str	r2, [r3, #32]
 551:../firmware/gd32f3x0_hal_peripheral/Source/gd32f3x0_hal_uart.c ****         hals_uart_interrupt_enable(uart->periph, USART_INT_AM);
 1545              		.loc 1 551 9
 1546 001a 7B68     		ldr	r3, [r7, #4]
 1547 001c 1B68     		ldr	r3, [r3]
 1548 001e 0E21     		movs	r1, #14
 1549 0020 1846     		mov	r0, r3
 1550 0022 FFF7FEFF 		bl	hals_uart_interrupt_enable
 1551 0026 08E0     		b	.L78
 1552              	.L77:
 552:../firmware/gd32f3x0_hal_peripheral/Source/gd32f3x0_hal_uart.c ****     } else {
 553:../firmware/gd32f3x0_hal_peripheral/Source/gd32f3x0_hal_uart.c ****         uart->uart_irq.address_match_handle = NULL;
 1553              		.loc 1 553 45
 1554 0028 7B68     		ldr	r3, [r7, #4]
 1555 002a 0022     		movs	r2, #0
 1556 002c 1A62     		str	r2, [r3, #32]
 554:../firmware/gd32f3x0_hal_peripheral/Source/gd32f3x0_hal_uart.c ****         hals_uart_interrupt_disable(uart->periph, USART_INT_AM);
 1557              		.loc 1 554 9
 1558 002e 7B68     		ldr	r3, [r7, #4]
 1559 0030 1B68     		ldr	r3, [r3]
 1560 0032 0E21     		movs	r1, #14
 1561 0034 1846     		mov	r0, r3
 1562 0036 FFF7FEFF 		bl	hals_uart_interrupt_disable
 1563              	.L78:
 555:../firmware/gd32f3x0_hal_peripheral/Source/gd32f3x0_hal_uart.c ****     }
 556:../firmware/gd32f3x0_hal_peripheral/Source/gd32f3x0_hal_uart.c **** 
 557:../firmware/gd32f3x0_hal_peripheral/Source/gd32f3x0_hal_uart.c ****     /* set user-defined CTS change interrupt callback */
 558:../firmware/gd32f3x0_hal_peripheral/Source/gd32f3x0_hal_uart.c ****     if(NULL != p_irq->cts_change_handle) {
 1564              		.loc 1 558 21
 1565 003a 3B68     		ldr	r3, [r7]
 1566 003c 5B6A     		ldr	r3, [r3, #36]
 1567              		.loc 1 558 7
 1568 003e 002B     		cmp	r3, #0
 1569 0040 0BD0     		beq	.L79
 559:../firmware/gd32f3x0_hal_peripheral/Source/gd32f3x0_hal_uart.c ****         uart->uart_irq.cts_change_handle = p_irq->cts_change_handle;
 1570              		.loc 1 559 49
 1571 0042 3B68     		ldr	r3, [r7]
 1572 0044 5A6A     		ldr	r2, [r3, #36]
 1573              		.loc 1 559 42
 1574 0046 7B68     		ldr	r3, [r7, #4]
 1575 0048 9A62     		str	r2, [r3, #40]
 560:../firmware/gd32f3x0_hal_peripheral/Source/gd32f3x0_hal_uart.c ****         hals_uart_interrupt_enable(uart->periph, USART_INT_CTS);
 1576              		.loc 1 560 9
 1577 004a 7B68     		ldr	r3, [r7, #4]
 1578 004c 1B68     		ldr	r3, [r3]
 1579 004e 40F20A21 		movw	r1, #522
 1580 0052 1846     		mov	r0, r3
 1581 0054 FFF7FEFF 		bl	hals_uart_interrupt_enable
 1582 0058 09E0     		b	.L80
 1583              	.L79:
 561:../firmware/gd32f3x0_hal_peripheral/Source/gd32f3x0_hal_uart.c ****     } else {
 562:../firmware/gd32f3x0_hal_peripheral/Source/gd32f3x0_hal_uart.c ****         uart->uart_irq.cts_change_handle = NULL;
 1584              		.loc 1 562 42
 1585 005a 7B68     		ldr	r3, [r7, #4]
 1586 005c 0022     		movs	r2, #0
 1587 005e 9A62     		str	r2, [r3, #40]
 563:../firmware/gd32f3x0_hal_peripheral/Source/gd32f3x0_hal_uart.c ****         hals_uart_interrupt_disable(uart->periph, USART_INT_CTS);
 1588              		.loc 1 563 9
 1589 0060 7B68     		ldr	r3, [r7, #4]
 1590 0062 1B68     		ldr	r3, [r3]
 1591 0064 40F20A21 		movw	r1, #522
 1592 0068 1846     		mov	r0, r3
 1593 006a FFF7FEFF 		bl	hals_uart_interrupt_disable
 1594              	.L80:
 564:../firmware/gd32f3x0_hal_peripheral/Source/gd32f3x0_hal_uart.c ****     }
 565:../firmware/gd32f3x0_hal_peripheral/Source/gd32f3x0_hal_uart.c **** 
 566:../firmware/gd32f3x0_hal_peripheral/Source/gd32f3x0_hal_uart.c ****     /* set user-defined error interrupt callback */
 567:../firmware/gd32f3x0_hal_peripheral/Source/gd32f3x0_hal_uart.c ****     if(NULL != p_irq->error_handle) {
 1595              		.loc 1 567 21
 1596 006e 3B68     		ldr	r3, [r7]
 1597 0070 1B69     		ldr	r3, [r3, #16]
 1598              		.loc 1 567 7
 1599 0072 002B     		cmp	r3, #0
 1600 0074 11D0     		beq	.L81
 568:../firmware/gd32f3x0_hal_peripheral/Source/gd32f3x0_hal_uart.c ****         uart->uart_irq.error_handle = p_irq->error_handle;
 1601              		.loc 1 568 44
 1602 0076 3B68     		ldr	r3, [r7]
 1603 0078 1A69     		ldr	r2, [r3, #16]
 1604              		.loc 1 568 37
 1605 007a 7B68     		ldr	r3, [r7, #4]
 1606 007c 5A61     		str	r2, [r3, #20]
 569:../firmware/gd32f3x0_hal_peripheral/Source/gd32f3x0_hal_uart.c ****         hals_uart_interrupt_enable(uart->periph, USART_INT_ERR);
 1607              		.loc 1 569 9
 1608 007e 7B68     		ldr	r3, [r7, #4]
 1609 0080 1B68     		ldr	r3, [r3]
 1610 0082 4FF40071 		mov	r1, #512
 1611 0086 1846     		mov	r0, r3
 1612 0088 FFF7FEFF 		bl	hals_uart_interrupt_enable
 570:../firmware/gd32f3x0_hal_peripheral/Source/gd32f3x0_hal_uart.c ****         hals_uart_interrupt_enable(uart->periph, USART_INT_PERR);
 1613              		.loc 1 570 9
 1614 008c 7B68     		ldr	r3, [r7, #4]
 1615 008e 1B68     		ldr	r3, [r3]
 1616 0090 0821     		movs	r1, #8
 1617 0092 1846     		mov	r0, r3
 1618 0094 FFF7FEFF 		bl	hals_uart_interrupt_enable
 1619 0098 0FE0     		b	.L82
 1620              	.L81:
 571:../firmware/gd32f3x0_hal_peripheral/Source/gd32f3x0_hal_uart.c ****     } else {
 572:../firmware/gd32f3x0_hal_peripheral/Source/gd32f3x0_hal_uart.c ****         uart->uart_irq.error_handle = NULL;
 1621              		.loc 1 572 37
 1622 009a 7B68     		ldr	r3, [r7, #4]
 1623 009c 0022     		movs	r2, #0
 1624 009e 5A61     		str	r2, [r3, #20]
 573:../firmware/gd32f3x0_hal_peripheral/Source/gd32f3x0_hal_uart.c ****         hals_uart_interrupt_disable(uart->periph, USART_INT_ERR);
 1625              		.loc 1 573 9
 1626 00a0 7B68     		ldr	r3, [r7, #4]
 1627 00a2 1B68     		ldr	r3, [r3]
 1628 00a4 4FF40071 		mov	r1, #512
 1629 00a8 1846     		mov	r0, r3
 1630 00aa FFF7FEFF 		bl	hals_uart_interrupt_disable
 574:../firmware/gd32f3x0_hal_peripheral/Source/gd32f3x0_hal_uart.c ****         hals_uart_interrupt_disable(uart->periph, USART_INT_PERR);
 1631              		.loc 1 574 9
 1632 00ae 7B68     		ldr	r3, [r7, #4]
 1633 00b0 1B68     		ldr	r3, [r3]
 1634 00b2 0821     		movs	r1, #8
 1635 00b4 1846     		mov	r0, r3
 1636 00b6 FFF7FEFF 		bl	hals_uart_interrupt_disable
 1637              	.L82:
 575:../firmware/gd32f3x0_hal_peripheral/Source/gd32f3x0_hal_uart.c ****     }
 576:../firmware/gd32f3x0_hal_peripheral/Source/gd32f3x0_hal_uart.c **** 
 577:../firmware/gd32f3x0_hal_peripheral/Source/gd32f3x0_hal_uart.c ****     /* set user-defined idle line detected interrupt callback */
 578:../firmware/gd32f3x0_hal_peripheral/Source/gd32f3x0_hal_uart.c ****     if(NULL != p_irq->idle_line_detected_handle) {
 1638              		.loc 1 578 21
 1639 00ba 3B68     		ldr	r3, [r7]
 1640 00bc 9B69     		ldr	r3, [r3, #24]
 1641              		.loc 1 578 7
 1642 00be 002B     		cmp	r3, #0
 1643 00c0 0AD0     		beq	.L83
 579:../firmware/gd32f3x0_hal_peripheral/Source/gd32f3x0_hal_uart.c ****         uart->uart_irq.idle_line_detected_handle = p_irq->idle_line_detected_handle;
 1644              		.loc 1 579 57
 1645 00c2 3B68     		ldr	r3, [r7]
 1646 00c4 9A69     		ldr	r2, [r3, #24]
 1647              		.loc 1 579 50
 1648 00c6 7B68     		ldr	r3, [r7, #4]
 1649 00c8 DA61     		str	r2, [r3, #28]
 580:../firmware/gd32f3x0_hal_peripheral/Source/gd32f3x0_hal_uart.c ****         hals_uart_interrupt_enable(uart->periph, USART_INT_IDLE);
 1650              		.loc 1 580 9
 1651 00ca 7B68     		ldr	r3, [r7, #4]
 1652 00cc 1B68     		ldr	r3, [r3]
 1653 00ce 0421     		movs	r1, #4
 1654 00d0 1846     		mov	r0, r3
 1655 00d2 FFF7FEFF 		bl	hals_uart_interrupt_enable
 1656 00d6 08E0     		b	.L84
 1657              	.L83:
 581:../firmware/gd32f3x0_hal_peripheral/Source/gd32f3x0_hal_uart.c ****     } else {
 582:../firmware/gd32f3x0_hal_peripheral/Source/gd32f3x0_hal_uart.c ****         uart->uart_irq.idle_line_detected_handle = NULL;
 1658              		.loc 1 582 50
 1659 00d8 7B68     		ldr	r3, [r7, #4]
 1660 00da 0022     		movs	r2, #0
 1661 00dc DA61     		str	r2, [r3, #28]
 583:../firmware/gd32f3x0_hal_peripheral/Source/gd32f3x0_hal_uart.c ****         hals_uart_interrupt_disable(uart->periph, USART_INT_IDLE);
 1662              		.loc 1 583 9
 1663 00de 7B68     		ldr	r3, [r7, #4]
 1664 00e0 1B68     		ldr	r3, [r3]
 1665 00e2 0421     		movs	r1, #4
 1666 00e4 1846     		mov	r0, r3
 1667 00e6 FFF7FEFF 		bl	hals_uart_interrupt_disable
 1668              	.L84:
 584:../firmware/gd32f3x0_hal_peripheral/Source/gd32f3x0_hal_uart.c ****     }
 585:../firmware/gd32f3x0_hal_peripheral/Source/gd32f3x0_hal_uart.c **** 
 586:../firmware/gd32f3x0_hal_peripheral/Source/gd32f3x0_hal_uart.c ****     /* set user-defined LIN break detected interrupt callback */
 587:../firmware/gd32f3x0_hal_peripheral/Source/gd32f3x0_hal_uart.c ****     if(NULL != p_irq->lin_break_detected_handle) {
 1669              		.loc 1 587 21
 1670 00ea 3B68     		ldr	r3, [r7]
 1671 00ec 1B6A     		ldr	r3, [r3, #32]
 1672              		.loc 1 587 7
 1673 00ee 002B     		cmp	r3, #0
 1674 00f0 0BD0     		beq	.L85
 588:../firmware/gd32f3x0_hal_peripheral/Source/gd32f3x0_hal_uart.c ****         uart->uart_irq.lin_break_detected_handle = p_irq->lin_break_detected_handle;
 1675              		.loc 1 588 57
 1676 00f2 3B68     		ldr	r3, [r7]
 1677 00f4 1A6A     		ldr	r2, [r3, #32]
 1678              		.loc 1 588 50
 1679 00f6 7B68     		ldr	r3, [r7, #4]
 1680 00f8 5A62     		str	r2, [r3, #36]
 589:../firmware/gd32f3x0_hal_peripheral/Source/gd32f3x0_hal_uart.c ****         hals_uart_interrupt_enable(uart->periph, USART_INT_LBD);
 1681              		.loc 1 589 9
 1682 00fa 7B68     		ldr	r3, [r7, #4]
 1683 00fc 1B68     		ldr	r3, [r3]
 1684 00fe 4FF48371 		mov	r1, #262
 1685 0102 1846     		mov	r0, r3
 1686 0104 FFF7FEFF 		bl	hals_uart_interrupt_enable
 1687 0108 09E0     		b	.L86
 1688              	.L85:
 590:../firmware/gd32f3x0_hal_peripheral/Source/gd32f3x0_hal_uart.c ****     } else {
 591:../firmware/gd32f3x0_hal_peripheral/Source/gd32f3x0_hal_uart.c ****         uart->uart_irq.lin_break_detected_handle = NULL;
 1689              		.loc 1 591 50
 1690 010a 7B68     		ldr	r3, [r7, #4]
 1691 010c 0022     		movs	r2, #0
 1692 010e 5A62     		str	r2, [r3, #36]
 592:../firmware/gd32f3x0_hal_peripheral/Source/gd32f3x0_hal_uart.c ****         hals_uart_interrupt_disable(uart->periph, USART_INT_LBD);
 1693              		.loc 1 592 9
 1694 0110 7B68     		ldr	r3, [r7, #4]
 1695 0112 1B68     		ldr	r3, [r3]
 1696 0114 4FF48371 		mov	r1, #262
 1697 0118 1846     		mov	r0, r3
 1698 011a FFF7FEFF 		bl	hals_uart_interrupt_disable
 1699              	.L86:
 593:../firmware/gd32f3x0_hal_peripheral/Source/gd32f3x0_hal_uart.c ****     }
 594:../firmware/gd32f3x0_hal_peripheral/Source/gd32f3x0_hal_uart.c **** 
 595:../firmware/gd32f3x0_hal_peripheral/Source/gd32f3x0_hal_uart.c ****     /* set user-defined receive complete interrupt callback */
 596:../firmware/gd32f3x0_hal_peripheral/Source/gd32f3x0_hal_uart.c ****     if(NULL != p_irq->receive_complete_handle) {
 1700              		.loc 1 596 21
 1701 011e 3B68     		ldr	r3, [r7]
 1702 0120 1B68     		ldr	r3, [r3]
 1703              		.loc 1 596 7
 1704 0122 002B     		cmp	r3, #0
 1705 0124 0AD0     		beq	.L87
 597:../firmware/gd32f3x0_hal_peripheral/Source/gd32f3x0_hal_uart.c ****         uart->uart_irq.receive_complete_handle = p_irq->receive_complete_handle;
 1706              		.loc 1 597 55
 1707 0126 3B68     		ldr	r3, [r7]
 1708 0128 1A68     		ldr	r2, [r3]
 1709              		.loc 1 597 48
 1710 012a 7B68     		ldr	r3, [r7, #4]
 1711 012c 5A60     		str	r2, [r3, #4]
 598:../firmware/gd32f3x0_hal_peripheral/Source/gd32f3x0_hal_uart.c ****         hals_uart_interrupt_enable(uart->periph, USART_INT_RBNE);
 1712              		.loc 1 598 9
 1713 012e 7B68     		ldr	r3, [r7, #4]
 1714 0130 1B68     		ldr	r3, [r3]
 1715 0132 0521     		movs	r1, #5
 1716 0134 1846     		mov	r0, r3
 1717 0136 FFF7FEFF 		bl	hals_uart_interrupt_enable
 1718 013a 08E0     		b	.L88
 1719              	.L87:
 599:../firmware/gd32f3x0_hal_peripheral/Source/gd32f3x0_hal_uart.c ****     } else {
 600:../firmware/gd32f3x0_hal_peripheral/Source/gd32f3x0_hal_uart.c ****         uart->uart_irq.receive_complete_handle = NULL;
 1720              		.loc 1 600 48
 1721 013c 7B68     		ldr	r3, [r7, #4]
 1722 013e 0022     		movs	r2, #0
 1723 0140 5A60     		str	r2, [r3, #4]
 601:../firmware/gd32f3x0_hal_peripheral/Source/gd32f3x0_hal_uart.c ****         hals_uart_interrupt_disable(uart->periph, USART_INT_RBNE);
 1724              		.loc 1 601 9
 1725 0142 7B68     		ldr	r3, [r7, #4]
 1726 0144 1B68     		ldr	r3, [r3]
 1727 0146 0521     		movs	r1, #5
 1728 0148 1846     		mov	r0, r3
 1729 014a FFF7FEFF 		bl	hals_uart_interrupt_disable
 1730              	.L88:
 602:../firmware/gd32f3x0_hal_peripheral/Source/gd32f3x0_hal_uart.c ****     }
 603:../firmware/gd32f3x0_hal_peripheral/Source/gd32f3x0_hal_uart.c **** 
 604:../firmware/gd32f3x0_hal_peripheral/Source/gd32f3x0_hal_uart.c ****     /* set user-defined receive timeout interrupt callback */
 605:../firmware/gd32f3x0_hal_peripheral/Source/gd32f3x0_hal_uart.c ****     if(NULL != p_irq->receive_timeout_handle) {
 1731              		.loc 1 605 21
 1732 014e 3B68     		ldr	r3, [r7]
 1733 0150 5B68     		ldr	r3, [r3, #4]
 1734              		.loc 1 605 7
 1735 0152 002B     		cmp	r3, #0
 1736 0154 0AD0     		beq	.L89
 606:../firmware/gd32f3x0_hal_peripheral/Source/gd32f3x0_hal_uart.c ****         uart->uart_irq.receive_timeout_handle = p_irq->receive_timeout_handle;
 1737              		.loc 1 606 54
 1738 0156 3B68     		ldr	r3, [r7]
 1739 0158 5A68     		ldr	r2, [r3, #4]
 1740              		.loc 1 606 47
 1741 015a 7B68     		ldr	r3, [r7, #4]
 1742 015c 9A60     		str	r2, [r3, #8]
 607:../firmware/gd32f3x0_hal_peripheral/Source/gd32f3x0_hal_uart.c ****         hals_uart_interrupt_enable(uart->periph, USART_INT_RT);
 1743              		.loc 1 607 9
 1744 015e 7B68     		ldr	r3, [r7, #4]
 1745 0160 1B68     		ldr	r3, [r3]
 1746 0162 1A21     		movs	r1, #26
 1747 0164 1846     		mov	r0, r3
 1748 0166 FFF7FEFF 		bl	hals_uart_interrupt_enable
 1749 016a 08E0     		b	.L90
 1750              	.L89:
 608:../firmware/gd32f3x0_hal_peripheral/Source/gd32f3x0_hal_uart.c ****     } else {
 609:../firmware/gd32f3x0_hal_peripheral/Source/gd32f3x0_hal_uart.c ****         uart->uart_irq.receive_timeout_handle = NULL;
 1751              		.loc 1 609 47
 1752 016c 7B68     		ldr	r3, [r7, #4]
 1753 016e 0022     		movs	r2, #0
 1754 0170 9A60     		str	r2, [r3, #8]
 610:../firmware/gd32f3x0_hal_peripheral/Source/gd32f3x0_hal_uart.c ****         hals_uart_interrupt_disable(uart->periph, USART_INT_RT);
 1755              		.loc 1 610 9
 1756 0172 7B68     		ldr	r3, [r7, #4]
 1757 0174 1B68     		ldr	r3, [r3]
 1758 0176 1A21     		movs	r1, #26
 1759 0178 1846     		mov	r0, r3
 1760 017a FFF7FEFF 		bl	hals_uart_interrupt_disable
 1761              	.L90:
 611:../firmware/gd32f3x0_hal_peripheral/Source/gd32f3x0_hal_uart.c ****     }
 612:../firmware/gd32f3x0_hal_peripheral/Source/gd32f3x0_hal_uart.c **** 
 613:../firmware/gd32f3x0_hal_peripheral/Source/gd32f3x0_hal_uart.c ****     /* set user-defined transmit complete interrupt callback */
 614:../firmware/gd32f3x0_hal_peripheral/Source/gd32f3x0_hal_uart.c ****     if(NULL != p_irq->transmit_complete_handle) {
 1762              		.loc 1 614 21
 1763 017e 3B68     		ldr	r3, [r7]
 1764 0180 DB68     		ldr	r3, [r3, #12]
 1765              		.loc 1 614 7
 1766 0182 002B     		cmp	r3, #0
 1767 0184 0AD0     		beq	.L91
 615:../firmware/gd32f3x0_hal_peripheral/Source/gd32f3x0_hal_uart.c ****         uart->uart_irq.transmit_complete_handle = p_irq->transmit_complete_handle;
 1768              		.loc 1 615 56
 1769 0186 3B68     		ldr	r3, [r7]
 1770 0188 DA68     		ldr	r2, [r3, #12]
 1771              		.loc 1 615 49
 1772 018a 7B68     		ldr	r3, [r7, #4]
 1773 018c 1A61     		str	r2, [r3, #16]
 616:../firmware/gd32f3x0_hal_peripheral/Source/gd32f3x0_hal_uart.c ****         hals_uart_interrupt_enable(uart->periph, USART_INT_TC);
 1774              		.loc 1 616 9
 1775 018e 7B68     		ldr	r3, [r7, #4]
 1776 0190 1B68     		ldr	r3, [r3]
 1777 0192 0621     		movs	r1, #6
 1778 0194 1846     		mov	r0, r3
 1779 0196 FFF7FEFF 		bl	hals_uart_interrupt_enable
 1780 019a 08E0     		b	.L92
 1781              	.L91:
 617:../firmware/gd32f3x0_hal_peripheral/Source/gd32f3x0_hal_uart.c ****     } else {
 618:../firmware/gd32f3x0_hal_peripheral/Source/gd32f3x0_hal_uart.c ****         uart->uart_irq.transmit_complete_handle = NULL;
 1782              		.loc 1 618 49
 1783 019c 7B68     		ldr	r3, [r7, #4]
 1784 019e 0022     		movs	r2, #0
 1785 01a0 1A61     		str	r2, [r3, #16]
 619:../firmware/gd32f3x0_hal_peripheral/Source/gd32f3x0_hal_uart.c ****         hals_uart_interrupt_disable(uart->periph, USART_INT_TC);
 1786              		.loc 1 619 9
 1787 01a2 7B68     		ldr	r3, [r7, #4]
 1788 01a4 1B68     		ldr	r3, [r3]
 1789 01a6 0621     		movs	r1, #6
 1790 01a8 1846     		mov	r0, r3
 1791 01aa FFF7FEFF 		bl	hals_uart_interrupt_disable
 1792              	.L92:
 620:../firmware/gd32f3x0_hal_peripheral/Source/gd32f3x0_hal_uart.c ****     }
 621:../firmware/gd32f3x0_hal_peripheral/Source/gd32f3x0_hal_uart.c **** 
 622:../firmware/gd32f3x0_hal_peripheral/Source/gd32f3x0_hal_uart.c ****     /* set user-defined transmit ready interrupt callback */
 623:../firmware/gd32f3x0_hal_peripheral/Source/gd32f3x0_hal_uart.c ****     if(NULL != p_irq->transmit_ready_handle) {
 1793              		.loc 1 623 21
 1794 01ae 3B68     		ldr	r3, [r7]
 1795 01b0 9B68     		ldr	r3, [r3, #8]
 1796              		.loc 1 623 7
 1797 01b2 002B     		cmp	r3, #0
 1798 01b4 0AD0     		beq	.L93
 624:../firmware/gd32f3x0_hal_peripheral/Source/gd32f3x0_hal_uart.c ****         uart->uart_irq.transmit_ready_handle = p_irq->transmit_ready_handle;
 1799              		.loc 1 624 53
 1800 01b6 3B68     		ldr	r3, [r7]
 1801 01b8 9A68     		ldr	r2, [r3, #8]
 1802              		.loc 1 624 46
 1803 01ba 7B68     		ldr	r3, [r7, #4]
 1804 01bc DA60     		str	r2, [r3, #12]
 625:../firmware/gd32f3x0_hal_peripheral/Source/gd32f3x0_hal_uart.c ****         hals_uart_interrupt_enable(uart->periph, USART_INT_TBE);
 1805              		.loc 1 625 9
 1806 01be 7B68     		ldr	r3, [r7, #4]
 1807 01c0 1B68     		ldr	r3, [r3]
 1808 01c2 0721     		movs	r1, #7
 1809 01c4 1846     		mov	r0, r3
 1810 01c6 FFF7FEFF 		bl	hals_uart_interrupt_enable
 1811 01ca 08E0     		b	.L94
 1812              	.L93:
 626:../firmware/gd32f3x0_hal_peripheral/Source/gd32f3x0_hal_uart.c ****     } else {
 627:../firmware/gd32f3x0_hal_peripheral/Source/gd32f3x0_hal_uart.c ****         uart->uart_irq.transmit_ready_handle = NULL;
 1813              		.loc 1 627 46
 1814 01cc 7B68     		ldr	r3, [r7, #4]
 1815 01ce 0022     		movs	r2, #0
 1816 01d0 DA60     		str	r2, [r3, #12]
 628:../firmware/gd32f3x0_hal_peripheral/Source/gd32f3x0_hal_uart.c ****         hals_uart_interrupt_disable(uart->periph, USART_INT_TBE);
 1817              		.loc 1 628 9
 1818 01d2 7B68     		ldr	r3, [r7, #4]
 1819 01d4 1B68     		ldr	r3, [r3]
 1820 01d6 0721     		movs	r1, #7
 1821 01d8 1846     		mov	r0, r3
 1822 01da FFF7FEFF 		bl	hals_uart_interrupt_disable
 1823              	.L94:
 629:../firmware/gd32f3x0_hal_peripheral/Source/gd32f3x0_hal_uart.c ****     }
 630:../firmware/gd32f3x0_hal_peripheral/Source/gd32f3x0_hal_uart.c **** 
 631:../firmware/gd32f3x0_hal_peripheral/Source/gd32f3x0_hal_uart.c ****     /* set user-defined wakeup interrupt callback */
 632:../firmware/gd32f3x0_hal_peripheral/Source/gd32f3x0_hal_uart.c ****     if(NULL != p_irq->wakeup_handle) {
 1824              		.loc 1 632 21
 1825 01de 3B68     		ldr	r3, [r7]
 1826 01e0 5B69     		ldr	r3, [r3, #20]
 1827              		.loc 1 632 7
 1828 01e2 002B     		cmp	r3, #0
 1829 01e4 0BD0     		beq	.L95
 633:../firmware/gd32f3x0_hal_peripheral/Source/gd32f3x0_hal_uart.c ****         uart->uart_irq.wakeup_handle = p_irq->wakeup_handle;
 1830              		.loc 1 633 45
 1831 01e6 3B68     		ldr	r3, [r7]
 1832 01e8 5A69     		ldr	r2, [r3, #20]
 1833              		.loc 1 633 38
 1834 01ea 7B68     		ldr	r3, [r7, #4]
 1835 01ec 9A61     		str	r2, [r3, #24]
 634:../firmware/gd32f3x0_hal_peripheral/Source/gd32f3x0_hal_uart.c ****         hals_uart_interrupt_enable(uart->periph, USART_INT_WU);
 1836              		.loc 1 634 9
 1837 01ee 7B68     		ldr	r3, [r7, #4]
 1838 01f0 1B68     		ldr	r3, [r3]
 1839 01f2 40F21621 		movw	r1, #534
 1840 01f6 1846     		mov	r0, r3
 1841 01f8 FFF7FEFF 		bl	hals_uart_interrupt_enable
 635:../firmware/gd32f3x0_hal_peripheral/Source/gd32f3x0_hal_uart.c ****     } else {
 636:../firmware/gd32f3x0_hal_peripheral/Source/gd32f3x0_hal_uart.c ****         uart->uart_irq.wakeup_handle = NULL;
 637:../firmware/gd32f3x0_hal_peripheral/Source/gd32f3x0_hal_uart.c ****         hals_uart_interrupt_disable(uart->periph, USART_INT_WU);
 638:../firmware/gd32f3x0_hal_peripheral/Source/gd32f3x0_hal_uart.c ****     }
 639:../firmware/gd32f3x0_hal_peripheral/Source/gd32f3x0_hal_uart.c **** }
 1842              		.loc 1 639 1
 1843 01fc 09E0     		b	.L97
 1844              	.L95:
 636:../firmware/gd32f3x0_hal_peripheral/Source/gd32f3x0_hal_uart.c ****         hals_uart_interrupt_disable(uart->periph, USART_INT_WU);
 1845              		.loc 1 636 38
 1846 01fe 7B68     		ldr	r3, [r7, #4]
 1847 0200 0022     		movs	r2, #0
 1848 0202 9A61     		str	r2, [r3, #24]
 637:../firmware/gd32f3x0_hal_peripheral/Source/gd32f3x0_hal_uart.c ****     }
 1849              		.loc 1 637 9
 1850 0204 7B68     		ldr	r3, [r7, #4]
 1851 0206 1B68     		ldr	r3, [r3]
 1852 0208 40F21621 		movw	r1, #534
 1853 020c 1846     		mov	r0, r3
 1854 020e FFF7FEFF 		bl	hals_uart_interrupt_disable
 1855              	.L97:
 1856              		.loc 1 639 1
 1857 0212 00BF     		nop
 1858 0214 0837     		adds	r7, r7, #8
 1859              		.cfi_def_cfa_offset 8
 1860 0216 BD46     		mov	sp, r7
 1861              		.cfi_def_cfa_register 13
 1862              		@ sp needed
 1863 0218 80BD     		pop	{r7, pc}
 1864              		.cfi_endproc
 1865              	.LFE123:
 1867              		.section	.text.hal_uart_irq_handle_all_reset,"ax",%progbits
 1868              		.align	1
 1869              		.global	hal_uart_irq_handle_all_reset
 1870              		.syntax unified
 1871              		.thumb
 1872              		.thumb_func
 1873              		.fpu softvfp
 1875              	hal_uart_irq_handle_all_reset:
 1876              	.LFB124:
 640:../firmware/gd32f3x0_hal_peripheral/Source/gd32f3x0_hal_uart.c **** 
 641:../firmware/gd32f3x0_hal_peripheral/Source/gd32f3x0_hal_uart.c **** /*!
 642:../firmware/gd32f3x0_hal_peripheral/Source/gd32f3x0_hal_uart.c ****     \brief      reset all user-defined interrupt callback function,
 643:../firmware/gd32f3x0_hal_peripheral/Source/gd32f3x0_hal_uart.c ****                 which will be registered and called when corresponding interrupt be triggered
 644:../firmware/gd32f3x0_hal_peripheral/Source/gd32f3x0_hal_uart.c ****     \param[in]  uart: uart device information structure
 645:../firmware/gd32f3x0_hal_peripheral/Source/gd32f3x0_hal_uart.c ****                     the structure is not necessary to be reconfigured after structrue initializatio
 646:../firmware/gd32f3x0_hal_peripheral/Source/gd32f3x0_hal_uart.c ****                     the structure parameters altering is automatically configured by core
 647:../firmware/gd32f3x0_hal_peripheral/Source/gd32f3x0_hal_uart.c ****     \param[out] none
 648:../firmware/gd32f3x0_hal_peripheral/Source/gd32f3x0_hal_uart.c ****     \retval     none
 649:../firmware/gd32f3x0_hal_peripheral/Source/gd32f3x0_hal_uart.c **** */
 650:../firmware/gd32f3x0_hal_peripheral/Source/gd32f3x0_hal_uart.c **** void hal_uart_irq_handle_all_reset(hal_uart_dev_struct *uart)
 651:../firmware/gd32f3x0_hal_peripheral/Source/gd32f3x0_hal_uart.c **** {
 1877              		.loc 1 651 1
 1878              		.cfi_startproc
 1879              		@ args = 0, pretend = 0, frame = 8
 1880              		@ frame_needed = 1, uses_anonymous_args = 0
 1881              		@ link register save eliminated.
 1882 0000 80B4     		push	{r7}
 1883              		.cfi_def_cfa_offset 4
 1884              		.cfi_offset 7, -4
 1885 0002 83B0     		sub	sp, sp, #12
 1886              		.cfi_def_cfa_offset 16
 1887 0004 00AF     		add	r7, sp, #0
 1888              		.cfi_def_cfa_register 7
 1889 0006 7860     		str	r0, [r7, #4]
 652:../firmware/gd32f3x0_hal_peripheral/Source/gd32f3x0_hal_uart.c ****     /* configure interrupt callback function to NULL */
 653:../firmware/gd32f3x0_hal_peripheral/Source/gd32f3x0_hal_uart.c ****     uart->uart_irq.address_match_handle         = NULL;
 1890              		.loc 1 653 49
 1891 0008 7B68     		ldr	r3, [r7, #4]
 1892 000a 0022     		movs	r2, #0
 1893 000c 1A62     		str	r2, [r3, #32]
 654:../firmware/gd32f3x0_hal_peripheral/Source/gd32f3x0_hal_uart.c ****     uart->uart_irq.cts_change_handle            = NULL;
 1894              		.loc 1 654 49
 1895 000e 7B68     		ldr	r3, [r7, #4]
 1896 0010 0022     		movs	r2, #0
 1897 0012 9A62     		str	r2, [r3, #40]
 655:../firmware/gd32f3x0_hal_peripheral/Source/gd32f3x0_hal_uart.c ****     uart->uart_irq.error_handle                 = NULL;
 1898              		.loc 1 655 49
 1899 0014 7B68     		ldr	r3, [r7, #4]
 1900 0016 0022     		movs	r2, #0
 1901 0018 5A61     		str	r2, [r3, #20]
 656:../firmware/gd32f3x0_hal_peripheral/Source/gd32f3x0_hal_uart.c ****     uart->uart_irq.idle_line_detected_handle    = NULL;
 1902              		.loc 1 656 49
 1903 001a 7B68     		ldr	r3, [r7, #4]
 1904 001c 0022     		movs	r2, #0
 1905 001e DA61     		str	r2, [r3, #28]
 657:../firmware/gd32f3x0_hal_peripheral/Source/gd32f3x0_hal_uart.c ****     uart->uart_irq.lin_break_detected_handle    = NULL;
 1906              		.loc 1 657 49
 1907 0020 7B68     		ldr	r3, [r7, #4]
 1908 0022 0022     		movs	r2, #0
 1909 0024 5A62     		str	r2, [r3, #36]
 658:../firmware/gd32f3x0_hal_peripheral/Source/gd32f3x0_hal_uart.c ****     uart->uart_irq.receive_complete_handle      = NULL;
 1910              		.loc 1 658 49
 1911 0026 7B68     		ldr	r3, [r7, #4]
 1912 0028 0022     		movs	r2, #0
 1913 002a 5A60     		str	r2, [r3, #4]
 659:../firmware/gd32f3x0_hal_peripheral/Source/gd32f3x0_hal_uart.c ****     uart->uart_irq.receive_timeout_handle      = NULL;
 1914              		.loc 1 659 48
 1915 002c 7B68     		ldr	r3, [r7, #4]
 1916 002e 0022     		movs	r2, #0
 1917 0030 9A60     		str	r2, [r3, #8]
 660:../firmware/gd32f3x0_hal_peripheral/Source/gd32f3x0_hal_uart.c ****     uart->uart_irq.transmit_complete_handle     = NULL;
 1918              		.loc 1 660 49
 1919 0032 7B68     		ldr	r3, [r7, #4]
 1920 0034 0022     		movs	r2, #0
 1921 0036 1A61     		str	r2, [r3, #16]
 661:../firmware/gd32f3x0_hal_peripheral/Source/gd32f3x0_hal_uart.c ****     uart->uart_irq.transmit_ready_handle        = NULL;
 1922              		.loc 1 661 49
 1923 0038 7B68     		ldr	r3, [r7, #4]
 1924 003a 0022     		movs	r2, #0
 1925 003c DA60     		str	r2, [r3, #12]
 662:../firmware/gd32f3x0_hal_peripheral/Source/gd32f3x0_hal_uart.c ****     uart->uart_irq.wakeup_handle                = NULL;
 1926              		.loc 1 662 49
 1927 003e 7B68     		ldr	r3, [r7, #4]
 1928 0040 0022     		movs	r2, #0
 1929 0042 9A61     		str	r2, [r3, #24]
 663:../firmware/gd32f3x0_hal_peripheral/Source/gd32f3x0_hal_uart.c **** }
 1930              		.loc 1 663 1
 1931 0044 00BF     		nop
 1932 0046 0C37     		adds	r7, r7, #12
 1933              		.cfi_def_cfa_offset 4
 1934 0048 BD46     		mov	sp, r7
 1935              		.cfi_def_cfa_register 13
 1936              		@ sp needed
 1937 004a 80BC     		pop	{r7}
 1938              		.cfi_restore 7
 1939              		.cfi_def_cfa_offset 0
 1940 004c 7047     		bx	lr
 1941              		.cfi_endproc
 1942              	.LFE124:
 1944              		.section	.text.hal_uart_transmit_poll,"ax",%progbits
 1945              		.align	1
 1946              		.global	hal_uart_transmit_poll
 1947              		.syntax unified
 1948              		.thumb
 1949              		.thumb_func
 1950              		.fpu softvfp
 1952              	hal_uart_transmit_poll:
 1953              	.LFB125:
 664:../firmware/gd32f3x0_hal_peripheral/Source/gd32f3x0_hal_uart.c **** 
 665:../firmware/gd32f3x0_hal_peripheral/Source/gd32f3x0_hal_uart.c **** /*!
 666:../firmware/gd32f3x0_hal_peripheral/Source/gd32f3x0_hal_uart.c ****     \brief      transmit amounts of data, poll transmit process and completed status
 667:../firmware/gd32f3x0_hal_peripheral/Source/gd32f3x0_hal_uart.c ****                 the function is blocking
 668:../firmware/gd32f3x0_hal_peripheral/Source/gd32f3x0_hal_uart.c ****     \param[in]  uart: uart device information structure
 669:../firmware/gd32f3x0_hal_peripheral/Source/gd32f3x0_hal_uart.c ****                     the structure is not necessary to be reconfigured after structrue initializatio
 670:../firmware/gd32f3x0_hal_peripheral/Source/gd32f3x0_hal_uart.c ****                     the structure parameters altering is automatically configured by core
 671:../firmware/gd32f3x0_hal_peripheral/Source/gd32f3x0_hal_uart.c ****     \param[in]  p_buffer: pointer to data buffer
 672:../firmware/gd32f3x0_hal_peripheral/Source/gd32f3x0_hal_uart.c ****     \param[in]  length: number of data to be transmitted
 673:../firmware/gd32f3x0_hal_peripheral/Source/gd32f3x0_hal_uart.c ****     \param[in]  timeout_ms: timeout duration
 674:../firmware/gd32f3x0_hal_peripheral/Source/gd32f3x0_hal_uart.c ****     \param[out] none
 675:../firmware/gd32f3x0_hal_peripheral/Source/gd32f3x0_hal_uart.c ****     \retval     error code: HAL_ERR_NONE, HAL_ERR_ADDRESS, HAL_ERR_VAL, HAL_ERR_BUSY, HAL_ERR_TIMEO
 676:../firmware/gd32f3x0_hal_peripheral/Source/gd32f3x0_hal_uart.c **** */
 677:../firmware/gd32f3x0_hal_peripheral/Source/gd32f3x0_hal_uart.c **** int32_t hal_uart_transmit_poll(hal_uart_dev_struct *uart, uint8_t *p_buffer, uint32_t length, uint3
 678:../firmware/gd32f3x0_hal_peripheral/Source/gd32f3x0_hal_uart.c **** {
 1954              		.loc 1 678 1
 1955              		.cfi_startproc
 1956              		@ args = 0, pretend = 0, frame = 24
 1957              		@ frame_needed = 1, uses_anonymous_args = 0
 1958 0000 80B5     		push	{r7, lr}
 1959              		.cfi_def_cfa_offset 8
 1960              		.cfi_offset 7, -8
 1961              		.cfi_offset 14, -4
 1962 0002 86B0     		sub	sp, sp, #24
 1963              		.cfi_def_cfa_offset 32
 1964 0004 00AF     		add	r7, sp, #0
 1965              		.cfi_def_cfa_register 7
 1966 0006 F860     		str	r0, [r7, #12]
 1967 0008 B960     		str	r1, [r7, #8]
 1968 000a 7A60     		str	r2, [r7, #4]
 1969 000c 3B60     		str	r3, [r7]
 679:../firmware/gd32f3x0_hal_peripheral/Source/gd32f3x0_hal_uart.c ****     uint8_t data_length;
 680:../firmware/gd32f3x0_hal_peripheral/Source/gd32f3x0_hal_uart.c ****     uint32_t tick_start;
 681:../firmware/gd32f3x0_hal_peripheral/Source/gd32f3x0_hal_uart.c **** 
 682:../firmware/gd32f3x0_hal_peripheral/Source/gd32f3x0_hal_uart.c **** #if (1 == HAL_PARAMETER_CHECK)
 683:../firmware/gd32f3x0_hal_peripheral/Source/gd32f3x0_hal_uart.c ****     /* check the parameters */
 684:../firmware/gd32f3x0_hal_peripheral/Source/gd32f3x0_hal_uart.c ****     if((NULL == uart) || (NULL == p_buffer) || (0U == length)) {
 685:../firmware/gd32f3x0_hal_peripheral/Source/gd32f3x0_hal_uart.c ****         HAL_DEBUGE("parameter [uart] or [p_buffer] or [length] value is invalid");
 686:../firmware/gd32f3x0_hal_peripheral/Source/gd32f3x0_hal_uart.c ****         return HAL_ERR_ADDRESS;
 687:../firmware/gd32f3x0_hal_peripheral/Source/gd32f3x0_hal_uart.c ****     }
 688:../firmware/gd32f3x0_hal_peripheral/Source/gd32f3x0_hal_uart.c **** #endif /* 1 == HAL_PARAMETER_CHECK */
 689:../firmware/gd32f3x0_hal_peripheral/Source/gd32f3x0_hal_uart.c **** 
 690:../firmware/gd32f3x0_hal_peripheral/Source/gd32f3x0_hal_uart.c ****     /* check the tx_state wheher is busy or not */
 691:../firmware/gd32f3x0_hal_peripheral/Source/gd32f3x0_hal_uart.c ****     if(UART_STATE_BUSY == uart->tx_state) {
 1970              		.loc 1 691 31
 1971 000e FB68     		ldr	r3, [r7, #12]
 1972 0010 93F85230 		ldrb	r3, [r3, #82]
 1973 0014 DBB2     		uxtb	r3, r3
 1974              		.loc 1 691 7
 1975 0016 012B     		cmp	r3, #1
 1976 0018 02D1     		bne	.L100
 692:../firmware/gd32f3x0_hal_peripheral/Source/gd32f3x0_hal_uart.c ****         HAL_DEBUGE("uart tx has already been used, please wait until run_state change to free ");
 693:../firmware/gd32f3x0_hal_peripheral/Source/gd32f3x0_hal_uart.c ****         return HAL_ERR_BUSY;
 1977              		.loc 1 693 16
 1978 001a 6FF00203 		mvn	r3, #2
 1979 001e ACE0     		b	.L101
 1980              	.L100:
 694:../firmware/gd32f3x0_hal_peripheral/Source/gd32f3x0_hal_uart.c ****     }
 695:../firmware/gd32f3x0_hal_peripheral/Source/gd32f3x0_hal_uart.c **** 
 696:../firmware/gd32f3x0_hal_peripheral/Source/gd32f3x0_hal_uart.c ****     /* lock uart */
 697:../firmware/gd32f3x0_hal_peripheral/Source/gd32f3x0_hal_uart.c ****     HAL_LOCK(uart);
 1981              		.loc 1 697 5
 1982 0020 FB68     		ldr	r3, [r7, #12]
 1983 0022 93F85C30 		ldrb	r3, [r3, #92]	@ zero_extendqisi2
 1984 0026 012B     		cmp	r3, #1
 1985 0028 02D1     		bne	.L102
 1986              		.loc 1 697 5 is_stmt 0 discriminator 1
 1987 002a 6FF00103 		mvn	r3, #1
 1988 002e A4E0     		b	.L101
 1989              	.L102:
 1990              		.loc 1 697 5 discriminator 2
 1991 0030 FB68     		ldr	r3, [r7, #12]
 1992 0032 0122     		movs	r2, #1
 1993 0034 83F85C20 		strb	r2, [r3, #92]
 698:../firmware/gd32f3x0_hal_peripheral/Source/gd32f3x0_hal_uart.c **** 
 699:../firmware/gd32f3x0_hal_peripheral/Source/gd32f3x0_hal_uart.c ****     /* initialize transmit parameters */
 700:../firmware/gd32f3x0_hal_peripheral/Source/gd32f3x0_hal_uart.c ****     uart->error_state       = HAL_UART_ERROR_NONE;
 1994              		.loc 1 700 29 is_stmt 1 discriminator 2
 1995 0038 FB68     		ldr	r3, [r7, #12]
 1996 003a 0022     		movs	r2, #0
 1997 003c A3F85020 		strh	r2, [r3, #80]	@ movhi
 701:../firmware/gd32f3x0_hal_peripheral/Source/gd32f3x0_hal_uart.c ****     uart->txbuffer.buffer   = (uint8_t *)p_buffer;
 1998              		.loc 1 701 29 discriminator 2
 1999 0040 FB68     		ldr	r3, [r7, #12]
 2000 0042 BA68     		ldr	r2, [r7, #8]
 2001 0044 5A63     		str	r2, [r3, #52]
 702:../firmware/gd32f3x0_hal_peripheral/Source/gd32f3x0_hal_uart.c ****     uart->txbuffer.length   = length;
 2002              		.loc 1 702 29 discriminator 2
 2003 0046 FB68     		ldr	r3, [r7, #12]
 2004 0048 7A68     		ldr	r2, [r7, #4]
 2005 004a 9A63     		str	r2, [r3, #56]
 703:../firmware/gd32f3x0_hal_peripheral/Source/gd32f3x0_hal_uart.c ****     uart->txbuffer.pos      = 0U;
 2006              		.loc 1 703 29 discriminator 2
 2007 004c FB68     		ldr	r3, [r7, #12]
 2008 004e 0022     		movs	r2, #0
 2009 0050 DA63     		str	r2, [r3, #60]
 704:../firmware/gd32f3x0_hal_peripheral/Source/gd32f3x0_hal_uart.c ****     uart->tx_state          = UART_STATE_BUSY;
 2010              		.loc 1 704 29 discriminator 2
 2011 0052 FB68     		ldr	r3, [r7, #12]
 2012 0054 0122     		movs	r2, #1
 2013 0056 83F85220 		strb	r2, [r3, #82]
 705:../firmware/gd32f3x0_hal_peripheral/Source/gd32f3x0_hal_uart.c **** 
 706:../firmware/gd32f3x0_hal_peripheral/Source/gd32f3x0_hal_uart.c ****     /* calculate the data length */
 707:../firmware/gd32f3x0_hal_peripheral/Source/gd32f3x0_hal_uart.c ****     data_length = 1U;
 2014              		.loc 1 707 17 discriminator 2
 2015 005a 0123     		movs	r3, #1
 2016 005c FB75     		strb	r3, [r7, #23]
 708:../firmware/gd32f3x0_hal_peripheral/Source/gd32f3x0_hal_uart.c ****     if(RESET != (USART_CTL0(uart->periph) & USART_CTL0_WL)) {
 2017              		.loc 1 708 18 discriminator 2
 2018 005e FB68     		ldr	r3, [r7, #12]
 2019 0060 1B68     		ldr	r3, [r3]
 2020 0062 1B68     		ldr	r3, [r3]
 2021              		.loc 1 708 43 discriminator 2
 2022 0064 03F48053 		and	r3, r3, #4096
 2023              		.loc 1 708 7 discriminator 2
 2024 0068 002B     		cmp	r3, #0
 2025 006a 08D0     		beq	.L103
 709:../firmware/gd32f3x0_hal_peripheral/Source/gd32f3x0_hal_uart.c ****         if(RESET == (USART_CTL0(uart->periph) & USART_CTL0_PCEN)) {
 2026              		.loc 1 709 22
 2027 006c FB68     		ldr	r3, [r7, #12]
 2028 006e 1B68     		ldr	r3, [r3]
 2029 0070 1B68     		ldr	r3, [r3]
 2030              		.loc 1 709 47
 2031 0072 03F48063 		and	r3, r3, #1024
 2032              		.loc 1 709 11
 2033 0076 002B     		cmp	r3, #0
 2034 0078 01D1     		bne	.L103
 710:../firmware/gd32f3x0_hal_peripheral/Source/gd32f3x0_hal_uart.c ****             data_length = 2U;
 2035              		.loc 1 710 25
 2036 007a 0223     		movs	r3, #2
 2037 007c FB75     		strb	r3, [r7, #23]
 2038              	.L103:
 711:../firmware/gd32f3x0_hal_peripheral/Source/gd32f3x0_hal_uart.c ****         }
 712:../firmware/gd32f3x0_hal_peripheral/Source/gd32f3x0_hal_uart.c ****     }
 713:../firmware/gd32f3x0_hal_peripheral/Source/gd32f3x0_hal_uart.c **** 
 714:../firmware/gd32f3x0_hal_peripheral/Source/gd32f3x0_hal_uart.c ****     /* configure timeout */
 715:../firmware/gd32f3x0_hal_peripheral/Source/gd32f3x0_hal_uart.c ****     tick_start = hal_sys_basetick_count_get();
 2039              		.loc 1 715 18
 2040 007e FFF7FEFF 		bl	hal_sys_basetick_count_get
 2041 0082 3861     		str	r0, [r7, #16]
 716:../firmware/gd32f3x0_hal_peripheral/Source/gd32f3x0_hal_uart.c **** 
 717:../firmware/gd32f3x0_hal_peripheral/Source/gd32f3x0_hal_uart.c ****     while(uart->txbuffer.pos < uart->txbuffer.length) {
 2042              		.loc 1 717 10
 2043 0084 49E0     		b	.L104
 2044              	.L106:
 718:../firmware/gd32f3x0_hal_peripheral/Source/gd32f3x0_hal_uart.c ****         /* wait for transmit buffer empty */
 719:../firmware/gd32f3x0_hal_peripheral/Source/gd32f3x0_hal_uart.c ****         while(RESET == hals_uart_flag_get(uart->periph, USART_FLAG_TBE)) {
 720:../firmware/gd32f3x0_hal_peripheral/Source/gd32f3x0_hal_uart.c ****             if(HAL_TIMEOUT_FOREVER != timeout_ms) {
 2045              		.loc 1 720 15
 2046 0086 3B68     		ldr	r3, [r7]
 2047 0088 B3F1FF3F 		cmp	r3, #-1
 2048 008c 11D0     		beq	.L105
 721:../firmware/gd32f3x0_hal_peripheral/Source/gd32f3x0_hal_uart.c ****                 if(SET == hal_sys_basetick_timeout_check(tick_start, timeout_ms)) {
 2049              		.loc 1 721 27
 2050 008e 3968     		ldr	r1, [r7]
 2051 0090 3869     		ldr	r0, [r7, #16]
 2052 0092 FFF7FEFF 		bl	hal_sys_basetick_timeout_check
 2053 0096 0346     		mov	r3, r0
 2054              		.loc 1 721 19
 2055 0098 012B     		cmp	r3, #1
 2056 009a 0AD1     		bne	.L105
 722:../firmware/gd32f3x0_hal_peripheral/Source/gd32f3x0_hal_uart.c ****                     HAL_DEBUGW("uart transmit timeout");
 723:../firmware/gd32f3x0_hal_peripheral/Source/gd32f3x0_hal_uart.c ****                     /* reset the state */
 724:../firmware/gd32f3x0_hal_peripheral/Source/gd32f3x0_hal_uart.c ****                     uart->rx_state = UART_STATE_FREE;
 2057              		.loc 1 724 36
 2058 009c FB68     		ldr	r3, [r7, #12]
 2059 009e 0022     		movs	r2, #0
 2060 00a0 83F85320 		strb	r2, [r3, #83]
 725:../firmware/gd32f3x0_hal_peripheral/Source/gd32f3x0_hal_uart.c ****                     /* unlock uart */
 726:../firmware/gd32f3x0_hal_peripheral/Source/gd32f3x0_hal_uart.c ****                     HAL_UNLOCK(uart);
 2061              		.loc 1 726 21
 2062 00a4 FB68     		ldr	r3, [r7, #12]
 2063 00a6 0022     		movs	r2, #0
 2064 00a8 83F85C20 		strb	r2, [r3, #92]
 727:../firmware/gd32f3x0_hal_peripheral/Source/gd32f3x0_hal_uart.c ****                     return HAL_ERR_TIMEOUT;
 2065              		.loc 1 727 28
 2066 00ac 6FF00403 		mvn	r3, #4
 2067 00b0 63E0     		b	.L101
 2068              	.L105:
 719:../firmware/gd32f3x0_hal_peripheral/Source/gd32f3x0_hal_uart.c ****             if(HAL_TIMEOUT_FOREVER != timeout_ms) {
 2069              		.loc 1 719 24
 2070 00b2 FB68     		ldr	r3, [r7, #12]
 2071 00b4 1B68     		ldr	r3, [r3]
 2072 00b6 40F20771 		movw	r1, #1799
 2073 00ba 1846     		mov	r0, r3
 2074 00bc FFF7FEFF 		bl	hals_uart_flag_get
 2075 00c0 0346     		mov	r3, r0
 719:../firmware/gd32f3x0_hal_peripheral/Source/gd32f3x0_hal_uart.c ****             if(HAL_TIMEOUT_FOREVER != timeout_ms) {
 2076              		.loc 1 719 14
 2077 00c2 002B     		cmp	r3, #0
 2078 00c4 DFD0     		beq	.L106
 728:../firmware/gd32f3x0_hal_peripheral/Source/gd32f3x0_hal_uart.c ****                 }
 729:../firmware/gd32f3x0_hal_peripheral/Source/gd32f3x0_hal_uart.c ****             }
 730:../firmware/gd32f3x0_hal_peripheral/Source/gd32f3x0_hal_uart.c ****         }
 731:../firmware/gd32f3x0_hal_peripheral/Source/gd32f3x0_hal_uart.c **** 
 732:../firmware/gd32f3x0_hal_peripheral/Source/gd32f3x0_hal_uart.c ****         /* send data: in case of 9bit&no parity, uint16_t data will be transmitted */
 733:../firmware/gd32f3x0_hal_peripheral/Source/gd32f3x0_hal_uart.c ****         if(2U == data_length) {
 2079              		.loc 1 733 11
 2080 00c6 FB7D     		ldrb	r3, [r7, #23]	@ zero_extendqisi2
 2081 00c8 022B     		cmp	r3, #2
 2082 00ca 11D1     		bne	.L107
 734:../firmware/gd32f3x0_hal_peripheral/Source/gd32f3x0_hal_uart.c ****             hals_uart_data_transmit(uart->periph, (*(uint16_t *)uart->txbuffer.buffer & (uint16_t)0
 2083              		.loc 1 734 13
 2084 00cc FB68     		ldr	r3, [r7, #12]
 2085 00ce 1A68     		ldr	r2, [r3]
 2086              		.loc 1 734 79
 2087 00d0 FB68     		ldr	r3, [r7, #12]
 2088 00d2 5B6B     		ldr	r3, [r3, #52]
 2089              		.loc 1 734 52
 2090 00d4 1B88     		ldrh	r3, [r3]
 2091              		.loc 1 734 13
 2092 00d6 C3F30803 		ubfx	r3, r3, #0, #9
 2093 00da 9BB2     		uxth	r3, r3
 2094 00dc 1946     		mov	r1, r3
 2095 00de 1046     		mov	r0, r2
 2096 00e0 FFF7FEFF 		bl	hals_uart_data_transmit
 735:../firmware/gd32f3x0_hal_peripheral/Source/gd32f3x0_hal_uart.c ****             uart->txbuffer.buffer += 2;
 2097              		.loc 1 735 35
 2098 00e4 FB68     		ldr	r3, [r7, #12]
 2099 00e6 5B6B     		ldr	r3, [r3, #52]
 2100 00e8 9A1C     		adds	r2, r3, #2
 2101 00ea FB68     		ldr	r3, [r7, #12]
 2102 00ec 5A63     		str	r2, [r3, #52]
 2103 00ee 0FE0     		b	.L108
 2104              	.L107:
 736:../firmware/gd32f3x0_hal_peripheral/Source/gd32f3x0_hal_uart.c ****         } else {
 737:../firmware/gd32f3x0_hal_peripheral/Source/gd32f3x0_hal_uart.c ****             hals_uart_data_transmit(uart->periph, (*uart->txbuffer.buffer & (uint8_t)0xFFU));
 2105              		.loc 1 737 13
 2106 00f0 FB68     		ldr	r3, [r7, #12]
 2107 00f2 1A68     		ldr	r2, [r3]
 2108              		.loc 1 737 67
 2109 00f4 FB68     		ldr	r3, [r7, #12]
 2110 00f6 5B6B     		ldr	r3, [r3, #52]
 2111              		.loc 1 737 52
 2112 00f8 1B78     		ldrb	r3, [r3]
 2113 00fa DBB2     		uxtb	r3, r3
 2114              		.loc 1 737 13
 2115 00fc 9BB2     		uxth	r3, r3
 2116 00fe 1946     		mov	r1, r3
 2117 0100 1046     		mov	r0, r2
 2118 0102 FFF7FEFF 		bl	hals_uart_data_transmit
 738:../firmware/gd32f3x0_hal_peripheral/Source/gd32f3x0_hal_uart.c ****             uart->txbuffer.buffer++;
 2119              		.loc 1 738 27
 2120 0106 FB68     		ldr	r3, [r7, #12]
 2121 0108 5B6B     		ldr	r3, [r3, #52]
 2122              		.loc 1 738 34
 2123 010a 5A1C     		adds	r2, r3, #1
 2124 010c FB68     		ldr	r3, [r7, #12]
 2125 010e 5A63     		str	r2, [r3, #52]
 2126              	.L108:
 739:../firmware/gd32f3x0_hal_peripheral/Source/gd32f3x0_hal_uart.c ****         }
 740:../firmware/gd32f3x0_hal_peripheral/Source/gd32f3x0_hal_uart.c ****         /* change the transmit pointer */
 741:../firmware/gd32f3x0_hal_peripheral/Source/gd32f3x0_hal_uart.c ****         uart->txbuffer.pos++;
 2127              		.loc 1 741 23
 2128 0110 FB68     		ldr	r3, [r7, #12]
 2129 0112 DB6B     		ldr	r3, [r3, #60]
 2130              		.loc 1 741 27
 2131 0114 5A1C     		adds	r2, r3, #1
 2132 0116 FB68     		ldr	r3, [r7, #12]
 2133 0118 DA63     		str	r2, [r3, #60]
 2134              	.L104:
 717:../firmware/gd32f3x0_hal_peripheral/Source/gd32f3x0_hal_uart.c ****         /* wait for transmit buffer empty */
 2135              		.loc 1 717 25
 2136 011a FB68     		ldr	r3, [r7, #12]
 2137 011c DA6B     		ldr	r2, [r3, #60]
 717:../firmware/gd32f3x0_hal_peripheral/Source/gd32f3x0_hal_uart.c ****         /* wait for transmit buffer empty */
 2138              		.loc 1 717 46
 2139 011e FB68     		ldr	r3, [r7, #12]
 2140 0120 9B6B     		ldr	r3, [r3, #56]
 717:../firmware/gd32f3x0_hal_peripheral/Source/gd32f3x0_hal_uart.c ****         /* wait for transmit buffer empty */
 2141              		.loc 1 717 10
 2142 0122 9A42     		cmp	r2, r3
 2143 0124 C5D3     		bcc	.L105
 742:../firmware/gd32f3x0_hal_peripheral/Source/gd32f3x0_hal_uart.c ****     }
 743:../firmware/gd32f3x0_hal_peripheral/Source/gd32f3x0_hal_uart.c **** 
 744:../firmware/gd32f3x0_hal_peripheral/Source/gd32f3x0_hal_uart.c ****     /* wait for transmit complete */
 745:../firmware/gd32f3x0_hal_peripheral/Source/gd32f3x0_hal_uart.c ****     while(RESET == hals_uart_flag_get(uart->periph, USART_FLAG_TC)) {
 2144              		.loc 1 745 10
 2145 0126 15E0     		b	.L110
 2146              	.L111:
 746:../firmware/gd32f3x0_hal_peripheral/Source/gd32f3x0_hal_uart.c ****         if(HAL_TIMEOUT_FOREVER != timeout_ms) {
 2147              		.loc 1 746 11
 2148 0128 3B68     		ldr	r3, [r7]
 2149 012a B3F1FF3F 		cmp	r3, #-1
 2150 012e 11D0     		beq	.L110
 747:../firmware/gd32f3x0_hal_peripheral/Source/gd32f3x0_hal_uart.c ****             if(SET == hal_sys_basetick_timeout_check(tick_start, timeout_ms)) {
 2151              		.loc 1 747 23
 2152 0130 3968     		ldr	r1, [r7]
 2153 0132 3869     		ldr	r0, [r7, #16]
 2154 0134 FFF7FEFF 		bl	hal_sys_basetick_timeout_check
 2155 0138 0346     		mov	r3, r0
 2156              		.loc 1 747 15
 2157 013a 012B     		cmp	r3, #1
 2158 013c 0AD1     		bne	.L110
 748:../firmware/gd32f3x0_hal_peripheral/Source/gd32f3x0_hal_uart.c ****                 HAL_DEBUGW("uart transmit timeout");
 749:../firmware/gd32f3x0_hal_peripheral/Source/gd32f3x0_hal_uart.c ****                 /* reset the state */
 750:../firmware/gd32f3x0_hal_peripheral/Source/gd32f3x0_hal_uart.c ****                 uart->rx_state = UART_STATE_FREE;
 2159              		.loc 1 750 32
 2160 013e FB68     		ldr	r3, [r7, #12]
 2161 0140 0022     		movs	r2, #0
 2162 0142 83F85320 		strb	r2, [r3, #83]
 751:../firmware/gd32f3x0_hal_peripheral/Source/gd32f3x0_hal_uart.c ****                 /* unlock uart */
 752:../firmware/gd32f3x0_hal_peripheral/Source/gd32f3x0_hal_uart.c ****                 HAL_UNLOCK(uart);
 2163              		.loc 1 752 17
 2164 0146 FB68     		ldr	r3, [r7, #12]
 2165 0148 0022     		movs	r2, #0
 2166 014a 83F85C20 		strb	r2, [r3, #92]
 753:../firmware/gd32f3x0_hal_peripheral/Source/gd32f3x0_hal_uart.c ****                 return HAL_ERR_TIMEOUT;
 2167              		.loc 1 753 24
 2168 014e 6FF00403 		mvn	r3, #4
 2169 0152 12E0     		b	.L101
 2170              	.L110:
 745:../firmware/gd32f3x0_hal_peripheral/Source/gd32f3x0_hal_uart.c ****         if(HAL_TIMEOUT_FOREVER != timeout_ms) {
 2171              		.loc 1 745 20
 2172 0154 FB68     		ldr	r3, [r7, #12]
 2173 0156 1B68     		ldr	r3, [r3]
 2174 0158 40F20671 		movw	r1, #1798
 2175 015c 1846     		mov	r0, r3
 2176 015e FFF7FEFF 		bl	hals_uart_flag_get
 2177 0162 0346     		mov	r3, r0
 745:../firmware/gd32f3x0_hal_peripheral/Source/gd32f3x0_hal_uart.c ****         if(HAL_TIMEOUT_FOREVER != timeout_ms) {
 2178              		.loc 1 745 10
 2179 0164 002B     		cmp	r3, #0
 2180 0166 DFD0     		beq	.L111
 754:../firmware/gd32f3x0_hal_peripheral/Source/gd32f3x0_hal_uart.c ****             }
 755:../firmware/gd32f3x0_hal_peripheral/Source/gd32f3x0_hal_uart.c ****         }
 756:../firmware/gd32f3x0_hal_peripheral/Source/gd32f3x0_hal_uart.c ****     }
 757:../firmware/gd32f3x0_hal_peripheral/Source/gd32f3x0_hal_uart.c **** 
 758:../firmware/gd32f3x0_hal_peripheral/Source/gd32f3x0_hal_uart.c ****     /* change the Tx state to free */
 759:../firmware/gd32f3x0_hal_peripheral/Source/gd32f3x0_hal_uart.c ****     uart->tx_state = UART_STATE_FREE;
 2181              		.loc 1 759 20
 2182 0168 FB68     		ldr	r3, [r7, #12]
 2183 016a 0022     		movs	r2, #0
 2184 016c 83F85220 		strb	r2, [r3, #82]
 760:../firmware/gd32f3x0_hal_peripheral/Source/gd32f3x0_hal_uart.c **** 
 761:../firmware/gd32f3x0_hal_peripheral/Source/gd32f3x0_hal_uart.c ****     /* unlock uart */
 762:../firmware/gd32f3x0_hal_peripheral/Source/gd32f3x0_hal_uart.c ****     HAL_UNLOCK(uart);
 2185              		.loc 1 762 5
 2186 0170 FB68     		ldr	r3, [r7, #12]
 2187 0172 0022     		movs	r2, #0
 2188 0174 83F85C20 		strb	r2, [r3, #92]
 763:../firmware/gd32f3x0_hal_peripheral/Source/gd32f3x0_hal_uart.c **** 
 764:../firmware/gd32f3x0_hal_peripheral/Source/gd32f3x0_hal_uart.c ****     return HAL_ERR_NONE;
 2189              		.loc 1 764 12
 2190 0178 0023     		movs	r3, #0
 2191              	.L101:
 765:../firmware/gd32f3x0_hal_peripheral/Source/gd32f3x0_hal_uart.c **** }
 2192              		.loc 1 765 1
 2193 017a 1846     		mov	r0, r3
 2194 017c 1837     		adds	r7, r7, #24
 2195              		.cfi_def_cfa_offset 8
 2196 017e BD46     		mov	sp, r7
 2197              		.cfi_def_cfa_register 13
 2198              		@ sp needed
 2199 0180 80BD     		pop	{r7, pc}
 2200              		.cfi_endproc
 2201              	.LFE125:
 2203              		.section	.text.hal_uart_receive_poll,"ax",%progbits
 2204              		.align	1
 2205              		.global	hal_uart_receive_poll
 2206              		.syntax unified
 2207              		.thumb
 2208              		.thumb_func
 2209              		.fpu softvfp
 2211              	hal_uart_receive_poll:
 2212              	.LFB126:
 766:../firmware/gd32f3x0_hal_peripheral/Source/gd32f3x0_hal_uart.c **** 
 767:../firmware/gd32f3x0_hal_peripheral/Source/gd32f3x0_hal_uart.c **** /*!
 768:../firmware/gd32f3x0_hal_peripheral/Source/gd32f3x0_hal_uart.c ****     \brief      receive amounts of data, poll receive process and completed status
 769:../firmware/gd32f3x0_hal_peripheral/Source/gd32f3x0_hal_uart.c ****                 the function is blocking
 770:../firmware/gd32f3x0_hal_peripheral/Source/gd32f3x0_hal_uart.c ****     \param[in]  uart: uart device information structure
 771:../firmware/gd32f3x0_hal_peripheral/Source/gd32f3x0_hal_uart.c ****                     the structure is not necessary to be reconfigured after structrue initializatio
 772:../firmware/gd32f3x0_hal_peripheral/Source/gd32f3x0_hal_uart.c ****                     the structure parameters altering is automatically configured by core
 773:../firmware/gd32f3x0_hal_peripheral/Source/gd32f3x0_hal_uart.c ****     \param[in]  p_buffer: pointer to data buffer
 774:../firmware/gd32f3x0_hal_peripheral/Source/gd32f3x0_hal_uart.c ****     \param[in]  length: number of data to be received
 775:../firmware/gd32f3x0_hal_peripheral/Source/gd32f3x0_hal_uart.c ****     \param[in]  timeout_ms: timeout duration
 776:../firmware/gd32f3x0_hal_peripheral/Source/gd32f3x0_hal_uart.c ****     \param[out] none
 777:../firmware/gd32f3x0_hal_peripheral/Source/gd32f3x0_hal_uart.c ****     \retval     error code: HAL_ERR_NONE, HAL_ERR_ADDRESS, HAL_ERR_VAL, HAL_ERR_BUSY, HAL_ERR_TIMEO
 778:../firmware/gd32f3x0_hal_peripheral/Source/gd32f3x0_hal_uart.c **** */
 779:../firmware/gd32f3x0_hal_peripheral/Source/gd32f3x0_hal_uart.c **** int32_t hal_uart_receive_poll(hal_uart_dev_struct *uart, uint8_t *p_buffer, uint32_t length, uint32
 780:../firmware/gd32f3x0_hal_peripheral/Source/gd32f3x0_hal_uart.c **** {
 2213              		.loc 1 780 1
 2214              		.cfi_startproc
 2215              		@ args = 0, pretend = 0, frame = 24
 2216              		@ frame_needed = 1, uses_anonymous_args = 0
 2217 0000 80B5     		push	{r7, lr}
 2218              		.cfi_def_cfa_offset 8
 2219              		.cfi_offset 7, -8
 2220              		.cfi_offset 14, -4
 2221 0002 86B0     		sub	sp, sp, #24
 2222              		.cfi_def_cfa_offset 32
 2223 0004 00AF     		add	r7, sp, #0
 2224              		.cfi_def_cfa_register 7
 2225 0006 F860     		str	r0, [r7, #12]
 2226 0008 B960     		str	r1, [r7, #8]
 2227 000a 7A60     		str	r2, [r7, #4]
 2228 000c 3B60     		str	r3, [r7]
 781:../firmware/gd32f3x0_hal_peripheral/Source/gd32f3x0_hal_uart.c ****     uint8_t data_length;
 782:../firmware/gd32f3x0_hal_peripheral/Source/gd32f3x0_hal_uart.c ****     uint32_t tick_start;
 783:../firmware/gd32f3x0_hal_peripheral/Source/gd32f3x0_hal_uart.c **** 
 784:../firmware/gd32f3x0_hal_peripheral/Source/gd32f3x0_hal_uart.c **** #if (1 == HAL_PARAMETER_CHECK)
 785:../firmware/gd32f3x0_hal_peripheral/Source/gd32f3x0_hal_uart.c ****     /* check the parameters */
 786:../firmware/gd32f3x0_hal_peripheral/Source/gd32f3x0_hal_uart.c ****     if((NULL == uart) || (NULL == p_buffer) || (0U == length)) {
 787:../firmware/gd32f3x0_hal_peripheral/Source/gd32f3x0_hal_uart.c ****         HAL_DEBUGE("parameter [uart] or [p_buffer] or [length] value is invalid");
 788:../firmware/gd32f3x0_hal_peripheral/Source/gd32f3x0_hal_uart.c ****         return HAL_ERR_ADDRESS;
 789:../firmware/gd32f3x0_hal_peripheral/Source/gd32f3x0_hal_uart.c ****     }
 790:../firmware/gd32f3x0_hal_peripheral/Source/gd32f3x0_hal_uart.c **** #endif /* 1 == HAL_PARAMETER_CHECK */
 791:../firmware/gd32f3x0_hal_peripheral/Source/gd32f3x0_hal_uart.c **** 
 792:../firmware/gd32f3x0_hal_peripheral/Source/gd32f3x0_hal_uart.c ****     /* check the rx_state wheher is busy or not */
 793:../firmware/gd32f3x0_hal_peripheral/Source/gd32f3x0_hal_uart.c ****     if(UART_STATE_BUSY == uart->rx_state) {
 2229              		.loc 1 793 31
 2230 000e FB68     		ldr	r3, [r7, #12]
 2231 0010 93F85330 		ldrb	r3, [r3, #83]
 2232 0014 DBB2     		uxtb	r3, r3
 2233              		.loc 1 793 7
 2234 0016 012B     		cmp	r3, #1
 2235 0018 02D1     		bne	.L113
 794:../firmware/gd32f3x0_hal_peripheral/Source/gd32f3x0_hal_uart.c ****         HAL_DEBUGE("uart rx has already been used, please wait until run_state change to free ");
 795:../firmware/gd32f3x0_hal_peripheral/Source/gd32f3x0_hal_uart.c ****         return HAL_ERR_BUSY;
 2236              		.loc 1 795 16
 2237 001a 6FF00203 		mvn	r3, #2
 2238 001e 9BE0     		b	.L114
 2239              	.L113:
 796:../firmware/gd32f3x0_hal_peripheral/Source/gd32f3x0_hal_uart.c ****     }
 797:../firmware/gd32f3x0_hal_peripheral/Source/gd32f3x0_hal_uart.c **** 
 798:../firmware/gd32f3x0_hal_peripheral/Source/gd32f3x0_hal_uart.c ****     /* lock uart */
 799:../firmware/gd32f3x0_hal_peripheral/Source/gd32f3x0_hal_uart.c ****     HAL_LOCK(uart);
 2240              		.loc 1 799 5
 2241 0020 FB68     		ldr	r3, [r7, #12]
 2242 0022 93F85C30 		ldrb	r3, [r3, #92]	@ zero_extendqisi2
 2243 0026 012B     		cmp	r3, #1
 2244 0028 02D1     		bne	.L115
 2245              		.loc 1 799 5 is_stmt 0 discriminator 1
 2246 002a 6FF00103 		mvn	r3, #1
 2247 002e 93E0     		b	.L114
 2248              	.L115:
 2249              		.loc 1 799 5 discriminator 2
 2250 0030 FB68     		ldr	r3, [r7, #12]
 2251 0032 0122     		movs	r2, #1
 2252 0034 83F85C20 		strb	r2, [r3, #92]
 800:../firmware/gd32f3x0_hal_peripheral/Source/gd32f3x0_hal_uart.c **** 
 801:../firmware/gd32f3x0_hal_peripheral/Source/gd32f3x0_hal_uart.c ****     uart->error_state       = HAL_UART_ERROR_NONE;
 2253              		.loc 1 801 29 is_stmt 1 discriminator 2
 2254 0038 FB68     		ldr	r3, [r7, #12]
 2255 003a 0022     		movs	r2, #0
 2256 003c A3F85020 		strh	r2, [r3, #80]	@ movhi
 802:../firmware/gd32f3x0_hal_peripheral/Source/gd32f3x0_hal_uart.c ****     uart->rx_state          = UART_STATE_BUSY;
 2257              		.loc 1 802 29 discriminator 2
 2258 0040 FB68     		ldr	r3, [r7, #12]
 2259 0042 0122     		movs	r2, #1
 2260 0044 83F85320 		strb	r2, [r3, #83]
 803:../firmware/gd32f3x0_hal_peripheral/Source/gd32f3x0_hal_uart.c **** 
 804:../firmware/gd32f3x0_hal_peripheral/Source/gd32f3x0_hal_uart.c ****     /* initialize receive parameters */
 805:../firmware/gd32f3x0_hal_peripheral/Source/gd32f3x0_hal_uart.c ****     uart->rxbuffer.buffer   = (uint8_t *)p_buffer;
 2261              		.loc 1 805 29 discriminator 2
 2262 0048 FB68     		ldr	r3, [r7, #12]
 2263 004a BA68     		ldr	r2, [r7, #8]
 2264 004c 1A64     		str	r2, [r3, #64]
 806:../firmware/gd32f3x0_hal_peripheral/Source/gd32f3x0_hal_uart.c ****     uart->rxbuffer.length   = length;
 2265              		.loc 1 806 29 discriminator 2
 2266 004e FB68     		ldr	r3, [r7, #12]
 2267 0050 7A68     		ldr	r2, [r7, #4]
 2268 0052 5A64     		str	r2, [r3, #68]
 807:../firmware/gd32f3x0_hal_peripheral/Source/gd32f3x0_hal_uart.c ****     uart->rxbuffer.pos      = 0U;
 2269              		.loc 1 807 29 discriminator 2
 2270 0054 FB68     		ldr	r3, [r7, #12]
 2271 0056 0022     		movs	r2, #0
 2272 0058 9A64     		str	r2, [r3, #72]
 808:../firmware/gd32f3x0_hal_peripheral/Source/gd32f3x0_hal_uart.c ****     uart->data_bit_mask     = _uart_data_bit_mask_get(uart);
 2273              		.loc 1 808 31 discriminator 2
 2274 005a F868     		ldr	r0, [r7, #12]
 2275 005c FFF7FEFF 		bl	_uart_data_bit_mask_get
 2276 0060 0346     		mov	r3, r0
 2277 0062 1A46     		mov	r2, r3
 2278              		.loc 1 808 29 discriminator 2
 2279 0064 FB68     		ldr	r3, [r7, #12]
 2280 0066 A3F84C20 		strh	r2, [r3, #76]	@ movhi
 809:../firmware/gd32f3x0_hal_peripheral/Source/gd32f3x0_hal_uart.c **** 
 810:../firmware/gd32f3x0_hal_peripheral/Source/gd32f3x0_hal_uart.c ****     /* calculate the data length */
 811:../firmware/gd32f3x0_hal_peripheral/Source/gd32f3x0_hal_uart.c ****     data_length = 1U;
 2281              		.loc 1 811 17 discriminator 2
 2282 006a 0123     		movs	r3, #1
 2283 006c FB75     		strb	r3, [r7, #23]
 812:../firmware/gd32f3x0_hal_peripheral/Source/gd32f3x0_hal_uart.c ****     if(RESET != (USART_CTL0(uart->periph) & USART_CTL0_WL)) {
 2284              		.loc 1 812 18 discriminator 2
 2285 006e FB68     		ldr	r3, [r7, #12]
 2286 0070 1B68     		ldr	r3, [r3]
 2287 0072 1B68     		ldr	r3, [r3]
 2288              		.loc 1 812 43 discriminator 2
 2289 0074 03F48053 		and	r3, r3, #4096
 2290              		.loc 1 812 7 discriminator 2
 2291 0078 002B     		cmp	r3, #0
 2292 007a 08D0     		beq	.L116
 813:../firmware/gd32f3x0_hal_peripheral/Source/gd32f3x0_hal_uart.c ****         if(RESET == (USART_CTL0(uart->periph) & USART_CTL0_PCEN)) {
 2293              		.loc 1 813 22
 2294 007c FB68     		ldr	r3, [r7, #12]
 2295 007e 1B68     		ldr	r3, [r3]
 2296 0080 1B68     		ldr	r3, [r3]
 2297              		.loc 1 813 47
 2298 0082 03F48063 		and	r3, r3, #1024
 2299              		.loc 1 813 11
 2300 0086 002B     		cmp	r3, #0
 2301 0088 01D1     		bne	.L116
 814:../firmware/gd32f3x0_hal_peripheral/Source/gd32f3x0_hal_uart.c ****             data_length = 2U;
 2302              		.loc 1 814 25
 2303 008a 0223     		movs	r3, #2
 2304 008c FB75     		strb	r3, [r7, #23]
 2305              	.L116:
 815:../firmware/gd32f3x0_hal_peripheral/Source/gd32f3x0_hal_uart.c ****         }
 816:../firmware/gd32f3x0_hal_peripheral/Source/gd32f3x0_hal_uart.c ****     }
 817:../firmware/gd32f3x0_hal_peripheral/Source/gd32f3x0_hal_uart.c **** 
 818:../firmware/gd32f3x0_hal_peripheral/Source/gd32f3x0_hal_uart.c ****     /* configure timeout */
 819:../firmware/gd32f3x0_hal_peripheral/Source/gd32f3x0_hal_uart.c ****     tick_start = hal_sys_basetick_count_get();
 2306              		.loc 1 819 18
 2307 008e FFF7FEFF 		bl	hal_sys_basetick_count_get
 2308 0092 3861     		str	r0, [r7, #16]
 820:../firmware/gd32f3x0_hal_peripheral/Source/gd32f3x0_hal_uart.c **** 
 821:../firmware/gd32f3x0_hal_peripheral/Source/gd32f3x0_hal_uart.c ****     while(uart->rxbuffer.pos < uart->rxbuffer.length) {
 2309              		.loc 1 821 10
 2310 0094 51E0     		b	.L117
 2311              	.L119:
 822:../firmware/gd32f3x0_hal_peripheral/Source/gd32f3x0_hal_uart.c ****         /* wait for read data buffer not empty */
 823:../firmware/gd32f3x0_hal_peripheral/Source/gd32f3x0_hal_uart.c ****         while(RESET == hals_uart_flag_get(uart->periph, USART_FLAG_RBNE)) {
 824:../firmware/gd32f3x0_hal_peripheral/Source/gd32f3x0_hal_uart.c ****             if(HAL_TIMEOUT_FOREVER != timeout_ms) {
 2312              		.loc 1 824 15
 2313 0096 3B68     		ldr	r3, [r7]
 2314 0098 B3F1FF3F 		cmp	r3, #-1
 2315 009c 11D0     		beq	.L118
 825:../firmware/gd32f3x0_hal_peripheral/Source/gd32f3x0_hal_uart.c ****                 if(SET == hal_sys_basetick_timeout_check(tick_start, timeout_ms)) {
 2316              		.loc 1 825 27
 2317 009e 3968     		ldr	r1, [r7]
 2318 00a0 3869     		ldr	r0, [r7, #16]
 2319 00a2 FFF7FEFF 		bl	hal_sys_basetick_timeout_check
 2320 00a6 0346     		mov	r3, r0
 2321              		.loc 1 825 19
 2322 00a8 012B     		cmp	r3, #1
 2323 00aa 0AD1     		bne	.L118
 826:../firmware/gd32f3x0_hal_peripheral/Source/gd32f3x0_hal_uart.c ****                     HAL_DEBUGW("uart receive timeout");
 827:../firmware/gd32f3x0_hal_peripheral/Source/gd32f3x0_hal_uart.c ****                     /* reset the state */
 828:../firmware/gd32f3x0_hal_peripheral/Source/gd32f3x0_hal_uart.c ****                     uart->rx_state = UART_STATE_FREE;
 2324              		.loc 1 828 36
 2325 00ac FB68     		ldr	r3, [r7, #12]
 2326 00ae 0022     		movs	r2, #0
 2327 00b0 83F85320 		strb	r2, [r3, #83]
 829:../firmware/gd32f3x0_hal_peripheral/Source/gd32f3x0_hal_uart.c ****                     /* unlock uart */
 830:../firmware/gd32f3x0_hal_peripheral/Source/gd32f3x0_hal_uart.c ****                     HAL_UNLOCK(uart);
 2328              		.loc 1 830 21
 2329 00b4 FB68     		ldr	r3, [r7, #12]
 2330 00b6 0022     		movs	r2, #0
 2331 00b8 83F85C20 		strb	r2, [r3, #92]
 831:../firmware/gd32f3x0_hal_peripheral/Source/gd32f3x0_hal_uart.c ****                     return HAL_ERR_TIMEOUT;
 2332              		.loc 1 831 28
 2333 00bc 6FF00403 		mvn	r3, #4
 2334 00c0 4AE0     		b	.L114
 2335              	.L118:
 823:../firmware/gd32f3x0_hal_peripheral/Source/gd32f3x0_hal_uart.c ****             if(HAL_TIMEOUT_FOREVER != timeout_ms) {
 2336              		.loc 1 823 24
 2337 00c2 FB68     		ldr	r3, [r7, #12]
 2338 00c4 1B68     		ldr	r3, [r3]
 2339 00c6 40F20571 		movw	r1, #1797
 2340 00ca 1846     		mov	r0, r3
 2341 00cc FFF7FEFF 		bl	hals_uart_flag_get
 2342 00d0 0346     		mov	r3, r0
 823:../firmware/gd32f3x0_hal_peripheral/Source/gd32f3x0_hal_uart.c ****             if(HAL_TIMEOUT_FOREVER != timeout_ms) {
 2343              		.loc 1 823 14
 2344 00d2 002B     		cmp	r3, #0
 2345 00d4 DFD0     		beq	.L119
 832:../firmware/gd32f3x0_hal_peripheral/Source/gd32f3x0_hal_uart.c ****                 }
 833:../firmware/gd32f3x0_hal_peripheral/Source/gd32f3x0_hal_uart.c ****             }
 834:../firmware/gd32f3x0_hal_peripheral/Source/gd32f3x0_hal_uart.c ****         }
 835:../firmware/gd32f3x0_hal_peripheral/Source/gd32f3x0_hal_uart.c **** 
 836:../firmware/gd32f3x0_hal_peripheral/Source/gd32f3x0_hal_uart.c ****         /* read data: in case of 9bit&no parity, uint16_t data will be receive */
 837:../firmware/gd32f3x0_hal_peripheral/Source/gd32f3x0_hal_uart.c ****         if(2U == data_length) {
 2346              		.loc 1 837 11
 2347 00d6 FB7D     		ldrb	r3, [r7, #23]	@ zero_extendqisi2
 2348 00d8 022B     		cmp	r3, #2
 2349 00da 14D1     		bne	.L120
 838:../firmware/gd32f3x0_hal_peripheral/Source/gd32f3x0_hal_uart.c ****             *(uint16_t *)uart->rxbuffer.buffer = (hals_uart_data_receive(uart->periph) & uart->data
 2350              		.loc 1 838 51
 2351 00dc FB68     		ldr	r3, [r7, #12]
 2352 00de 1B68     		ldr	r3, [r3]
 2353 00e0 1846     		mov	r0, r3
 2354 00e2 FFF7FEFF 		bl	hals_uart_data_receive
 2355 00e6 0346     		mov	r3, r0
 2356 00e8 1946     		mov	r1, r3
 2357              		.loc 1 838 94
 2358 00ea FB68     		ldr	r3, [r7, #12]
 2359 00ec B3F84C20 		ldrh	r2, [r3, #76]
 2360              		.loc 1 838 40
 2361 00f0 FB68     		ldr	r3, [r7, #12]
 2362 00f2 1B6C     		ldr	r3, [r3, #64]
 2363              		.loc 1 838 48
 2364 00f4 0A40     		ands	r2, r2, r1
 2365 00f6 92B2     		uxth	r2, r2
 2366 00f8 1A80     		strh	r2, [r3]	@ movhi
 839:../firmware/gd32f3x0_hal_peripheral/Source/gd32f3x0_hal_uart.c ****             uart->rxbuffer.buffer += 2;
 2367              		.loc 1 839 35
 2368 00fa FB68     		ldr	r3, [r7, #12]
 2369 00fc 1B6C     		ldr	r3, [r3, #64]
 2370 00fe 9A1C     		adds	r2, r3, #2
 2371 0100 FB68     		ldr	r3, [r7, #12]
 2372 0102 1A64     		str	r2, [r3, #64]
 2373 0104 14E0     		b	.L121
 2374              	.L120:
 840:../firmware/gd32f3x0_hal_peripheral/Source/gd32f3x0_hal_uart.c ****         } else {
 841:../firmware/gd32f3x0_hal_peripheral/Source/gd32f3x0_hal_uart.c ****             *uart->rxbuffer.buffer = (uint8_t)(hals_uart_data_receive(uart->periph) & uart->data_bi
 2375              		.loc 1 841 48
 2376 0106 FB68     		ldr	r3, [r7, #12]
 2377 0108 1B68     		ldr	r3, [r3]
 2378 010a 1846     		mov	r0, r3
 2379 010c FFF7FEFF 		bl	hals_uart_data_receive
 2380 0110 0346     		mov	r3, r0
 2381              		.loc 1 841 38
 2382 0112 D9B2     		uxtb	r1, r3
 2383              		.loc 1 841 91
 2384 0114 FB68     		ldr	r3, [r7, #12]
 2385 0116 B3F84C30 		ldrh	r3, [r3, #76]
 2386              		.loc 1 841 38
 2387 011a DAB2     		uxtb	r2, r3
 2388              		.loc 1 841 28
 2389 011c FB68     		ldr	r3, [r7, #12]
 2390 011e 1B6C     		ldr	r3, [r3, #64]
 2391              		.loc 1 841 38
 2392 0120 0A40     		ands	r2, r2, r1
 2393 0122 D2B2     		uxtb	r2, r2
 2394              		.loc 1 841 36
 2395 0124 1A70     		strb	r2, [r3]
 842:../firmware/gd32f3x0_hal_peripheral/Source/gd32f3x0_hal_uart.c ****             uart->rxbuffer.buffer++;
 2396              		.loc 1 842 27
 2397 0126 FB68     		ldr	r3, [r7, #12]
 2398 0128 1B6C     		ldr	r3, [r3, #64]
 2399              		.loc 1 842 34
 2400 012a 5A1C     		adds	r2, r3, #1
 2401 012c FB68     		ldr	r3, [r7, #12]
 2402 012e 1A64     		str	r2, [r3, #64]
 2403              	.L121:
 843:../firmware/gd32f3x0_hal_peripheral/Source/gd32f3x0_hal_uart.c ****         }
 844:../firmware/gd32f3x0_hal_peripheral/Source/gd32f3x0_hal_uart.c ****         uart->rxbuffer.pos++;
 2404              		.loc 1 844 23
 2405 0130 FB68     		ldr	r3, [r7, #12]
 2406 0132 9B6C     		ldr	r3, [r3, #72]
 2407              		.loc 1 844 27
 2408 0134 5A1C     		adds	r2, r3, #1
 2409 0136 FB68     		ldr	r3, [r7, #12]
 2410 0138 9A64     		str	r2, [r3, #72]
 2411              	.L117:
 821:../firmware/gd32f3x0_hal_peripheral/Source/gd32f3x0_hal_uart.c ****         /* wait for read data buffer not empty */
 2412              		.loc 1 821 25
 2413 013a FB68     		ldr	r3, [r7, #12]
 2414 013c 9A6C     		ldr	r2, [r3, #72]
 821:../firmware/gd32f3x0_hal_peripheral/Source/gd32f3x0_hal_uart.c ****         /* wait for read data buffer not empty */
 2415              		.loc 1 821 46
 2416 013e FB68     		ldr	r3, [r7, #12]
 2417 0140 5B6C     		ldr	r3, [r3, #68]
 821:../firmware/gd32f3x0_hal_peripheral/Source/gd32f3x0_hal_uart.c ****         /* wait for read data buffer not empty */
 2418              		.loc 1 821 10
 2419 0142 9A42     		cmp	r2, r3
 2420 0144 BDD3     		bcc	.L118
 845:../firmware/gd32f3x0_hal_peripheral/Source/gd32f3x0_hal_uart.c ****     }
 846:../firmware/gd32f3x0_hal_peripheral/Source/gd32f3x0_hal_uart.c **** 
 847:../firmware/gd32f3x0_hal_peripheral/Source/gd32f3x0_hal_uart.c ****     /* change the Rx state to free */
 848:../firmware/gd32f3x0_hal_peripheral/Source/gd32f3x0_hal_uart.c ****     uart->rx_state = UART_STATE_FREE;
 2421              		.loc 1 848 20
 2422 0146 FB68     		ldr	r3, [r7, #12]
 2423 0148 0022     		movs	r2, #0
 2424 014a 83F85320 		strb	r2, [r3, #83]
 849:../firmware/gd32f3x0_hal_peripheral/Source/gd32f3x0_hal_uart.c **** 
 850:../firmware/gd32f3x0_hal_peripheral/Source/gd32f3x0_hal_uart.c ****     /* unlock uart */
 851:../firmware/gd32f3x0_hal_peripheral/Source/gd32f3x0_hal_uart.c ****     HAL_UNLOCK(uart);
 2425              		.loc 1 851 5
 2426 014e FB68     		ldr	r3, [r7, #12]
 2427 0150 0022     		movs	r2, #0
 2428 0152 83F85C20 		strb	r2, [r3, #92]
 852:../firmware/gd32f3x0_hal_peripheral/Source/gd32f3x0_hal_uart.c **** 
 853:../firmware/gd32f3x0_hal_peripheral/Source/gd32f3x0_hal_uart.c ****     return HAL_ERR_NONE;
 2429              		.loc 1 853 12
 2430 0156 0023     		movs	r3, #0
 2431              	.L114:
 854:../firmware/gd32f3x0_hal_peripheral/Source/gd32f3x0_hal_uart.c **** }
 2432              		.loc 1 854 1
 2433 0158 1846     		mov	r0, r3
 2434 015a 1837     		adds	r7, r7, #24
 2435              		.cfi_def_cfa_offset 8
 2436 015c BD46     		mov	sp, r7
 2437              		.cfi_def_cfa_register 13
 2438              		@ sp needed
 2439 015e 80BD     		pop	{r7, pc}
 2440              		.cfi_endproc
 2441              	.LFE126:
 2443              		.section	.text.hal_uart_transmit_interrupt,"ax",%progbits
 2444              		.align	1
 2445              		.global	hal_uart_transmit_interrupt
 2446              		.syntax unified
 2447              		.thumb
 2448              		.thumb_func
 2449              		.fpu softvfp
 2451              	hal_uart_transmit_interrupt:
 2452              	.LFB127:
 855:../firmware/gd32f3x0_hal_peripheral/Source/gd32f3x0_hal_uart.c **** 
 856:../firmware/gd32f3x0_hal_peripheral/Source/gd32f3x0_hal_uart.c **** /*!
 857:../firmware/gd32f3x0_hal_peripheral/Source/gd32f3x0_hal_uart.c ****     \brief      transmit amounts of data by interrupt method
 858:../firmware/gd32f3x0_hal_peripheral/Source/gd32f3x0_hal_uart.c ****                 the function is non-blocking
 859:../firmware/gd32f3x0_hal_peripheral/Source/gd32f3x0_hal_uart.c ****     \param[in]  uart: uart device information structure
 860:../firmware/gd32f3x0_hal_peripheral/Source/gd32f3x0_hal_uart.c ****                     the structure is not necessary to be reconfigured after structrue initializatio
 861:../firmware/gd32f3x0_hal_peripheral/Source/gd32f3x0_hal_uart.c ****                     the structure parameters altering is automatically configured by core
 862:../firmware/gd32f3x0_hal_peripheral/Source/gd32f3x0_hal_uart.c ****     \param[in]  p_buffer: pointer to data buffer
 863:../firmware/gd32f3x0_hal_peripheral/Source/gd32f3x0_hal_uart.c ****     \param[in]  length: number of data to be transmitted
 864:../firmware/gd32f3x0_hal_peripheral/Source/gd32f3x0_hal_uart.c ****     \param[in]  p_user_func: user callback function
 865:../firmware/gd32f3x0_hal_peripheral/Source/gd32f3x0_hal_uart.c ****     \param[out] none
 866:../firmware/gd32f3x0_hal_peripheral/Source/gd32f3x0_hal_uart.c ****     \retval     error code: HAL_ERR_NONE, HAL_ERR_ADDRESS, HAL_ERR_VAL, HAL_ERR_BUSY details refer 
 867:../firmware/gd32f3x0_hal_peripheral/Source/gd32f3x0_hal_uart.c **** */
 868:../firmware/gd32f3x0_hal_peripheral/Source/gd32f3x0_hal_uart.c **** int32_t hal_uart_transmit_interrupt(hal_uart_dev_struct *uart, uint8_t *p_buffer, uint32_t length,
 869:../firmware/gd32f3x0_hal_peripheral/Source/gd32f3x0_hal_uart.c ****                                     hal_uart_user_cb p_user_func)
 870:../firmware/gd32f3x0_hal_peripheral/Source/gd32f3x0_hal_uart.c **** {
 2453              		.loc 1 870 1
 2454              		.cfi_startproc
 2455              		@ args = 0, pretend = 0, frame = 16
 2456              		@ frame_needed = 1, uses_anonymous_args = 0
 2457 0000 80B5     		push	{r7, lr}
 2458              		.cfi_def_cfa_offset 8
 2459              		.cfi_offset 7, -8
 2460              		.cfi_offset 14, -4
 2461 0002 84B0     		sub	sp, sp, #16
 2462              		.cfi_def_cfa_offset 24
 2463 0004 00AF     		add	r7, sp, #0
 2464              		.cfi_def_cfa_register 7
 2465 0006 F860     		str	r0, [r7, #12]
 2466 0008 B960     		str	r1, [r7, #8]
 2467 000a 7A60     		str	r2, [r7, #4]
 2468 000c 3B60     		str	r3, [r7]
 871:../firmware/gd32f3x0_hal_peripheral/Source/gd32f3x0_hal_uart.c **** #if (1 == HAL_PARAMETER_CHECK)
 872:../firmware/gd32f3x0_hal_peripheral/Source/gd32f3x0_hal_uart.c ****     /* check the parameters */
 873:../firmware/gd32f3x0_hal_peripheral/Source/gd32f3x0_hal_uart.c ****     if((NULL == uart) || (NULL == p_buffer) || (0U == length)) {
 874:../firmware/gd32f3x0_hal_peripheral/Source/gd32f3x0_hal_uart.c ****         HAL_DEBUGE("parameter [uart] or [p_buffer] or [length] value is invalid");
 875:../firmware/gd32f3x0_hal_peripheral/Source/gd32f3x0_hal_uart.c ****         return HAL_ERR_ADDRESS;
 876:../firmware/gd32f3x0_hal_peripheral/Source/gd32f3x0_hal_uart.c ****     }
 877:../firmware/gd32f3x0_hal_peripheral/Source/gd32f3x0_hal_uart.c **** #endif /* 1 == HAL_PARAMETER_CHECK */
 878:../firmware/gd32f3x0_hal_peripheral/Source/gd32f3x0_hal_uart.c **** 
 879:../firmware/gd32f3x0_hal_peripheral/Source/gd32f3x0_hal_uart.c ****     /* check the tx_state wheher is busy or not */
 880:../firmware/gd32f3x0_hal_peripheral/Source/gd32f3x0_hal_uart.c ****     if(UART_STATE_BUSY == uart->tx_state) {
 2469              		.loc 1 880 31
 2470 000e FB68     		ldr	r3, [r7, #12]
 2471 0010 93F85230 		ldrb	r3, [r3, #82]
 2472 0014 DBB2     		uxtb	r3, r3
 2473              		.loc 1 880 7
 2474 0016 012B     		cmp	r3, #1
 2475 0018 02D1     		bne	.L124
 881:../firmware/gd32f3x0_hal_peripheral/Source/gd32f3x0_hal_uart.c ****         HAL_DEBUGE("uart tx has already been used, please wait until run_state change to free ");
 882:../firmware/gd32f3x0_hal_peripheral/Source/gd32f3x0_hal_uart.c ****         return HAL_ERR_BUSY;
 2476              		.loc 1 882 16
 2477 001a 6FF00203 		mvn	r3, #2
 2478 001e 36E0     		b	.L125
 2479              	.L124:
 883:../firmware/gd32f3x0_hal_peripheral/Source/gd32f3x0_hal_uart.c ****     }
 884:../firmware/gd32f3x0_hal_peripheral/Source/gd32f3x0_hal_uart.c **** 
 885:../firmware/gd32f3x0_hal_peripheral/Source/gd32f3x0_hal_uart.c ****     /* lock uart */
 886:../firmware/gd32f3x0_hal_peripheral/Source/gd32f3x0_hal_uart.c ****     HAL_LOCK(uart);
 2480              		.loc 1 886 5
 2481 0020 FB68     		ldr	r3, [r7, #12]
 2482 0022 93F85C30 		ldrb	r3, [r3, #92]	@ zero_extendqisi2
 2483 0026 012B     		cmp	r3, #1
 2484 0028 02D1     		bne	.L126
 2485              		.loc 1 886 5 is_stmt 0 discriminator 1
 2486 002a 6FF00103 		mvn	r3, #1
 2487 002e 2EE0     		b	.L125
 2488              	.L126:
 2489              		.loc 1 886 5 discriminator 2
 2490 0030 FB68     		ldr	r3, [r7, #12]
 2491 0032 0122     		movs	r2, #1
 2492 0034 83F85C20 		strb	r2, [r3, #92]
 887:../firmware/gd32f3x0_hal_peripheral/Source/gd32f3x0_hal_uart.c **** 
 888:../firmware/gd32f3x0_hal_peripheral/Source/gd32f3x0_hal_uart.c ****     uart->tx_state          = UART_STATE_BUSY;
 2493              		.loc 1 888 29 is_stmt 1 discriminator 2
 2494 0038 FB68     		ldr	r3, [r7, #12]
 2495 003a 0122     		movs	r2, #1
 2496 003c 83F85220 		strb	r2, [r3, #82]
 889:../firmware/gd32f3x0_hal_peripheral/Source/gd32f3x0_hal_uart.c ****     uart->error_state       = HAL_UART_ERROR_NONE;
 2497              		.loc 1 889 29 discriminator 2
 2498 0040 FB68     		ldr	r3, [r7, #12]
 2499 0042 0022     		movs	r2, #0
 2500 0044 A3F85020 		strh	r2, [r3, #80]	@ movhi
 890:../firmware/gd32f3x0_hal_peripheral/Source/gd32f3x0_hal_uart.c **** 
 891:../firmware/gd32f3x0_hal_peripheral/Source/gd32f3x0_hal_uart.c ****     /* initialize transmit parameters */
 892:../firmware/gd32f3x0_hal_peripheral/Source/gd32f3x0_hal_uart.c ****     uart->txbuffer.buffer   = (uint8_t *)p_buffer;
 2501              		.loc 1 892 29 discriminator 2
 2502 0048 FB68     		ldr	r3, [r7, #12]
 2503 004a BA68     		ldr	r2, [r7, #8]
 2504 004c 5A63     		str	r2, [r3, #52]
 893:../firmware/gd32f3x0_hal_peripheral/Source/gd32f3x0_hal_uart.c ****     uart->txbuffer.length   = length;
 2505              		.loc 1 893 29 discriminator 2
 2506 004e FB68     		ldr	r3, [r7, #12]
 2507 0050 7A68     		ldr	r2, [r7, #4]
 2508 0052 9A63     		str	r2, [r3, #56]
 894:../firmware/gd32f3x0_hal_peripheral/Source/gd32f3x0_hal_uart.c ****     uart->txbuffer.pos      = 0U;
 2509              		.loc 1 894 29 discriminator 2
 2510 0054 FB68     		ldr	r3, [r7, #12]
 2511 0056 0022     		movs	r2, #0
 2512 0058 DA63     		str	r2, [r3, #60]
 895:../firmware/gd32f3x0_hal_peripheral/Source/gd32f3x0_hal_uart.c ****     uart->tx_callback       = (void *)p_user_func;
 2513              		.loc 1 895 29 discriminator 2
 2514 005a FB68     		ldr	r3, [r7, #12]
 2515 005c 3A68     		ldr	r2, [r7]
 2516 005e 9A65     		str	r2, [r3, #88]
 896:../firmware/gd32f3x0_hal_peripheral/Source/gd32f3x0_hal_uart.c **** 
 897:../firmware/gd32f3x0_hal_peripheral/Source/gd32f3x0_hal_uart.c ****     /* configure the transmit ready and complete callback as the function implemented */
 898:../firmware/gd32f3x0_hal_peripheral/Source/gd32f3x0_hal_uart.c ****     uart->uart_irq.transmit_ready_handle    = _uart_transmit_interrupt;
 2517              		.loc 1 898 45 discriminator 2
 2518 0060 FB68     		ldr	r3, [r7, #12]
 2519 0062 0D4A     		ldr	r2, .L127
 2520 0064 DA60     		str	r2, [r3, #12]
 899:../firmware/gd32f3x0_hal_peripheral/Source/gd32f3x0_hal_uart.c ****     uart->uart_irq.transmit_complete_handle = _uart_transmit_complete_interrupt;
 2521              		.loc 1 899 45 discriminator 2
 2522 0066 FB68     		ldr	r3, [r7, #12]
 2523 0068 0C4A     		ldr	r2, .L127+4
 2524 006a 1A61     		str	r2, [r3, #16]
 900:../firmware/gd32f3x0_hal_peripheral/Source/gd32f3x0_hal_uart.c **** 
 901:../firmware/gd32f3x0_hal_peripheral/Source/gd32f3x0_hal_uart.c ****     /* clear UART TC interrupt flag */
 902:../firmware/gd32f3x0_hal_peripheral/Source/gd32f3x0_hal_uart.c ****     hals_uart_interrupt_flag_clear(uart->periph, USART_INT_FLAG_TC);
 2525              		.loc 1 902 5 discriminator 2
 2526 006c FB68     		ldr	r3, [r7, #12]
 2527 006e 1B68     		ldr	r3, [r3]
 2528 0070 0B49     		ldr	r1, .L127+8
 2529 0072 1846     		mov	r0, r3
 2530 0074 FFF7FEFF 		bl	hals_uart_interrupt_flag_clear
 903:../firmware/gd32f3x0_hal_peripheral/Source/gd32f3x0_hal_uart.c **** 
 904:../firmware/gd32f3x0_hal_peripheral/Source/gd32f3x0_hal_uart.c ****     /* enable the TBE interrupt */
 905:../firmware/gd32f3x0_hal_peripheral/Source/gd32f3x0_hal_uart.c ****     hals_uart_interrupt_enable(uart->periph, USART_INT_TBE);
 2531              		.loc 1 905 5 discriminator 2
 2532 0078 FB68     		ldr	r3, [r7, #12]
 2533 007a 1B68     		ldr	r3, [r3]
 2534 007c 0721     		movs	r1, #7
 2535 007e 1846     		mov	r0, r3
 2536 0080 FFF7FEFF 		bl	hals_uart_interrupt_enable
 906:../firmware/gd32f3x0_hal_peripheral/Source/gd32f3x0_hal_uart.c **** 
 907:../firmware/gd32f3x0_hal_peripheral/Source/gd32f3x0_hal_uart.c ****     /* unlock uart */
 908:../firmware/gd32f3x0_hal_peripheral/Source/gd32f3x0_hal_uart.c ****     HAL_UNLOCK(uart);
 2537              		.loc 1 908 5 discriminator 2
 2538 0084 FB68     		ldr	r3, [r7, #12]
 2539 0086 0022     		movs	r2, #0
 2540 0088 83F85C20 		strb	r2, [r3, #92]
 909:../firmware/gd32f3x0_hal_peripheral/Source/gd32f3x0_hal_uart.c **** 
 910:../firmware/gd32f3x0_hal_peripheral/Source/gd32f3x0_hal_uart.c ****     return HAL_ERR_NONE;
 2541              		.loc 1 910 12 discriminator 2
 2542 008c 0023     		movs	r3, #0
 2543              	.L125:
 911:../firmware/gd32f3x0_hal_peripheral/Source/gd32f3x0_hal_uart.c **** }
 2544              		.loc 1 911 1
 2545 008e 1846     		mov	r0, r3
 2546 0090 1037     		adds	r7, r7, #16
 2547              		.cfi_def_cfa_offset 8
 2548 0092 BD46     		mov	sp, r7
 2549              		.cfi_def_cfa_register 13
 2550              		@ sp needed
 2551 0094 80BD     		pop	{r7, pc}
 2552              	.L128:
 2553 0096 00BF     		.align	2
 2554              	.L127:
 2555 0098 00000000 		.word	_uart_transmit_interrupt
 2556 009c 00000000 		.word	_uart_transmit_complete_interrupt
 2557 00a0 06000607 		.word	117833734
 2558              		.cfi_endproc
 2559              	.LFE127:
 2561              		.section	.text.hal_uart_receive_interrupt,"ax",%progbits
 2562              		.align	1
 2563              		.global	hal_uart_receive_interrupt
 2564              		.syntax unified
 2565              		.thumb
 2566              		.thumb_func
 2567              		.fpu softvfp
 2569              	hal_uart_receive_interrupt:
 2570              	.LFB128:
 912:../firmware/gd32f3x0_hal_peripheral/Source/gd32f3x0_hal_uart.c **** 
 913:../firmware/gd32f3x0_hal_peripheral/Source/gd32f3x0_hal_uart.c **** /*!
 914:../firmware/gd32f3x0_hal_peripheral/Source/gd32f3x0_hal_uart.c ****     \brief      receive amounts of data by interrupt method
 915:../firmware/gd32f3x0_hal_peripheral/Source/gd32f3x0_hal_uart.c ****                 the function is non-blocking
 916:../firmware/gd32f3x0_hal_peripheral/Source/gd32f3x0_hal_uart.c ****     \param[in]  uart: uart device information structure
 917:../firmware/gd32f3x0_hal_peripheral/Source/gd32f3x0_hal_uart.c ****                     the structure is not necessary to be reconfigured after structrue initializatio
 918:../firmware/gd32f3x0_hal_peripheral/Source/gd32f3x0_hal_uart.c ****                     the structure parameters altering is automatically configured by core
 919:../firmware/gd32f3x0_hal_peripheral/Source/gd32f3x0_hal_uart.c ****     \param[in]  p_buffer: pointer to data buffer
 920:../firmware/gd32f3x0_hal_peripheral/Source/gd32f3x0_hal_uart.c ****     \param[in]  length: number of data to be received
 921:../firmware/gd32f3x0_hal_peripheral/Source/gd32f3x0_hal_uart.c ****     \param[in]  p_user_func: user callback function
 922:../firmware/gd32f3x0_hal_peripheral/Source/gd32f3x0_hal_uart.c ****     \param[out] none
 923:../firmware/gd32f3x0_hal_peripheral/Source/gd32f3x0_hal_uart.c ****     \retval     error code: HAL_ERR_NONE, HAL_ERR_ADDRESS, HAL_ERR_VAL, HAL_ERR_BUSY details refer 
 924:../firmware/gd32f3x0_hal_peripheral/Source/gd32f3x0_hal_uart.c **** */
 925:../firmware/gd32f3x0_hal_peripheral/Source/gd32f3x0_hal_uart.c **** int32_t hal_uart_receive_interrupt(hal_uart_dev_struct *uart, uint8_t *p_buffer, uint32_t length,
 926:../firmware/gd32f3x0_hal_peripheral/Source/gd32f3x0_hal_uart.c ****                                    hal_uart_user_cb p_user_func)
 927:../firmware/gd32f3x0_hal_peripheral/Source/gd32f3x0_hal_uart.c **** {
 2571              		.loc 1 927 1
 2572              		.cfi_startproc
 2573              		@ args = 0, pretend = 0, frame = 16
 2574              		@ frame_needed = 1, uses_anonymous_args = 0
 2575 0000 80B5     		push	{r7, lr}
 2576              		.cfi_def_cfa_offset 8
 2577              		.cfi_offset 7, -8
 2578              		.cfi_offset 14, -4
 2579 0002 84B0     		sub	sp, sp, #16
 2580              		.cfi_def_cfa_offset 24
 2581 0004 00AF     		add	r7, sp, #0
 2582              		.cfi_def_cfa_register 7
 2583 0006 F860     		str	r0, [r7, #12]
 2584 0008 B960     		str	r1, [r7, #8]
 2585 000a 7A60     		str	r2, [r7, #4]
 2586 000c 3B60     		str	r3, [r7]
 928:../firmware/gd32f3x0_hal_peripheral/Source/gd32f3x0_hal_uart.c **** #if (1 == HAL_PARAMETER_CHECK)
 929:../firmware/gd32f3x0_hal_peripheral/Source/gd32f3x0_hal_uart.c ****     /* check the parameters */
 930:../firmware/gd32f3x0_hal_peripheral/Source/gd32f3x0_hal_uart.c ****     if((NULL == uart) || (NULL == p_buffer) || (0U == length)) {
 931:../firmware/gd32f3x0_hal_peripheral/Source/gd32f3x0_hal_uart.c ****         HAL_DEBUGE("parameter [uart] or [p_buffer] or [length] value is invalid");
 932:../firmware/gd32f3x0_hal_peripheral/Source/gd32f3x0_hal_uart.c ****         return HAL_ERR_ADDRESS;
 933:../firmware/gd32f3x0_hal_peripheral/Source/gd32f3x0_hal_uart.c ****     }
 934:../firmware/gd32f3x0_hal_peripheral/Source/gd32f3x0_hal_uart.c **** #endif /* 1 == HAL_PARAMETER_CHECK */
 935:../firmware/gd32f3x0_hal_peripheral/Source/gd32f3x0_hal_uart.c **** 
 936:../firmware/gd32f3x0_hal_peripheral/Source/gd32f3x0_hal_uart.c ****     /* check the rx_state wheher is busy or not */
 937:../firmware/gd32f3x0_hal_peripheral/Source/gd32f3x0_hal_uart.c ****     if(UART_STATE_BUSY == uart->rx_state) {
 2587              		.loc 1 937 31
 2588 000e FB68     		ldr	r3, [r7, #12]
 2589 0010 93F85330 		ldrb	r3, [r3, #83]
 2590 0014 DBB2     		uxtb	r3, r3
 2591              		.loc 1 937 7
 2592 0016 012B     		cmp	r3, #1
 2593 0018 02D1     		bne	.L130
 938:../firmware/gd32f3x0_hal_peripheral/Source/gd32f3x0_hal_uart.c ****         HAL_DEBUGE("uart rx has already been used, please wait until run_state change to free ");
 939:../firmware/gd32f3x0_hal_peripheral/Source/gd32f3x0_hal_uart.c ****         return HAL_ERR_BUSY;
 2594              		.loc 1 939 16
 2595 001a 6FF00203 		mvn	r3, #2
 2596 001e 42E0     		b	.L131
 2597              	.L130:
 940:../firmware/gd32f3x0_hal_peripheral/Source/gd32f3x0_hal_uart.c ****     }
 941:../firmware/gd32f3x0_hal_peripheral/Source/gd32f3x0_hal_uart.c **** 
 942:../firmware/gd32f3x0_hal_peripheral/Source/gd32f3x0_hal_uart.c ****     /* lock uart */
 943:../firmware/gd32f3x0_hal_peripheral/Source/gd32f3x0_hal_uart.c ****     HAL_LOCK(uart);
 2598              		.loc 1 943 5
 2599 0020 FB68     		ldr	r3, [r7, #12]
 2600 0022 93F85C30 		ldrb	r3, [r3, #92]	@ zero_extendqisi2
 2601 0026 012B     		cmp	r3, #1
 2602 0028 02D1     		bne	.L132
 2603              		.loc 1 943 5 is_stmt 0 discriminator 1
 2604 002a 6FF00103 		mvn	r3, #1
 2605 002e 3AE0     		b	.L131
 2606              	.L132:
 2607              		.loc 1 943 5 discriminator 2
 2608 0030 FB68     		ldr	r3, [r7, #12]
 2609 0032 0122     		movs	r2, #1
 2610 0034 83F85C20 		strb	r2, [r3, #92]
 944:../firmware/gd32f3x0_hal_peripheral/Source/gd32f3x0_hal_uart.c **** 
 945:../firmware/gd32f3x0_hal_peripheral/Source/gd32f3x0_hal_uart.c ****     uart->rx_state = UART_STATE_BUSY;
 2611              		.loc 1 945 20 is_stmt 1 discriminator 2
 2612 0038 FB68     		ldr	r3, [r7, #12]
 2613 003a 0122     		movs	r2, #1
 2614 003c 83F85320 		strb	r2, [r3, #83]
 946:../firmware/gd32f3x0_hal_peripheral/Source/gd32f3x0_hal_uart.c ****     uart->error_state = HAL_UART_ERROR_NONE;
 2615              		.loc 1 946 23 discriminator 2
 2616 0040 FB68     		ldr	r3, [r7, #12]
 2617 0042 0022     		movs	r2, #0
 2618 0044 A3F85020 		strh	r2, [r3, #80]	@ movhi
 947:../firmware/gd32f3x0_hal_peripheral/Source/gd32f3x0_hal_uart.c **** 
 948:../firmware/gd32f3x0_hal_peripheral/Source/gd32f3x0_hal_uart.c ****     /* initialize receive parameters */
 949:../firmware/gd32f3x0_hal_peripheral/Source/gd32f3x0_hal_uart.c ****     uart->rxbuffer.buffer   = (uint8_t *)p_buffer;
 2619              		.loc 1 949 29 discriminator 2
 2620 0048 FB68     		ldr	r3, [r7, #12]
 2621 004a BA68     		ldr	r2, [r7, #8]
 2622 004c 1A64     		str	r2, [r3, #64]
 950:../firmware/gd32f3x0_hal_peripheral/Source/gd32f3x0_hal_uart.c ****     uart->rxbuffer.length   = length;
 2623              		.loc 1 950 29 discriminator 2
 2624 004e FB68     		ldr	r3, [r7, #12]
 2625 0050 7A68     		ldr	r2, [r7, #4]
 2626 0052 5A64     		str	r2, [r3, #68]
 951:../firmware/gd32f3x0_hal_peripheral/Source/gd32f3x0_hal_uart.c ****     uart->rxbuffer.pos      = 0U;
 2627              		.loc 1 951 29 discriminator 2
 2628 0054 FB68     		ldr	r3, [r7, #12]
 2629 0056 0022     		movs	r2, #0
 2630 0058 9A64     		str	r2, [r3, #72]
 952:../firmware/gd32f3x0_hal_peripheral/Source/gd32f3x0_hal_uart.c ****     uart->data_bit_mask     = _uart_data_bit_mask_get(uart);
 2631              		.loc 1 952 31 discriminator 2
 2632 005a F868     		ldr	r0, [r7, #12]
 2633 005c FFF7FEFF 		bl	_uart_data_bit_mask_get
 2634 0060 0346     		mov	r3, r0
 2635 0062 1A46     		mov	r2, r3
 2636              		.loc 1 952 29 discriminator 2
 2637 0064 FB68     		ldr	r3, [r7, #12]
 2638 0066 A3F84C20 		strh	r2, [r3, #76]	@ movhi
 953:../firmware/gd32f3x0_hal_peripheral/Source/gd32f3x0_hal_uart.c ****     uart->rx_callback       = (void *)p_user_func;
 2639              		.loc 1 953 29 discriminator 2
 2640 006a FB68     		ldr	r3, [r7, #12]
 2641 006c 3A68     		ldr	r2, [r7]
 2642 006e 5A65     		str	r2, [r3, #84]
 954:../firmware/gd32f3x0_hal_peripheral/Source/gd32f3x0_hal_uart.c **** 
 955:../firmware/gd32f3x0_hal_peripheral/Source/gd32f3x0_hal_uart.c ****     /* configure rx interrupt hander */
 956:../firmware/gd32f3x0_hal_peripheral/Source/gd32f3x0_hal_uart.c ****     uart->uart_irq.receive_complete_handle = _uart_receive_interrupt;
 2643              		.loc 1 956 44 discriminator 2
 2644 0070 FB68     		ldr	r3, [r7, #12]
 2645 0072 0F4A     		ldr	r2, .L133
 2646 0074 5A60     		str	r2, [r3, #4]
 957:../firmware/gd32f3x0_hal_peripheral/Source/gd32f3x0_hal_uart.c **** 
 958:../firmware/gd32f3x0_hal_peripheral/Source/gd32f3x0_hal_uart.c ****     /* enable PERR, ERR, RBNE interrupt */
 959:../firmware/gd32f3x0_hal_peripheral/Source/gd32f3x0_hal_uart.c ****     hals_uart_interrupt_enable(uart->periph, USART_INT_PERR);
 2647              		.loc 1 959 5 discriminator 2
 2648 0076 FB68     		ldr	r3, [r7, #12]
 2649 0078 1B68     		ldr	r3, [r3]
 2650 007a 0821     		movs	r1, #8
 2651 007c 1846     		mov	r0, r3
 2652 007e FFF7FEFF 		bl	hals_uart_interrupt_enable
 960:../firmware/gd32f3x0_hal_peripheral/Source/gd32f3x0_hal_uart.c ****     hals_uart_interrupt_enable(uart->periph, USART_INT_ERR);
 2653              		.loc 1 960 5 discriminator 2
 2654 0082 FB68     		ldr	r3, [r7, #12]
 2655 0084 1B68     		ldr	r3, [r3]
 2656 0086 4FF40071 		mov	r1, #512
 2657 008a 1846     		mov	r0, r3
 2658 008c FFF7FEFF 		bl	hals_uart_interrupt_enable
 961:../firmware/gd32f3x0_hal_peripheral/Source/gd32f3x0_hal_uart.c ****     hals_uart_interrupt_enable(uart->periph, USART_INT_RBNE);
 2659              		.loc 1 961 5 discriminator 2
 2660 0090 FB68     		ldr	r3, [r7, #12]
 2661 0092 1B68     		ldr	r3, [r3]
 2662 0094 0521     		movs	r1, #5
 2663 0096 1846     		mov	r0, r3
 2664 0098 FFF7FEFF 		bl	hals_uart_interrupt_enable
 962:../firmware/gd32f3x0_hal_peripheral/Source/gd32f3x0_hal_uart.c **** 
 963:../firmware/gd32f3x0_hal_peripheral/Source/gd32f3x0_hal_uart.c ****     /* unlock uart */
 964:../firmware/gd32f3x0_hal_peripheral/Source/gd32f3x0_hal_uart.c ****     HAL_UNLOCK(uart);
 2665              		.loc 1 964 5 discriminator 2
 2666 009c FB68     		ldr	r3, [r7, #12]
 2667 009e 0022     		movs	r2, #0
 2668 00a0 83F85C20 		strb	r2, [r3, #92]
 965:../firmware/gd32f3x0_hal_peripheral/Source/gd32f3x0_hal_uart.c **** 
 966:../firmware/gd32f3x0_hal_peripheral/Source/gd32f3x0_hal_uart.c ****     return HAL_ERR_NONE;
 2669              		.loc 1 966 12 discriminator 2
 2670 00a4 0023     		movs	r3, #0
 2671              	.L131:
 967:../firmware/gd32f3x0_hal_peripheral/Source/gd32f3x0_hal_uart.c **** }
 2672              		.loc 1 967 1
 2673 00a6 1846     		mov	r0, r3
 2674 00a8 1037     		adds	r7, r7, #16
 2675              		.cfi_def_cfa_offset 8
 2676 00aa BD46     		mov	sp, r7
 2677              		.cfi_def_cfa_register 13
 2678              		@ sp needed
 2679 00ac 80BD     		pop	{r7, pc}
 2680              	.L134:
 2681 00ae 00BF     		.align	2
 2682              	.L133:
 2683 00b0 00000000 		.word	_uart_receive_interrupt
 2684              		.cfi_endproc
 2685              	.LFE128:
 2687              		.section	.text.hal_uart_transmit_dma,"ax",%progbits
 2688              		.align	1
 2689              		.global	hal_uart_transmit_dma
 2690              		.syntax unified
 2691              		.thumb
 2692              		.thumb_func
 2693              		.fpu softvfp
 2695              	hal_uart_transmit_dma:
 2696              	.LFB129:
 968:../firmware/gd32f3x0_hal_peripheral/Source/gd32f3x0_hal_uart.c **** 
 969:../firmware/gd32f3x0_hal_peripheral/Source/gd32f3x0_hal_uart.c **** /*!
 970:../firmware/gd32f3x0_hal_peripheral/Source/gd32f3x0_hal_uart.c ****     \brief      transmit amounts of data by dma method
 971:../firmware/gd32f3x0_hal_peripheral/Source/gd32f3x0_hal_uart.c ****                 the function is non-blocking
 972:../firmware/gd32f3x0_hal_peripheral/Source/gd32f3x0_hal_uart.c ****     \param[in]  uart: uart device information structure
 973:../firmware/gd32f3x0_hal_peripheral/Source/gd32f3x0_hal_uart.c ****                     the structure is not necessary to be reconfigured after structrue initializatio
 974:../firmware/gd32f3x0_hal_peripheral/Source/gd32f3x0_hal_uart.c ****                     the structure parameters altering is automatically configured by core
 975:../firmware/gd32f3x0_hal_peripheral/Source/gd32f3x0_hal_uart.c ****     \param[in]  p_buffer: pointer to data buffer
 976:../firmware/gd32f3x0_hal_peripheral/Source/gd32f3x0_hal_uart.c ****     \param[in]  length: number of data to be transmitted
 977:../firmware/gd32f3x0_hal_peripheral/Source/gd32f3x0_hal_uart.c ****     \param[in]  p_func: pointer to callback function
 978:../firmware/gd32f3x0_hal_peripheral/Source/gd32f3x0_hal_uart.c ****     \param[out] none
 979:../firmware/gd32f3x0_hal_peripheral/Source/gd32f3x0_hal_uart.c ****     \retval     error code: HAL_ERR_NONE, HAL_ERR_ADDRESS, HAL_ERR_VAL, HAL_ERR_BUSY details refer 
 980:../firmware/gd32f3x0_hal_peripheral/Source/gd32f3x0_hal_uart.c **** */
 981:../firmware/gd32f3x0_hal_peripheral/Source/gd32f3x0_hal_uart.c **** int32_t hal_uart_transmit_dma(hal_uart_dev_struct *uart, uint8_t *p_buffer, uint16_t length, hal_ua
 982:../firmware/gd32f3x0_hal_peripheral/Source/gd32f3x0_hal_uart.c **** {
 2697              		.loc 1 982 1
 2698              		.cfi_startproc
 2699              		@ args = 0, pretend = 0, frame = 32
 2700              		@ frame_needed = 1, uses_anonymous_args = 0
 2701 0000 90B5     		push	{r4, r7, lr}
 2702              		.cfi_def_cfa_offset 12
 2703              		.cfi_offset 4, -12
 2704              		.cfi_offset 7, -8
 2705              		.cfi_offset 14, -4
 2706 0002 8BB0     		sub	sp, sp, #44
 2707              		.cfi_def_cfa_offset 56
 2708 0004 02AF     		add	r7, sp, #8
 2709              		.cfi_def_cfa 7, 48
 2710 0006 F860     		str	r0, [r7, #12]
 2711 0008 B960     		str	r1, [r7, #8]
 2712 000a 3B60     		str	r3, [r7]
 2713 000c 1346     		mov	r3, r2	@ movhi
 2714 000e FB80     		strh	r3, [r7, #6]	@ movhi
 983:../firmware/gd32f3x0_hal_peripheral/Source/gd32f3x0_hal_uart.c ****     hal_dma_irq_struct dma_irq;
 984:../firmware/gd32f3x0_hal_peripheral/Source/gd32f3x0_hal_uart.c **** 
 985:../firmware/gd32f3x0_hal_peripheral/Source/gd32f3x0_hal_uart.c **** #if (1 == HAL_PARAMETER_CHECK)
 986:../firmware/gd32f3x0_hal_peripheral/Source/gd32f3x0_hal_uart.c ****     /* check the parameters */
 987:../firmware/gd32f3x0_hal_peripheral/Source/gd32f3x0_hal_uart.c ****     if((NULL == uart) || (NULL == p_buffer) || (0U == length)) {
 988:../firmware/gd32f3x0_hal_peripheral/Source/gd32f3x0_hal_uart.c ****         HAL_DEBUGE("parameter [uart] or [p_buffer] or [length] value is invalid");
 989:../firmware/gd32f3x0_hal_peripheral/Source/gd32f3x0_hal_uart.c ****         return HAL_ERR_ADDRESS;
 990:../firmware/gd32f3x0_hal_peripheral/Source/gd32f3x0_hal_uart.c ****     }
 991:../firmware/gd32f3x0_hal_peripheral/Source/gd32f3x0_hal_uart.c **** 
 992:../firmware/gd32f3x0_hal_peripheral/Source/gd32f3x0_hal_uart.c ****     /* check the parameter */
 993:../firmware/gd32f3x0_hal_peripheral/Source/gd32f3x0_hal_uart.c ****     if(NULL == uart->p_dma_tx) {
 994:../firmware/gd32f3x0_hal_peripheral/Source/gd32f3x0_hal_uart.c ****         HAL_DEBUGE("parameter [uart->p_dma_tx] value is invalid");
 995:../firmware/gd32f3x0_hal_peripheral/Source/gd32f3x0_hal_uart.c ****         return HAL_ERR_ADDRESS;
 996:../firmware/gd32f3x0_hal_peripheral/Source/gd32f3x0_hal_uart.c ****     }
 997:../firmware/gd32f3x0_hal_peripheral/Source/gd32f3x0_hal_uart.c **** #endif /* 1 == HAL_PARAMETER_CHECK */
 998:../firmware/gd32f3x0_hal_peripheral/Source/gd32f3x0_hal_uart.c **** 
 999:../firmware/gd32f3x0_hal_peripheral/Source/gd32f3x0_hal_uart.c ****     /* check the tx_state wheher is busy or not */
1000:../firmware/gd32f3x0_hal_peripheral/Source/gd32f3x0_hal_uart.c ****     if(UART_STATE_BUSY == uart->tx_state) {
 2715              		.loc 1 1000 31
 2716 0010 FB68     		ldr	r3, [r7, #12]
 2717 0012 93F85230 		ldrb	r3, [r3, #82]
 2718 0016 DBB2     		uxtb	r3, r3
 2719              		.loc 1 1000 7
 2720 0018 012B     		cmp	r3, #1
 2721 001a 02D1     		bne	.L136
1001:../firmware/gd32f3x0_hal_peripheral/Source/gd32f3x0_hal_uart.c ****         HAL_DEBUGE("uart tx has already been used, please wait until run_state change to free ");
1002:../firmware/gd32f3x0_hal_peripheral/Source/gd32f3x0_hal_uart.c ****         return HAL_ERR_BUSY;
 2722              		.loc 1 1002 16
 2723 001c 6FF00203 		mvn	r3, #2
 2724 0020 76E0     		b	.L144
 2725              	.L136:
1003:../firmware/gd32f3x0_hal_peripheral/Source/gd32f3x0_hal_uart.c ****     }
1004:../firmware/gd32f3x0_hal_peripheral/Source/gd32f3x0_hal_uart.c **** 
1005:../firmware/gd32f3x0_hal_peripheral/Source/gd32f3x0_hal_uart.c ****     /* lock uart */
1006:../firmware/gd32f3x0_hal_peripheral/Source/gd32f3x0_hal_uart.c ****     HAL_LOCK(uart);
 2726              		.loc 1 1006 5
 2727 0022 FB68     		ldr	r3, [r7, #12]
 2728 0024 93F85C30 		ldrb	r3, [r3, #92]	@ zero_extendqisi2
 2729 0028 012B     		cmp	r3, #1
 2730 002a 02D1     		bne	.L138
 2731              		.loc 1 1006 5 is_stmt 0 discriminator 1
 2732 002c 6FF00103 		mvn	r3, #1
 2733 0030 6EE0     		b	.L144
 2734              	.L138:
 2735              		.loc 1 1006 5 discriminator 2
 2736 0032 FB68     		ldr	r3, [r7, #12]
 2737 0034 0122     		movs	r2, #1
 2738 0036 83F85C20 		strb	r2, [r3, #92]
1007:../firmware/gd32f3x0_hal_peripheral/Source/gd32f3x0_hal_uart.c **** 
1008:../firmware/gd32f3x0_hal_peripheral/Source/gd32f3x0_hal_uart.c ****     uart->tx_state = UART_STATE_BUSY;
 2739              		.loc 1 1008 20 is_stmt 1 discriminator 2
 2740 003a FB68     		ldr	r3, [r7, #12]
 2741 003c 0122     		movs	r2, #1
 2742 003e 83F85220 		strb	r2, [r3, #82]
1009:../firmware/gd32f3x0_hal_peripheral/Source/gd32f3x0_hal_uart.c ****     uart->error_state = HAL_UART_ERROR_NONE;
 2743              		.loc 1 1009 23 discriminator 2
 2744 0042 FB68     		ldr	r3, [r7, #12]
 2745 0044 0022     		movs	r2, #0
 2746 0046 A3F85020 		strh	r2, [r3, #80]	@ movhi
1010:../firmware/gd32f3x0_hal_peripheral/Source/gd32f3x0_hal_uart.c **** 
1011:../firmware/gd32f3x0_hal_peripheral/Source/gd32f3x0_hal_uart.c ****     /* initialize transmit parameters */
1012:../firmware/gd32f3x0_hal_peripheral/Source/gd32f3x0_hal_uart.c ****     uart->txbuffer.buffer   = (uint8_t *)p_buffer;
 2747              		.loc 1 1012 29 discriminator 2
 2748 004a FB68     		ldr	r3, [r7, #12]
 2749 004c BA68     		ldr	r2, [r7, #8]
 2750 004e 5A63     		str	r2, [r3, #52]
1013:../firmware/gd32f3x0_hal_peripheral/Source/gd32f3x0_hal_uart.c ****     uart->txbuffer.length   = length;
 2751              		.loc 1 1013 29 discriminator 2
 2752 0050 FA88     		ldrh	r2, [r7, #6]
 2753 0052 FB68     		ldr	r3, [r7, #12]
 2754 0054 9A63     		str	r2, [r3, #56]
1014:../firmware/gd32f3x0_hal_peripheral/Source/gd32f3x0_hal_uart.c ****     uart->txbuffer.pos      = 0U;
 2755              		.loc 1 1014 29 discriminator 2
 2756 0056 FB68     		ldr	r3, [r7, #12]
 2757 0058 0022     		movs	r2, #0
 2758 005a DA63     		str	r2, [r3, #60]
1015:../firmware/gd32f3x0_hal_peripheral/Source/gd32f3x0_hal_uart.c **** 
1016:../firmware/gd32f3x0_hal_peripheral/Source/gd32f3x0_hal_uart.c ****     if(NULL != p_func) {
 2759              		.loc 1 1016 7 discriminator 2
 2760 005c 3B68     		ldr	r3, [r7]
 2761 005e 002B     		cmp	r3, #0
 2762 0060 08D0     		beq	.L139
1017:../firmware/gd32f3x0_hal_peripheral/Source/gd32f3x0_hal_uart.c ****         uart->tx_callback = (void *)p_func->complete_func;
 2763              		.loc 1 1017 43
 2764 0062 3B68     		ldr	r3, [r7]
 2765 0064 1A68     		ldr	r2, [r3]
 2766              		.loc 1 1017 27
 2767 0066 FB68     		ldr	r3, [r7, #12]
 2768 0068 9A65     		str	r2, [r3, #88]
1018:../firmware/gd32f3x0_hal_peripheral/Source/gd32f3x0_hal_uart.c ****         uart->uart_irq.error_handle = (hal_irq_handle_cb)p_func->error_func;
 2769              		.loc 1 1018 64
 2770 006a 3B68     		ldr	r3, [r7]
 2771 006c 5A68     		ldr	r2, [r3, #4]
 2772              		.loc 1 1018 37
 2773 006e FB68     		ldr	r3, [r7, #12]
 2774 0070 5A61     		str	r2, [r3, #20]
 2775 0072 05E0     		b	.L140
 2776              	.L139:
1019:../firmware/gd32f3x0_hal_peripheral/Source/gd32f3x0_hal_uart.c ****     } else {
1020:../firmware/gd32f3x0_hal_peripheral/Source/gd32f3x0_hal_uart.c ****         uart->tx_callback = NULL;
 2777              		.loc 1 1020 27
 2778 0074 FB68     		ldr	r3, [r7, #12]
 2779 0076 0022     		movs	r2, #0
 2780 0078 9A65     		str	r2, [r3, #88]
1021:../firmware/gd32f3x0_hal_peripheral/Source/gd32f3x0_hal_uart.c ****         uart->uart_irq.error_handle = NULL;
 2781              		.loc 1 1021 37
 2782 007a FB68     		ldr	r3, [r7, #12]
 2783 007c 0022     		movs	r2, #0
 2784 007e 5A61     		str	r2, [r3, #20]
 2785              	.L140:
1022:../firmware/gd32f3x0_hal_peripheral/Source/gd32f3x0_hal_uart.c ****     }
1023:../firmware/gd32f3x0_hal_peripheral/Source/gd32f3x0_hal_uart.c ****     uart->uart_irq.transmit_complete_handle = _uart_transmit_complete_interrupt;
 2786              		.loc 1 1023 45
 2787 0080 FB68     		ldr	r3, [r7, #12]
 2788 0082 254A     		ldr	r2, .L145
 2789 0084 1A61     		str	r2, [r3, #16]
1024:../firmware/gd32f3x0_hal_peripheral/Source/gd32f3x0_hal_uart.c **** 
1025:../firmware/gd32f3x0_hal_peripheral/Source/gd32f3x0_hal_uart.c ****     /* configure DMA interrupt callback function */
1026:../firmware/gd32f3x0_hal_peripheral/Source/gd32f3x0_hal_uart.c ****     dma_irq.full_finish_handle  = _uart_transmit_dma;
 2790              		.loc 1 1026 33
 2791 0086 254B     		ldr	r3, .L145+4
 2792 0088 FB61     		str	r3, [r7, #28]
1027:../firmware/gd32f3x0_hal_peripheral/Source/gd32f3x0_hal_uart.c ****     dma_irq.error_handle        = _uart_dma_error;
 2793              		.loc 1 1027 33
 2794 008a 254B     		ldr	r3, .L145+8
 2795 008c 7B61     		str	r3, [r7, #20]
1028:../firmware/gd32f3x0_hal_peripheral/Source/gd32f3x0_hal_uart.c ****     if(NULL != uart->p_dma_tx->dma_irq.half_finish_handle) {
 2796              		.loc 1 1028 20
 2797 008e FB68     		ldr	r3, [r7, #12]
 2798 0090 1B6B     		ldr	r3, [r3, #48]
 2799              		.loc 1 1028 39
 2800 0092 9B68     		ldr	r3, [r3, #8]
 2801              		.loc 1 1028 7
 2802 0094 002B     		cmp	r3, #0
 2803 0096 04D0     		beq	.L141
1029:../firmware/gd32f3x0_hal_peripheral/Source/gd32f3x0_hal_uart.c ****         dma_irq.half_finish_handle = uart->p_dma_tx->dma_irq.half_finish_handle;
 2804              		.loc 1 1029 42
 2805 0098 FB68     		ldr	r3, [r7, #12]
 2806 009a 1B6B     		ldr	r3, [r3, #48]
 2807              		.loc 1 1029 61
 2808 009c 9B68     		ldr	r3, [r3, #8]
 2809              		.loc 1 1029 36
 2810 009e BB61     		str	r3, [r7, #24]
 2811 00a0 01E0     		b	.L142
 2812              	.L141:
1030:../firmware/gd32f3x0_hal_peripheral/Source/gd32f3x0_hal_uart.c ****     } else {
1031:../firmware/gd32f3x0_hal_peripheral/Source/gd32f3x0_hal_uart.c ****         dma_irq.half_finish_handle = NULL;
 2813              		.loc 1 1031 36
 2814 00a2 0023     		movs	r3, #0
 2815 00a4 BB61     		str	r3, [r7, #24]
 2816              	.L142:
1032:../firmware/gd32f3x0_hal_peripheral/Source/gd32f3x0_hal_uart.c ****     }
1033:../firmware/gd32f3x0_hal_peripheral/Source/gd32f3x0_hal_uart.c **** 
1034:../firmware/gd32f3x0_hal_peripheral/Source/gd32f3x0_hal_uart.c ****     /* start DMA interrupt mode transfer */
1035:../firmware/gd32f3x0_hal_peripheral/Source/gd32f3x0_hal_uart.c ****     if(HAL_ERR_NONE != hal_dma_start_interrupt(uart->p_dma_tx, (uint32_t)uart->txbuffer.buffer,
 2817              		.loc 1 1035 24
 2818 00a6 FB68     		ldr	r3, [r7, #12]
 2819 00a8 186B     		ldr	r0, [r3, #48]
 2820              		.loc 1 1035 88
 2821 00aa FB68     		ldr	r3, [r7, #12]
 2822 00ac 5B6B     		ldr	r3, [r3, #52]
 2823              		.loc 1 1035 24
 2824 00ae 1C46     		mov	r4, r3
1036:../firmware/gd32f3x0_hal_peripheral/Source/gd32f3x0_hal_uart.c ****             (uint32_t)&USART_TDATA(uart->periph), uart->txbuffer.length, &dma_irq)) {
 2825              		.loc 1 1036 24
 2826 00b0 FB68     		ldr	r3, [r7, #12]
 2827 00b2 1B68     		ldr	r3, [r3]
1035:../firmware/gd32f3x0_hal_peripheral/Source/gd32f3x0_hal_uart.c ****             (uint32_t)&USART_TDATA(uart->periph), uart->txbuffer.length, &dma_irq)) {
 2828              		.loc 1 1035 24
 2829 00b4 03F12802 		add	r2, r3, #40
 2830              		.loc 1 1036 65
 2831 00b8 FB68     		ldr	r3, [r7, #12]
 2832 00ba 9B6B     		ldr	r3, [r3, #56]
1035:../firmware/gd32f3x0_hal_peripheral/Source/gd32f3x0_hal_uart.c ****             (uint32_t)&USART_TDATA(uart->periph), uart->txbuffer.length, &dma_irq)) {
 2833              		.loc 1 1035 24
 2834 00bc 99B2     		uxth	r1, r3
 2835 00be 07F11403 		add	r3, r7, #20
 2836 00c2 0093     		str	r3, [sp]
 2837 00c4 0B46     		mov	r3, r1
 2838 00c6 2146     		mov	r1, r4
 2839 00c8 FFF7FEFF 		bl	hal_dma_start_interrupt
 2840 00cc 0346     		mov	r3, r0
1035:../firmware/gd32f3x0_hal_peripheral/Source/gd32f3x0_hal_uart.c ****             (uint32_t)&USART_TDATA(uart->periph), uart->txbuffer.length, &dma_irq)) {
 2841              		.loc 1 1035 7
 2842 00ce 002B     		cmp	r3, #0
 2843 00d0 0DD0     		beq	.L143
1037:../firmware/gd32f3x0_hal_peripheral/Source/gd32f3x0_hal_uart.c ****         uart->tx_state = UART_STATE_FREE;
 2844              		.loc 1 1037 24
 2845 00d2 FB68     		ldr	r3, [r7, #12]
 2846 00d4 0022     		movs	r2, #0
 2847 00d6 83F85220 		strb	r2, [r3, #82]
1038:../firmware/gd32f3x0_hal_peripheral/Source/gd32f3x0_hal_uart.c ****         uart->error_state = HAL_UART_ERROR_DMATX;
 2848              		.loc 1 1038 27
 2849 00da FB68     		ldr	r3, [r7, #12]
 2850 00dc 1022     		movs	r2, #16
 2851 00de A3F85020 		strh	r2, [r3, #80]	@ movhi
1039:../firmware/gd32f3x0_hal_peripheral/Source/gd32f3x0_hal_uart.c ****         /* unlock uart */
1040:../firmware/gd32f3x0_hal_peripheral/Source/gd32f3x0_hal_uart.c ****         HAL_UNLOCK(uart);
 2852              		.loc 1 1040 9
 2853 00e2 FB68     		ldr	r3, [r7, #12]
 2854 00e4 0022     		movs	r2, #0
 2855 00e6 83F85C20 		strb	r2, [r3, #92]
1041:../firmware/gd32f3x0_hal_peripheral/Source/gd32f3x0_hal_uart.c **** 
1042:../firmware/gd32f3x0_hal_peripheral/Source/gd32f3x0_hal_uart.c ****         return HAL_ERR_NONE;
 2856              		.loc 1 1042 16
 2857 00ea 0023     		movs	r3, #0
 2858 00ec 10E0     		b	.L144
 2859              	.L143:
1043:../firmware/gd32f3x0_hal_peripheral/Source/gd32f3x0_hal_uart.c ****     }
1044:../firmware/gd32f3x0_hal_peripheral/Source/gd32f3x0_hal_uart.c **** 
1045:../firmware/gd32f3x0_hal_peripheral/Source/gd32f3x0_hal_uart.c ****     /* clear UART TC interrupt flag */
1046:../firmware/gd32f3x0_hal_peripheral/Source/gd32f3x0_hal_uart.c ****     hals_uart_interrupt_flag_clear(uart->periph, USART_INT_FLAG_TC);
 2860              		.loc 1 1046 5
 2861 00ee FB68     		ldr	r3, [r7, #12]
 2862 00f0 1B68     		ldr	r3, [r3]
 2863 00f2 0C49     		ldr	r1, .L145+12
 2864 00f4 1846     		mov	r0, r3
 2865 00f6 FFF7FEFF 		bl	hals_uart_interrupt_flag_clear
1047:../firmware/gd32f3x0_hal_peripheral/Source/gd32f3x0_hal_uart.c **** 
1048:../firmware/gd32f3x0_hal_peripheral/Source/gd32f3x0_hal_uart.c ****     /* DMA enable for transmission */
1049:../firmware/gd32f3x0_hal_peripheral/Source/gd32f3x0_hal_uart.c ****     hals_uart_dma_transmit_config(uart->periph, USART_TRANSMIT_DMA_ENABLE);
 2866              		.loc 1 1049 5
 2867 00fa FB68     		ldr	r3, [r7, #12]
 2868 00fc 1B68     		ldr	r3, [r3]
 2869 00fe 8021     		movs	r1, #128
 2870 0100 1846     		mov	r0, r3
 2871 0102 FFF7FEFF 		bl	hals_uart_dma_transmit_config
1050:../firmware/gd32f3x0_hal_peripheral/Source/gd32f3x0_hal_uart.c **** 
1051:../firmware/gd32f3x0_hal_peripheral/Source/gd32f3x0_hal_uart.c ****     /* unlock uart */
1052:../firmware/gd32f3x0_hal_peripheral/Source/gd32f3x0_hal_uart.c ****     HAL_UNLOCK(uart);
 2872              		.loc 1 1052 5
 2873 0106 FB68     		ldr	r3, [r7, #12]
 2874 0108 0022     		movs	r2, #0
 2875 010a 83F85C20 		strb	r2, [r3, #92]
1053:../firmware/gd32f3x0_hal_peripheral/Source/gd32f3x0_hal_uart.c **** 
1054:../firmware/gd32f3x0_hal_peripheral/Source/gd32f3x0_hal_uart.c ****     return HAL_ERR_NONE;
 2876              		.loc 1 1054 12
 2877 010e 0023     		movs	r3, #0
 2878              	.L144:
1055:../firmware/gd32f3x0_hal_peripheral/Source/gd32f3x0_hal_uart.c **** }
 2879              		.loc 1 1055 1 discriminator 1
 2880 0110 1846     		mov	r0, r3
 2881 0112 2437     		adds	r7, r7, #36
 2882              		.cfi_def_cfa_offset 12
 2883 0114 BD46     		mov	sp, r7
 2884              		.cfi_def_cfa_register 13
 2885              		@ sp needed
 2886 0116 90BD     		pop	{r4, r7, pc}
 2887              	.L146:
 2888              		.align	2
 2889              	.L145:
 2890 0118 00000000 		.word	_uart_transmit_complete_interrupt
 2891 011c 00000000 		.word	_uart_transmit_dma
 2892 0120 00000000 		.word	_uart_dma_error
 2893 0124 06000607 		.word	117833734
 2894              		.cfi_endproc
 2895              	.LFE129:
 2897              		.section	.text.hal_uart_receive_dma,"ax",%progbits
 2898              		.align	1
 2899              		.global	hal_uart_receive_dma
 2900              		.syntax unified
 2901              		.thumb
 2902              		.thumb_func
 2903              		.fpu softvfp
 2905              	hal_uart_receive_dma:
 2906              	.LFB130:
1056:../firmware/gd32f3x0_hal_peripheral/Source/gd32f3x0_hal_uart.c **** 
1057:../firmware/gd32f3x0_hal_peripheral/Source/gd32f3x0_hal_uart.c **** /*!
1058:../firmware/gd32f3x0_hal_peripheral/Source/gd32f3x0_hal_uart.c ****     \brief      receive amounts of data by dma method
1059:../firmware/gd32f3x0_hal_peripheral/Source/gd32f3x0_hal_uart.c ****                 the function is non-blocking
1060:../firmware/gd32f3x0_hal_peripheral/Source/gd32f3x0_hal_uart.c ****     \param[in]  uart: uart device information structure
1061:../firmware/gd32f3x0_hal_peripheral/Source/gd32f3x0_hal_uart.c ****                     the structure is not necessary to be reconfigured after structrue initializatio
1062:../firmware/gd32f3x0_hal_peripheral/Source/gd32f3x0_hal_uart.c ****                     the structure parameters altering is automatically configured by core
1063:../firmware/gd32f3x0_hal_peripheral/Source/gd32f3x0_hal_uart.c ****     \param[in]  p_buffer: pointer to data buffer
1064:../firmware/gd32f3x0_hal_peripheral/Source/gd32f3x0_hal_uart.c ****     \param[in]  length: number of data to be received
1065:../firmware/gd32f3x0_hal_peripheral/Source/gd32f3x0_hal_uart.c ****     \param[in]  p_func: pointer to callback function
1066:../firmware/gd32f3x0_hal_peripheral/Source/gd32f3x0_hal_uart.c ****     \param[out] none
1067:../firmware/gd32f3x0_hal_peripheral/Source/gd32f3x0_hal_uart.c ****     \retval     error code: HAL_ERR_NONE, HAL_ERR_ADDRESS, HAL_ERR_VAL, HAL_ERR_BUSY details refer 
1068:../firmware/gd32f3x0_hal_peripheral/Source/gd32f3x0_hal_uart.c **** */
1069:../firmware/gd32f3x0_hal_peripheral/Source/gd32f3x0_hal_uart.c **** int32_t hal_uart_receive_dma(hal_uart_dev_struct *uart, uint8_t *p_buffer, uint16_t length, hal_uar
1070:../firmware/gd32f3x0_hal_peripheral/Source/gd32f3x0_hal_uart.c **** {
 2907              		.loc 1 1070 1
 2908              		.cfi_startproc
 2909              		@ args = 0, pretend = 0, frame = 32
 2910              		@ frame_needed = 1, uses_anonymous_args = 0
 2911 0000 90B5     		push	{r4, r7, lr}
 2912              		.cfi_def_cfa_offset 12
 2913              		.cfi_offset 4, -12
 2914              		.cfi_offset 7, -8
 2915              		.cfi_offset 14, -4
 2916 0002 8BB0     		sub	sp, sp, #44
 2917              		.cfi_def_cfa_offset 56
 2918 0004 02AF     		add	r7, sp, #8
 2919              		.cfi_def_cfa 7, 48
 2920 0006 F860     		str	r0, [r7, #12]
 2921 0008 B960     		str	r1, [r7, #8]
 2922 000a 3B60     		str	r3, [r7]
 2923 000c 1346     		mov	r3, r2	@ movhi
 2924 000e FB80     		strh	r3, [r7, #6]	@ movhi
1071:../firmware/gd32f3x0_hal_peripheral/Source/gd32f3x0_hal_uart.c ****     hal_dma_irq_struct dma_irq;
1072:../firmware/gd32f3x0_hal_peripheral/Source/gd32f3x0_hal_uart.c **** 
1073:../firmware/gd32f3x0_hal_peripheral/Source/gd32f3x0_hal_uart.c **** #if (1 == HAL_PARAMETER_CHECK)
1074:../firmware/gd32f3x0_hal_peripheral/Source/gd32f3x0_hal_uart.c ****     /* check the parameters */
1075:../firmware/gd32f3x0_hal_peripheral/Source/gd32f3x0_hal_uart.c ****     if((NULL == uart) || (NULL == p_buffer) || (0U == length)) {
1076:../firmware/gd32f3x0_hal_peripheral/Source/gd32f3x0_hal_uart.c ****         HAL_DEBUGE("parameter [uart] or [p_buffer] or [length] value is invalid");
1077:../firmware/gd32f3x0_hal_peripheral/Source/gd32f3x0_hal_uart.c ****         return HAL_ERR_ADDRESS;
1078:../firmware/gd32f3x0_hal_peripheral/Source/gd32f3x0_hal_uart.c ****     }
1079:../firmware/gd32f3x0_hal_peripheral/Source/gd32f3x0_hal_uart.c **** 
1080:../firmware/gd32f3x0_hal_peripheral/Source/gd32f3x0_hal_uart.c ****     /* check the parameter */
1081:../firmware/gd32f3x0_hal_peripheral/Source/gd32f3x0_hal_uart.c ****     if(NULL == uart->p_dma_rx) {
1082:../firmware/gd32f3x0_hal_peripheral/Source/gd32f3x0_hal_uart.c ****         HAL_DEBUGE("parameter [uart->p_dma_rx] value is invalid");
1083:../firmware/gd32f3x0_hal_peripheral/Source/gd32f3x0_hal_uart.c ****         return HAL_ERR_ADDRESS;
1084:../firmware/gd32f3x0_hal_peripheral/Source/gd32f3x0_hal_uart.c ****     }
1085:../firmware/gd32f3x0_hal_peripheral/Source/gd32f3x0_hal_uart.c **** #endif /* 1 == HAL_PARAMETER_CHECK */
1086:../firmware/gd32f3x0_hal_peripheral/Source/gd32f3x0_hal_uart.c **** 
1087:../firmware/gd32f3x0_hal_peripheral/Source/gd32f3x0_hal_uart.c ****     /* check the rx_state wheher is busy or not */
1088:../firmware/gd32f3x0_hal_peripheral/Source/gd32f3x0_hal_uart.c ****     if(UART_STATE_BUSY == uart->rx_state) {
 2925              		.loc 1 1088 31
 2926 0010 FB68     		ldr	r3, [r7, #12]
 2927 0012 93F85330 		ldrb	r3, [r3, #83]
 2928 0016 DBB2     		uxtb	r3, r3
 2929              		.loc 1 1088 7
 2930 0018 012B     		cmp	r3, #1
 2931 001a 02D1     		bne	.L148
1089:../firmware/gd32f3x0_hal_peripheral/Source/gd32f3x0_hal_uart.c ****         HAL_DEBUGE("uart rx has already been used, please wait until run_state change to free ");
1090:../firmware/gd32f3x0_hal_peripheral/Source/gd32f3x0_hal_uart.c ****         return HAL_ERR_BUSY;
 2932              		.loc 1 1090 16
 2933 001c 6FF00203 		mvn	r3, #2
 2934 0020 80E0     		b	.L156
 2935              	.L148:
1091:../firmware/gd32f3x0_hal_peripheral/Source/gd32f3x0_hal_uart.c ****     }
1092:../firmware/gd32f3x0_hal_peripheral/Source/gd32f3x0_hal_uart.c **** 
1093:../firmware/gd32f3x0_hal_peripheral/Source/gd32f3x0_hal_uart.c ****     /* lock uart */
1094:../firmware/gd32f3x0_hal_peripheral/Source/gd32f3x0_hal_uart.c ****     HAL_LOCK(uart);
 2936              		.loc 1 1094 5
 2937 0022 FB68     		ldr	r3, [r7, #12]
 2938 0024 93F85C30 		ldrb	r3, [r3, #92]	@ zero_extendqisi2
 2939 0028 012B     		cmp	r3, #1
 2940 002a 02D1     		bne	.L150
 2941              		.loc 1 1094 5 is_stmt 0 discriminator 1
 2942 002c 6FF00103 		mvn	r3, #1
 2943 0030 78E0     		b	.L156
 2944              	.L150:
 2945              		.loc 1 1094 5 discriminator 2
 2946 0032 FB68     		ldr	r3, [r7, #12]
 2947 0034 0122     		movs	r2, #1
 2948 0036 83F85C20 		strb	r2, [r3, #92]
1095:../firmware/gd32f3x0_hal_peripheral/Source/gd32f3x0_hal_uart.c **** 
1096:../firmware/gd32f3x0_hal_peripheral/Source/gd32f3x0_hal_uart.c ****     uart->rx_state      = UART_STATE_BUSY;
 2949              		.loc 1 1096 25 is_stmt 1 discriminator 2
 2950 003a FB68     		ldr	r3, [r7, #12]
 2951 003c 0122     		movs	r2, #1
 2952 003e 83F85320 		strb	r2, [r3, #83]
1097:../firmware/gd32f3x0_hal_peripheral/Source/gd32f3x0_hal_uart.c ****     uart->error_state   = HAL_UART_ERROR_NONE;
 2953              		.loc 1 1097 25 discriminator 2
 2954 0042 FB68     		ldr	r3, [r7, #12]
 2955 0044 0022     		movs	r2, #0
 2956 0046 A3F85020 		strh	r2, [r3, #80]	@ movhi
1098:../firmware/gd32f3x0_hal_peripheral/Source/gd32f3x0_hal_uart.c **** 
1099:../firmware/gd32f3x0_hal_peripheral/Source/gd32f3x0_hal_uart.c ****     /* initialize receive parameters */
1100:../firmware/gd32f3x0_hal_peripheral/Source/gd32f3x0_hal_uart.c ****     uart->rxbuffer.buffer   = (uint8_t *)p_buffer;
 2957              		.loc 1 1100 29 discriminator 2
 2958 004a FB68     		ldr	r3, [r7, #12]
 2959 004c BA68     		ldr	r2, [r7, #8]
 2960 004e 1A64     		str	r2, [r3, #64]
1101:../firmware/gd32f3x0_hal_peripheral/Source/gd32f3x0_hal_uart.c ****     uart->rxbuffer.length   = length;
 2961              		.loc 1 1101 29 discriminator 2
 2962 0050 FA88     		ldrh	r2, [r7, #6]
 2963 0052 FB68     		ldr	r3, [r7, #12]
 2964 0054 5A64     		str	r2, [r3, #68]
1102:../firmware/gd32f3x0_hal_peripheral/Source/gd32f3x0_hal_uart.c ****     uart->rxbuffer.pos      = 0U;
 2965              		.loc 1 1102 29 discriminator 2
 2966 0056 FB68     		ldr	r3, [r7, #12]
 2967 0058 0022     		movs	r2, #0
 2968 005a 9A64     		str	r2, [r3, #72]
1103:../firmware/gd32f3x0_hal_peripheral/Source/gd32f3x0_hal_uart.c ****     uart->data_bit_mask     = _uart_data_bit_mask_get(uart);
 2969              		.loc 1 1103 31 discriminator 2
 2970 005c F868     		ldr	r0, [r7, #12]
 2971 005e FFF7FEFF 		bl	_uart_data_bit_mask_get
 2972 0062 0346     		mov	r3, r0
 2973 0064 1A46     		mov	r2, r3
 2974              		.loc 1 1103 29 discriminator 2
 2975 0066 FB68     		ldr	r3, [r7, #12]
 2976 0068 A3F84C20 		strh	r2, [r3, #76]	@ movhi
1104:../firmware/gd32f3x0_hal_peripheral/Source/gd32f3x0_hal_uart.c **** 
1105:../firmware/gd32f3x0_hal_peripheral/Source/gd32f3x0_hal_uart.c ****     if(NULL != p_func) {
 2977              		.loc 1 1105 7 discriminator 2
 2978 006c 3B68     		ldr	r3, [r7]
 2979 006e 002B     		cmp	r3, #0
 2980 0070 08D0     		beq	.L151
1106:../firmware/gd32f3x0_hal_peripheral/Source/gd32f3x0_hal_uart.c ****         uart->rx_callback = (void *)p_func->complete_func;
 2981              		.loc 1 1106 43
 2982 0072 3B68     		ldr	r3, [r7]
 2983 0074 1A68     		ldr	r2, [r3]
 2984              		.loc 1 1106 27
 2985 0076 FB68     		ldr	r3, [r7, #12]
 2986 0078 5A65     		str	r2, [r3, #84]
1107:../firmware/gd32f3x0_hal_peripheral/Source/gd32f3x0_hal_uart.c ****         uart->uart_irq.error_handle = (hal_irq_handle_cb)p_func->error_func;
 2987              		.loc 1 1107 64
 2988 007a 3B68     		ldr	r3, [r7]
 2989 007c 5A68     		ldr	r2, [r3, #4]
 2990              		.loc 1 1107 37
 2991 007e FB68     		ldr	r3, [r7, #12]
 2992 0080 5A61     		str	r2, [r3, #20]
 2993 0082 05E0     		b	.L152
 2994              	.L151:
1108:../firmware/gd32f3x0_hal_peripheral/Source/gd32f3x0_hal_uart.c ****     } else {
1109:../firmware/gd32f3x0_hal_peripheral/Source/gd32f3x0_hal_uart.c ****         uart->rx_callback = NULL;
 2995              		.loc 1 1109 27
 2996 0084 FB68     		ldr	r3, [r7, #12]
 2997 0086 0022     		movs	r2, #0
 2998 0088 5A65     		str	r2, [r3, #84]
1110:../firmware/gd32f3x0_hal_peripheral/Source/gd32f3x0_hal_uart.c ****         uart->uart_irq.error_handle = NULL;
 2999              		.loc 1 1110 37
 3000 008a FB68     		ldr	r3, [r7, #12]
 3001 008c 0022     		movs	r2, #0
 3002 008e 5A61     		str	r2, [r3, #20]
 3003              	.L152:
1111:../firmware/gd32f3x0_hal_peripheral/Source/gd32f3x0_hal_uart.c ****     }
1112:../firmware/gd32f3x0_hal_peripheral/Source/gd32f3x0_hal_uart.c **** 
1113:../firmware/gd32f3x0_hal_peripheral/Source/gd32f3x0_hal_uart.c ****     /* configure DMA interrupt interrupt callback function */
1114:../firmware/gd32f3x0_hal_peripheral/Source/gd32f3x0_hal_uart.c ****     dma_irq.full_finish_handle  = _uart_receive_dma;
 3004              		.loc 1 1114 33
 3005 0090 264B     		ldr	r3, .L157
 3006 0092 FB61     		str	r3, [r7, #28]
1115:../firmware/gd32f3x0_hal_peripheral/Source/gd32f3x0_hal_uart.c ****     dma_irq.error_handle        = _uart_dma_error;
 3007              		.loc 1 1115 33
 3008 0094 264B     		ldr	r3, .L157+4
 3009 0096 7B61     		str	r3, [r7, #20]
1116:../firmware/gd32f3x0_hal_peripheral/Source/gd32f3x0_hal_uart.c ****     if(NULL != uart->p_dma_rx->dma_irq.half_finish_handle) {
 3010              		.loc 1 1116 20
 3011 0098 FB68     		ldr	r3, [r7, #12]
 3012 009a DB6A     		ldr	r3, [r3, #44]
 3013              		.loc 1 1116 39
 3014 009c 9B68     		ldr	r3, [r3, #8]
 3015              		.loc 1 1116 7
 3016 009e 002B     		cmp	r3, #0
 3017 00a0 04D0     		beq	.L153
1117:../firmware/gd32f3x0_hal_peripheral/Source/gd32f3x0_hal_uart.c ****         dma_irq.half_finish_handle = uart->p_dma_rx->dma_irq.half_finish_handle;
 3018              		.loc 1 1117 42
 3019 00a2 FB68     		ldr	r3, [r7, #12]
 3020 00a4 DB6A     		ldr	r3, [r3, #44]
 3021              		.loc 1 1117 61
 3022 00a6 9B68     		ldr	r3, [r3, #8]
 3023              		.loc 1 1117 36
 3024 00a8 BB61     		str	r3, [r7, #24]
 3025 00aa 01E0     		b	.L154
 3026              	.L153:
1118:../firmware/gd32f3x0_hal_peripheral/Source/gd32f3x0_hal_uart.c ****     } else {
1119:../firmware/gd32f3x0_hal_peripheral/Source/gd32f3x0_hal_uart.c ****         dma_irq.half_finish_handle = NULL;
 3027              		.loc 1 1119 36
 3028 00ac 0023     		movs	r3, #0
 3029 00ae BB61     		str	r3, [r7, #24]
 3030              	.L154:
1120:../firmware/gd32f3x0_hal_peripheral/Source/gd32f3x0_hal_uart.c ****     }
1121:../firmware/gd32f3x0_hal_peripheral/Source/gd32f3x0_hal_uart.c **** 
1122:../firmware/gd32f3x0_hal_peripheral/Source/gd32f3x0_hal_uart.c ****     /* start DMA interrupt mode transfer */
1123:../firmware/gd32f3x0_hal_peripheral/Source/gd32f3x0_hal_uart.c ****     if(HAL_ERR_NONE != hal_dma_start_interrupt(uart->p_dma_rx, (uint32_t)&USART_RDATA(uart->periph)
 3031              		.loc 1 1123 24
 3032 00b0 FB68     		ldr	r3, [r7, #12]
 3033 00b2 D86A     		ldr	r0, [r3, #44]
 3034              		.loc 1 1123 75
 3035 00b4 FB68     		ldr	r3, [r7, #12]
 3036 00b6 1B68     		ldr	r3, [r3]
 3037              		.loc 1 1123 24
 3038 00b8 03F12401 		add	r1, r3, #36
1124:../firmware/gd32f3x0_hal_peripheral/Source/gd32f3x0_hal_uart.c ****             (uint32_t)uart->rxbuffer.buffer, length, &dma_irq)) {
 3039              		.loc 1 1124 37
 3040 00bc FB68     		ldr	r3, [r7, #12]
 3041 00be 1B6C     		ldr	r3, [r3, #64]
1123:../firmware/gd32f3x0_hal_peripheral/Source/gd32f3x0_hal_uart.c ****             (uint32_t)uart->rxbuffer.buffer, length, &dma_irq)) {
 3042              		.loc 1 1123 24
 3043 00c0 1C46     		mov	r4, r3
 3044 00c2 FA88     		ldrh	r2, [r7, #6]
 3045 00c4 07F11403 		add	r3, r7, #20
 3046 00c8 0093     		str	r3, [sp]
 3047 00ca 1346     		mov	r3, r2
 3048 00cc 2246     		mov	r2, r4
 3049 00ce FFF7FEFF 		bl	hal_dma_start_interrupt
 3050 00d2 0346     		mov	r3, r0
1123:../firmware/gd32f3x0_hal_peripheral/Source/gd32f3x0_hal_uart.c ****             (uint32_t)uart->rxbuffer.buffer, length, &dma_irq)) {
 3051              		.loc 1 1123 7
 3052 00d4 002B     		cmp	r3, #0
 3053 00d6 0DD0     		beq	.L155
1125:../firmware/gd32f3x0_hal_peripheral/Source/gd32f3x0_hal_uart.c ****         uart->tx_state = UART_STATE_FREE;
 3054              		.loc 1 1125 24
 3055 00d8 FB68     		ldr	r3, [r7, #12]
 3056 00da 0022     		movs	r2, #0
 3057 00dc 83F85220 		strb	r2, [r3, #82]
1126:../firmware/gd32f3x0_hal_peripheral/Source/gd32f3x0_hal_uart.c ****         uart->error_state = HAL_UART_ERROR_DMARX;
 3058              		.loc 1 1126 27
 3059 00e0 FB68     		ldr	r3, [r7, #12]
 3060 00e2 2022     		movs	r2, #32
 3061 00e4 A3F85020 		strh	r2, [r3, #80]	@ movhi
1127:../firmware/gd32f3x0_hal_peripheral/Source/gd32f3x0_hal_uart.c ****         /* unlock uart */
1128:../firmware/gd32f3x0_hal_peripheral/Source/gd32f3x0_hal_uart.c ****         HAL_UNLOCK(uart);
 3062              		.loc 1 1128 9
 3063 00e8 FB68     		ldr	r3, [r7, #12]
 3064 00ea 0022     		movs	r2, #0
 3065 00ec 83F85C20 		strb	r2, [r3, #92]
1129:../firmware/gd32f3x0_hal_peripheral/Source/gd32f3x0_hal_uart.c **** 
1130:../firmware/gd32f3x0_hal_peripheral/Source/gd32f3x0_hal_uart.c ****         return HAL_ERR_NONE;
 3066              		.loc 1 1130 16
 3067 00f0 0023     		movs	r3, #0
 3068 00f2 17E0     		b	.L156
 3069              	.L155:
1131:../firmware/gd32f3x0_hal_peripheral/Source/gd32f3x0_hal_uart.c ****     }
1132:../firmware/gd32f3x0_hal_peripheral/Source/gd32f3x0_hal_uart.c **** 
1133:../firmware/gd32f3x0_hal_peripheral/Source/gd32f3x0_hal_uart.c ****     /* enable the usart parity error and error interrupt: (frame error, noise error, overrun error)
1134:../firmware/gd32f3x0_hal_peripheral/Source/gd32f3x0_hal_uart.c ****     hals_uart_interrupt_enable(uart->periph, USART_INT_PERR);
 3070              		.loc 1 1134 5
 3071 00f4 FB68     		ldr	r3, [r7, #12]
 3072 00f6 1B68     		ldr	r3, [r3]
 3073 00f8 0821     		movs	r1, #8
 3074 00fa 1846     		mov	r0, r3
 3075 00fc FFF7FEFF 		bl	hals_uart_interrupt_enable
1135:../firmware/gd32f3x0_hal_peripheral/Source/gd32f3x0_hal_uart.c ****     hals_uart_interrupt_enable(uart->periph, USART_INT_ERR);
 3076              		.loc 1 1135 5
 3077 0100 FB68     		ldr	r3, [r7, #12]
 3078 0102 1B68     		ldr	r3, [r3]
 3079 0104 4FF40071 		mov	r1, #512
 3080 0108 1846     		mov	r0, r3
 3081 010a FFF7FEFF 		bl	hals_uart_interrupt_enable
1136:../firmware/gd32f3x0_hal_peripheral/Source/gd32f3x0_hal_uart.c **** 
1137:../firmware/gd32f3x0_hal_peripheral/Source/gd32f3x0_hal_uart.c ****     /* DMA enable for reception */
1138:../firmware/gd32f3x0_hal_peripheral/Source/gd32f3x0_hal_uart.c ****     hals_uart_dma_receive_config(uart->periph, USART_RECEIVE_DMA_ENABLE);
 3082              		.loc 1 1138 5
 3083 010e FB68     		ldr	r3, [r7, #12]
 3084 0110 1B68     		ldr	r3, [r3]
 3085 0112 4021     		movs	r1, #64
 3086 0114 1846     		mov	r0, r3
 3087 0116 FFF7FEFF 		bl	hals_uart_dma_receive_config
1139:../firmware/gd32f3x0_hal_peripheral/Source/gd32f3x0_hal_uart.c **** 
1140:../firmware/gd32f3x0_hal_peripheral/Source/gd32f3x0_hal_uart.c ****     /* lock uart */
1141:../firmware/gd32f3x0_hal_peripheral/Source/gd32f3x0_hal_uart.c ****     HAL_UNLOCK(uart);
 3088              		.loc 1 1141 5
 3089 011a FB68     		ldr	r3, [r7, #12]
 3090 011c 0022     		movs	r2, #0
 3091 011e 83F85C20 		strb	r2, [r3, #92]
1142:../firmware/gd32f3x0_hal_peripheral/Source/gd32f3x0_hal_uart.c **** 
1143:../firmware/gd32f3x0_hal_peripheral/Source/gd32f3x0_hal_uart.c ****     return HAL_ERR_NONE;
 3092              		.loc 1 1143 12
 3093 0122 0023     		movs	r3, #0
 3094              	.L156:
1144:../firmware/gd32f3x0_hal_peripheral/Source/gd32f3x0_hal_uart.c **** }
 3095              		.loc 1 1144 1 discriminator 1
 3096 0124 1846     		mov	r0, r3
 3097 0126 2437     		adds	r7, r7, #36
 3098              		.cfi_def_cfa_offset 12
 3099 0128 BD46     		mov	sp, r7
 3100              		.cfi_def_cfa_register 13
 3101              		@ sp needed
 3102 012a 90BD     		pop	{r4, r7, pc}
 3103              	.L158:
 3104              		.align	2
 3105              	.L157:
 3106 012c 00000000 		.word	_uart_receive_dma
 3107 0130 00000000 		.word	_uart_dma_error
 3108              		.cfi_endproc
 3109              	.LFE130:
 3111              		.section	.text.hal_uart_dma_pause,"ax",%progbits
 3112              		.align	1
 3113              		.global	hal_uart_dma_pause
 3114              		.syntax unified
 3115              		.thumb
 3116              		.thumb_func
 3117              		.fpu softvfp
 3119              	hal_uart_dma_pause:
 3120              	.LFB131:
1145:../firmware/gd32f3x0_hal_peripheral/Source/gd32f3x0_hal_uart.c **** 
1146:../firmware/gd32f3x0_hal_peripheral/Source/gd32f3x0_hal_uart.c **** /*!
1147:../firmware/gd32f3x0_hal_peripheral/Source/gd32f3x0_hal_uart.c ****     \brief      pause uart DMA transfer during transmission process
1148:../firmware/gd32f3x0_hal_peripheral/Source/gd32f3x0_hal_uart.c ****     \param[in]  uart: uart device information structure
1149:../firmware/gd32f3x0_hal_peripheral/Source/gd32f3x0_hal_uart.c ****                     the structure is not necessary to be reconfigured after structrue initializatio
1150:../firmware/gd32f3x0_hal_peripheral/Source/gd32f3x0_hal_uart.c ****                     the structure parameters altering is automatically configured by core
1151:../firmware/gd32f3x0_hal_peripheral/Source/gd32f3x0_hal_uart.c ****     \param[out] none
1152:../firmware/gd32f3x0_hal_peripheral/Source/gd32f3x0_hal_uart.c ****     \retval     error code: HAL_ERR_NONE, HAL_ERR_ADDRESS details refer to gd32f3x0_hal.h
1153:../firmware/gd32f3x0_hal_peripheral/Source/gd32f3x0_hal_uart.c **** */
1154:../firmware/gd32f3x0_hal_peripheral/Source/gd32f3x0_hal_uart.c **** int32_t hal_uart_dma_pause(hal_uart_dev_struct *uart)
1155:../firmware/gd32f3x0_hal_peripheral/Source/gd32f3x0_hal_uart.c **** {
 3121              		.loc 1 1155 1
