   1              		.cpu cortex-m4
   2              		.eabi_attribute 20, 1
   3              		.eabi_attribute 21, 1
   4              		.eabi_attribute 23, 3
   5              		.eabi_attribute 24, 1
   6              		.eabi_attribute 25, 1
   7              		.eabi_attribute 26, 1
   8              		.eabi_attribute 30, 6
   9              		.eabi_attribute 34, 1
  10              		.eabi_attribute 18, 4
  11              		.file	"gd32f3x0_hal_timer.c"
  12              		.text
  13              	.Ltext0:
  14              		.cfi_sections	.debug_frame
  15              		.section	.text.hal_timer_init,"ax",%progbits
  16              		.align	1
  17              		.global	hal_timer_init
  18              		.arch armv7e-m
  19              		.syntax unified
  20              		.thumb
  21              		.thumb_func
  22              		.fpu softvfp
  24              	hal_timer_init:
  25              	.LFB119:
  26              		.file 1 "../firmware/gd32f3x0_hal_peripheral/Source/gd32f3x0_hal_timer.c"
   1:../firmware/gd32f3x0_hal_peripheral/Source/gd32f3x0_hal_timer.c **** /*!
   2:../firmware/gd32f3x0_hal_peripheral/Source/gd32f3x0_hal_timer.c ****     \file    gd32f3x0_hal_timer.c
   3:../firmware/gd32f3x0_hal_peripheral/Source/gd32f3x0_hal_timer.c ****     \brief   TIMER driver
   4:../firmware/gd32f3x0_hal_peripheral/Source/gd32f3x0_hal_timer.c **** 
   5:../firmware/gd32f3x0_hal_peripheral/Source/gd32f3x0_hal_timer.c ****     \version 2023-08-01, V1.0.0, HAL firmware for GD32F3x0
   6:../firmware/gd32f3x0_hal_peripheral/Source/gd32f3x0_hal_timer.c **** */
   7:../firmware/gd32f3x0_hal_peripheral/Source/gd32f3x0_hal_timer.c **** 
   8:../firmware/gd32f3x0_hal_peripheral/Source/gd32f3x0_hal_timer.c **** /*
   9:../firmware/gd32f3x0_hal_peripheral/Source/gd32f3x0_hal_timer.c ****     Copyright (c) 2023, GigaDevice Semiconductor Inc.
  10:../firmware/gd32f3x0_hal_peripheral/Source/gd32f3x0_hal_timer.c **** 
  11:../firmware/gd32f3x0_hal_peripheral/Source/gd32f3x0_hal_timer.c ****     Redistribution and use in source and binary forms, with or without modification,
  12:../firmware/gd32f3x0_hal_peripheral/Source/gd32f3x0_hal_timer.c **** are permitted provided that the following conditions are met:
  13:../firmware/gd32f3x0_hal_peripheral/Source/gd32f3x0_hal_timer.c **** 
  14:../firmware/gd32f3x0_hal_peripheral/Source/gd32f3x0_hal_timer.c ****     1. Redistributions of source code must retain the above copyright notice, this
  15:../firmware/gd32f3x0_hal_peripheral/Source/gd32f3x0_hal_timer.c ****        list of conditions and the following disclaimer.
  16:../firmware/gd32f3x0_hal_peripheral/Source/gd32f3x0_hal_timer.c ****     2. Redistributions in binary form must reproduce the above copyright notice,
  17:../firmware/gd32f3x0_hal_peripheral/Source/gd32f3x0_hal_timer.c ****        this list of conditions and the following disclaimer in the documentation
  18:../firmware/gd32f3x0_hal_peripheral/Source/gd32f3x0_hal_timer.c ****        and/or other materials provided with the distribution.
  19:../firmware/gd32f3x0_hal_peripheral/Source/gd32f3x0_hal_timer.c ****     3. Neither the name of the copyright holder nor the names of its contributors
  20:../firmware/gd32f3x0_hal_peripheral/Source/gd32f3x0_hal_timer.c ****        may be used to endorse or promote products derived from this software without
  21:../firmware/gd32f3x0_hal_peripheral/Source/gd32f3x0_hal_timer.c ****        specific prior written permission.
  22:../firmware/gd32f3x0_hal_peripheral/Source/gd32f3x0_hal_timer.c **** 
  23:../firmware/gd32f3x0_hal_peripheral/Source/gd32f3x0_hal_timer.c ****     THIS SOFTWARE IS PROVIDED BY THE COPYRIGHT HOLDERS AND CONTRIBUTORS "AS IS"
  24:../firmware/gd32f3x0_hal_peripheral/Source/gd32f3x0_hal_timer.c **** AND ANY EXPRESS OR IMPLIED WARRANTIES, INCLUDING, BUT NOT LIMITED TO, THE IMPLIED
  25:../firmware/gd32f3x0_hal_peripheral/Source/gd32f3x0_hal_timer.c **** WARRANTIES OF MERCHANTABILITY AND FITNESS FOR A PARTICULAR PURPOSE ARE DISCLAIMED.
  26:../firmware/gd32f3x0_hal_peripheral/Source/gd32f3x0_hal_timer.c **** IN NO EVENT SHALL THE COPYRIGHT HOLDER OR CONTRIBUTORS BE LIABLE FOR ANY DIRECT,
  27:../firmware/gd32f3x0_hal_peripheral/Source/gd32f3x0_hal_timer.c **** INDIRECT, INCIDENTAL, SPECIAL, EXEMPLARY, OR CONSEQUENTIAL DAMAGES (INCLUDING, BUT
  28:../firmware/gd32f3x0_hal_peripheral/Source/gd32f3x0_hal_timer.c **** NOT LIMITED TO, PROCUREMENT OF SUBSTITUTE GOODS OR SERVICES; LOSS OF USE, DATA, OR
  29:../firmware/gd32f3x0_hal_peripheral/Source/gd32f3x0_hal_timer.c **** PROFITS; OR BUSINESS INTERRUPTION) HOWEVER CAUSED AND ON ANY THEORY OF LIABILITY,
  30:../firmware/gd32f3x0_hal_peripheral/Source/gd32f3x0_hal_timer.c **** WHETHER IN CONTRACT, STRICT LIABILITY, OR TORT (INCLUDING NEGLIGENCE OR OTHERWISE)
  31:../firmware/gd32f3x0_hal_peripheral/Source/gd32f3x0_hal_timer.c **** ARISING IN ANY WAY OUT OF THE USE OF THIS SOFTWARE, EVEN IF ADVISED OF THE POSSIBILITY
  32:../firmware/gd32f3x0_hal_peripheral/Source/gd32f3x0_hal_timer.c **** OF SUCH DAMAGE.
  33:../firmware/gd32f3x0_hal_peripheral/Source/gd32f3x0_hal_timer.c **** */
  34:../firmware/gd32f3x0_hal_peripheral/Source/gd32f3x0_hal_timer.c **** 
  35:../firmware/gd32f3x0_hal_peripheral/Source/gd32f3x0_hal_timer.c **** #include "gd32f3x0_hal.h"
  36:../firmware/gd32f3x0_hal_peripheral/Source/gd32f3x0_hal_timer.c **** 
  37:../firmware/gd32f3x0_hal_peripheral/Source/gd32f3x0_hal_timer.c **** /* DMA callback function */
  38:../firmware/gd32f3x0_hal_peripheral/Source/gd32f3x0_hal_timer.c **** /* DMA transmission complete(TC) callback for TIMER update DMA request */
  39:../firmware/gd32f3x0_hal_peripheral/Source/gd32f3x0_hal_timer.c **** static void _update_dma_full_transfer_complete(void *dma);
  40:../firmware/gd32f3x0_hal_peripheral/Source/gd32f3x0_hal_timer.c **** /* DMA transmission complete(TC) callback for TIMER channel input capture DMA request */
  41:../firmware/gd32f3x0_hal_peripheral/Source/gd32f3x0_hal_timer.c **** static void _channelx_capture_dma_full_transfer_complete(void *dma);
  42:../firmware/gd32f3x0_hal_peripheral/Source/gd32f3x0_hal_timer.c **** /* DMA transmission complete(TC) callback for TIMER compare and pwm DMA request */
  43:../firmware/gd32f3x0_hal_peripheral/Source/gd32f3x0_hal_timer.c **** static void _channelx_compare_dma_full_transfer_complete(void *dma);
  44:../firmware/gd32f3x0_hal_peripheral/Source/gd32f3x0_hal_timer.c **** /* DMA transmission complete(TC) callback for TIMER commutation DMA request */
  45:../firmware/gd32f3x0_hal_peripheral/Source/gd32f3x0_hal_timer.c **** static void _commutation_dma_full_transfer_complete(void *dma);
  46:../firmware/gd32f3x0_hal_peripheral/Source/gd32f3x0_hal_timer.c **** /* DMA transmission complete(TC) callback for TIMER trigger DMA request */
  47:../firmware/gd32f3x0_hal_peripheral/Source/gd32f3x0_hal_timer.c **** static void _trigger_dma_full_transfer_complete(void *dma);
  48:../firmware/gd32f3x0_hal_peripheral/Source/gd32f3x0_hal_timer.c **** /* DMA error callback for TIMER all DMA request */
  49:../firmware/gd32f3x0_hal_peripheral/Source/gd32f3x0_hal_timer.c **** static void _timer_dma_error(void *dma);
  50:../firmware/gd32f3x0_hal_peripheral/Source/gd32f3x0_hal_timer.c **** 
  51:../firmware/gd32f3x0_hal_peripheral/Source/gd32f3x0_hal_timer.c **** /* enable TIMER */
  52:../firmware/gd32f3x0_hal_peripheral/Source/gd32f3x0_hal_timer.c **** static void _timer_enable(hal_timer_dev_struct *timer_dev);
  53:../firmware/gd32f3x0_hal_peripheral/Source/gd32f3x0_hal_timer.c **** /* disable TIMER */
  54:../firmware/gd32f3x0_hal_peripheral/Source/gd32f3x0_hal_timer.c **** static int32_t _timer_disable(hal_timer_dev_struct *timer_dev);
  55:../firmware/gd32f3x0_hal_peripheral/Source/gd32f3x0_hal_timer.c **** /* enable or disable TIMER primary output */
  56:../firmware/gd32f3x0_hal_peripheral/Source/gd32f3x0_hal_timer.c **** static void _timer_primary_output_config(hal_timer_dev_struct *timer_dev, ControlStatus state);
  57:../firmware/gd32f3x0_hal_peripheral/Source/gd32f3x0_hal_timer.c **** 
  58:../firmware/gd32f3x0_hal_peripheral/Source/gd32f3x0_hal_timer.c **** 
  59:../firmware/gd32f3x0_hal_peripheral/Source/gd32f3x0_hal_timer.c **** /*!
  60:../firmware/gd32f3x0_hal_peripheral/Source/gd32f3x0_hal_timer.c ****     \brief      initialize TIMER timebase
  61:../firmware/gd32f3x0_hal_peripheral/Source/gd32f3x0_hal_timer.c ****     \param[in]  timer_dev: TIMER device information structure
  62:../firmware/gd32f3x0_hal_peripheral/Source/gd32f3x0_hal_timer.c ****                   the structure is not necessary to be reconfigured after structure initialization,
  63:../firmware/gd32f3x0_hal_peripheral/Source/gd32f3x0_hal_timer.c ****                   the structure parameters altering is automatically configured by core
  64:../firmware/gd32f3x0_hal_peripheral/Source/gd32f3x0_hal_timer.c ****     \param[in]  periph: specify which TIMER timebase is initialized
  65:../firmware/gd32f3x0_hal_peripheral/Source/gd32f3x0_hal_timer.c ****       \arg        TIMERx(x=0,2,13..16),TIMER1 just for GD32F330 and GD32F350, TIMER5 just for GD32F
  66:../firmware/gd32f3x0_hal_peripheral/Source/gd32f3x0_hal_timer.c ****     \param[in]  timer: TIMER basic init configuration struct
  67:../firmware/gd32f3x0_hal_peripheral/Source/gd32f3x0_hal_timer.c ****                   prescaler: prescaler value of the counter clock,0~65535
  68:../firmware/gd32f3x0_hal_peripheral/Source/gd32f3x0_hal_timer.c ****                   alignedmode:
  69:../firmware/gd32f3x0_hal_peripheral/Source/gd32f3x0_hal_timer.c ****                   only one parameter can be selected which is shown as below:
  70:../firmware/gd32f3x0_hal_peripheral/Source/gd32f3x0_hal_timer.c ****       \arg          TIMER_COUNTER_EDGE: edge-aligned mode
  71:../firmware/gd32f3x0_hal_peripheral/Source/gd32f3x0_hal_timer.c ****       \arg          TIMER_COUNTER_CENTER_DOWN: center-aligned and counting down assert mode
  72:../firmware/gd32f3x0_hal_peripheral/Source/gd32f3x0_hal_timer.c ****       \arg          TIMER_COUNTER_CENTER_UP: center-aligned and counting up assert mode
  73:../firmware/gd32f3x0_hal_peripheral/Source/gd32f3x0_hal_timer.c ****       \arg          TIMER_COUNTER_CENTER_BOTH: center-aligned and counting up/down assert mode
  74:../firmware/gd32f3x0_hal_peripheral/Source/gd32f3x0_hal_timer.c ****                   counter_direction:
  75:../firmware/gd32f3x0_hal_peripheral/Source/gd32f3x0_hal_timer.c ****                   only one parameter can be selected which is shown as below:
  76:../firmware/gd32f3x0_hal_peripheral/Source/gd32f3x0_hal_timer.c ****       \arg          TIMER_COUNTER_UP: counting up direction
  77:../firmware/gd32f3x0_hal_peripheral/Source/gd32f3x0_hal_timer.c ****       \arg          TIMER_COUNTER_DOWN: counting down direction
  78:../firmware/gd32f3x0_hal_peripheral/Source/gd32f3x0_hal_timer.c ****                   period: counter auto reload value,0~65535 (for TIMER1 0x00000000~0xFFFFFFFF)
  79:../firmware/gd32f3x0_hal_peripheral/Source/gd32f3x0_hal_timer.c ****                   clock_division:
  80:../firmware/gd32f3x0_hal_peripheral/Source/gd32f3x0_hal_timer.c ****                   only one parameter can be selected which is shown as below:
  81:../firmware/gd32f3x0_hal_peripheral/Source/gd32f3x0_hal_timer.c ****       \arg          TIMER_CKDIV_DIV1: clock division value is 1, fDTS = fCK_TIMER
  82:../firmware/gd32f3x0_hal_peripheral/Source/gd32f3x0_hal_timer.c ****       \arg          TIMER_CKDIV_DIV2: clock division value is 2, fDTS = fCK_TIMER/2
  83:../firmware/gd32f3x0_hal_peripheral/Source/gd32f3x0_hal_timer.c ****       \arg          TIMER_CKDIV_DIV4: clock division value is 4, fDTS = fCK_TIMER/4
  84:../firmware/gd32f3x0_hal_peripheral/Source/gd32f3x0_hal_timer.c ****                   repetition_counter: counter repetition value,0~255
  85:../firmware/gd32f3x0_hal_peripheral/Source/gd32f3x0_hal_timer.c ****                   autoreload_shadow:
  86:../firmware/gd32f3x0_hal_peripheral/Source/gd32f3x0_hal_timer.c ****                   only one parameter can be selected which is shown as below:
  87:../firmware/gd32f3x0_hal_peripheral/Source/gd32f3x0_hal_timer.c ****       \arg          TIMER_CARL_SHADOW_ENABLE: channel output shadow state enable
  88:../firmware/gd32f3x0_hal_peripheral/Source/gd32f3x0_hal_timer.c ****       \arg          TIMER_CARL_SHADOW_DISABLE: channel output shadow state disable
  89:../firmware/gd32f3x0_hal_peripheral/Source/gd32f3x0_hal_timer.c ****                   trgo_selection: the argument could be selected from enumeration <hal_timer_trgo_s
  90:../firmware/gd32f3x0_hal_peripheral/Source/gd32f3x0_hal_timer.c ****                   master_slave_mode:
  91:../firmware/gd32f3x0_hal_peripheral/Source/gd32f3x0_hal_timer.c ****                   only one parameter can be selected which is shown as below:
  92:../firmware/gd32f3x0_hal_peripheral/Source/gd32f3x0_hal_timer.c ****       \arg          ENABLE: master slave mode enable
  93:../firmware/gd32f3x0_hal_peripheral/Source/gd32f3x0_hal_timer.c ****       \arg          DISABLE: master slave mode disable
  94:../firmware/gd32f3x0_hal_peripheral/Source/gd32f3x0_hal_timer.c ****     \param[out] none
  95:../firmware/gd32f3x0_hal_peripheral/Source/gd32f3x0_hal_timer.c ****     \retval     error code: HAL_ERR_NONE, HAL_ERR_ADDRESS, HAL_ERR_VAL, details refer to gd32f3x0_h
  96:../firmware/gd32f3x0_hal_peripheral/Source/gd32f3x0_hal_timer.c **** */
  97:../firmware/gd32f3x0_hal_peripheral/Source/gd32f3x0_hal_timer.c **** int32_t hal_timer_init(hal_timer_dev_struct *timer_dev, uint32_t periph, hal_timer_init_struct *tim
  98:../firmware/gd32f3x0_hal_peripheral/Source/gd32f3x0_hal_timer.c **** {
  27              		.loc 1 98 1
  28              		.cfi_startproc
  29              		@ args = 0, pretend = 0, frame = 16
  30              		@ frame_needed = 1, uses_anonymous_args = 0
  31 0000 80B5     		push	{r7, lr}
  32              		.cfi_def_cfa_offset 8
  33              		.cfi_offset 7, -8
  34              		.cfi_offset 14, -4
  35 0002 84B0     		sub	sp, sp, #16
  36              		.cfi_def_cfa_offset 24
  37 0004 00AF     		add	r7, sp, #0
  38              		.cfi_def_cfa_register 7
  39 0006 F860     		str	r0, [r7, #12]
  40 0008 B960     		str	r1, [r7, #8]
  41 000a 7A60     		str	r2, [r7, #4]
  99:../firmware/gd32f3x0_hal_peripheral/Source/gd32f3x0_hal_timer.c **** #if (1 == HAL_PARAMETER_CHECK)
 100:../firmware/gd32f3x0_hal_peripheral/Source/gd32f3x0_hal_timer.c ****     /* check the parameters */
 101:../firmware/gd32f3x0_hal_peripheral/Source/gd32f3x0_hal_timer.c ****     if((NULL == timer_dev) || (NULL == timer)) {
 102:../firmware/gd32f3x0_hal_peripheral/Source/gd32f3x0_hal_timer.c ****         HAL_DEBUGE("pointer [timer_dev] or [timer] address is invalid");
 103:../firmware/gd32f3x0_hal_peripheral/Source/gd32f3x0_hal_timer.c ****         return HAL_ERR_ADDRESS;
 104:../firmware/gd32f3x0_hal_peripheral/Source/gd32f3x0_hal_timer.c ****     }
 105:../firmware/gd32f3x0_hal_peripheral/Source/gd32f3x0_hal_timer.c **** #if defined(GD32F350)
 106:../firmware/gd32f3x0_hal_peripheral/Source/gd32f3x0_hal_timer.c ****     /* check the parameters */
 107:../firmware/gd32f3x0_hal_peripheral/Source/gd32f3x0_hal_timer.c ****     if((TIMER0 != periph) && (TIMER1 != periph) && (TIMER2 != periph) && (TIMER5 != periph)
 108:../firmware/gd32f3x0_hal_peripheral/Source/gd32f3x0_hal_timer.c ****             && (TIMER13 != periph) && (TIMER14 != periph) && (TIMER15 != periph) && (TIMER16 != per
 109:../firmware/gd32f3x0_hal_peripheral/Source/gd32f3x0_hal_timer.c ****         HAL_DEBUGE("parameter [periph] value is invalid");
 110:../firmware/gd32f3x0_hal_peripheral/Source/gd32f3x0_hal_timer.c ****         return HAL_ERR_VAL;
 111:../firmware/gd32f3x0_hal_peripheral/Source/gd32f3x0_hal_timer.c ****     }
 112:../firmware/gd32f3x0_hal_peripheral/Source/gd32f3x0_hal_timer.c **** #elif defined(GD32F330)
 113:../firmware/gd32f3x0_hal_peripheral/Source/gd32f3x0_hal_timer.c ****     /* check the parameters */
 114:../firmware/gd32f3x0_hal_peripheral/Source/gd32f3x0_hal_timer.c ****     if((TIMER0 != periph) && (TIMER1 != periph) && (TIMER2 != periph) && (TIMER13 != periph)
 115:../firmware/gd32f3x0_hal_peripheral/Source/gd32f3x0_hal_timer.c ****             && (TIMER14 != periph) && (TIMER15 != periph) && (TIMER16 != periph)) {
 116:../firmware/gd32f3x0_hal_peripheral/Source/gd32f3x0_hal_timer.c ****         HAL_DEBUGE("parameter [periph] value is invalid");
 117:../firmware/gd32f3x0_hal_peripheral/Source/gd32f3x0_hal_timer.c ****         return HAL_ERR_VAL;
 118:../firmware/gd32f3x0_hal_peripheral/Source/gd32f3x0_hal_timer.c ****     }
 119:../firmware/gd32f3x0_hal_peripheral/Source/gd32f3x0_hal_timer.c **** #else
 120:../firmware/gd32f3x0_hal_peripheral/Source/gd32f3x0_hal_timer.c ****     /* check the parameters */
 121:../firmware/gd32f3x0_hal_peripheral/Source/gd32f3x0_hal_timer.c ****     if((TIMER0 != periph) && (TIMER2 != periph) && (TIMER13 != periph)
 122:../firmware/gd32f3x0_hal_peripheral/Source/gd32f3x0_hal_timer.c ****             && (TIMER14 != periph) && (TIMER15 != periph) && (TIMER16 != periph)) {
 123:../firmware/gd32f3x0_hal_peripheral/Source/gd32f3x0_hal_timer.c ****         HAL_DEBUGE("parameter [periph] value is invalid");
 124:../firmware/gd32f3x0_hal_peripheral/Source/gd32f3x0_hal_timer.c ****         return HAL_ERR_VAL;
 125:../firmware/gd32f3x0_hal_peripheral/Source/gd32f3x0_hal_timer.c ****     }
 126:../firmware/gd32f3x0_hal_peripheral/Source/gd32f3x0_hal_timer.c **** #endif /* GD32F350 and GD32F330 */
 127:../firmware/gd32f3x0_hal_peripheral/Source/gd32f3x0_hal_timer.c **** #endif /* 1 == HAL_PARAMETER_CHECK */
 128:../firmware/gd32f3x0_hal_peripheral/Source/gd32f3x0_hal_timer.c **** 
 129:../firmware/gd32f3x0_hal_peripheral/Source/gd32f3x0_hal_timer.c ****     timer_dev->state = HAL_TIMER_STATE_BUSY;
  42              		.loc 1 129 22
  43 000c FB68     		ldr	r3, [r7, #12]
  44 000e 0222     		movs	r2, #2
  45 0010 83F85520 		strb	r2, [r3, #85]
 130:../firmware/gd32f3x0_hal_peripheral/Source/gd32f3x0_hal_timer.c **** 
 131:../firmware/gd32f3x0_hal_peripheral/Source/gd32f3x0_hal_timer.c ****     /* TIMER periph settings */
 132:../firmware/gd32f3x0_hal_peripheral/Source/gd32f3x0_hal_timer.c ****     timer_dev->periph = periph;
  46              		.loc 1 132 23
  47 0014 FB68     		ldr	r3, [r7, #12]
  48 0016 BA68     		ldr	r2, [r7, #8]
  49 0018 1A60     		str	r2, [r3]
 133:../firmware/gd32f3x0_hal_peripheral/Source/gd32f3x0_hal_timer.c **** 
 134:../firmware/gd32f3x0_hal_peripheral/Source/gd32f3x0_hal_timer.c ****     /* initialize TIMER basic settings */
 135:../firmware/gd32f3x0_hal_peripheral/Source/gd32f3x0_hal_timer.c ****     /* configure the counter prescaler value */
 136:../firmware/gd32f3x0_hal_peripheral/Source/gd32f3x0_hal_timer.c ****     TIMER_PSC(periph) = (uint16_t)timer->prescaler;
  50              		.loc 1 136 40
  51 001a 7B68     		ldr	r3, [r7, #4]
  52 001c 1A88     		ldrh	r2, [r3]
  53              		.loc 1 136 5
  54 001e BB68     		ldr	r3, [r7, #8]
  55 0020 2833     		adds	r3, r3, #40
  56              		.loc 1 136 23
  57 0022 1A60     		str	r2, [r3]
 137:../firmware/gd32f3x0_hal_peripheral/Source/gd32f3x0_hal_timer.c **** 
 138:../firmware/gd32f3x0_hal_peripheral/Source/gd32f3x0_hal_timer.c **** #if (defined(GD32F350) || defined(GD32F330))
 139:../firmware/gd32f3x0_hal_peripheral/Source/gd32f3x0_hal_timer.c ****     /* configure the counter direction and aligned mode */
 140:../firmware/gd32f3x0_hal_peripheral/Source/gd32f3x0_hal_timer.c ****     if((TIMER0 == periph) || (TIMER1 == periph) || (TIMER2 == periph)) {
 141:../firmware/gd32f3x0_hal_peripheral/Source/gd32f3x0_hal_timer.c ****         TIMER_CTL0(periph) &= ~(uint32_t)(TIMER_CTL0_DIR | TIMER_CTL0_CAM);
 142:../firmware/gd32f3x0_hal_peripheral/Source/gd32f3x0_hal_timer.c ****         TIMER_CTL0(periph) |= (uint32_t)timer->alignedmode;
 143:../firmware/gd32f3x0_hal_peripheral/Source/gd32f3x0_hal_timer.c ****         TIMER_CTL0(periph) |= (uint32_t)timer->counter_direction;
 144:../firmware/gd32f3x0_hal_peripheral/Source/gd32f3x0_hal_timer.c ****     }
 145:../firmware/gd32f3x0_hal_peripheral/Source/gd32f3x0_hal_timer.c ****     /* configure the autoreload value */
 146:../firmware/gd32f3x0_hal_peripheral/Source/gd32f3x0_hal_timer.c ****     TIMER_CAR(periph) = (uint32_t)timer->period;
 147:../firmware/gd32f3x0_hal_peripheral/Source/gd32f3x0_hal_timer.c **** 
 148:../firmware/gd32f3x0_hal_peripheral/Source/gd32f3x0_hal_timer.c ****     if((TIMER0 == periph) || (TIMER1 == periph) || (TIMER2 == periph) || (TIMER13 == periph)
 149:../firmware/gd32f3x0_hal_peripheral/Source/gd32f3x0_hal_timer.c ****             || (TIMER14 == periph) || (TIMER15 == periph) || (TIMER16 == periph)) {
 150:../firmware/gd32f3x0_hal_peripheral/Source/gd32f3x0_hal_timer.c ****         /* reset the CKDIV bit */
 151:../firmware/gd32f3x0_hal_peripheral/Source/gd32f3x0_hal_timer.c ****         TIMER_CTL0(periph) &= ~(uint32_t)TIMER_CTL0_CKDIV;
 152:../firmware/gd32f3x0_hal_peripheral/Source/gd32f3x0_hal_timer.c ****         TIMER_CTL0(periph) |= (uint32_t)timer->clock_division;
 153:../firmware/gd32f3x0_hal_peripheral/Source/gd32f3x0_hal_timer.c ****     }
 154:../firmware/gd32f3x0_hal_peripheral/Source/gd32f3x0_hal_timer.c **** #else
 155:../firmware/gd32f3x0_hal_peripheral/Source/gd32f3x0_hal_timer.c ****     /* configure the counter direction and aligned mode */
 156:../firmware/gd32f3x0_hal_peripheral/Source/gd32f3x0_hal_timer.c ****     if((TIMER0 == periph)  || (TIMER2 == periph)) {
  58              		.loc 1 156 7
  59 0024 BB68     		ldr	r3, [r7, #8]
  60 0026 4A4A     		ldr	r2, .L10
  61 0028 9342     		cmp	r3, r2
  62 002a 03D0     		beq	.L2
  63              		.loc 1 156 28 discriminator 1
  64 002c BB68     		ldr	r3, [r7, #8]
  65 002e 494A     		ldr	r2, .L10+4
  66 0030 9342     		cmp	r3, r2
  67 0032 15D1     		bne	.L3
  68              	.L2:
 157:../firmware/gd32f3x0_hal_peripheral/Source/gd32f3x0_hal_timer.c ****         TIMER_CTL0(periph) &= ~(uint32_t)(TIMER_CTL0_DIR | TIMER_CTL0_CAM);
  69              		.loc 1 157 28
  70 0034 BB68     		ldr	r3, [r7, #8]
  71 0036 1A68     		ldr	r2, [r3]
  72 0038 BB68     		ldr	r3, [r7, #8]
  73 003a 22F07002 		bic	r2, r2, #112
  74 003e 1A60     		str	r2, [r3]
 158:../firmware/gd32f3x0_hal_peripheral/Source/gd32f3x0_hal_timer.c ****         TIMER_CTL0(periph) |= (uint32_t)timer->alignedmode;
  75              		.loc 1 158 28
  76 0040 BB68     		ldr	r3, [r7, #8]
  77 0042 1A68     		ldr	r2, [r3]
  78              		.loc 1 158 46
  79 0044 7B68     		ldr	r3, [r7, #4]
  80 0046 5B88     		ldrh	r3, [r3, #2]
  81              		.loc 1 158 31
  82 0048 1946     		mov	r1, r3
  83              		.loc 1 158 28
  84 004a BB68     		ldr	r3, [r7, #8]
  85 004c 0A43     		orrs	r2, r2, r1
  86 004e 1A60     		str	r2, [r3]
 159:../firmware/gd32f3x0_hal_peripheral/Source/gd32f3x0_hal_timer.c ****         TIMER_CTL0(periph) |= (uint32_t)timer->counter_direction;
  87              		.loc 1 159 28
  88 0050 BB68     		ldr	r3, [r7, #8]
  89 0052 1A68     		ldr	r2, [r3]
  90              		.loc 1 159 46
  91 0054 7B68     		ldr	r3, [r7, #4]
  92 0056 9B88     		ldrh	r3, [r3, #4]
  93              		.loc 1 159 31
  94 0058 1946     		mov	r1, r3
  95              		.loc 1 159 28
  96 005a BB68     		ldr	r3, [r7, #8]
  97 005c 0A43     		orrs	r2, r2, r1
  98 005e 1A60     		str	r2, [r3]
  99              	.L3:
 160:../firmware/gd32f3x0_hal_peripheral/Source/gd32f3x0_hal_timer.c ****     }
 161:../firmware/gd32f3x0_hal_peripheral/Source/gd32f3x0_hal_timer.c ****     /* configure the autoreload value */
 162:../firmware/gd32f3x0_hal_peripheral/Source/gd32f3x0_hal_timer.c ****     TIMER_CAR(periph) = (uint32_t)timer->period;
 100              		.loc 1 162 5
 101 0060 BB68     		ldr	r3, [r7, #8]
 102 0062 2C33     		adds	r3, r3, #44
 103 0064 1A46     		mov	r2, r3
 104              		.loc 1 162 40
 105 0066 7B68     		ldr	r3, [r7, #4]
 106 0068 9B68     		ldr	r3, [r3, #8]
 107              		.loc 1 162 23
 108 006a 1360     		str	r3, [r2]
 163:../firmware/gd32f3x0_hal_peripheral/Source/gd32f3x0_hal_timer.c **** 
 164:../firmware/gd32f3x0_hal_peripheral/Source/gd32f3x0_hal_timer.c ****     if((TIMER0 == periph) || (TIMER2 == periph) || (TIMER13 == periph)
 109              		.loc 1 164 7
 110 006c BB68     		ldr	r3, [r7, #8]
 111 006e 384A     		ldr	r2, .L10
 112 0070 9342     		cmp	r3, r2
 113 0072 13D0     		beq	.L4
 114              		.loc 1 164 27 discriminator 1
 115 0074 BB68     		ldr	r3, [r7, #8]
 116 0076 374A     		ldr	r2, .L10+4
 117 0078 9342     		cmp	r3, r2
 118 007a 0FD0     		beq	.L4
 119              		.loc 1 164 49 discriminator 2
 120 007c BB68     		ldr	r3, [r7, #8]
 121 007e 364A     		ldr	r2, .L10+8
 122 0080 9342     		cmp	r3, r2
 123 0082 0BD0     		beq	.L4
 165:../firmware/gd32f3x0_hal_peripheral/Source/gd32f3x0_hal_timer.c ****             || (TIMER14 == periph) || (TIMER15 == periph) || (TIMER16 == periph)) {
 124              		.loc 1 165 13
 125 0084 BB68     		ldr	r3, [r7, #8]
 126 0086 354A     		ldr	r2, .L10+12
 127 0088 9342     		cmp	r3, r2
 128 008a 07D0     		beq	.L4
 129              		.loc 1 165 36 discriminator 1
 130 008c BB68     		ldr	r3, [r7, #8]
 131 008e 344A     		ldr	r2, .L10+16
 132 0090 9342     		cmp	r3, r2
 133 0092 03D0     		beq	.L4
 134              		.loc 1 165 59 discriminator 2
 135 0094 BB68     		ldr	r3, [r7, #8]
 136 0096 334A     		ldr	r2, .L10+20
 137 0098 9342     		cmp	r3, r2
 138 009a 0DD1     		bne	.L5
 139              	.L4:
 166:../firmware/gd32f3x0_hal_peripheral/Source/gd32f3x0_hal_timer.c ****         /* reset the CKDIV bit */
 167:../firmware/gd32f3x0_hal_peripheral/Source/gd32f3x0_hal_timer.c ****         TIMER_CTL0(periph) &= ~(uint32_t)TIMER_CTL0_CKDIV;
 140              		.loc 1 167 28
 141 009c BB68     		ldr	r3, [r7, #8]
 142 009e 1A68     		ldr	r2, [r3]
 143 00a0 BB68     		ldr	r3, [r7, #8]
 144 00a2 22F44072 		bic	r2, r2, #768
 145 00a6 1A60     		str	r2, [r3]
 168:../firmware/gd32f3x0_hal_peripheral/Source/gd32f3x0_hal_timer.c ****         TIMER_CTL0(periph) |= (uint32_t)timer->clock_division;
 146              		.loc 1 168 28
 147 00a8 BB68     		ldr	r3, [r7, #8]
 148 00aa 1A68     		ldr	r2, [r3]
 149              		.loc 1 168 46
 150 00ac 7B68     		ldr	r3, [r7, #4]
 151 00ae 9B89     		ldrh	r3, [r3, #12]
 152              		.loc 1 168 31
 153 00b0 1946     		mov	r1, r3
 154              		.loc 1 168 28
 155 00b2 BB68     		ldr	r3, [r7, #8]
 156 00b4 0A43     		orrs	r2, r2, r1
 157 00b6 1A60     		str	r2, [r3]
 158              	.L5:
 169:../firmware/gd32f3x0_hal_peripheral/Source/gd32f3x0_hal_timer.c ****     }
 170:../firmware/gd32f3x0_hal_peripheral/Source/gd32f3x0_hal_timer.c **** #endif
 171:../firmware/gd32f3x0_hal_peripheral/Source/gd32f3x0_hal_timer.c **** 
 172:../firmware/gd32f3x0_hal_peripheral/Source/gd32f3x0_hal_timer.c ****     if((TIMER0 == periph) || (TIMER14 == periph) || (TIMER15 == periph) || (TIMER16 == periph)) {
 159              		.loc 1 172 7
 160 00b8 BB68     		ldr	r3, [r7, #8]
 161 00ba 254A     		ldr	r2, .L10
 162 00bc 9342     		cmp	r3, r2
 163 00be 0BD0     		beq	.L6
 164              		.loc 1 172 27 discriminator 1
 165 00c0 BB68     		ldr	r3, [r7, #8]
 166 00c2 264A     		ldr	r2, .L10+12
 167 00c4 9342     		cmp	r3, r2
 168 00c6 07D0     		beq	.L6
 169              		.loc 1 172 50 discriminator 2
 170 00c8 BB68     		ldr	r3, [r7, #8]
 171 00ca 254A     		ldr	r2, .L10+16
 172 00cc 9342     		cmp	r3, r2
 173 00ce 03D0     		beq	.L6
 174              		.loc 1 172 73 discriminator 3
 175 00d0 BB68     		ldr	r3, [r7, #8]
 176 00d2 244A     		ldr	r2, .L10+20
 177 00d4 9342     		cmp	r3, r2
 178 00d6 04D1     		bne	.L7
 179              	.L6:
 173:../firmware/gd32f3x0_hal_peripheral/Source/gd32f3x0_hal_timer.c ****         /* configure the repetition counter value */
 174:../firmware/gd32f3x0_hal_peripheral/Source/gd32f3x0_hal_timer.c ****         TIMER_CREP(periph) = (uint32_t)timer->repetition_counter;
 180              		.loc 1 174 45
 181 00d8 7B68     		ldr	r3, [r7, #4]
 182 00da 9A7B     		ldrb	r2, [r3, #14]	@ zero_extendqisi2
 183              		.loc 1 174 9
 184 00dc BB68     		ldr	r3, [r7, #8]
 185 00de 3033     		adds	r3, r3, #48
 186              		.loc 1 174 28
 187 00e0 1A60     		str	r2, [r3]
 188              	.L7:
 175:../firmware/gd32f3x0_hal_peripheral/Source/gd32f3x0_hal_timer.c ****     }
 176:../firmware/gd32f3x0_hal_peripheral/Source/gd32f3x0_hal_timer.c **** 
 177:../firmware/gd32f3x0_hal_peripheral/Source/gd32f3x0_hal_timer.c ****     /* generate an update event */
 178:../firmware/gd32f3x0_hal_peripheral/Source/gd32f3x0_hal_timer.c ****     TIMER_SWEVG(periph) |= (uint32_t)TIMER_SWEVG_UPG;
 189              		.loc 1 178 25
 190 00e2 BB68     		ldr	r3, [r7, #8]
 191 00e4 1433     		adds	r3, r3, #20
 192 00e6 1B68     		ldr	r3, [r3]
 193 00e8 BA68     		ldr	r2, [r7, #8]
 194 00ea 1432     		adds	r2, r2, #20
 195 00ec 43F00103 		orr	r3, r3, #1
 196 00f0 1360     		str	r3, [r2]
 179:../firmware/gd32f3x0_hal_peripheral/Source/gd32f3x0_hal_timer.c **** 
 180:../firmware/gd32f3x0_hal_peripheral/Source/gd32f3x0_hal_timer.c ****     /* setting the shadow register for TIMERx_CAR register */
 181:../firmware/gd32f3x0_hal_peripheral/Source/gd32f3x0_hal_timer.c ****     TIMER_CTL0(periph) &= ~TIMER_CTL0_ARSE;
 197              		.loc 1 181 24
 198 00f2 BB68     		ldr	r3, [r7, #8]
 199 00f4 1A68     		ldr	r2, [r3]
 200 00f6 BB68     		ldr	r3, [r7, #8]
 201 00f8 22F08002 		bic	r2, r2, #128
 202 00fc 1A60     		str	r2, [r3]
 182:../firmware/gd32f3x0_hal_peripheral/Source/gd32f3x0_hal_timer.c ****     TIMER_CTL0(periph) |= timer->autoreload_shadow;
 203              		.loc 1 182 24
 204 00fe BB68     		ldr	r3, [r7, #8]
 205 0100 1968     		ldr	r1, [r3]
 206              		.loc 1 182 32
 207 0102 7B68     		ldr	r3, [r7, #4]
 208 0104 1A69     		ldr	r2, [r3, #16]
 209              		.loc 1 182 24
 210 0106 BB68     		ldr	r3, [r7, #8]
 211 0108 0A43     		orrs	r2, r2, r1
 212 010a 1A60     		str	r2, [r3]
 183:../firmware/gd32f3x0_hal_peripheral/Source/gd32f3x0_hal_timer.c **** 
 184:../firmware/gd32f3x0_hal_peripheral/Source/gd32f3x0_hal_timer.c ****     if((TIMER13 != periph) && (TIMER15 != periph) && (TIMER16 != periph)) {
 213              		.loc 1 184 7
 214 010c BB68     		ldr	r3, [r7, #8]
 215 010e 124A     		ldr	r2, .L10+8
 216 0110 9342     		cmp	r3, r2
 217 0112 13D0     		beq	.L8
 218              		.loc 1 184 28 discriminator 1
 219 0114 BB68     		ldr	r3, [r7, #8]
 220 0116 124A     		ldr	r2, .L10+16
 221 0118 9342     		cmp	r3, r2
 222 011a 0FD0     		beq	.L8
 223              		.loc 1 184 51 discriminator 2
 224 011c BB68     		ldr	r3, [r7, #8]
 225 011e 114A     		ldr	r2, .L10+20
 226 0120 9342     		cmp	r3, r2
 227 0122 0BD0     		beq	.L8
 185:../firmware/gd32f3x0_hal_peripheral/Source/gd32f3x0_hal_timer.c ****         /* configure TIMER master slave mode */
 186:../firmware/gd32f3x0_hal_peripheral/Source/gd32f3x0_hal_timer.c ****         hals_timer_master_slave_mode_config(periph, timer->master_slave_mode);
 228              		.loc 1 186 9
 229 0124 7B68     		ldr	r3, [r7, #4]
 230 0126 5B69     		ldr	r3, [r3, #20]
 231 0128 1946     		mov	r1, r3
 232 012a B868     		ldr	r0, [r7, #8]
 233 012c FFF7FEFF 		bl	hals_timer_master_slave_mode_config
 187:../firmware/gd32f3x0_hal_peripheral/Source/gd32f3x0_hal_timer.c ****         /* select TIMER master mode output trigger source */
 188:../firmware/gd32f3x0_hal_peripheral/Source/gd32f3x0_hal_timer.c ****         hals_timer_master_output_trigger_source_select(periph, timer->trgo_selection);
 234              		.loc 1 188 9
 235 0130 7B68     		ldr	r3, [r7, #4]
 236 0132 1B7E     		ldrb	r3, [r3, #24]	@ zero_extendqisi2
 237 0134 1946     		mov	r1, r3
 238 0136 B868     		ldr	r0, [r7, #8]
 239 0138 FFF7FEFF 		bl	hals_timer_master_output_trigger_source_select
 240              	.L8:
 189:../firmware/gd32f3x0_hal_peripheral/Source/gd32f3x0_hal_timer.c ****     }
 190:../firmware/gd32f3x0_hal_peripheral/Source/gd32f3x0_hal_timer.c **** 
 191:../firmware/gd32f3x0_hal_peripheral/Source/gd32f3x0_hal_timer.c ****     /* change TIMER state */
 192:../firmware/gd32f3x0_hal_peripheral/Source/gd32f3x0_hal_timer.c ****     timer_dev->state = HAL_TIMER_STATE_READY;
 241              		.loc 1 192 22
 242 013c FB68     		ldr	r3, [r7, #12]
 243 013e 0522     		movs	r2, #5
 244 0140 83F85520 		strb	r2, [r3, #85]
 193:../firmware/gd32f3x0_hal_peripheral/Source/gd32f3x0_hal_timer.c **** 
 194:../firmware/gd32f3x0_hal_peripheral/Source/gd32f3x0_hal_timer.c ****     return HAL_ERR_NONE;
 245              		.loc 1 194 12
 246 0144 0023     		movs	r3, #0
 195:../firmware/gd32f3x0_hal_peripheral/Source/gd32f3x0_hal_timer.c **** }
 247              		.loc 1 195 1
 248 0146 1846     		mov	r0, r3
 249 0148 1037     		adds	r7, r7, #16
 250              		.cfi_def_cfa_offset 8
 251 014a BD46     		mov	sp, r7
 252              		.cfi_def_cfa_register 13
 253              		@ sp needed
 254 014c 80BD     		pop	{r7, pc}
 255              	.L11:
 256 014e 00BF     		.align	2
 257              	.L10:
 258 0150 002C0140 		.word	1073818624
 259 0154 00040040 		.word	1073742848
 260 0158 00200040 		.word	1073750016
 261 015c 00400140 		.word	1073823744
 262 0160 00440140 		.word	1073824768
 263 0164 00480140 		.word	1073825792
 264              		.cfi_endproc
 265              	.LFE119:
 267              		.section	.text.hal_timer_input_capture_config,"ax",%progbits
 268              		.align	1
 269              		.global	hal_timer_input_capture_config
 270              		.syntax unified
 271              		.thumb
 272              		.thumb_func
 273              		.fpu softvfp
 275              	hal_timer_input_capture_config:
 276              	.LFB120:
 196:../firmware/gd32f3x0_hal_peripheral/Source/gd32f3x0_hal_timer.c **** 
 197:../firmware/gd32f3x0_hal_peripheral/Source/gd32f3x0_hal_timer.c **** /*!
 198:../firmware/gd32f3x0_hal_peripheral/Source/gd32f3x0_hal_timer.c ****     \brief      configure TIMER input capture mode
 199:../firmware/gd32f3x0_hal_peripheral/Source/gd32f3x0_hal_timer.c ****     \param[in]  timer_dev: TIMER device information structure
 200:../firmware/gd32f3x0_hal_peripheral/Source/gd32f3x0_hal_timer.c ****                   the structure is not necessary to be reconfigured after structure initialization,
 201:../firmware/gd32f3x0_hal_peripheral/Source/gd32f3x0_hal_timer.c ****                   the structure parameters altering is automatically configured by core
 202:../firmware/gd32f3x0_hal_peripheral/Source/gd32f3x0_hal_timer.c ****     \param[in]  channel:
 203:../firmware/gd32f3x0_hal_peripheral/Source/gd32f3x0_hal_timer.c ****                 only one parameter can be selected which is shown as below:
 204:../firmware/gd32f3x0_hal_peripheral/Source/gd32f3x0_hal_timer.c ****       \arg        TIMER_CH_0: TIMER channel0(TIMERx(x=0,2,13..16)), TIMER1 just for GD32F330 and GD
 205:../firmware/gd32f3x0_hal_peripheral/Source/gd32f3x0_hal_timer.c ****       \arg        TIMER_CH_1: TIMER channel1(TIMERx(x=0,2,14)), TIMER1 just for GD32F330 and GD32F3
 206:../firmware/gd32f3x0_hal_peripheral/Source/gd32f3x0_hal_timer.c ****       \arg        TIMER_CH_2: TIMER channel2(TIMERx(x=0,2)), TIMER1 just for GD32F330 and GD32F350
 207:../firmware/gd32f3x0_hal_peripheral/Source/gd32f3x0_hal_timer.c ****       \arg        TIMER_CH_3: TIMER channel3(TIMERx(x=0,2)), TIMER1 just for GD32F330 and GD32F350
 208:../firmware/gd32f3x0_hal_peripheral/Source/gd32f3x0_hal_timer.c ****     \param[in]  timer_inputcapture: TIMER input capture configuration structure
 209:../firmware/gd32f3x0_hal_peripheral/Source/gd32f3x0_hal_timer.c ****                   ic_polarity:
 210:../firmware/gd32f3x0_hal_peripheral/Source/gd32f3x0_hal_timer.c ****                   only one parameter can be selected which is shown as below:
 211:../firmware/gd32f3x0_hal_peripheral/Source/gd32f3x0_hal_timer.c ****       \arg          TIMER_IC_POLARITY_RISING : input capture rising edge
 212:../firmware/gd32f3x0_hal_peripheral/Source/gd32f3x0_hal_timer.c ****       \arg          TIMER_IC_POLARITY_FALLING : input capture falling edge
 213:../firmware/gd32f3x0_hal_peripheral/Source/gd32f3x0_hal_timer.c ****       \arg          TIMER_IC_POLARITY_BOTH_EDGE : input capture both edge
 214:../firmware/gd32f3x0_hal_peripheral/Source/gd32f3x0_hal_timer.c ****                   ic_selection:
 215:../firmware/gd32f3x0_hal_peripheral/Source/gd32f3x0_hal_timer.c ****                   only one parameter can be selected which is shown as below:
 216:../firmware/gd32f3x0_hal_peripheral/Source/gd32f3x0_hal_timer.c ****       \arg          TIMER_IC_SELECTION_DIRECTTI : channel y is configured as input and icy is mappe
 217:../firmware/gd32f3x0_hal_peripheral/Source/gd32f3x0_hal_timer.c ****       \arg          TIMER_IC_SELECTION_INDIRECTTI : channel y is configured as input and icy is map
 218:../firmware/gd32f3x0_hal_peripheral/Source/gd32f3x0_hal_timer.c ****       \arg          TIMER_IC_SELECTION_ITS : channel y is configured as input and icy is mapped on 
 219:../firmware/gd32f3x0_hal_peripheral/Source/gd32f3x0_hal_timer.c ****                   ic_prescaler:
 220:../firmware/gd32f3x0_hal_peripheral/Source/gd32f3x0_hal_timer.c ****                   only one parameter can be selected which is shown as below:
 221:../firmware/gd32f3x0_hal_peripheral/Source/gd32f3x0_hal_timer.c ****       \arg          TIMER_IC_PRESCALER_OFF : no prescaler
 222:../firmware/gd32f3x0_hal_peripheral/Source/gd32f3x0_hal_timer.c ****       \arg          TIMER_IC_PRESCALER_DIV2 : divided by 2
 223:../firmware/gd32f3x0_hal_peripheral/Source/gd32f3x0_hal_timer.c ****       \arg          TIMER_IC_PRESCALER_DIV4 : divided by 4
 224:../firmware/gd32f3x0_hal_peripheral/Source/gd32f3x0_hal_timer.c ****       \arg          TIMER_IC_PRESCALER_DIV8 : divided by 8
 225:../firmware/gd32f3x0_hal_peripheral/Source/gd32f3x0_hal_timer.c ****                   ic_filter: 0~15
 226:../firmware/gd32f3x0_hal_peripheral/Source/gd32f3x0_hal_timer.c ****     \param[out] none
 227:../firmware/gd32f3x0_hal_peripheral/Source/gd32f3x0_hal_timer.c ****     \retval     error code: HAL_ERR_NONE, HAL_ERR_ADDRESS, HAL_ERR_NO_SUPPORT, details refer to gd3
 228:../firmware/gd32f3x0_hal_peripheral/Source/gd32f3x0_hal_timer.c **** */
 229:../firmware/gd32f3x0_hal_peripheral/Source/gd32f3x0_hal_timer.c **** int32_t hal_timer_input_capture_config(hal_timer_dev_struct *timer_dev, uint16_t channel, hal_timer
 230:../firmware/gd32f3x0_hal_peripheral/Source/gd32f3x0_hal_timer.c **** {
 277              		.loc 1 230 1
 278              		.cfi_startproc
 279              		@ args = 0, pretend = 0, frame = 16
 280              		@ frame_needed = 1, uses_anonymous_args = 0
 281 0000 80B5     		push	{r7, lr}
 282              		.cfi_def_cfa_offset 8
 283              		.cfi_offset 7, -8
 284              		.cfi_offset 14, -4
 285 0002 84B0     		sub	sp, sp, #16
 286              		.cfi_def_cfa_offset 24
 287 0004 00AF     		add	r7, sp, #0
 288              		.cfi_def_cfa_register 7
 289 0006 F860     		str	r0, [r7, #12]
 290 0008 0B46     		mov	r3, r1
 291 000a 7A60     		str	r2, [r7, #4]
 292 000c 7B81     		strh	r3, [r7, #10]	@ movhi
 231:../firmware/gd32f3x0_hal_peripheral/Source/gd32f3x0_hal_timer.c **** #if (1 == HAL_PARAMETER_CHECK)
 232:../firmware/gd32f3x0_hal_peripheral/Source/gd32f3x0_hal_timer.c ****     /* check the parameters */
 233:../firmware/gd32f3x0_hal_peripheral/Source/gd32f3x0_hal_timer.c ****     if((NULL == timer_dev) || (NULL == timer_inputcapture)) {
 234:../firmware/gd32f3x0_hal_peripheral/Source/gd32f3x0_hal_timer.c ****         HAL_DEBUGE("pointer [timer_dev] or [timer_inputcapture] address is invalid");
 235:../firmware/gd32f3x0_hal_peripheral/Source/gd32f3x0_hal_timer.c ****         return HAL_ERR_ADDRESS;
 236:../firmware/gd32f3x0_hal_peripheral/Source/gd32f3x0_hal_timer.c ****     }
 237:../firmware/gd32f3x0_hal_peripheral/Source/gd32f3x0_hal_timer.c **** #if defined(GD32F350)
 238:../firmware/gd32f3x0_hal_peripheral/Source/gd32f3x0_hal_timer.c ****     /* check the parameters */
 239:../firmware/gd32f3x0_hal_peripheral/Source/gd32f3x0_hal_timer.c ****     if((((TIMER13 == timer_dev->periph) || (TIMER15 == timer_dev->periph) || (TIMER16 == timer_dev-
 240:../firmware/gd32f3x0_hal_peripheral/Source/gd32f3x0_hal_timer.c ****             ((TIMER14 == timer_dev->periph) && (channel != TIMER_CH_0) && (channel != TIMER_CH_1)) 
 241:../firmware/gd32f3x0_hal_peripheral/Source/gd32f3x0_hal_timer.c ****             (TIMER5 == timer_dev->periph)) {
 242:../firmware/gd32f3x0_hal_peripheral/Source/gd32f3x0_hal_timer.c ****         HAL_DEBUGE("the [channel] value of [timer_dev] is invalid");
 243:../firmware/gd32f3x0_hal_peripheral/Source/gd32f3x0_hal_timer.c ****         return HAL_ERR_NO_SUPPORT;
 244:../firmware/gd32f3x0_hal_peripheral/Source/gd32f3x0_hal_timer.c ****     }
 245:../firmware/gd32f3x0_hal_peripheral/Source/gd32f3x0_hal_timer.c **** #else
 246:../firmware/gd32f3x0_hal_peripheral/Source/gd32f3x0_hal_timer.c ****     /* check the parameters */
 247:../firmware/gd32f3x0_hal_peripheral/Source/gd32f3x0_hal_timer.c ****     if((((TIMER13 == timer_dev->periph) || (TIMER15 == timer_dev->periph) || (TIMER16 == timer_dev-
 248:../firmware/gd32f3x0_hal_peripheral/Source/gd32f3x0_hal_timer.c ****             ((TIMER14 == timer_dev->periph) && (channel != TIMER_CH_0) && (channel != TIMER_CH_1)))
 249:../firmware/gd32f3x0_hal_peripheral/Source/gd32f3x0_hal_timer.c ****         HAL_DEBUGE("the [channel] value of [timer_dev] is invalid");
 250:../firmware/gd32f3x0_hal_peripheral/Source/gd32f3x0_hal_timer.c ****         return HAL_ERR_NO_SUPPORT;
 251:../firmware/gd32f3x0_hal_peripheral/Source/gd32f3x0_hal_timer.c ****     }
 252:../firmware/gd32f3x0_hal_peripheral/Source/gd32f3x0_hal_timer.c **** #endif /* GD32F350 */
 253:../firmware/gd32f3x0_hal_peripheral/Source/gd32f3x0_hal_timer.c **** #endif /* 1 == HAL_PARAMETER_CHECK */
 254:../firmware/gd32f3x0_hal_peripheral/Source/gd32f3x0_hal_timer.c **** 
 255:../firmware/gd32f3x0_hal_peripheral/Source/gd32f3x0_hal_timer.c ****     timer_dev->state = HAL_TIMER_STATE_BUSY;
 293              		.loc 1 255 22
 294 000e FB68     		ldr	r3, [r7, #12]
 295 0010 0222     		movs	r2, #2
 296 0012 83F85520 		strb	r2, [r3, #85]
 256:../firmware/gd32f3x0_hal_peripheral/Source/gd32f3x0_hal_timer.c **** 
 257:../firmware/gd32f3x0_hal_peripheral/Source/gd32f3x0_hal_timer.c ****     /* configure TIMER input capture parameter */
 258:../firmware/gd32f3x0_hal_peripheral/Source/gd32f3x0_hal_timer.c ****     hals_timer_channel_input_capture_config(timer_dev->periph, channel, timer_inputcapture);
 297              		.loc 1 258 5
 298 0016 FB68     		ldr	r3, [r7, #12]
 299 0018 1B68     		ldr	r3, [r3]
 300 001a 7989     		ldrh	r1, [r7, #10]
 301 001c 7A68     		ldr	r2, [r7, #4]
 302 001e 1846     		mov	r0, r3
 303 0020 FFF7FEFF 		bl	hals_timer_channel_input_capture_config
 259:../firmware/gd32f3x0_hal_peripheral/Source/gd32f3x0_hal_timer.c **** 
 260:../firmware/gd32f3x0_hal_peripheral/Source/gd32f3x0_hal_timer.c ****     /* change TIMER state */
 261:../firmware/gd32f3x0_hal_peripheral/Source/gd32f3x0_hal_timer.c ****     timer_dev->state = HAL_TIMER_STATE_READY;
 304              		.loc 1 261 22
 305 0024 FB68     		ldr	r3, [r7, #12]
 306 0026 0522     		movs	r2, #5
 307 0028 83F85520 		strb	r2, [r3, #85]
 262:../firmware/gd32f3x0_hal_peripheral/Source/gd32f3x0_hal_timer.c **** 
 263:../firmware/gd32f3x0_hal_peripheral/Source/gd32f3x0_hal_timer.c ****     return HAL_ERR_NONE;
 308              		.loc 1 263 12
 309 002c 0023     		movs	r3, #0
 264:../firmware/gd32f3x0_hal_peripheral/Source/gd32f3x0_hal_timer.c **** }
 310              		.loc 1 264 1
 311 002e 1846     		mov	r0, r3
 312 0030 1037     		adds	r7, r7, #16
 313              		.cfi_def_cfa_offset 8
 314 0032 BD46     		mov	sp, r7
 315              		.cfi_def_cfa_register 13
 316              		@ sp needed
 317 0034 80BD     		pop	{r7, pc}
 318              		.cfi_endproc
 319              	.LFE120:
 321              		.section	.text.hal_timer_output_compare_config,"ax",%progbits
 322              		.align	1
 323              		.global	hal_timer_output_compare_config
 324              		.syntax unified
 325              		.thumb
 326              		.thumb_func
 327              		.fpu softvfp
 329              	hal_timer_output_compare_config:
 330              	.LFB121:
 265:../firmware/gd32f3x0_hal_peripheral/Source/gd32f3x0_hal_timer.c **** 
 266:../firmware/gd32f3x0_hal_peripheral/Source/gd32f3x0_hal_timer.c **** /*!
 267:../firmware/gd32f3x0_hal_peripheral/Source/gd32f3x0_hal_timer.c ****     \brief      configure TIMER output compare mode
 268:../firmware/gd32f3x0_hal_peripheral/Source/gd32f3x0_hal_timer.c ****     \param[in]  timer_dev: TIMER device information structure
 269:../firmware/gd32f3x0_hal_peripheral/Source/gd32f3x0_hal_timer.c ****                   the structure is not necessary to be reconfigured after structure initialization,
 270:../firmware/gd32f3x0_hal_peripheral/Source/gd32f3x0_hal_timer.c ****                   the structure parameters altering is automatically configured by core
 271:../firmware/gd32f3x0_hal_peripheral/Source/gd32f3x0_hal_timer.c ****     \param[in]  channel:
 272:../firmware/gd32f3x0_hal_peripheral/Source/gd32f3x0_hal_timer.c ****                 only one parameter can be selected which is shown as below:
 273:../firmware/gd32f3x0_hal_peripheral/Source/gd32f3x0_hal_timer.c ****       \arg        TIMER_CH_0: TIMER channel 0(TIMERx(x=0,2,13..16)), TIMER1 just for GD32F330 and G
 274:../firmware/gd32f3x0_hal_peripheral/Source/gd32f3x0_hal_timer.c ****       \arg        TIMER_CH_1: TIMER channel 1(TIMERx(x=0,2,14)), TIMER1 just for GD32F330 and GD32F
 275:../firmware/gd32f3x0_hal_peripheral/Source/gd32f3x0_hal_timer.c ****       \arg        TIMER_CH_2: TIMER channel 2(TIMERx(x=0,2)), TIMER1 just for GD32F330 and GD32F350
 276:../firmware/gd32f3x0_hal_peripheral/Source/gd32f3x0_hal_timer.c ****       \arg        TIMER_CH_3: TIMER channel 3(TIMERx(x=0,2)), TIMER1 just for GD32F330 and GD32F350
 277:../firmware/gd32f3x0_hal_peripheral/Source/gd32f3x0_hal_timer.c ****     \param[in]  timer_outputcompare: TIMER output compare configuration structure
 278:../firmware/gd32f3x0_hal_peripheral/Source/gd32f3x0_hal_timer.c ****                   compare_mode: the argument could be selected from enumeration <hal_timer_output_c
 279:../firmware/gd32f3x0_hal_peripheral/Source/gd32f3x0_hal_timer.c ****                   oc_pulse_value:0~65535,(for TIMER1 0x00000000~0xFFFFFFFF)
 280:../firmware/gd32f3x0_hal_peripheral/Source/gd32f3x0_hal_timer.c ****                   oc_polarity:
 281:../firmware/gd32f3x0_hal_peripheral/Source/gd32f3x0_hal_timer.c ****                   only one parameter can be selected which is shown as below:
 282:../firmware/gd32f3x0_hal_peripheral/Source/gd32f3x0_hal_timer.c ****       \arg          TIMER_OC_POLARITY_HIGH : channel output polarity is high
 283:../firmware/gd32f3x0_hal_peripheral/Source/gd32f3x0_hal_timer.c ****       \arg          TIMER_OC_POLARITY_LOW : channel output polarity is low
 284:../firmware/gd32f3x0_hal_peripheral/Source/gd32f3x0_hal_timer.c ****                   oc_idlestate:
 285:../firmware/gd32f3x0_hal_peripheral/Source/gd32f3x0_hal_timer.c ****                   only one parameter can be selected which is shown as below:
 286:../firmware/gd32f3x0_hal_peripheral/Source/gd32f3x0_hal_timer.c ****       \arg          TIMER_OC_IDLE_STATE_LOW : idle state of channel output is high
 287:../firmware/gd32f3x0_hal_peripheral/Source/gd32f3x0_hal_timer.c ****       \arg          TIMER_OC_IDLE_STATE_HIGH : idle state of channel output is low
 288:../firmware/gd32f3x0_hal_peripheral/Source/gd32f3x0_hal_timer.c ****                   ocn_polarity:
 289:../firmware/gd32f3x0_hal_peripheral/Source/gd32f3x0_hal_timer.c ****                   only one parameter can be selected which is shown as below:
 290:../firmware/gd32f3x0_hal_peripheral/Source/gd32f3x0_hal_timer.c ****       \arg          TIMER_OCN_POLARITY_HIGH : channel complementary output polarity is high
 291:../firmware/gd32f3x0_hal_peripheral/Source/gd32f3x0_hal_timer.c ****       \arg          TIMER_OCN_POLARITY_LOW : channel complementary output polarity is low
 292:../firmware/gd32f3x0_hal_peripheral/Source/gd32f3x0_hal_timer.c ****                   ocn_idlestate:
 293:../firmware/gd32f3x0_hal_peripheral/Source/gd32f3x0_hal_timer.c ****                   only one parameter can be selected which is shown as below:
 294:../firmware/gd32f3x0_hal_peripheral/Source/gd32f3x0_hal_timer.c ****       \arg          TIMER_OCN_IDLE_STATE_LOW : idle state of channel complementary output is high
 295:../firmware/gd32f3x0_hal_peripheral/Source/gd32f3x0_hal_timer.c ****       \arg          TIMER_OCN_IDLE_STATE_HIGH :  idle state of channel complementary output is low
 296:../firmware/gd32f3x0_hal_peripheral/Source/gd32f3x0_hal_timer.c ****                   oc_shadow:
 297:../firmware/gd32f3x0_hal_peripheral/Source/gd32f3x0_hal_timer.c ****                   only one parameter can be selected which is shown as below:
 298:../firmware/gd32f3x0_hal_peripheral/Source/gd32f3x0_hal_timer.c ****       \arg          TIMER_OC_SHADOW_ENABLE : channel output compare shadow enable
 299:../firmware/gd32f3x0_hal_peripheral/Source/gd32f3x0_hal_timer.c ****       \arg          TIMER_OC_SHADOW_DISABLE : channel output compare shadow disable
 300:../firmware/gd32f3x0_hal_peripheral/Source/gd32f3x0_hal_timer.c ****                   oc_fastmode:
 301:../firmware/gd32f3x0_hal_peripheral/Source/gd32f3x0_hal_timer.c ****                   only one parameter can be selected which is shown as below:
 302:../firmware/gd32f3x0_hal_peripheral/Source/gd32f3x0_hal_timer.c ****       \arg          TIMER_OC_FAST_ENABLE : channel output fast function enable
 303:../firmware/gd32f3x0_hal_peripheral/Source/gd32f3x0_hal_timer.c ****       \arg          TIMER_OC_FAST_DISABLE : channel output fast function disable
 304:../firmware/gd32f3x0_hal_peripheral/Source/gd32f3x0_hal_timer.c ****                   oc_clearmode:
 305:../firmware/gd32f3x0_hal_peripheral/Source/gd32f3x0_hal_timer.c ****                   only one parameter can be selected which is shown as below:
 306:../firmware/gd32f3x0_hal_peripheral/Source/gd32f3x0_hal_timer.c ****       \arg          TIMER_OC_CLEAR_ENABLE : channel output clear function enable
 307:../firmware/gd32f3x0_hal_peripheral/Source/gd32f3x0_hal_timer.c ****       \arg          TIMER_OC_CLEAR_DISABLE : channel output clear function disable
 308:../firmware/gd32f3x0_hal_peripheral/Source/gd32f3x0_hal_timer.c ****     \param[out] none
 309:../firmware/gd32f3x0_hal_peripheral/Source/gd32f3x0_hal_timer.c ****     \retval     error code: HAL_ERR_NONE, HAL_ERR_ADDRESS, HAL_ERR_NO_SUPPORT, details refer to gd3
 310:../firmware/gd32f3x0_hal_peripheral/Source/gd32f3x0_hal_timer.c **** */
 311:../firmware/gd32f3x0_hal_peripheral/Source/gd32f3x0_hal_timer.c **** int32_t hal_timer_output_compare_config(hal_timer_dev_struct *timer_dev, uint16_t channel, hal_time
 312:../firmware/gd32f3x0_hal_peripheral/Source/gd32f3x0_hal_timer.c **** {
 331              		.loc 1 312 1
 332              		.cfi_startproc
 333              		@ args = 0, pretend = 0, frame = 16
 334              		@ frame_needed = 1, uses_anonymous_args = 0
 335 0000 80B5     		push	{r7, lr}
 336              		.cfi_def_cfa_offset 8
 337              		.cfi_offset 7, -8
 338              		.cfi_offset 14, -4
 339 0002 84B0     		sub	sp, sp, #16
 340              		.cfi_def_cfa_offset 24
 341 0004 00AF     		add	r7, sp, #0
 342              		.cfi_def_cfa_register 7
 343 0006 F860     		str	r0, [r7, #12]
 344 0008 0B46     		mov	r3, r1
 345 000a 7A60     		str	r2, [r7, #4]
 346 000c 7B81     		strh	r3, [r7, #10]	@ movhi
 313:../firmware/gd32f3x0_hal_peripheral/Source/gd32f3x0_hal_timer.c **** #if (1 == HAL_PARAMETER_CHECK)
 314:../firmware/gd32f3x0_hal_peripheral/Source/gd32f3x0_hal_timer.c ****     /* check the parameters */
 315:../firmware/gd32f3x0_hal_peripheral/Source/gd32f3x0_hal_timer.c ****     if((NULL == timer_dev) || (NULL == timer_outputcompare)) {
 316:../firmware/gd32f3x0_hal_peripheral/Source/gd32f3x0_hal_timer.c ****         HAL_DEBUGE("pointer [timer_dev] or [timer_outputcompare] address is invalid");
 317:../firmware/gd32f3x0_hal_peripheral/Source/gd32f3x0_hal_timer.c ****         return HAL_ERR_ADDRESS;
 318:../firmware/gd32f3x0_hal_peripheral/Source/gd32f3x0_hal_timer.c ****     }
 319:../firmware/gd32f3x0_hal_peripheral/Source/gd32f3x0_hal_timer.c **** #if defined(GD32F350)
 320:../firmware/gd32f3x0_hal_peripheral/Source/gd32f3x0_hal_timer.c ****     /* check the parameters */
 321:../firmware/gd32f3x0_hal_peripheral/Source/gd32f3x0_hal_timer.c ****     if((((TIMER13 == timer_dev->periph) || (TIMER15 == timer_dev->periph) || (TIMER16 == timer_dev-
 322:../firmware/gd32f3x0_hal_peripheral/Source/gd32f3x0_hal_timer.c ****             ((TIMER14 == timer_dev->periph) && (channel != TIMER_CH_0) && (channel != TIMER_CH_1)) 
 323:../firmware/gd32f3x0_hal_peripheral/Source/gd32f3x0_hal_timer.c ****             (TIMER5 == timer_dev->periph)) {
 324:../firmware/gd32f3x0_hal_peripheral/Source/gd32f3x0_hal_timer.c ****         HAL_DEBUGE("the [channel] value of [timer_dev] is invalid");
 325:../firmware/gd32f3x0_hal_peripheral/Source/gd32f3x0_hal_timer.c ****         return HAL_ERR_NO_SUPPORT;
 326:../firmware/gd32f3x0_hal_peripheral/Source/gd32f3x0_hal_timer.c ****     }
 327:../firmware/gd32f3x0_hal_peripheral/Source/gd32f3x0_hal_timer.c **** #else
 328:../firmware/gd32f3x0_hal_peripheral/Source/gd32f3x0_hal_timer.c ****     /* check the parameters */
 329:../firmware/gd32f3x0_hal_peripheral/Source/gd32f3x0_hal_timer.c ****     if((((TIMER13 == timer_dev->periph) || (TIMER15 == timer_dev->periph) || (TIMER16 == timer_dev-
 330:../firmware/gd32f3x0_hal_peripheral/Source/gd32f3x0_hal_timer.c ****             ((TIMER14 == timer_dev->periph) && (channel != TIMER_CH_0) && (channel != TIMER_CH_1)))
 331:../firmware/gd32f3x0_hal_peripheral/Source/gd32f3x0_hal_timer.c ****         HAL_DEBUGE("the [channel] value of [timer_dev] is invalid");
 332:../firmware/gd32f3x0_hal_peripheral/Source/gd32f3x0_hal_timer.c ****         return HAL_ERR_NO_SUPPORT;
 333:../firmware/gd32f3x0_hal_peripheral/Source/gd32f3x0_hal_timer.c ****     }
 334:../firmware/gd32f3x0_hal_peripheral/Source/gd32f3x0_hal_timer.c **** #endif /* GD32F350 */
 335:../firmware/gd32f3x0_hal_peripheral/Source/gd32f3x0_hal_timer.c **** #endif /* 1 == HAL_PARAMETER_CHECK */
 336:../firmware/gd32f3x0_hal_peripheral/Source/gd32f3x0_hal_timer.c **** 
 337:../firmware/gd32f3x0_hal_peripheral/Source/gd32f3x0_hal_timer.c ****     timer_dev->state = HAL_TIMER_STATE_BUSY;
 347              		.loc 1 337 22
 348 000e FB68     		ldr	r3, [r7, #12]
 349 0010 0222     		movs	r2, #2
 350 0012 83F85520 		strb	r2, [r3, #85]
 338:../firmware/gd32f3x0_hal_peripheral/Source/gd32f3x0_hal_timer.c **** 
 339:../firmware/gd32f3x0_hal_peripheral/Source/gd32f3x0_hal_timer.c ****     /* configure TIMER channel output compare mode */
 340:../firmware/gd32f3x0_hal_peripheral/Source/gd32f3x0_hal_timer.c ****     hals_timer_channel_output_config(timer_dev->periph, channel, timer_outputcompare);
 351              		.loc 1 340 5
 352 0016 FB68     		ldr	r3, [r7, #12]
 353 0018 1B68     		ldr	r3, [r3]
 354 001a 7989     		ldrh	r1, [r7, #10]
 355 001c 7A68     		ldr	r2, [r7, #4]
 356 001e 1846     		mov	r0, r3
 357 0020 FFF7FEFF 		bl	hals_timer_channel_output_config
 341:../firmware/gd32f3x0_hal_peripheral/Source/gd32f3x0_hal_timer.c **** 
 342:../firmware/gd32f3x0_hal_peripheral/Source/gd32f3x0_hal_timer.c ****     /* change TIMER state */
 343:../firmware/gd32f3x0_hal_peripheral/Source/gd32f3x0_hal_timer.c ****     timer_dev->state = HAL_TIMER_STATE_READY;
 358              		.loc 1 343 22
 359 0024 FB68     		ldr	r3, [r7, #12]
 360 0026 0522     		movs	r2, #5
 361 0028 83F85520 		strb	r2, [r3, #85]
 344:../firmware/gd32f3x0_hal_peripheral/Source/gd32f3x0_hal_timer.c **** 
 345:../firmware/gd32f3x0_hal_peripheral/Source/gd32f3x0_hal_timer.c ****     return HAL_ERR_NONE;
 362              		.loc 1 345 12
 363 002c 0023     		movs	r3, #0
 346:../firmware/gd32f3x0_hal_peripheral/Source/gd32f3x0_hal_timer.c **** }
 364              		.loc 1 346 1
 365 002e 1846     		mov	r0, r3
 366 0030 1037     		adds	r7, r7, #16
 367              		.cfi_def_cfa_offset 8
 368 0032 BD46     		mov	sp, r7
 369              		.cfi_def_cfa_register 13
 370              		@ sp needed
 371 0034 80BD     		pop	{r7, pc}
 372              		.cfi_endproc
 373              	.LFE121:
 375              		.section	.text.hal_timer_break_config,"ax",%progbits
 376              		.align	1
 377              		.global	hal_timer_break_config
 378              		.syntax unified
 379              		.thumb
 380              		.thumb_func
 381              		.fpu softvfp
 383              	hal_timer_break_config:
 384              	.LFB122:
 347:../firmware/gd32f3x0_hal_peripheral/Source/gd32f3x0_hal_timer.c **** 
 348:../firmware/gd32f3x0_hal_peripheral/Source/gd32f3x0_hal_timer.c **** /*!
 349:../firmware/gd32f3x0_hal_peripheral/Source/gd32f3x0_hal_timer.c ****     \brief      configure TIMER break function
 350:../firmware/gd32f3x0_hal_peripheral/Source/gd32f3x0_hal_timer.c ****     \param[in]  timer_dev: TIMER device information structure
 351:../firmware/gd32f3x0_hal_peripheral/Source/gd32f3x0_hal_timer.c ****                   the structure is not necessary to be reconfigured after structure initialization,
 352:../firmware/gd32f3x0_hal_peripheral/Source/gd32f3x0_hal_timer.c ****                   the structure parameters altering is automatically configured by core
 353:../firmware/gd32f3x0_hal_peripheral/Source/gd32f3x0_hal_timer.c ****     \param[in]  timer_break: TIMER break and complementary channel protection configuration structu
 354:../firmware/gd32f3x0_hal_peripheral/Source/gd32f3x0_hal_timer.c ****                   run_offstate:
 355:../firmware/gd32f3x0_hal_peripheral/Source/gd32f3x0_hal_timer.c ****                   only one parameter can be selected which is shown as below:
 356:../firmware/gd32f3x0_hal_peripheral/Source/gd32f3x0_hal_timer.c ****       \arg          TIMER_ROS_STATE_ENABLE : when POEN bit is set, the channel output signals (CHx_
 357:../firmware/gd32f3x0_hal_peripheral/Source/gd32f3x0_hal_timer.c ****       \arg          TIMER_ROS_STATE_DISABLE : when POEN bit is set, the channel output signals (CHx
 358:../firmware/gd32f3x0_hal_peripheral/Source/gd32f3x0_hal_timer.c ****                   idel_offstate:
 359:../firmware/gd32f3x0_hal_peripheral/Source/gd32f3x0_hal_timer.c ****                   only one parameter can be selected which is shown as below:
 360:../firmware/gd32f3x0_hal_peripheral/Source/gd32f3x0_hal_timer.c ****       \arg          TIMER_IOS_STATE_ENABLE : when POEN bit is reset, he channel output signals (CHx
 361:../firmware/gd32f3x0_hal_peripheral/Source/gd32f3x0_hal_timer.c ****       \arg          TIMER_IOS_STATE_DISABLE : when POEN bit is reset, the channel output signals (C
 362:../firmware/gd32f3x0_hal_peripheral/Source/gd32f3x0_hal_timer.c ****                   dead_time: 0~255
 363:../firmware/gd32f3x0_hal_peripheral/Source/gd32f3x0_hal_timer.c ****                   break_polarity:
 364:../firmware/gd32f3x0_hal_peripheral/Source/gd32f3x0_hal_timer.c ****                   only one parameter can be selected which is shown as below:
 365:../firmware/gd32f3x0_hal_peripheral/Source/gd32f3x0_hal_timer.c ****       \arg          TIMER_BREAK_POLARITY_LOW : break input polarity is low
 366:../firmware/gd32f3x0_hal_peripheral/Source/gd32f3x0_hal_timer.c ****       \arg          TIMER_BREAK_POLARITY_HIGH : break input polarity is high
 367:../firmware/gd32f3x0_hal_peripheral/Source/gd32f3x0_hal_timer.c ****                   output_autostate:
 368:../firmware/gd32f3x0_hal_peripheral/Source/gd32f3x0_hal_timer.c ****                   only one parameter can be selected which is shown as below:
 369:../firmware/gd32f3x0_hal_peripheral/Source/gd32f3x0_hal_timer.c ****       \arg          TIMER_OUTAUTO_ENABLE : output automatic enable
 370:../firmware/gd32f3x0_hal_peripheral/Source/gd32f3x0_hal_timer.c ****       \arg          TIMER_OUTAUTO_DISABLE : output automatic disable
 371:../firmware/gd32f3x0_hal_peripheral/Source/gd32f3x0_hal_timer.c ****                   protect_mode:
 372:../firmware/gd32f3x0_hal_peripheral/Source/gd32f3x0_hal_timer.c ****                   only one parameter can be selected which is shown as below:
 373:../firmware/gd32f3x0_hal_peripheral/Source/gd32f3x0_hal_timer.c ****       \arg          TIMER_CCHP_PROT_OFF : protect disable
 374:../firmware/gd32f3x0_hal_peripheral/Source/gd32f3x0_hal_timer.c ****       \arg          TIMER_CCHP_PROT_0 : PROT mode 0
 375:../firmware/gd32f3x0_hal_peripheral/Source/gd32f3x0_hal_timer.c ****       \arg          TIMER_CCHP_PROT_1 : PROT mode 1
 376:../firmware/gd32f3x0_hal_peripheral/Source/gd32f3x0_hal_timer.c ****       \arg          TIMER_CCHP_PROT_2 : PROT mode 2
 377:../firmware/gd32f3x0_hal_peripheral/Source/gd32f3x0_hal_timer.c ****                   break_state:
 378:../firmware/gd32f3x0_hal_peripheral/Source/gd32f3x0_hal_timer.c ****                   only one parameter can be selected which is shown as below:
 379:../firmware/gd32f3x0_hal_peripheral/Source/gd32f3x0_hal_timer.c ****       \arg          TIMER_BREAK_ENABLE : break input enable
 380:../firmware/gd32f3x0_hal_peripheral/Source/gd32f3x0_hal_timer.c ****       \arg          TIMER_BREAK_DISABLE : break input disable
 381:../firmware/gd32f3x0_hal_peripheral/Source/gd32f3x0_hal_timer.c ****     \param[out] none
 382:../firmware/gd32f3x0_hal_peripheral/Source/gd32f3x0_hal_timer.c ****     \retval     error code: HAL_ERR_NONE, HAL_ERR_ADDRESS, HAL_ERR_NO_SUPPORT, details refer to gd3
 383:../firmware/gd32f3x0_hal_peripheral/Source/gd32f3x0_hal_timer.c **** */
 384:../firmware/gd32f3x0_hal_peripheral/Source/gd32f3x0_hal_timer.c **** int32_t hal_timer_break_config(hal_timer_dev_struct *timer_dev, hal_timer_break_struct *timer_break
 385:../firmware/gd32f3x0_hal_peripheral/Source/gd32f3x0_hal_timer.c **** {
 385              		.loc 1 385 1
 386              		.cfi_startproc
 387              		@ args = 0, pretend = 0, frame = 8
 388              		@ frame_needed = 1, uses_anonymous_args = 0
 389              		@ link register save eliminated.
 390 0000 80B4     		push	{r7}
 391              		.cfi_def_cfa_offset 4
 392              		.cfi_offset 7, -4
 393 0002 83B0     		sub	sp, sp, #12
 394              		.cfi_def_cfa_offset 16
 395 0004 00AF     		add	r7, sp, #0
 396              		.cfi_def_cfa_register 7
 397 0006 7860     		str	r0, [r7, #4]
 398 0008 3960     		str	r1, [r7]
 386:../firmware/gd32f3x0_hal_peripheral/Source/gd32f3x0_hal_timer.c **** #if (1 == HAL_PARAMETER_CHECK)
 387:../firmware/gd32f3x0_hal_peripheral/Source/gd32f3x0_hal_timer.c ****     /* check the parameters */
 388:../firmware/gd32f3x0_hal_peripheral/Source/gd32f3x0_hal_timer.c ****     if((NULL == timer_dev) || (NULL == timer_break)) {
 389:../firmware/gd32f3x0_hal_peripheral/Source/gd32f3x0_hal_timer.c ****         HAL_DEBUGE("pointer [timer_dev] or [timer_break] address is invalid");
 390:../firmware/gd32f3x0_hal_peripheral/Source/gd32f3x0_hal_timer.c ****         return HAL_ERR_ADDRESS;
 391:../firmware/gd32f3x0_hal_peripheral/Source/gd32f3x0_hal_timer.c ****     }
 392:../firmware/gd32f3x0_hal_peripheral/Source/gd32f3x0_hal_timer.c ****     /* check the parameters */
 393:../firmware/gd32f3x0_hal_peripheral/Source/gd32f3x0_hal_timer.c ****     if((TIMER0 != timer_dev->periph) && (TIMER14 != timer_dev->periph) && (TIMER15 != timer_dev->pe
 394:../firmware/gd32f3x0_hal_peripheral/Source/gd32f3x0_hal_timer.c ****         HAL_DEBUGE("the break function of [timer_dev] is invalid");
 395:../firmware/gd32f3x0_hal_peripheral/Source/gd32f3x0_hal_timer.c ****         return HAL_ERR_NO_SUPPORT;
 396:../firmware/gd32f3x0_hal_peripheral/Source/gd32f3x0_hal_timer.c ****     }
 397:../firmware/gd32f3x0_hal_peripheral/Source/gd32f3x0_hal_timer.c **** #endif /* 1 == HAL_PARAMETER_CHECK */
 398:../firmware/gd32f3x0_hal_peripheral/Source/gd32f3x0_hal_timer.c **** 
 399:../firmware/gd32f3x0_hal_peripheral/Source/gd32f3x0_hal_timer.c ****     timer_dev->state = HAL_TIMER_STATE_BUSY;
 399              		.loc 1 399 22
 400 000a 7B68     		ldr	r3, [r7, #4]
 401 000c 0222     		movs	r2, #2
 402 000e 83F85520 		strb	r2, [r3, #85]
 400:../firmware/gd32f3x0_hal_peripheral/Source/gd32f3x0_hal_timer.c **** 
 401:../firmware/gd32f3x0_hal_peripheral/Source/gd32f3x0_hal_timer.c ****     /* configure TIMER break function */
 402:../firmware/gd32f3x0_hal_peripheral/Source/gd32f3x0_hal_timer.c ****     TIMER_CCHP(timer_dev->periph) = (uint32_t)(((uint32_t)(timer_break->run_offstate)) |
 403              		.loc 1 402 71
 404 0012 3B68     		ldr	r3, [r7]
 405 0014 1A88     		ldrh	r2, [r3]
 403:../firmware/gd32f3x0_hal_peripheral/Source/gd32f3x0_hal_timer.c ****                                     ((uint32_t)(timer_break->idel_offstate)) |
 406              		.loc 1 403 60
 407 0016 3B68     		ldr	r3, [r7]
 408 0018 5B88     		ldrh	r3, [r3, #2]
 402:../firmware/gd32f3x0_hal_peripheral/Source/gd32f3x0_hal_timer.c ****                                     ((uint32_t)(timer_break->idel_offstate)) |
 409              		.loc 1 402 37
 410 001a 1343     		orrs	r3, r3, r2
 411 001c 9AB2     		uxth	r2, r3
 404:../firmware/gd32f3x0_hal_peripheral/Source/gd32f3x0_hal_timer.c ****                                     ((uint32_t)(timer_break->dead_time)) |
 412              		.loc 1 404 60
 413 001e 3B68     		ldr	r3, [r7]
 414 0020 9B88     		ldrh	r3, [r3, #4]
 402:../firmware/gd32f3x0_hal_peripheral/Source/gd32f3x0_hal_timer.c ****                                     ((uint32_t)(timer_break->idel_offstate)) |
 415              		.loc 1 402 37
 416 0022 1343     		orrs	r3, r3, r2
 417 0024 9AB2     		uxth	r2, r3
 405:../firmware/gd32f3x0_hal_peripheral/Source/gd32f3x0_hal_timer.c ****                                     ((uint32_t)(timer_break->break_polarity)) |
 418              		.loc 1 405 60
 419 0026 3B68     		ldr	r3, [r7]
 420 0028 DB88     		ldrh	r3, [r3, #6]
 402:../firmware/gd32f3x0_hal_peripheral/Source/gd32f3x0_hal_timer.c ****                                     ((uint32_t)(timer_break->idel_offstate)) |
 421              		.loc 1 402 37
 422 002a 1343     		orrs	r3, r3, r2
 423 002c 9AB2     		uxth	r2, r3
 406:../firmware/gd32f3x0_hal_peripheral/Source/gd32f3x0_hal_timer.c ****                                     ((uint32_t)(timer_break->output_autostate)) |
 424              		.loc 1 406 60
 425 002e 3B68     		ldr	r3, [r7]
 426 0030 1B89     		ldrh	r3, [r3, #8]
 402:../firmware/gd32f3x0_hal_peripheral/Source/gd32f3x0_hal_timer.c ****                                     ((uint32_t)(timer_break->idel_offstate)) |
 427              		.loc 1 402 37
 428 0032 1343     		orrs	r3, r3, r2
 429 0034 9AB2     		uxth	r2, r3
 407:../firmware/gd32f3x0_hal_peripheral/Source/gd32f3x0_hal_timer.c ****                                     ((uint32_t)(timer_break->protect_mode)) |
 430              		.loc 1 407 60
 431 0036 3B68     		ldr	r3, [r7]
 432 0038 5B89     		ldrh	r3, [r3, #10]
 402:../firmware/gd32f3x0_hal_peripheral/Source/gd32f3x0_hal_timer.c ****                                     ((uint32_t)(timer_break->idel_offstate)) |
 433              		.loc 1 402 37
 434 003a 1343     		orrs	r3, r3, r2
 435 003c 9AB2     		uxth	r2, r3
 408:../firmware/gd32f3x0_hal_peripheral/Source/gd32f3x0_hal_timer.c ****                                     ((uint32_t)(timer_break->break_state)));
 436              		.loc 1 408 60
 437 003e 3B68     		ldr	r3, [r7]
 438 0040 9B89     		ldrh	r3, [r3, #12]
 402:../firmware/gd32f3x0_hal_peripheral/Source/gd32f3x0_hal_timer.c ****                                     ((uint32_t)(timer_break->idel_offstate)) |
 439              		.loc 1 402 37
 440 0042 1343     		orrs	r3, r3, r2
 441 0044 9AB2     		uxth	r2, r3
 402:../firmware/gd32f3x0_hal_peripheral/Source/gd32f3x0_hal_timer.c ****                                     ((uint32_t)(timer_break->idel_offstate)) |
 442              		.loc 1 402 5
 443 0046 7B68     		ldr	r3, [r7, #4]
 444 0048 1B68     		ldr	r3, [r3]
 445 004a 4433     		adds	r3, r3, #68
 402:../firmware/gd32f3x0_hal_peripheral/Source/gd32f3x0_hal_timer.c ****                                     ((uint32_t)(timer_break->idel_offstate)) |
 446              		.loc 1 402 35
 447 004c 1A60     		str	r2, [r3]
 409:../firmware/gd32f3x0_hal_peripheral/Source/gd32f3x0_hal_timer.c ****     /* change TIMER state */
 410:../firmware/gd32f3x0_hal_peripheral/Source/gd32f3x0_hal_timer.c ****     timer_dev->state = HAL_TIMER_STATE_READY;
 448              		.loc 1 410 22
 449 004e 7B68     		ldr	r3, [r7, #4]
 450 0050 0522     		movs	r2, #5
 451 0052 83F85520 		strb	r2, [r3, #85]
 411:../firmware/gd32f3x0_hal_peripheral/Source/gd32f3x0_hal_timer.c **** 
 412:../firmware/gd32f3x0_hal_peripheral/Source/gd32f3x0_hal_timer.c ****     return HAL_ERR_NONE;
 452              		.loc 1 412 12
 453 0056 0023     		movs	r3, #0
 413:../firmware/gd32f3x0_hal_peripheral/Source/gd32f3x0_hal_timer.c **** }
 454              		.loc 1 413 1
 455 0058 1846     		mov	r0, r3
 456 005a 0C37     		adds	r7, r7, #12
 457              		.cfi_def_cfa_offset 4
 458 005c BD46     		mov	sp, r7
 459              		.cfi_def_cfa_register 13
 460              		@ sp needed
 461 005e 80BC     		pop	{r7}
 462              		.cfi_restore 7
 463              		.cfi_def_cfa_offset 0
 464 0060 7047     		bx	lr
 465              		.cfi_endproc
 466              	.LFE122:
 468              		.section	.text.hal_timer_ocpre_clear_source_config,"ax",%progbits
 469              		.align	1
 470              		.global	hal_timer_ocpre_clear_source_config
 471              		.syntax unified
 472              		.thumb
 473              		.thumb_func
 474              		.fpu softvfp
 476              	hal_timer_ocpre_clear_source_config:
 477              	.LFB123:
 414:../firmware/gd32f3x0_hal_peripheral/Source/gd32f3x0_hal_timer.c **** 
 415:../firmware/gd32f3x0_hal_peripheral/Source/gd32f3x0_hal_timer.c **** /*!
 416:../firmware/gd32f3x0_hal_peripheral/Source/gd32f3x0_hal_timer.c ****     \brief      configure TIMER OCPRE clear source
 417:../firmware/gd32f3x0_hal_peripheral/Source/gd32f3x0_hal_timer.c ****     \param[in]  timer_dev: TIMER device information structure
 418:../firmware/gd32f3x0_hal_peripheral/Source/gd32f3x0_hal_timer.c ****                   the structure is not necessary to be reconfigured after structure initialization,
 419:../firmware/gd32f3x0_hal_peripheral/Source/gd32f3x0_hal_timer.c ****                   the structure parameters altering is automatically configured by core
 420:../firmware/gd32f3x0_hal_peripheral/Source/gd32f3x0_hal_timer.c ****     \param[in]  timer_clearsource: TIMER output compare clear source configuration structure
 421:../firmware/gd32f3x0_hal_peripheral/Source/gd32f3x0_hal_timer.c ****                   clear_source:
 422:../firmware/gd32f3x0_hal_peripheral/Source/gd32f3x0_hal_timer.c ****                   only one parameter can be selected which is shown as below:
 423:../firmware/gd32f3x0_hal_peripheral/Source/gd32f3x0_hal_timer.c ****       \arg          TIMER_OCPRE_CLEAR_SOURCE_CLR: OCPRE_CLR_INT is connected to the OCPRE_CLR input
 424:../firmware/gd32f3x0_hal_peripheral/Source/gd32f3x0_hal_timer.c ****       \arg          TIMER_OCPRE_CLEAR_SOURCE_ETIF: OCPRE_CLR_INT is connected to ETIF
 425:../firmware/gd32f3x0_hal_peripheral/Source/gd32f3x0_hal_timer.c ****                   exttrigger_polarity:
 426:../firmware/gd32f3x0_hal_peripheral/Source/gd32f3x0_hal_timer.c ****                   only one parameter can be selected which is shown as below:
 427:../firmware/gd32f3x0_hal_peripheral/Source/gd32f3x0_hal_timer.c ****       \arg          TIMER_EXT_TRI_POLARITY_RISING : active high or rising edge active
 428:../firmware/gd32f3x0_hal_peripheral/Source/gd32f3x0_hal_timer.c ****       \arg          TIMER_EXT_TRI_POLARITY_FALLING : active low or falling edge active
 429:../firmware/gd32f3x0_hal_peripheral/Source/gd32f3x0_hal_timer.c ****                   exttrigger_prescaler:
 430:../firmware/gd32f3x0_hal_peripheral/Source/gd32f3x0_hal_timer.c ****                   only one parameter can be selected which is shown as below:
 431:../firmware/gd32f3x0_hal_peripheral/Source/gd32f3x0_hal_timer.c ****       \arg          TIMER_EXT_TRI_PRESCALER_OFF : no divided
 432:../firmware/gd32f3x0_hal_peripheral/Source/gd32f3x0_hal_timer.c ****       \arg          TIMER_EXT_TRI_PRESCALER_DIV2 : divided by 2
 433:../firmware/gd32f3x0_hal_peripheral/Source/gd32f3x0_hal_timer.c ****       \arg          TIMER_EXT_TRI_PRESCALER_DIV4 : divided by 4
 434:../firmware/gd32f3x0_hal_peripheral/Source/gd32f3x0_hal_timer.c ****       \arg          TIMER_EXT_TRI_PRESCALER_DIV8 : divided by 8
 435:../firmware/gd32f3x0_hal_peripheral/Source/gd32f3x0_hal_timer.c ****                   exttrigger_filter: external trigger filter control,0~15
 436:../firmware/gd32f3x0_hal_peripheral/Source/gd32f3x0_hal_timer.c ****     \param[out] none
 437:../firmware/gd32f3x0_hal_peripheral/Source/gd32f3x0_hal_timer.c ****     \retval     error code: HAL_ERR_NONE, HAL_ERR_ADDRESS, HAL_ERR_NO_SUPPORT, HAL_ERR_VAL, details
 438:../firmware/gd32f3x0_hal_peripheral/Source/gd32f3x0_hal_timer.c **** */
 439:../firmware/gd32f3x0_hal_peripheral/Source/gd32f3x0_hal_timer.c **** int32_t hal_timer_ocpre_clear_source_config(hal_timer_dev_struct *timer_dev, hal_timer_clear_source
 440:../firmware/gd32f3x0_hal_peripheral/Source/gd32f3x0_hal_timer.c **** {
 478              		.loc 1 440 1
 479              		.cfi_startproc
 480              		@ args = 0, pretend = 0, frame = 8
 481              		@ frame_needed = 1, uses_anonymous_args = 0
 482 0000 80B5     		push	{r7, lr}
 483              		.cfi_def_cfa_offset 8
 484              		.cfi_offset 7, -8
 485              		.cfi_offset 14, -4
 486 0002 82B0     		sub	sp, sp, #8
 487              		.cfi_def_cfa_offset 16
 488 0004 00AF     		add	r7, sp, #0
 489              		.cfi_def_cfa_register 7
 490 0006 7860     		str	r0, [r7, #4]
 491 0008 3960     		str	r1, [r7]
 441:../firmware/gd32f3x0_hal_peripheral/Source/gd32f3x0_hal_timer.c **** #if (1 == HAL_PARAMETER_CHECK)
 442:../firmware/gd32f3x0_hal_peripheral/Source/gd32f3x0_hal_timer.c ****     /* check the parameters */
 443:../firmware/gd32f3x0_hal_peripheral/Source/gd32f3x0_hal_timer.c ****     if((NULL == timer_dev) || (NULL == timer_clearsource)) {
 444:../firmware/gd32f3x0_hal_peripheral/Source/gd32f3x0_hal_timer.c ****         HAL_DEBUGE("pointer [timer_dev] or [timer_clearsource] address is invalid");
 445:../firmware/gd32f3x0_hal_peripheral/Source/gd32f3x0_hal_timer.c ****         return HAL_ERR_ADDRESS;
 446:../firmware/gd32f3x0_hal_peripheral/Source/gd32f3x0_hal_timer.c ****     }
 447:../firmware/gd32f3x0_hal_peripheral/Source/gd32f3x0_hal_timer.c **** #if (defined(GD32F350) || defined(GD32F330))
 448:../firmware/gd32f3x0_hal_peripheral/Source/gd32f3x0_hal_timer.c ****     /* check the parameters */
 449:../firmware/gd32f3x0_hal_peripheral/Source/gd32f3x0_hal_timer.c ****     if((timer_clearsource-> clear_source == TIMER_OCPRE_CLEAR_SOURCE_ETIF) &&
 450:../firmware/gd32f3x0_hal_peripheral/Source/gd32f3x0_hal_timer.c ****             (TIMER0 != timer_dev->periph) && (TIMER1 != timer_dev->periph) && (TIMER2 != timer_dev-
 451:../firmware/gd32f3x0_hal_peripheral/Source/gd32f3x0_hal_timer.c ****         HAL_DEBUGE("the TIMER_OCPRE_CLEAR_SOURCE_ETIF of [timer_dev] is invalid");
 452:../firmware/gd32f3x0_hal_peripheral/Source/gd32f3x0_hal_timer.c ****         return HAL_ERR_NO_SUPPORT;
 453:../firmware/gd32f3x0_hal_peripheral/Source/gd32f3x0_hal_timer.c ****     }
 454:../firmware/gd32f3x0_hal_peripheral/Source/gd32f3x0_hal_timer.c **** #else
 455:../firmware/gd32f3x0_hal_peripheral/Source/gd32f3x0_hal_timer.c ****     /* check the parameters */
 456:../firmware/gd32f3x0_hal_peripheral/Source/gd32f3x0_hal_timer.c ****     if((timer_clearsource-> clear_source == TIMER_OCPRE_CLEAR_SOURCE_ETIF) &&
 457:../firmware/gd32f3x0_hal_peripheral/Source/gd32f3x0_hal_timer.c ****             (TIMER0 != timer_dev->periph) && (TIMER2 != timer_dev->periph)) {
 458:../firmware/gd32f3x0_hal_peripheral/Source/gd32f3x0_hal_timer.c ****         HAL_DEBUGE("the TIMER_OCPRE_CLEAR_SOURCE_ETIF of [timer_dev] is invalid");
 459:../firmware/gd32f3x0_hal_peripheral/Source/gd32f3x0_hal_timer.c ****         return HAL_ERR_NO_SUPPORT;
 460:../firmware/gd32f3x0_hal_peripheral/Source/gd32f3x0_hal_timer.c ****     }
 461:../firmware/gd32f3x0_hal_peripheral/Source/gd32f3x0_hal_timer.c **** #endif /* GD32F350 and GD32F330 */
 462:../firmware/gd32f3x0_hal_peripheral/Source/gd32f3x0_hal_timer.c **** #endif /* 1 == HAL_PARAMETER_CHECK */
 463:../firmware/gd32f3x0_hal_peripheral/Source/gd32f3x0_hal_timer.c **** 
 464:../firmware/gd32f3x0_hal_peripheral/Source/gd32f3x0_hal_timer.c ****     timer_dev->state = HAL_TIMER_STATE_BUSY;
 492              		.loc 1 464 22
 493 000a 7B68     		ldr	r3, [r7, #4]
 494 000c 0222     		movs	r2, #2
 495 000e 83F85520 		strb	r2, [r3, #85]
 465:../firmware/gd32f3x0_hal_peripheral/Source/gd32f3x0_hal_timer.c **** 
 466:../firmware/gd32f3x0_hal_peripheral/Source/gd32f3x0_hal_timer.c ****     /* configure TIMER channel output clear function */
 467:../firmware/gd32f3x0_hal_peripheral/Source/gd32f3x0_hal_timer.c ****     if(TIMER_OCPRE_CLEAR_SOURCE_ETIF == timer_clearsource->clear_source) {
 496              		.loc 1 467 58
 497 0012 3B68     		ldr	r3, [r7]
 498 0014 1B78     		ldrb	r3, [r3]	@ zero_extendqisi2
 499              		.loc 1 467 7
 500 0016 012B     		cmp	r3, #1
 501 0018 14D1     		bne	.L19
 468:../firmware/gd32f3x0_hal_peripheral/Source/gd32f3x0_hal_timer.c ****         /* set OCRC bit */
 469:../firmware/gd32f3x0_hal_peripheral/Source/gd32f3x0_hal_timer.c ****         TIMER_SMCFG(timer_dev->periph) |= (uint32_t)TIMER_SMCFG_OCRC;
 502              		.loc 1 469 9
 503 001a 7B68     		ldr	r3, [r7, #4]
 504 001c 1B68     		ldr	r3, [r3]
 505              		.loc 1 469 40
 506 001e 0833     		adds	r3, r3, #8
 507 0020 1B68     		ldr	r3, [r3]
 508              		.loc 1 469 9
 509 0022 7A68     		ldr	r2, [r7, #4]
 510 0024 1268     		ldr	r2, [r2]
 511              		.loc 1 469 40
 512 0026 0832     		adds	r2, r2, #8
 513 0028 43F00803 		orr	r3, r3, #8
 514 002c 1360     		str	r3, [r2]
 470:../firmware/gd32f3x0_hal_peripheral/Source/gd32f3x0_hal_timer.c ****         /* configure TIMER external trigger input */
 471:../firmware/gd32f3x0_hal_peripheral/Source/gd32f3x0_hal_timer.c ****         hals_timer_external_trigger_config(timer_dev->periph, timer_clearsource->exttrigger_prescal
 515              		.loc 1 471 9
 516 002e 7B68     		ldr	r3, [r7, #4]
 517 0030 1868     		ldr	r0, [r3]
 518 0032 3B68     		ldr	r3, [r7]
 519 0034 9968     		ldr	r1, [r3, #8]
 520 0036 3B68     		ldr	r3, [r7]
 521 0038 5A68     		ldr	r2, [r3, #4]
 522 003a 3B68     		ldr	r3, [r7]
 523 003c DB68     		ldr	r3, [r3, #12]
 524 003e FFF7FEFF 		bl	hals_timer_external_trigger_config
 525 0042 11E0     		b	.L20
 526              	.L19:
 472:../firmware/gd32f3x0_hal_peripheral/Source/gd32f3x0_hal_timer.c ****     } else if(TIMER_OCPRE_CLEAR_SOURCE_CLR == timer_clearsource->clear_source) {
 527              		.loc 1 472 64
 528 0044 3B68     		ldr	r3, [r7]
 529 0046 1B78     		ldrb	r3, [r3]	@ zero_extendqisi2
 530              		.loc 1 472 14
 531 0048 002B     		cmp	r3, #0
 532 004a 0AD1     		bne	.L21
 473:../firmware/gd32f3x0_hal_peripheral/Source/gd32f3x0_hal_timer.c ****         /* reset OCRC bit */
 474:../firmware/gd32f3x0_hal_peripheral/Source/gd32f3x0_hal_timer.c ****         TIMER_SMCFG(timer_dev->periph) &= ~(uint32_t)TIMER_SMCFG_OCRC;
 533              		.loc 1 474 9
 534 004c 7B68     		ldr	r3, [r7, #4]
 535 004e 1B68     		ldr	r3, [r3]
 536              		.loc 1 474 40
 537 0050 0833     		adds	r3, r3, #8
 538 0052 1B68     		ldr	r3, [r3]
 539              		.loc 1 474 9
 540 0054 7A68     		ldr	r2, [r7, #4]
 541 0056 1268     		ldr	r2, [r2]
 542              		.loc 1 474 40
 543 0058 0832     		adds	r2, r2, #8
 544 005a 23F00803 		bic	r3, r3, #8
 545 005e 1360     		str	r3, [r2]
 546 0060 02E0     		b	.L20
 547              	.L21:
 475:../firmware/gd32f3x0_hal_peripheral/Source/gd32f3x0_hal_timer.c ****     } else {
 476:../firmware/gd32f3x0_hal_peripheral/Source/gd32f3x0_hal_timer.c ****         /* illegal parameters */
 477:../firmware/gd32f3x0_hal_peripheral/Source/gd32f3x0_hal_timer.c ****         HAL_DEBUGW("parameter [timer_clearsource->clear_source] value is undefine");
 478:../firmware/gd32f3x0_hal_peripheral/Source/gd32f3x0_hal_timer.c ****         return HAL_ERR_VAL;
 548              		.loc 1 478 16
 549 0062 6FF00503 		mvn	r3, #5
 550 0066 04E0     		b	.L22
 551              	.L20:
 479:../firmware/gd32f3x0_hal_peripheral/Source/gd32f3x0_hal_timer.c ****     }
 480:../firmware/gd32f3x0_hal_peripheral/Source/gd32f3x0_hal_timer.c **** 
 481:../firmware/gd32f3x0_hal_peripheral/Source/gd32f3x0_hal_timer.c ****     /* change TIMER state */
 482:../firmware/gd32f3x0_hal_peripheral/Source/gd32f3x0_hal_timer.c ****     timer_dev->state = HAL_TIMER_STATE_READY;
 552              		.loc 1 482 22
 553 0068 7B68     		ldr	r3, [r7, #4]
 554 006a 0522     		movs	r2, #5
 555 006c 83F85520 		strb	r2, [r3, #85]
 483:../firmware/gd32f3x0_hal_peripheral/Source/gd32f3x0_hal_timer.c **** 
 484:../firmware/gd32f3x0_hal_peripheral/Source/gd32f3x0_hal_timer.c ****     return HAL_ERR_NONE;
 556              		.loc 1 484 12
 557 0070 0023     		movs	r3, #0
 558              	.L22:
 485:../firmware/gd32f3x0_hal_peripheral/Source/gd32f3x0_hal_timer.c **** }
 559              		.loc 1 485 1
 560 0072 1846     		mov	r0, r3
 561 0074 0837     		adds	r7, r7, #8
 562              		.cfi_def_cfa_offset 8
 563 0076 BD46     		mov	sp, r7
 564              		.cfi_def_cfa_register 13
 565              		@ sp needed
 566 0078 80BD     		pop	{r7, pc}
 567              		.cfi_endproc
 568              	.LFE123:
 570              		.section	.text.hal_timer_ci0_input_select,"ax",%progbits
 571              		.align	1
 572              		.global	hal_timer_ci0_input_select
 573              		.syntax unified
 574              		.thumb
 575              		.thumb_func
 576              		.fpu softvfp
 578              	hal_timer_ci0_input_select:
 579              	.LFB124:
 486:../firmware/gd32f3x0_hal_peripheral/Source/gd32f3x0_hal_timer.c **** 
 487:../firmware/gd32f3x0_hal_peripheral/Source/gd32f3x0_hal_timer.c **** /*!
 488:../firmware/gd32f3x0_hal_peripheral/Source/gd32f3x0_hal_timer.c ****     \brief      configure TIMER ci0 trigger input
 489:../firmware/gd32f3x0_hal_peripheral/Source/gd32f3x0_hal_timer.c ****     \param[in]  timer_dev: TIMER device information structure
 490:../firmware/gd32f3x0_hal_peripheral/Source/gd32f3x0_hal_timer.c ****                   the structure is not necessary to be reconfigured after structure initialization,
 491:../firmware/gd32f3x0_hal_peripheral/Source/gd32f3x0_hal_timer.c ****                   the structure parameters altering is automatically configured by core
 492:../firmware/gd32f3x0_hal_peripheral/Source/gd32f3x0_hal_timer.c ****     \param[in]  ci0_select:
 493:../firmware/gd32f3x0_hal_peripheral/Source/gd32f3x0_hal_timer.c ****                 only one parameter can be selected which is shown as below:
 494:../firmware/gd32f3x0_hal_peripheral/Source/gd32f3x0_hal_timer.c ****       \arg        TIMER_CI0_CH0IN: the TIMERx_CH0 pin input is selected as channel 0 trigger input
 495:../firmware/gd32f3x0_hal_peripheral/Source/gd32f3x0_hal_timer.c ****       \arg        TIMER_CI0_XOR_CH012: the result of combinational XOR of TIMERx_CH0,CH1 and CH2 pi
 496:../firmware/gd32f3x0_hal_peripheral/Source/gd32f3x0_hal_timer.c ****     \param[out] none
 497:../firmware/gd32f3x0_hal_peripheral/Source/gd32f3x0_hal_timer.c ****     \retval     error code: HAL_ERR_NONE, HAL_ERR_ADDRESS, HAL_ERR_NO_SUPPORT, HAL_ERR_VAL, details
 498:../firmware/gd32f3x0_hal_peripheral/Source/gd32f3x0_hal_timer.c **** */
 499:../firmware/gd32f3x0_hal_peripheral/Source/gd32f3x0_hal_timer.c **** int32_t hal_timer_ci0_input_select(hal_timer_dev_struct *timer_dev, uint32_t ci0_select)
 500:../firmware/gd32f3x0_hal_peripheral/Source/gd32f3x0_hal_timer.c **** {
 580              		.loc 1 500 1
 581              		.cfi_startproc
 582              		@ args = 0, pretend = 0, frame = 8
 583              		@ frame_needed = 1, uses_anonymous_args = 0
 584              		@ link register save eliminated.
 585 0000 80B4     		push	{r7}
 586              		.cfi_def_cfa_offset 4
 587              		.cfi_offset 7, -4
 588 0002 83B0     		sub	sp, sp, #12
 589              		.cfi_def_cfa_offset 16
 590 0004 00AF     		add	r7, sp, #0
 591              		.cfi_def_cfa_register 7
 592 0006 7860     		str	r0, [r7, #4]
 593 0008 3960     		str	r1, [r7]
 501:../firmware/gd32f3x0_hal_peripheral/Source/gd32f3x0_hal_timer.c **** #if (1 == HAL_PARAMETER_CHECK)
 502:../firmware/gd32f3x0_hal_peripheral/Source/gd32f3x0_hal_timer.c ****     /* check the parameters */
 503:../firmware/gd32f3x0_hal_peripheral/Source/gd32f3x0_hal_timer.c ****     if(NULL == timer_dev) {
 504:../firmware/gd32f3x0_hal_peripheral/Source/gd32f3x0_hal_timer.c ****         HAL_DEBUGE("pointer [timer_dev] address is invalid");
 505:../firmware/gd32f3x0_hal_peripheral/Source/gd32f3x0_hal_timer.c ****         return HAL_ERR_ADDRESS;
 506:../firmware/gd32f3x0_hal_peripheral/Source/gd32f3x0_hal_timer.c ****     }
 507:../firmware/gd32f3x0_hal_peripheral/Source/gd32f3x0_hal_timer.c **** #if (defined(GD32F350) || defined(GD32F330))
 508:../firmware/gd32f3x0_hal_peripheral/Source/gd32f3x0_hal_timer.c ****     /* check the parameters */
 509:../firmware/gd32f3x0_hal_peripheral/Source/gd32f3x0_hal_timer.c ****     if((TIMER0 != timer_dev->periph) && (TIMER1 != timer_dev->periph) && (TIMER2 != timer_dev->peri
 510:../firmware/gd32f3x0_hal_peripheral/Source/gd32f3x0_hal_timer.c ****         HAL_DEBUGE("the TIMER_CI0_XOR_CH012 of [timer_dev] is invalid");
 511:../firmware/gd32f3x0_hal_peripheral/Source/gd32f3x0_hal_timer.c ****         return HAL_ERR_NO_SUPPORT;
 512:../firmware/gd32f3x0_hal_peripheral/Source/gd32f3x0_hal_timer.c ****     }
 513:../firmware/gd32f3x0_hal_peripheral/Source/gd32f3x0_hal_timer.c **** #else
 514:../firmware/gd32f3x0_hal_peripheral/Source/gd32f3x0_hal_timer.c ****     /* check the parameters */
 515:../firmware/gd32f3x0_hal_peripheral/Source/gd32f3x0_hal_timer.c ****     if((TIMER0 != timer_dev->periph) && (TIMER2 != timer_dev->periph)) {
 516:../firmware/gd32f3x0_hal_peripheral/Source/gd32f3x0_hal_timer.c ****         HAL_DEBUGE("the TIMER_CI0_XOR_CH012 of [timer_dev] is invalid");
 517:../firmware/gd32f3x0_hal_peripheral/Source/gd32f3x0_hal_timer.c ****         return HAL_ERR_NO_SUPPORT;
 518:../firmware/gd32f3x0_hal_peripheral/Source/gd32f3x0_hal_timer.c ****     }
 519:../firmware/gd32f3x0_hal_peripheral/Source/gd32f3x0_hal_timer.c **** #endif /* GD32F350 and GD32F330 */
 520:../firmware/gd32f3x0_hal_peripheral/Source/gd32f3x0_hal_timer.c **** #endif /* 1 == HAL_PARAMETER_CHECK */
 521:../firmware/gd32f3x0_hal_peripheral/Source/gd32f3x0_hal_timer.c **** 
 522:../firmware/gd32f3x0_hal_peripheral/Source/gd32f3x0_hal_timer.c ****     timer_dev->state = HAL_TIMER_STATE_BUSY;
 594              		.loc 1 522 22
 595 000a 7B68     		ldr	r3, [r7, #4]
 596 000c 0222     		movs	r2, #2
 597 000e 83F85520 		strb	r2, [r3, #85]
 523:../firmware/gd32f3x0_hal_peripheral/Source/gd32f3x0_hal_timer.c **** 
 524:../firmware/gd32f3x0_hal_peripheral/Source/gd32f3x0_hal_timer.c ****     if(TIMER_CI0_XOR_CH012 == ci0_select) {
 598              		.loc 1 524 7
 599 0012 3B68     		ldr	r3, [r7]
 600 0014 802B     		cmp	r3, #128
 601 0016 0AD1     		bne	.L24
 525:../firmware/gd32f3x0_hal_peripheral/Source/gd32f3x0_hal_timer.c ****         /* set TI0S bit */
 526:../firmware/gd32f3x0_hal_peripheral/Source/gd32f3x0_hal_timer.c ****         TIMER_CTL1(timer_dev->periph) |= (uint32_t)TIMER_CTL1_TI0S;
 602              		.loc 1 526 9
 603 0018 7B68     		ldr	r3, [r7, #4]
 604 001a 1B68     		ldr	r3, [r3]
 605              		.loc 1 526 39
 606 001c 0433     		adds	r3, r3, #4
 607 001e 1B68     		ldr	r3, [r3]
 608              		.loc 1 526 9
 609 0020 7A68     		ldr	r2, [r7, #4]
 610 0022 1268     		ldr	r2, [r2]
 611              		.loc 1 526 39
 612 0024 0432     		adds	r2, r2, #4
 613 0026 43F08003 		orr	r3, r3, #128
 614 002a 1360     		str	r3, [r2]
 615 002c 10E0     		b	.L25
 616              	.L24:
 527:../firmware/gd32f3x0_hal_peripheral/Source/gd32f3x0_hal_timer.c ****     } else if(TIMER_CI0_CH0IN == ci0_select) {
 617              		.loc 1 527 14
 618 002e 3B68     		ldr	r3, [r7]
 619 0030 002B     		cmp	r3, #0
 620 0032 0AD1     		bne	.L26
 528:../firmware/gd32f3x0_hal_peripheral/Source/gd32f3x0_hal_timer.c ****         /* reset TI0S bit */
 529:../firmware/gd32f3x0_hal_peripheral/Source/gd32f3x0_hal_timer.c ****         TIMER_CTL1(timer_dev->periph) &= ~(uint32_t)TIMER_CTL1_TI0S;
 621              		.loc 1 529 9
 622 0034 7B68     		ldr	r3, [r7, #4]
 623 0036 1B68     		ldr	r3, [r3]
 624              		.loc 1 529 39
 625 0038 0433     		adds	r3, r3, #4
 626 003a 1B68     		ldr	r3, [r3]
 627              		.loc 1 529 9
 628 003c 7A68     		ldr	r2, [r7, #4]
 629 003e 1268     		ldr	r2, [r2]
 630              		.loc 1 529 39
 631 0040 0432     		adds	r2, r2, #4
 632 0042 23F08003 		bic	r3, r3, #128
 633 0046 1360     		str	r3, [r2]
 634 0048 02E0     		b	.L25
 635              	.L26:
 530:../firmware/gd32f3x0_hal_peripheral/Source/gd32f3x0_hal_timer.c ****     } else {
 531:../firmware/gd32f3x0_hal_peripheral/Source/gd32f3x0_hal_timer.c ****         /* illegal parameters */
 532:../firmware/gd32f3x0_hal_peripheral/Source/gd32f3x0_hal_timer.c ****         HAL_DEBUGW("parameter [ci0_select] value is undefine");
 533:../firmware/gd32f3x0_hal_peripheral/Source/gd32f3x0_hal_timer.c ****         return HAL_ERR_VAL;
 636              		.loc 1 533 16
 637 004a 6FF00503 		mvn	r3, #5
 638 004e 04E0     		b	.L27
 639              	.L25:
 534:../firmware/gd32f3x0_hal_peripheral/Source/gd32f3x0_hal_timer.c ****     }
 535:../firmware/gd32f3x0_hal_peripheral/Source/gd32f3x0_hal_timer.c **** 
 536:../firmware/gd32f3x0_hal_peripheral/Source/gd32f3x0_hal_timer.c ****     /* change TIMER state */
 537:../firmware/gd32f3x0_hal_peripheral/Source/gd32f3x0_hal_timer.c ****     timer_dev->state = HAL_TIMER_STATE_READY;
 640              		.loc 1 537 22
 641 0050 7B68     		ldr	r3, [r7, #4]
 642 0052 0522     		movs	r2, #5
 643 0054 83F85520 		strb	r2, [r3, #85]
 538:../firmware/gd32f3x0_hal_peripheral/Source/gd32f3x0_hal_timer.c **** 
 539:../firmware/gd32f3x0_hal_peripheral/Source/gd32f3x0_hal_timer.c ****     return HAL_ERR_NONE;
 644              		.loc 1 539 12
 645 0058 0023     		movs	r3, #0
 646              	.L27:
 540:../firmware/gd32f3x0_hal_peripheral/Source/gd32f3x0_hal_timer.c **** }
 647              		.loc 1 540 1
 648 005a 1846     		mov	r0, r3
 649 005c 0C37     		adds	r7, r7, #12
 650              		.cfi_def_cfa_offset 4
 651 005e BD46     		mov	sp, r7
 652              		.cfi_def_cfa_register 13
 653              		@ sp needed
 654 0060 80BC     		pop	{r7}
 655              		.cfi_restore 7
 656              		.cfi_def_cfa_offset 0
 657 0062 7047     		bx	lr
 658              		.cfi_endproc
 659              	.LFE124:
 661              		.section	.text.hal_timer_single_pulse_mode_config,"ax",%progbits
 662              		.align	1
 663              		.global	hal_timer_single_pulse_mode_config
 664              		.syntax unified
 665              		.thumb
 666              		.thumb_func
 667              		.fpu softvfp
 669              	hal_timer_single_pulse_mode_config:
 670              	.LFB125:
 541:../firmware/gd32f3x0_hal_peripheral/Source/gd32f3x0_hal_timer.c **** 
 542:../firmware/gd32f3x0_hal_peripheral/Source/gd32f3x0_hal_timer.c **** /*!
 543:../firmware/gd32f3x0_hal_peripheral/Source/gd32f3x0_hal_timer.c ****     \brief      configure TIMER single pulse mode
 544:../firmware/gd32f3x0_hal_peripheral/Source/gd32f3x0_hal_timer.c ****     \param[in]  timer_dev: TIMER device information structure
 545:../firmware/gd32f3x0_hal_peripheral/Source/gd32f3x0_hal_timer.c ****                   the structure is not necessary to be reconfigured after structure initialization,
 546:../firmware/gd32f3x0_hal_peripheral/Source/gd32f3x0_hal_timer.c ****                   the structure parameters altering is automatically configured by core
 547:../firmware/gd32f3x0_hal_peripheral/Source/gd32f3x0_hal_timer.c ****     \param[in]  single_pulse:
 548:../firmware/gd32f3x0_hal_peripheral/Source/gd32f3x0_hal_timer.c ****                 only one parameter can be selected which is shown as below:
 549:../firmware/gd32f3x0_hal_peripheral/Source/gd32f3x0_hal_timer.c ****       \arg        ENABLE: single pulse mode enable
 550:../firmware/gd32f3x0_hal_peripheral/Source/gd32f3x0_hal_timer.c ****       \arg        DISABLE: single pulse mode disable
 551:../firmware/gd32f3x0_hal_peripheral/Source/gd32f3x0_hal_timer.c ****     \param[out] none
 552:../firmware/gd32f3x0_hal_peripheral/Source/gd32f3x0_hal_timer.c ****     \retval     error code: HAL_ERR_NONE, HAL_ERR_ADDRESS, HAL_ERR_NO_SUPPORT, HAL_ERR_VAL, details
 553:../firmware/gd32f3x0_hal_peripheral/Source/gd32f3x0_hal_timer.c **** */
 554:../firmware/gd32f3x0_hal_peripheral/Source/gd32f3x0_hal_timer.c **** int32_t hal_timer_single_pulse_mode_config(hal_timer_dev_struct *timer_dev, uint32_t single_pulse)
 555:../firmware/gd32f3x0_hal_peripheral/Source/gd32f3x0_hal_timer.c **** {
 671              		.loc 1 555 1
 672              		.cfi_startproc
 673              		@ args = 0, pretend = 0, frame = 8
 674              		@ frame_needed = 1, uses_anonymous_args = 0
 675              		@ link register save eliminated.
 676 0000 80B4     		push	{r7}
 677              		.cfi_def_cfa_offset 4
 678              		.cfi_offset 7, -4
 679 0002 83B0     		sub	sp, sp, #12
 680              		.cfi_def_cfa_offset 16
 681 0004 00AF     		add	r7, sp, #0
 682              		.cfi_def_cfa_register 7
 683 0006 7860     		str	r0, [r7, #4]
 684 0008 3960     		str	r1, [r7]
 556:../firmware/gd32f3x0_hal_peripheral/Source/gd32f3x0_hal_timer.c **** #if (1 == HAL_PARAMETER_CHECK)
 557:../firmware/gd32f3x0_hal_peripheral/Source/gd32f3x0_hal_timer.c ****     /* check the parameters */
 558:../firmware/gd32f3x0_hal_peripheral/Source/gd32f3x0_hal_timer.c ****     if(NULL == timer_dev) {
 559:../firmware/gd32f3x0_hal_peripheral/Source/gd32f3x0_hal_timer.c ****         HAL_DEBUGE("pointer [timer_dev] address is invalid");
 560:../firmware/gd32f3x0_hal_peripheral/Source/gd32f3x0_hal_timer.c ****         return HAL_ERR_ADDRESS;
 561:../firmware/gd32f3x0_hal_peripheral/Source/gd32f3x0_hal_timer.c ****     }
 562:../firmware/gd32f3x0_hal_peripheral/Source/gd32f3x0_hal_timer.c ****     /* check the parameters */
 563:../firmware/gd32f3x0_hal_peripheral/Source/gd32f3x0_hal_timer.c ****     if(TIMER13 == timer_dev->periph) {
 564:../firmware/gd32f3x0_hal_peripheral/Source/gd32f3x0_hal_timer.c ****         HAL_DEBUGE("the single pulse mode of [timer_dev] is invalid");
 565:../firmware/gd32f3x0_hal_peripheral/Source/gd32f3x0_hal_timer.c ****         return HAL_ERR_NO_SUPPORT;
 566:../firmware/gd32f3x0_hal_peripheral/Source/gd32f3x0_hal_timer.c ****     }
 567:../firmware/gd32f3x0_hal_peripheral/Source/gd32f3x0_hal_timer.c **** #endif /* 1 == HAL_PARAMETER_CHECK */
 568:../firmware/gd32f3x0_hal_peripheral/Source/gd32f3x0_hal_timer.c **** 
 569:../firmware/gd32f3x0_hal_peripheral/Source/gd32f3x0_hal_timer.c ****     timer_dev->state = HAL_TIMER_STATE_BUSY;
 685              		.loc 1 569 22
 686 000a 7B68     		ldr	r3, [r7, #4]
 687 000c 0222     		movs	r2, #2
 688 000e 83F85520 		strb	r2, [r3, #85]
 570:../firmware/gd32f3x0_hal_peripheral/Source/gd32f3x0_hal_timer.c **** 
 571:../firmware/gd32f3x0_hal_peripheral/Source/gd32f3x0_hal_timer.c ****     /* configure TIMER single pulse mode */
 572:../firmware/gd32f3x0_hal_peripheral/Source/gd32f3x0_hal_timer.c ****     if(ENABLE == single_pulse) {
 689              		.loc 1 572 7
 690 0012 3B68     		ldr	r3, [r7]
 691 0014 012B     		cmp	r3, #1
 692 0016 08D1     		bne	.L29
 573:../firmware/gd32f3x0_hal_peripheral/Source/gd32f3x0_hal_timer.c ****         /* set SPM bit */
 574:../firmware/gd32f3x0_hal_peripheral/Source/gd32f3x0_hal_timer.c ****         TIMER_CTL0(timer_dev->periph) |= (uint32_t)TIMER_CTL0_SPM;
 693              		.loc 1 574 9
 694 0018 7B68     		ldr	r3, [r7, #4]
 695 001a 1B68     		ldr	r3, [r3]
 696              		.loc 1 574 39
 697 001c 1B68     		ldr	r3, [r3]
 698              		.loc 1 574 9
 699 001e 7A68     		ldr	r2, [r7, #4]
 700 0020 1268     		ldr	r2, [r2]
 701              		.loc 1 574 39
 702 0022 43F00803 		orr	r3, r3, #8
 703 0026 1360     		str	r3, [r2]
 704 0028 0EE0     		b	.L30
 705              	.L29:
 575:../firmware/gd32f3x0_hal_peripheral/Source/gd32f3x0_hal_timer.c ****     } else if(DISABLE == single_pulse) {
 706              		.loc 1 575 14
 707 002a 3B68     		ldr	r3, [r7]
 708 002c 002B     		cmp	r3, #0
 709 002e 08D1     		bne	.L31
 576:../firmware/gd32f3x0_hal_peripheral/Source/gd32f3x0_hal_timer.c ****         /* reset SPM bit */
 577:../firmware/gd32f3x0_hal_peripheral/Source/gd32f3x0_hal_timer.c ****         TIMER_CTL0(timer_dev->periph) &= ~((uint32_t)TIMER_CTL0_SPM);
 710              		.loc 1 577 9
 711 0030 7B68     		ldr	r3, [r7, #4]
 712 0032 1B68     		ldr	r3, [r3]
 713              		.loc 1 577 39
 714 0034 1B68     		ldr	r3, [r3]
 715              		.loc 1 577 9
 716 0036 7A68     		ldr	r2, [r7, #4]
 717 0038 1268     		ldr	r2, [r2]
 718              		.loc 1 577 39
 719 003a 23F00803 		bic	r3, r3, #8
 720 003e 1360     		str	r3, [r2]
 721 0040 02E0     		b	.L30
 722              	.L31:
 578:../firmware/gd32f3x0_hal_peripheral/Source/gd32f3x0_hal_timer.c ****     } else {
 579:../firmware/gd32f3x0_hal_peripheral/Source/gd32f3x0_hal_timer.c ****         /* illegal parameters */
 580:../firmware/gd32f3x0_hal_peripheral/Source/gd32f3x0_hal_timer.c ****         HAL_DEBUGW("parameter [single_pulse] value is undefine");
 581:../firmware/gd32f3x0_hal_peripheral/Source/gd32f3x0_hal_timer.c ****         return HAL_ERR_VAL;
 723              		.loc 1 581 16
 724 0042 6FF00503 		mvn	r3, #5
 725 0046 04E0     		b	.L32
 726              	.L30:
 582:../firmware/gd32f3x0_hal_peripheral/Source/gd32f3x0_hal_timer.c ****     }
 583:../firmware/gd32f3x0_hal_peripheral/Source/gd32f3x0_hal_timer.c **** 
 584:../firmware/gd32f3x0_hal_peripheral/Source/gd32f3x0_hal_timer.c ****     /* change TIMER state */
 585:../firmware/gd32f3x0_hal_peripheral/Source/gd32f3x0_hal_timer.c ****     timer_dev->state = HAL_TIMER_STATE_READY;
 727              		.loc 1 585 22
 728 0048 7B68     		ldr	r3, [r7, #4]
 729 004a 0522     		movs	r2, #5
 730 004c 83F85520 		strb	r2, [r3, #85]
 586:../firmware/gd32f3x0_hal_peripheral/Source/gd32f3x0_hal_timer.c **** 
 587:../firmware/gd32f3x0_hal_peripheral/Source/gd32f3x0_hal_timer.c ****     return HAL_ERR_NONE;
 731              		.loc 1 587 12
 732 0050 0023     		movs	r3, #0
 733              	.L32:
 588:../firmware/gd32f3x0_hal_peripheral/Source/gd32f3x0_hal_timer.c **** }
 734              		.loc 1 588 1
 735 0052 1846     		mov	r0, r3
 736 0054 0C37     		adds	r7, r7, #12
 737              		.cfi_def_cfa_offset 4
 738 0056 BD46     		mov	sp, r7
 739              		.cfi_def_cfa_register 13
 740              		@ sp needed
 741 0058 80BC     		pop	{r7}
 742              		.cfi_restore 7
 743              		.cfi_def_cfa_offset 0
 744 005a 7047     		bx	lr
 745              		.cfi_endproc
 746              	.LFE125:
 748              		.section	.text.hal_timer_clock_source_config,"ax",%progbits
 749              		.align	1
 750              		.global	hal_timer_clock_source_config
 751              		.syntax unified
 752              		.thumb
 753              		.thumb_func
 754              		.fpu softvfp
 756              	hal_timer_clock_source_config:
 757              	.LFB126:
 589:../firmware/gd32f3x0_hal_peripheral/Source/gd32f3x0_hal_timer.c **** 
 590:../firmware/gd32f3x0_hal_peripheral/Source/gd32f3x0_hal_timer.c **** /*!
 591:../firmware/gd32f3x0_hal_peripheral/Source/gd32f3x0_hal_timer.c ****     \brief      configure TIMER clock source
 592:../firmware/gd32f3x0_hal_peripheral/Source/gd32f3x0_hal_timer.c ****     \param[in]  timer_dev: TIMER device information structure
 593:../firmware/gd32f3x0_hal_peripheral/Source/gd32f3x0_hal_timer.c ****                   the structure is not necessary to be reconfigured after structure initialization,
 594:../firmware/gd32f3x0_hal_peripheral/Source/gd32f3x0_hal_timer.c ****                   the structure parameters altering is automatically configured by core
 595:../firmware/gd32f3x0_hal_peripheral/Source/gd32f3x0_hal_timer.c ****     \param[in]  timer_clocksource: TIMER clock source configuration structure
 596:../firmware/gd32f3x0_hal_peripheral/Source/gd32f3x0_hal_timer.c ****                   clock_source: the argument could be selected from enumeration <hal_timer_clock_so
 597:../firmware/gd32f3x0_hal_peripheral/Source/gd32f3x0_hal_timer.c ****                   clock_polarity:
 598:../firmware/gd32f3x0_hal_peripheral/Source/gd32f3x0_hal_timer.c ****                   only one parameter can be selected which is shown as below:
 599:../firmware/gd32f3x0_hal_peripheral/Source/gd32f3x0_hal_timer.c ****       \arg          TIMER_CLOCK_TRIGGER_ETI_POLARITY_RISING: clock input source is ETI, active high
 600:../firmware/gd32f3x0_hal_peripheral/Source/gd32f3x0_hal_timer.c ****       \arg          TIMER_CLOCK_TRIGGER_ETI_POLARITY_FALLING: clock input source is ETI, active low
 601:../firmware/gd32f3x0_hal_peripheral/Source/gd32f3x0_hal_timer.c ****       \arg          TIMER_CLOCK_TRIGGER_POLARITY_RISING: clock input source is CIx(x=0,1), rising e
 602:../firmware/gd32f3x0_hal_peripheral/Source/gd32f3x0_hal_timer.c ****       \arg          TIMER_CLOCK_TRIGGER_POLARITY_FALLING: clock input source is CIx(x=0,1), falling
 603:../firmware/gd32f3x0_hal_peripheral/Source/gd32f3x0_hal_timer.c ****       \arg          TIMER_CLOCK_TRIGGER_POLARITY_BOTH_EDGE: clock input source is CI0F_ED, both ris
 604:../firmware/gd32f3x0_hal_peripheral/Source/gd32f3x0_hal_timer.c ****                   clock_prescaler:
 605:../firmware/gd32f3x0_hal_peripheral/Source/gd32f3x0_hal_timer.c ****                   only one parameter can be selected which is shown as below:
 606:../firmware/gd32f3x0_hal_peripheral/Source/gd32f3x0_hal_timer.c ****       \arg          TIMER_EXT_TRI_PRESCALER_OFF: external trigger no divided
 607:../firmware/gd32f3x0_hal_peripheral/Source/gd32f3x0_hal_timer.c ****       \arg          TIMER_EXT_TRI_PRESCALER_DIV2: external trigger divided by 2
 608:../firmware/gd32f3x0_hal_peripheral/Source/gd32f3x0_hal_timer.c ****       \arg          TIMER_EXT_TRI_PRESCALER_DIV4: external trigger divided by 4
 609:../firmware/gd32f3x0_hal_peripheral/Source/gd32f3x0_hal_timer.c ****       \arg          TIMER_EXT_TRI_PRESCALER_DIV8: external trigger divided by 8
 610:../firmware/gd32f3x0_hal_peripheral/Source/gd32f3x0_hal_timer.c ****                   clock_filter: 0~15
 611:../firmware/gd32f3x0_hal_peripheral/Source/gd32f3x0_hal_timer.c ****     \param[out] none
 612:../firmware/gd32f3x0_hal_peripheral/Source/gd32f3x0_hal_timer.c ****     \retval     error code: HAL_ERR_NONE, HAL_ERR_ADDRESS, HAL_ERR_NO_SUPPORT, HAL_ERR_VAL, details
 613:../firmware/gd32f3x0_hal_peripheral/Source/gd32f3x0_hal_timer.c **** */
 614:../firmware/gd32f3x0_hal_peripheral/Source/gd32f3x0_hal_timer.c **** int32_t hal_timer_clock_source_config(hal_timer_dev_struct *timer_dev, hal_timer_clock_source_struc
 615:../firmware/gd32f3x0_hal_peripheral/Source/gd32f3x0_hal_timer.c **** {
 758              		.loc 1 615 1
 759              		.cfi_startproc
 760              		@ args = 0, pretend = 0, frame = 16
 761              		@ frame_needed = 1, uses_anonymous_args = 0
 762 0000 80B5     		push	{r7, lr}
 763              		.cfi_def_cfa_offset 8
 764              		.cfi_offset 7, -8
 765              		.cfi_offset 14, -4
 766 0002 84B0     		sub	sp, sp, #16
 767              		.cfi_def_cfa_offset 24
 768 0004 00AF     		add	r7, sp, #0
 769              		.cfi_def_cfa_register 7
 770 0006 7860     		str	r0, [r7, #4]
 771 0008 3960     		str	r1, [r7]
 616:../firmware/gd32f3x0_hal_peripheral/Source/gd32f3x0_hal_timer.c ****     uint32_t smc_val, trgs_val;
 617:../firmware/gd32f3x0_hal_peripheral/Source/gd32f3x0_hal_timer.c **** #if (1 == HAL_PARAMETER_CHECK)
 618:../firmware/gd32f3x0_hal_peripheral/Source/gd32f3x0_hal_timer.c ****     /* check the parameters */
 619:../firmware/gd32f3x0_hal_peripheral/Source/gd32f3x0_hal_timer.c ****     if((NULL == timer_dev) || (NULL == timer_clocksource)) {
 620:../firmware/gd32f3x0_hal_peripheral/Source/gd32f3x0_hal_timer.c ****         HAL_DEBUGE("pointer [timer_dev] or [timer_clocksource] address is invalid");
 621:../firmware/gd32f3x0_hal_peripheral/Source/gd32f3x0_hal_timer.c ****         return HAL_ERR_ADDRESS;
 622:../firmware/gd32f3x0_hal_peripheral/Source/gd32f3x0_hal_timer.c ****     }
 623:../firmware/gd32f3x0_hal_peripheral/Source/gd32f3x0_hal_timer.c **** #if defined(GD32F350)
 624:../firmware/gd32f3x0_hal_peripheral/Source/gd32f3x0_hal_timer.c ****     /* check the parameters */
 625:../firmware/gd32f3x0_hal_peripheral/Source/gd32f3x0_hal_timer.c ****     if(((TIMER_CLOCK_SOURCE_CK_TIMER != timer_clocksource->clock_source) && ((TIMER5 == timer_dev->
 626:../firmware/gd32f3x0_hal_peripheral/Source/gd32f3x0_hal_timer.c ****             (((TIMER_CLOCK_SOURCE_ETIMODE0 == timer_clocksource->clock_source) || (TIMER_CLOCK_SOUR
 627:../firmware/gd32f3x0_hal_peripheral/Source/gd32f3x0_hal_timer.c ****         HAL_DEBUGE("the [timer_clocksource->clock_source] value of [timer_dev] is invalid");
 628:../firmware/gd32f3x0_hal_peripheral/Source/gd32f3x0_hal_timer.c ****         return HAL_ERR_NO_SUPPORT;
 629:../firmware/gd32f3x0_hal_peripheral/Source/gd32f3x0_hal_timer.c ****     }
 630:../firmware/gd32f3x0_hal_peripheral/Source/gd32f3x0_hal_timer.c **** #else
 631:../firmware/gd32f3x0_hal_peripheral/Source/gd32f3x0_hal_timer.c ****     /* check the parameters */
 632:../firmware/gd32f3x0_hal_peripheral/Source/gd32f3x0_hal_timer.c ****     if(((TIMER_CLOCK_SOURCE_CK_TIMER != timer_clocksource->clock_source) && ((TIMER13 == timer_dev-
 633:../firmware/gd32f3x0_hal_peripheral/Source/gd32f3x0_hal_timer.c ****             (((TIMER_CLOCK_SOURCE_ETIMODE0 == timer_clocksource->clock_source) || (TIMER_CLOCK_SOUR
 634:../firmware/gd32f3x0_hal_peripheral/Source/gd32f3x0_hal_timer.c ****         HAL_DEBUGE("the [timer_clocksource->clock_source] value of [timer_dev] is invalid");
 635:../firmware/gd32f3x0_hal_peripheral/Source/gd32f3x0_hal_timer.c ****         return HAL_ERR_NO_SUPPORT;
 636:../firmware/gd32f3x0_hal_peripheral/Source/gd32f3x0_hal_timer.c ****     }
 637:../firmware/gd32f3x0_hal_peripheral/Source/gd32f3x0_hal_timer.c **** #endif /* GD32F350 */
 638:../firmware/gd32f3x0_hal_peripheral/Source/gd32f3x0_hal_timer.c **** #endif /* 1 == HAL_PARAMETER_CHECK */
 639:../firmware/gd32f3x0_hal_peripheral/Source/gd32f3x0_hal_timer.c **** 
 640:../firmware/gd32f3x0_hal_peripheral/Source/gd32f3x0_hal_timer.c ****     timer_dev->state = HAL_TIMER_STATE_BUSY;
 772              		.loc 1 640 22
 773 000a 7B68     		ldr	r3, [r7, #4]
 774 000c 0222     		movs	r2, #2
 775 000e 83F85520 		strb	r2, [r3, #85]
 641:../firmware/gd32f3x0_hal_peripheral/Source/gd32f3x0_hal_timer.c **** 
 642:../firmware/gd32f3x0_hal_peripheral/Source/gd32f3x0_hal_timer.c ****     /* read SMC, SMC1 and TRGS bits */
 643:../firmware/gd32f3x0_hal_peripheral/Source/gd32f3x0_hal_timer.c ****     smc_val = (uint32_t)(TIMER_SMCFG(timer_dev->periph) & TIMER_SMCFG_SMC);
 776              		.loc 1 643 26
 777 0012 7B68     		ldr	r3, [r7, #4]
 778 0014 1B68     		ldr	r3, [r3]
 779 0016 0833     		adds	r3, r3, #8
 780 0018 1B68     		ldr	r3, [r3]
 781              		.loc 1 643 13
 782 001a 03F00703 		and	r3, r3, #7
 783 001e FB60     		str	r3, [r7, #12]
 644:../firmware/gd32f3x0_hal_peripheral/Source/gd32f3x0_hal_timer.c ****     trgs_val = (uint32_t)(TIMER_SMCFG(timer_dev->periph) & TIMER_SMCFG_TRGS);
 784              		.loc 1 644 27
 785 0020 7B68     		ldr	r3, [r7, #4]
 786 0022 1B68     		ldr	r3, [r3]
 787 0024 0833     		adds	r3, r3, #8
 788 0026 1B68     		ldr	r3, [r3]
 789              		.loc 1 644 14
 790 0028 03F07003 		and	r3, r3, #112
 791 002c BB60     		str	r3, [r7, #8]
 645:../firmware/gd32f3x0_hal_peripheral/Source/gd32f3x0_hal_timer.c **** 
 646:../firmware/gd32f3x0_hal_peripheral/Source/gd32f3x0_hal_timer.c ****     /* reset the SMC1 bit */
 647:../firmware/gd32f3x0_hal_peripheral/Source/gd32f3x0_hal_timer.c ****     TIMER_SMCFG(timer_dev->periph) &= ~(uint32_t)TIMER_SMCFG_SMC1;
 792              		.loc 1 647 5
 793 002e 7B68     		ldr	r3, [r7, #4]
 794 0030 1B68     		ldr	r3, [r3]
 795              		.loc 1 647 36
 796 0032 0833     		adds	r3, r3, #8
 797 0034 1B68     		ldr	r3, [r3]
 798              		.loc 1 647 5
 799 0036 7A68     		ldr	r2, [r7, #4]
 800 0038 1268     		ldr	r2, [r2]
 801              		.loc 1 647 36
 802 003a 0832     		adds	r2, r2, #8
 803 003c 23F48043 		bic	r3, r3, #16384
 804 0040 1360     		str	r3, [r2]
 648:../firmware/gd32f3x0_hal_peripheral/Source/gd32f3x0_hal_timer.c **** 
 649:../firmware/gd32f3x0_hal_peripheral/Source/gd32f3x0_hal_timer.c ****     switch(timer_clocksource->clock_source) {
 805              		.loc 1 649 29
 806 0042 3B68     		ldr	r3, [r7]
 807 0044 1B88     		ldrh	r3, [r3]
 808              		.loc 1 649 5
 809 0046 B3F5804F 		cmp	r3, #16384
 810 004a 00F0C981 		beq	.L34
 811 004e B3F5804F 		cmp	r3, #16384
 812 0052 00F3FA81 		bgt	.L35
 813 0056 702B     		cmp	r3, #112
 814 0058 00F09D81 		beq	.L36
 815 005c 702B     		cmp	r3, #112
 816 005e 00F3F481 		bgt	.L35
 817 0062 602B     		cmp	r3, #96
 818 0064 00F0F680 		beq	.L37
 819 0068 602B     		cmp	r3, #96
 820 006a 00F3EE81 		bgt	.L35
 821 006e 502B     		cmp	r3, #80
 822 0070 00F0A080 		beq	.L38
 823 0074 502B     		cmp	r3, #80
 824 0076 00F3E881 		bgt	.L35
 825 007a 402B     		cmp	r3, #64
 826 007c 00F03B81 		beq	.L39
 827 0080 402B     		cmp	r3, #64
 828 0082 00F3E281 		bgt	.L35
 829 0086 302B     		cmp	r3, #48
 830 0088 79D0     		beq	.L40
 831 008a 302B     		cmp	r3, #48
 832 008c 00F3DD81 		bgt	.L35
 833 0090 202B     		cmp	r3, #32
 834 0092 59D0     		beq	.L41
 835 0094 202B     		cmp	r3, #32
 836 0096 00F3D881 		bgt	.L35
 837 009a 102B     		cmp	r3, #16
 838 009c 39D0     		beq	.L42
 839 009e 102B     		cmp	r3, #16
 840 00a0 00F3D381 		bgt	.L35
 841 00a4 002B     		cmp	r3, #0
 842 00a6 19D0     		beq	.L43
 843 00a8 012B     		cmp	r3, #1
 844 00aa 40F0CE81 		bne	.L35
 650:../firmware/gd32f3x0_hal_peripheral/Source/gd32f3x0_hal_timer.c ****     case TIMER_CLOCK_SOURCE_CK_TIMER:
 651:../firmware/gd32f3x0_hal_peripheral/Source/gd32f3x0_hal_timer.c ****         if((smc_val != TIMER_SLAVE_MODE_RESTART) && (smc_val != TIMER_SLAVE_MODE_PAUSE) && (smc_val
 845              		.loc 1 651 11
 846 00ae FB68     		ldr	r3, [r7, #12]
 847 00b0 042B     		cmp	r3, #4
 848 00b2 00F0CD81 		beq	.L49
 849              		.loc 1 651 50 discriminator 1
 850 00b6 FB68     		ldr	r3, [r7, #12]
 851 00b8 052B     		cmp	r3, #5
 852 00ba 00F0C981 		beq	.L49
 853              		.loc 1 651 89 discriminator 2
 854 00be FB68     		ldr	r3, [r7, #12]
 855 00c0 062B     		cmp	r3, #6
 856 00c2 00F0C581 		beq	.L49
 652:../firmware/gd32f3x0_hal_peripheral/Source/gd32f3x0_hal_timer.c ****             /* reset the SMC bit */
 653:../firmware/gd32f3x0_hal_peripheral/Source/gd32f3x0_hal_timer.c ****             TIMER_SMCFG(timer_dev->periph) &= ~(uint32_t)TIMER_SMCFG_SMC;
 857              		.loc 1 653 13
 858 00c6 7B68     		ldr	r3, [r7, #4]
 859 00c8 1B68     		ldr	r3, [r3]
 860              		.loc 1 653 44
 861 00ca 0833     		adds	r3, r3, #8
 862 00cc 1B68     		ldr	r3, [r3]
 863              		.loc 1 653 13
 864 00ce 7A68     		ldr	r2, [r7, #4]
 865 00d0 1268     		ldr	r2, [r2]
 866              		.loc 1 653 44
 867 00d2 0832     		adds	r2, r2, #8
 868 00d4 23F00703 		bic	r3, r3, #7
 869 00d8 1360     		str	r3, [r2]
 654:../firmware/gd32f3x0_hal_peripheral/Source/gd32f3x0_hal_timer.c ****         }
 655:../firmware/gd32f3x0_hal_peripheral/Source/gd32f3x0_hal_timer.c ****         break;
 870              		.loc 1 655 9
 871 00da B9E1     		b	.L49
 872              	.L43:
 656:../firmware/gd32f3x0_hal_peripheral/Source/gd32f3x0_hal_timer.c ****     case TIMER_CLOCK_SOURCE_ITI0:
 657:../firmware/gd32f3x0_hal_peripheral/Source/gd32f3x0_hal_timer.c ****         /* configure TIMER the internal trigger as external clock input */
 658:../firmware/gd32f3x0_hal_peripheral/Source/gd32f3x0_hal_timer.c ****         hals_timer_input_trigger_source_select(timer_dev->periph, TIMER_SMCFG_TRGSEL_ITI0);
 873              		.loc 1 658 9
 874 00dc 7B68     		ldr	r3, [r7, #4]
 875 00de 1B68     		ldr	r3, [r3]
 876 00e0 0021     		movs	r1, #0
 877 00e2 1846     		mov	r0, r3
 878 00e4 FFF7FEFF 		bl	hals_timer_input_trigger_source_select
 659:../firmware/gd32f3x0_hal_peripheral/Source/gd32f3x0_hal_timer.c ****         /* reset the SMC bit */
 660:../firmware/gd32f3x0_hal_peripheral/Source/gd32f3x0_hal_timer.c ****         TIMER_SMCFG(timer_dev->periph) &= ~(uint32_t)TIMER_SMCFG_SMC;
 879              		.loc 1 660 9
 880 00e8 7B68     		ldr	r3, [r7, #4]
 881 00ea 1B68     		ldr	r3, [r3]
 882              		.loc 1 660 40
 883 00ec 0833     		adds	r3, r3, #8
 884 00ee 1B68     		ldr	r3, [r3]
 885              		.loc 1 660 9
 886 00f0 7A68     		ldr	r2, [r7, #4]
 887 00f2 1268     		ldr	r2, [r2]
 888              		.loc 1 660 40
 889 00f4 0832     		adds	r2, r2, #8
 890 00f6 23F00703 		bic	r3, r3, #7
 891 00fa 1360     		str	r3, [r2]
 661:../firmware/gd32f3x0_hal_peripheral/Source/gd32f3x0_hal_timer.c ****         /* set the SMC bit */
 662:../firmware/gd32f3x0_hal_peripheral/Source/gd32f3x0_hal_timer.c ****         TIMER_SMCFG(timer_dev->periph) |= (uint32_t)TIMER_SLAVE_MODE_EXTERNAL0;
 892              		.loc 1 662 9
 893 00fc 7B68     		ldr	r3, [r7, #4]
 894 00fe 1B68     		ldr	r3, [r3]
 895              		.loc 1 662 40
 896 0100 0833     		adds	r3, r3, #8
 897 0102 1B68     		ldr	r3, [r3]
 898              		.loc 1 662 9
 899 0104 7A68     		ldr	r2, [r7, #4]
 900 0106 1268     		ldr	r2, [r2]
 901              		.loc 1 662 40
 902 0108 0832     		adds	r2, r2, #8
 903 010a 43F00703 		orr	r3, r3, #7
 904 010e 1360     		str	r3, [r2]
 663:../firmware/gd32f3x0_hal_peripheral/Source/gd32f3x0_hal_timer.c ****         break;
 905              		.loc 1 663 9
 906 0110 9FE1     		b	.L45
 907              	.L42:
 664:../firmware/gd32f3x0_hal_peripheral/Source/gd32f3x0_hal_timer.c ****     case TIMER_CLOCK_SOURCE_ITI1:
 665:../firmware/gd32f3x0_hal_peripheral/Source/gd32f3x0_hal_timer.c ****         /* configure TIMER the internal trigger as external clock input */
 666:../firmware/gd32f3x0_hal_peripheral/Source/gd32f3x0_hal_timer.c ****         hals_timer_input_trigger_source_select(timer_dev->periph, TIMER_SMCFG_TRGSEL_ITI1);
 908              		.loc 1 666 9
 909 0112 7B68     		ldr	r3, [r7, #4]
 910 0114 1B68     		ldr	r3, [r3]
 911 0116 1021     		movs	r1, #16
 912 0118 1846     		mov	r0, r3
 913 011a FFF7FEFF 		bl	hals_timer_input_trigger_source_select
 667:../firmware/gd32f3x0_hal_peripheral/Source/gd32f3x0_hal_timer.c ****         /* reset the SMC bit */
 668:../firmware/gd32f3x0_hal_peripheral/Source/gd32f3x0_hal_timer.c ****         TIMER_SMCFG(timer_dev->periph) &= ~(uint32_t)TIMER_SMCFG_SMC;
 914              		.loc 1 668 9
 915 011e 7B68     		ldr	r3, [r7, #4]
 916 0120 1B68     		ldr	r3, [r3]
 917              		.loc 1 668 40
 918 0122 0833     		adds	r3, r3, #8
 919 0124 1B68     		ldr	r3, [r3]
 920              		.loc 1 668 9
 921 0126 7A68     		ldr	r2, [r7, #4]
 922 0128 1268     		ldr	r2, [r2]
 923              		.loc 1 668 40
 924 012a 0832     		adds	r2, r2, #8
 925 012c 23F00703 		bic	r3, r3, #7
 926 0130 1360     		str	r3, [r2]
 669:../firmware/gd32f3x0_hal_peripheral/Source/gd32f3x0_hal_timer.c ****         /* set the SMC bit */
 670:../firmware/gd32f3x0_hal_peripheral/Source/gd32f3x0_hal_timer.c ****         TIMER_SMCFG(timer_dev->periph) |= (uint32_t)TIMER_SLAVE_MODE_EXTERNAL0;
 927              		.loc 1 670 9
 928 0132 7B68     		ldr	r3, [r7, #4]
 929 0134 1B68     		ldr	r3, [r3]
 930              		.loc 1 670 40
 931 0136 0833     		adds	r3, r3, #8
 932 0138 1B68     		ldr	r3, [r3]
 933              		.loc 1 670 9
 934 013a 7A68     		ldr	r2, [r7, #4]
 935 013c 1268     		ldr	r2, [r2]
 936              		.loc 1 670 40
 937 013e 0832     		adds	r2, r2, #8
 938 0140 43F00703 		orr	r3, r3, #7
 939 0144 1360     		str	r3, [r2]
 671:../firmware/gd32f3x0_hal_peripheral/Source/gd32f3x0_hal_timer.c ****         break;
 940              		.loc 1 671 9
 941 0146 84E1     		b	.L45
 942              	.L41:
 672:../firmware/gd32f3x0_hal_peripheral/Source/gd32f3x0_hal_timer.c ****     case TIMER_CLOCK_SOURCE_ITI2:
 673:../firmware/gd32f3x0_hal_peripheral/Source/gd32f3x0_hal_timer.c ****         /* configure TIMER the internal trigger as external clock input */
 674:../firmware/gd32f3x0_hal_peripheral/Source/gd32f3x0_hal_timer.c ****         hals_timer_input_trigger_source_select(timer_dev->periph, TIMER_SMCFG_TRGSEL_ITI2);
 943              		.loc 1 674 9
 944 0148 7B68     		ldr	r3, [r7, #4]
 945 014a 1B68     		ldr	r3, [r3]
 946 014c 2021     		movs	r1, #32
 947 014e 1846     		mov	r0, r3
 948 0150 FFF7FEFF 		bl	hals_timer_input_trigger_source_select
 675:../firmware/gd32f3x0_hal_peripheral/Source/gd32f3x0_hal_timer.c ****         /* reset the SMC bit */
 676:../firmware/gd32f3x0_hal_peripheral/Source/gd32f3x0_hal_timer.c ****         TIMER_SMCFG(timer_dev->periph) &= ~(uint32_t)TIMER_SMCFG_SMC;
 949              		.loc 1 676 9
 950 0154 7B68     		ldr	r3, [r7, #4]
 951 0156 1B68     		ldr	r3, [r3]
 952              		.loc 1 676 40
 953 0158 0833     		adds	r3, r3, #8
 954 015a 1B68     		ldr	r3, [r3]
 955              		.loc 1 676 9
 956 015c 7A68     		ldr	r2, [r7, #4]
 957 015e 1268     		ldr	r2, [r2]
 958              		.loc 1 676 40
 959 0160 0832     		adds	r2, r2, #8
 960 0162 23F00703 		bic	r3, r3, #7
 961 0166 1360     		str	r3, [r2]
 677:../firmware/gd32f3x0_hal_peripheral/Source/gd32f3x0_hal_timer.c ****         /* set the SMC bit */
 678:../firmware/gd32f3x0_hal_peripheral/Source/gd32f3x0_hal_timer.c ****         TIMER_SMCFG(timer_dev->periph) |= (uint32_t)TIMER_SLAVE_MODE_EXTERNAL0;
 962              		.loc 1 678 9
 963 0168 7B68     		ldr	r3, [r7, #4]
 964 016a 1B68     		ldr	r3, [r3]
 965              		.loc 1 678 40
 966 016c 0833     		adds	r3, r3, #8
 967 016e 1B68     		ldr	r3, [r3]
 968              		.loc 1 678 9
 969 0170 7A68     		ldr	r2, [r7, #4]
 970 0172 1268     		ldr	r2, [r2]
 971              		.loc 1 678 40
 972 0174 0832     		adds	r2, r2, #8
 973 0176 43F00703 		orr	r3, r3, #7
 974 017a 1360     		str	r3, [r2]
 679:../firmware/gd32f3x0_hal_peripheral/Source/gd32f3x0_hal_timer.c ****         break;
 975              		.loc 1 679 9
 976 017c 69E1     		b	.L45
 977              	.L40:
 680:../firmware/gd32f3x0_hal_peripheral/Source/gd32f3x0_hal_timer.c ****     case TIMER_CLOCK_SOURCE_ITI3:
 681:../firmware/gd32f3x0_hal_peripheral/Source/gd32f3x0_hal_timer.c ****         /* configure TIMER the internal trigger as external clock input */
 682:../firmware/gd32f3x0_hal_peripheral/Source/gd32f3x0_hal_timer.c ****         hals_timer_input_trigger_source_select(timer_dev->periph, TIMER_SMCFG_TRGSEL_ITI3);
 978              		.loc 1 682 9
 979 017e 7B68     		ldr	r3, [r7, #4]
 980 0180 1B68     		ldr	r3, [r3]
 981 0182 3021     		movs	r1, #48
 982 0184 1846     		mov	r0, r3
 983 0186 FFF7FEFF 		bl	hals_timer_input_trigger_source_select
 683:../firmware/gd32f3x0_hal_peripheral/Source/gd32f3x0_hal_timer.c ****         /* reset the SMC bit */
 684:../firmware/gd32f3x0_hal_peripheral/Source/gd32f3x0_hal_timer.c ****         TIMER_SMCFG(timer_dev->periph) &= ~(uint32_t)TIMER_SMCFG_SMC;
 984              		.loc 1 684 9
 985 018a 7B68     		ldr	r3, [r7, #4]
 986 018c 1B68     		ldr	r3, [r3]
 987              		.loc 1 684 40
 988 018e 0833     		adds	r3, r3, #8
 989 0190 1B68     		ldr	r3, [r3]
 990              		.loc 1 684 9
 991 0192 7A68     		ldr	r2, [r7, #4]
 992 0194 1268     		ldr	r2, [r2]
 993              		.loc 1 684 40
 994 0196 0832     		adds	r2, r2, #8
 995 0198 23F00703 		bic	r3, r3, #7
 996 019c 1360     		str	r3, [r2]
 685:../firmware/gd32f3x0_hal_peripheral/Source/gd32f3x0_hal_timer.c ****         /* set the SMC bit */
 686:../firmware/gd32f3x0_hal_peripheral/Source/gd32f3x0_hal_timer.c ****         TIMER_SMCFG(timer_dev->periph) |= (uint32_t)TIMER_SLAVE_MODE_EXTERNAL0;
 997              		.loc 1 686 9
 998 019e 7B68     		ldr	r3, [r7, #4]
 999 01a0 1B68     		ldr	r3, [r3]
 1000              		.loc 1 686 40
 1001 01a2 0833     		adds	r3, r3, #8
 1002 01a4 1B68     		ldr	r3, [r3]
 1003              		.loc 1 686 9
 1004 01a6 7A68     		ldr	r2, [r7, #4]
 1005 01a8 1268     		ldr	r2, [r2]
 1006              		.loc 1 686 40
 1007 01aa 0832     		adds	r2, r2, #8
 1008 01ac 43F00703 		orr	r3, r3, #7
 1009 01b0 1360     		str	r3, [r2]
 687:../firmware/gd32f3x0_hal_peripheral/Source/gd32f3x0_hal_timer.c ****         break;
 1010              		.loc 1 687 9
 1011 01b2 4EE1     		b	.L45
 1012              	.L38:
 688:../firmware/gd32f3x0_hal_peripheral/Source/gd32f3x0_hal_timer.c ****     case TIMER_CLOCK_SOURCE_CI0FE0:
 689:../firmware/gd32f3x0_hal_peripheral/Source/gd32f3x0_hal_timer.c ****         /* configure TIMER the external trigger as external clock input */
 690:../firmware/gd32f3x0_hal_peripheral/Source/gd32f3x0_hal_timer.c ****         /* reset the CH0EN bit */
 691:../firmware/gd32f3x0_hal_peripheral/Source/gd32f3x0_hal_timer.c ****         TIMER_CHCTL2(timer_dev->periph) &= (~(uint32_t)(TIMER_CHCTL2_CH0EN | TIMER_CHCTL2_CH0NEN));
 1013              		.loc 1 691 9
 1014 01b4 7B68     		ldr	r3, [r7, #4]
 1015 01b6 1B68     		ldr	r3, [r3]
 1016              		.loc 1 691 41
 1017 01b8 2033     		adds	r3, r3, #32
 1018 01ba 1B68     		ldr	r3, [r3]
 1019              		.loc 1 691 9
 1020 01bc 7A68     		ldr	r2, [r7, #4]
 1021 01be 1268     		ldr	r2, [r2]
 1022              		.loc 1 691 41
 1023 01c0 2032     		adds	r2, r2, #32
 1024 01c2 23F00503 		bic	r3, r3, #5
 1025 01c6 1360     		str	r3, [r2]
 692:../firmware/gd32f3x0_hal_peripheral/Source/gd32f3x0_hal_timer.c ****         /* reset the CH0P and CH0NP bits */
 693:../firmware/gd32f3x0_hal_peripheral/Source/gd32f3x0_hal_timer.c ****         TIMER_CHCTL2(timer_dev->periph) &= (~(uint32_t)(TIMER_CHCTL2_CH0P | TIMER_CHCTL2_CH0NP));
 1026              		.loc 1 693 9
 1027 01c8 7B68     		ldr	r3, [r7, #4]
 1028 01ca 1B68     		ldr	r3, [r3]
 1029              		.loc 1 693 41
 1030 01cc 2033     		adds	r3, r3, #32
 1031 01ce 1B68     		ldr	r3, [r3]
 1032              		.loc 1 693 9
 1033 01d0 7A68     		ldr	r2, [r7, #4]
 1034 01d2 1268     		ldr	r2, [r2]
 1035              		.loc 1 693 41
 1036 01d4 2032     		adds	r2, r2, #32
 1037 01d6 23F00A03 		bic	r3, r3, #10
 1038 01da 1360     		str	r3, [r2]
 694:../firmware/gd32f3x0_hal_peripheral/Source/gd32f3x0_hal_timer.c ****         /* set the CH0P and CH0NP bits */
 695:../firmware/gd32f3x0_hal_peripheral/Source/gd32f3x0_hal_timer.c ****         TIMER_CHCTL2(timer_dev->periph) |= (uint32_t)timer_clocksource->clock_polarity;
 1039              		.loc 1 695 9
 1040 01dc 7B68     		ldr	r3, [r7, #4]
 1041 01de 1B68     		ldr	r3, [r3]
 1042              		.loc 1 695 41
 1043 01e0 2033     		adds	r3, r3, #32
 1044 01e2 1A68     		ldr	r2, [r3]
 1045              		.loc 1 695 71
 1046 01e4 3B68     		ldr	r3, [r7]
 1047 01e6 5B68     		ldr	r3, [r3, #4]
 1048              		.loc 1 695 9
 1049 01e8 7968     		ldr	r1, [r7, #4]
 1050 01ea 0968     		ldr	r1, [r1]
 1051              		.loc 1 695 41
 1052 01ec 2031     		adds	r1, r1, #32
 1053 01ee 1343     		orrs	r3, r3, r2
 1054 01f0 0B60     		str	r3, [r1]
 696:../firmware/gd32f3x0_hal_peripheral/Source/gd32f3x0_hal_timer.c ****         /* reset the CH0CAPFLT bit */
 697:../firmware/gd32f3x0_hal_peripheral/Source/gd32f3x0_hal_timer.c ****         TIMER_CHCTL0(timer_dev->periph) &= (~(uint32_t)TIMER_CHCTL0_CH0CAPFLT);
 1055              		.loc 1 697 9
 1056 01f2 7B68     		ldr	r3, [r7, #4]
 1057 01f4 1B68     		ldr	r3, [r3]
 1058              		.loc 1 697 41
 1059 01f6 1833     		adds	r3, r3, #24
 1060 01f8 1B68     		ldr	r3, [r3]
 1061              		.loc 1 697 9
 1062 01fa 7A68     		ldr	r2, [r7, #4]
 1063 01fc 1268     		ldr	r2, [r2]
 1064              		.loc 1 697 41
 1065 01fe 1832     		adds	r2, r2, #24
 1066 0200 23F0F003 		bic	r3, r3, #240
 1067 0204 1360     		str	r3, [r2]
 698:../firmware/gd32f3x0_hal_peripheral/Source/gd32f3x0_hal_timer.c ****         /* reset the CH0CAPFLT bit */
 699:../firmware/gd32f3x0_hal_peripheral/Source/gd32f3x0_hal_timer.c ****         TIMER_CHCTL0(timer_dev->periph) |= (uint32_t)(timer_clocksource->clock_filter << 4U);
 1068              		.loc 1 699 9
 1069 0206 7B68     		ldr	r3, [r7, #4]
 1070 0208 1B68     		ldr	r3, [r3]
 1071              		.loc 1 699 41
 1072 020a 1833     		adds	r3, r3, #24
 1073 020c 1A68     		ldr	r2, [r3]
 1074              		.loc 1 699 72
 1075 020e 3B68     		ldr	r3, [r7]
 1076 0210 DB68     		ldr	r3, [r3, #12]
 1077              		.loc 1 699 87
 1078 0212 1B01     		lsls	r3, r3, #4
 1079              		.loc 1 699 9
 1080 0214 7968     		ldr	r1, [r7, #4]
 1081 0216 0968     		ldr	r1, [r1]
 1082              		.loc 1 699 41
 1083 0218 1831     		adds	r1, r1, #24
 1084 021a 1343     		orrs	r3, r3, r2
 1085 021c 0B60     		str	r3, [r1]
 700:../firmware/gd32f3x0_hal_peripheral/Source/gd32f3x0_hal_timer.c ****         /* select TIMER input trigger source */
 701:../firmware/gd32f3x0_hal_peripheral/Source/gd32f3x0_hal_timer.c ****         hals_timer_input_trigger_source_select(timer_dev->periph, TIMER_SMCFG_TRGSEL_CI0FE0);
 1086              		.loc 1 701 9
 1087 021e 7B68     		ldr	r3, [r7, #4]
 1088 0220 1B68     		ldr	r3, [r3]
 1089 0222 5021     		movs	r1, #80
 1090 0224 1846     		mov	r0, r3
 1091 0226 FFF7FEFF 		bl	hals_timer_input_trigger_source_select
 702:../firmware/gd32f3x0_hal_peripheral/Source/gd32f3x0_hal_timer.c ****         /* reset the SMC bit */
 703:../firmware/gd32f3x0_hal_peripheral/Source/gd32f3x0_hal_timer.c ****         TIMER_SMCFG(timer_dev->periph) &= ~(uint32_t)TIMER_SMCFG_SMC;
 1092              		.loc 1 703 9
 1093 022a 7B68     		ldr	r3, [r7, #4]
 1094 022c 1B68     		ldr	r3, [r3]
 1095              		.loc 1 703 40
 1096 022e 0833     		adds	r3, r3, #8
 1097 0230 1B68     		ldr	r3, [r3]
 1098              		.loc 1 703 9
 1099 0232 7A68     		ldr	r2, [r7, #4]
 1100 0234 1268     		ldr	r2, [r2]
 1101              		.loc 1 703 40
 1102 0236 0832     		adds	r2, r2, #8
 1103 0238 23F00703 		bic	r3, r3, #7
 1104 023c 1360     		str	r3, [r2]
 704:../firmware/gd32f3x0_hal_peripheral/Source/gd32f3x0_hal_timer.c ****         /* set the SMC bit */
 705:../firmware/gd32f3x0_hal_peripheral/Source/gd32f3x0_hal_timer.c ****         TIMER_SMCFG(timer_dev->periph) |= (uint32_t)TIMER_SLAVE_MODE_EXTERNAL0;
 1105              		.loc 1 705 9
 1106 023e 7B68     		ldr	r3, [r7, #4]
 1107 0240 1B68     		ldr	r3, [r3]
 1108              		.loc 1 705 40
 1109 0242 0833     		adds	r3, r3, #8
 1110 0244 1B68     		ldr	r3, [r3]
 1111              		.loc 1 705 9
 1112 0246 7A68     		ldr	r2, [r7, #4]
 1113 0248 1268     		ldr	r2, [r2]
 1114              		.loc 1 705 40
 1115 024a 0832     		adds	r2, r2, #8
 1116 024c 43F00703 		orr	r3, r3, #7
 1117 0250 1360     		str	r3, [r2]
 706:../firmware/gd32f3x0_hal_peripheral/Source/gd32f3x0_hal_timer.c ****         break;
 1118              		.loc 1 706 9
 1119 0252 FEE0     		b	.L45
 1120              	.L37:
 707:../firmware/gd32f3x0_hal_peripheral/Source/gd32f3x0_hal_timer.c ****     case TIMER_CLOCK_SOURCE_CI1FE1:
 708:../firmware/gd32f3x0_hal_peripheral/Source/gd32f3x0_hal_timer.c ****         /* configure TIMER the external trigger as external clock input */
 709:../firmware/gd32f3x0_hal_peripheral/Source/gd32f3x0_hal_timer.c ****         /* reset the CH1EN bit */
 710:../firmware/gd32f3x0_hal_peripheral/Source/gd32f3x0_hal_timer.c ****         TIMER_CHCTL2(timer_dev->periph) &= (~(uint32_t)(TIMER_CHCTL2_CH1EN | TIMER_CHCTL2_CH1NEN));
 1121              		.loc 1 710 9
 1122 0254 7B68     		ldr	r3, [r7, #4]
 1123 0256 1B68     		ldr	r3, [r3]
 1124              		.loc 1 710 41
 1125 0258 2033     		adds	r3, r3, #32
 1126 025a 1B68     		ldr	r3, [r3]
 1127              		.loc 1 710 9
 1128 025c 7A68     		ldr	r2, [r7, #4]
 1129 025e 1268     		ldr	r2, [r2]
 1130              		.loc 1 710 41
 1131 0260 2032     		adds	r2, r2, #32
 1132 0262 23F05003 		bic	r3, r3, #80
 1133 0266 1360     		str	r3, [r2]
 711:../firmware/gd32f3x0_hal_peripheral/Source/gd32f3x0_hal_timer.c ****         /* reset the CH1NP bit */
 712:../firmware/gd32f3x0_hal_peripheral/Source/gd32f3x0_hal_timer.c ****         TIMER_CHCTL2(timer_dev->periph) &= (~(uint32_t)(TIMER_CHCTL2_CH1P | TIMER_CHCTL2_CH1NP));
 1134              		.loc 1 712 9
 1135 0268 7B68     		ldr	r3, [r7, #4]
 1136 026a 1B68     		ldr	r3, [r3]
 1137              		.loc 1 712 41
 1138 026c 2033     		adds	r3, r3, #32
 1139 026e 1B68     		ldr	r3, [r3]
 1140              		.loc 1 712 9
 1141 0270 7A68     		ldr	r2, [r7, #4]
 1142 0272 1268     		ldr	r2, [r2]
 1143              		.loc 1 712 41
 1144 0274 2032     		adds	r2, r2, #32
 1145 0276 23F0A003 		bic	r3, r3, #160
 1146 027a 1360     		str	r3, [r2]
 713:../firmware/gd32f3x0_hal_peripheral/Source/gd32f3x0_hal_timer.c ****         /* set the CH1NP bit */
 714:../firmware/gd32f3x0_hal_peripheral/Source/gd32f3x0_hal_timer.c ****         TIMER_CHCTL2(timer_dev->periph) |= (uint32_t)((uint32_t)timer_clocksource->clock_polarity <
 1147              		.loc 1 714 9
 1148 027c 7B68     		ldr	r3, [r7, #4]
 1149 027e 1B68     		ldr	r3, [r3]
 1150              		.loc 1 714 41
 1151 0280 2033     		adds	r3, r3, #32
 1152 0282 1A68     		ldr	r2, [r3]
 1153              		.loc 1 714 82
 1154 0284 3B68     		ldr	r3, [r7]
 1155 0286 5B68     		ldr	r3, [r3, #4]
 1156              		.loc 1 714 44
 1157 0288 1B01     		lsls	r3, r3, #4
 1158              		.loc 1 714 9
 1159 028a 7968     		ldr	r1, [r7, #4]
 1160 028c 0968     		ldr	r1, [r1]
 1161              		.loc 1 714 41
 1162 028e 2031     		adds	r1, r1, #32
 1163 0290 1343     		orrs	r3, r3, r2
 1164 0292 0B60     		str	r3, [r1]
 715:../firmware/gd32f3x0_hal_peripheral/Source/gd32f3x0_hal_timer.c ****         /* reset the CH1CAPFLT bit */
 716:../firmware/gd32f3x0_hal_peripheral/Source/gd32f3x0_hal_timer.c ****         TIMER_CHCTL0(timer_dev->periph) &= (~(uint32_t)TIMER_CHCTL0_CH1CAPFLT);
 1165              		.loc 1 716 9
 1166 0294 7B68     		ldr	r3, [r7, #4]
 1167 0296 1B68     		ldr	r3, [r3]
 1168              		.loc 1 716 41
 1169 0298 1833     		adds	r3, r3, #24
 1170 029a 1B68     		ldr	r3, [r3]
 1171              		.loc 1 716 9
 1172 029c 7A68     		ldr	r2, [r7, #4]
 1173 029e 1268     		ldr	r2, [r2]
 1174              		.loc 1 716 41
 1175 02a0 1832     		adds	r2, r2, #24
 1176 02a2 23F47043 		bic	r3, r3, #61440
 1177 02a6 1360     		str	r3, [r2]
 717:../firmware/gd32f3x0_hal_peripheral/Source/gd32f3x0_hal_timer.c ****         /* set the CH1CAPFLT bit */
 718:../firmware/gd32f3x0_hal_peripheral/Source/gd32f3x0_hal_timer.c ****         TIMER_CHCTL0(timer_dev->periph) |= (uint32_t)(timer_clocksource->clock_filter << 12U);
 1178              		.loc 1 718 9
 1179 02a8 7B68     		ldr	r3, [r7, #4]
 1180 02aa 1B68     		ldr	r3, [r3]
 1181              		.loc 1 718 41
 1182 02ac 1833     		adds	r3, r3, #24
 1183 02ae 1A68     		ldr	r2, [r3]
 1184              		.loc 1 718 72
 1185 02b0 3B68     		ldr	r3, [r7]
 1186 02b2 DB68     		ldr	r3, [r3, #12]
 1187              		.loc 1 718 87
 1188 02b4 1B03     		lsls	r3, r3, #12
 1189              		.loc 1 718 9
 1190 02b6 7968     		ldr	r1, [r7, #4]
 1191 02b8 0968     		ldr	r1, [r1]
 1192              		.loc 1 718 41
 1193 02ba 1831     		adds	r1, r1, #24
 1194 02bc 1343     		orrs	r3, r3, r2
 1195 02be 0B60     		str	r3, [r1]
 719:../firmware/gd32f3x0_hal_peripheral/Source/gd32f3x0_hal_timer.c ****         /* select TIMER input trigger source */
 720:../firmware/gd32f3x0_hal_peripheral/Source/gd32f3x0_hal_timer.c ****         hals_timer_input_trigger_source_select(timer_dev->periph, TIMER_SMCFG_TRGSEL_CI1FE1);
 1196              		.loc 1 720 9
 1197 02c0 7B68     		ldr	r3, [r7, #4]
 1198 02c2 1B68     		ldr	r3, [r3]
 1199 02c4 6021     		movs	r1, #96
 1200 02c6 1846     		mov	r0, r3
 1201 02c8 FFF7FEFF 		bl	hals_timer_input_trigger_source_select
 721:../firmware/gd32f3x0_hal_peripheral/Source/gd32f3x0_hal_timer.c ****         /* reset the SMC bit */
 722:../firmware/gd32f3x0_hal_peripheral/Source/gd32f3x0_hal_timer.c ****         TIMER_SMCFG(timer_dev->periph) &= (~(uint32_t)TIMER_SMCFG_SMC);
 1202              		.loc 1 722 9
 1203 02cc 7B68     		ldr	r3, [r7, #4]
 1204 02ce 1B68     		ldr	r3, [r3]
 1205              		.loc 1 722 40
 1206 02d0 0833     		adds	r3, r3, #8
 1207 02d2 1B68     		ldr	r3, [r3]
 1208              		.loc 1 722 9
 1209 02d4 7A68     		ldr	r2, [r7, #4]
 1210 02d6 1268     		ldr	r2, [r2]
 1211              		.loc 1 722 40
 1212 02d8 0832     		adds	r2, r2, #8
 1213 02da 23F00703 		bic	r3, r3, #7
 1214 02de 1360     		str	r3, [r2]
 723:../firmware/gd32f3x0_hal_peripheral/Source/gd32f3x0_hal_timer.c ****         /* set the SMC bit */
 724:../firmware/gd32f3x0_hal_peripheral/Source/gd32f3x0_hal_timer.c ****         TIMER_SMCFG(timer_dev->periph) |= (uint32_t)TIMER_SLAVE_MODE_EXTERNAL0;
 1215              		.loc 1 724 9
 1216 02e0 7B68     		ldr	r3, [r7, #4]
 1217 02e2 1B68     		ldr	r3, [r3]
 1218              		.loc 1 724 40
 1219 02e4 0833     		adds	r3, r3, #8
 1220 02e6 1B68     		ldr	r3, [r3]
 1221              		.loc 1 724 9
 1222 02e8 7A68     		ldr	r2, [r7, #4]
 1223 02ea 1268     		ldr	r2, [r2]
 1224              		.loc 1 724 40
 1225 02ec 0832     		adds	r2, r2, #8
 1226 02ee 43F00703 		orr	r3, r3, #7
 1227 02f2 1360     		str	r3, [r2]
 725:../firmware/gd32f3x0_hal_peripheral/Source/gd32f3x0_hal_timer.c ****         break;
 1228              		.loc 1 725 9
 1229 02f4 ADE0     		b	.L45
 1230              	.L39:
 726:../firmware/gd32f3x0_hal_peripheral/Source/gd32f3x0_hal_timer.c ****     case TIMER_CLOCK_SOURCE_CI0FED:
 727:../firmware/gd32f3x0_hal_peripheral/Source/gd32f3x0_hal_timer.c ****         /* configure TIMER the external trigger as external clock input */
 728:../firmware/gd32f3x0_hal_peripheral/Source/gd32f3x0_hal_timer.c ****         /* reset the CH0EN bit */
 729:../firmware/gd32f3x0_hal_peripheral/Source/gd32f3x0_hal_timer.c ****         TIMER_CHCTL2(timer_dev->periph) &= (~(uint32_t)(TIMER_CHCTL2_CH0EN | TIMER_CHCTL2_CH0NEN));
 1231              		.loc 1 729 9
 1232 02f6 7B68     		ldr	r3, [r7, #4]
 1233 02f8 1B68     		ldr	r3, [r3]
 1234              		.loc 1 729 41
 1235 02fa 2033     		adds	r3, r3, #32
 1236 02fc 1B68     		ldr	r3, [r3]
 1237              		.loc 1 729 9
 1238 02fe 7A68     		ldr	r2, [r7, #4]
 1239 0300 1268     		ldr	r2, [r2]
 1240              		.loc 1 729 41
 1241 0302 2032     		adds	r2, r2, #32
 1242 0304 23F00503 		bic	r3, r3, #5
 1243 0308 1360     		str	r3, [r2]
 730:../firmware/gd32f3x0_hal_peripheral/Source/gd32f3x0_hal_timer.c ****         /* reset the CH0P and CH0NP bits */
 731:../firmware/gd32f3x0_hal_peripheral/Source/gd32f3x0_hal_timer.c ****         TIMER_CHCTL2(timer_dev->periph) &= (~(uint32_t)(TIMER_CHCTL2_CH0P | TIMER_CHCTL2_CH0NP));
 1244              		.loc 1 731 9
 1245 030a 7B68     		ldr	r3, [r7, #4]
 1246 030c 1B68     		ldr	r3, [r3]
 1247              		.loc 1 731 41
 1248 030e 2033     		adds	r3, r3, #32
 1249 0310 1B68     		ldr	r3, [r3]
 1250              		.loc 1 731 9
 1251 0312 7A68     		ldr	r2, [r7, #4]
 1252 0314 1268     		ldr	r2, [r2]
 1253              		.loc 1 731 41
 1254 0316 2032     		adds	r2, r2, #32
 1255 0318 23F00A03 		bic	r3, r3, #10
 1256 031c 1360     		str	r3, [r2]
 732:../firmware/gd32f3x0_hal_peripheral/Source/gd32f3x0_hal_timer.c ****         /* set the CH0P and CH0NP bits */
 733:../firmware/gd32f3x0_hal_peripheral/Source/gd32f3x0_hal_timer.c ****         TIMER_CHCTL2(timer_dev->periph) |= (uint32_t)timer_clocksource->clock_polarity;
 1257              		.loc 1 733 9
 1258 031e 7B68     		ldr	r3, [r7, #4]
 1259 0320 1B68     		ldr	r3, [r3]
 1260              		.loc 1 733 41
 1261 0322 2033     		adds	r3, r3, #32
 1262 0324 1A68     		ldr	r2, [r3]
 1263              		.loc 1 733 71
 1264 0326 3B68     		ldr	r3, [r7]
 1265 0328 5B68     		ldr	r3, [r3, #4]
 1266              		.loc 1 733 9
 1267 032a 7968     		ldr	r1, [r7, #4]
 1268 032c 0968     		ldr	r1, [r1]
 1269              		.loc 1 733 41
 1270 032e 2031     		adds	r1, r1, #32
 1271 0330 1343     		orrs	r3, r3, r2
 1272 0332 0B60     		str	r3, [r1]
 734:../firmware/gd32f3x0_hal_peripheral/Source/gd32f3x0_hal_timer.c ****         /* reset the CH0CAPFLT bit */
 735:../firmware/gd32f3x0_hal_peripheral/Source/gd32f3x0_hal_timer.c ****         TIMER_CHCTL0(timer_dev->periph) &= (~(uint32_t)TIMER_CHCTL0_CH0CAPFLT);
 1273              		.loc 1 735 9
 1274 0334 7B68     		ldr	r3, [r7, #4]
 1275 0336 1B68     		ldr	r3, [r3]
 1276              		.loc 1 735 41
 1277 0338 1833     		adds	r3, r3, #24
 1278 033a 1B68     		ldr	r3, [r3]
 1279              		.loc 1 735 9
 1280 033c 7A68     		ldr	r2, [r7, #4]
 1281 033e 1268     		ldr	r2, [r2]
 1282              		.loc 1 735 41
 1283 0340 1832     		adds	r2, r2, #24
 1284 0342 23F0F003 		bic	r3, r3, #240
 1285 0346 1360     		str	r3, [r2]
 736:../firmware/gd32f3x0_hal_peripheral/Source/gd32f3x0_hal_timer.c ****         /* reset the CH0CAPFLT bit */
 737:../firmware/gd32f3x0_hal_peripheral/Source/gd32f3x0_hal_timer.c ****         TIMER_CHCTL0(timer_dev->periph) |= (uint32_t)(timer_clocksource->clock_filter << 4U);
 1286              		.loc 1 737 9
 1287 0348 7B68     		ldr	r3, [r7, #4]
 1288 034a 1B68     		ldr	r3, [r3]
 1289              		.loc 1 737 41
 1290 034c 1833     		adds	r3, r3, #24
 1291 034e 1A68     		ldr	r2, [r3]
 1292              		.loc 1 737 72
 1293 0350 3B68     		ldr	r3, [r7]
 1294 0352 DB68     		ldr	r3, [r3, #12]
 1295              		.loc 1 737 87
 1296 0354 1B01     		lsls	r3, r3, #4
 1297              		.loc 1 737 9
 1298 0356 7968     		ldr	r1, [r7, #4]
 1299 0358 0968     		ldr	r1, [r1]
 1300              		.loc 1 737 41
 1301 035a 1831     		adds	r1, r1, #24
 1302 035c 1343     		orrs	r3, r3, r2
 1303 035e 0B60     		str	r3, [r1]
 738:../firmware/gd32f3x0_hal_peripheral/Source/gd32f3x0_hal_timer.c ****         /* select TIMER input trigger source */
 739:../firmware/gd32f3x0_hal_peripheral/Source/gd32f3x0_hal_timer.c ****         hals_timer_input_trigger_source_select(timer_dev->periph, TIMER_SMCFG_TRGSEL_CI0F_ED);
 1304              		.loc 1 739 9
 1305 0360 7B68     		ldr	r3, [r7, #4]
 1306 0362 1B68     		ldr	r3, [r3]
 1307 0364 4021     		movs	r1, #64
 1308 0366 1846     		mov	r0, r3
 1309 0368 FFF7FEFF 		bl	hals_timer_input_trigger_source_select
 740:../firmware/gd32f3x0_hal_peripheral/Source/gd32f3x0_hal_timer.c ****         /* reset the SMC bit */
 741:../firmware/gd32f3x0_hal_peripheral/Source/gd32f3x0_hal_timer.c ****         TIMER_SMCFG(timer_dev->periph) &= (~(uint32_t)TIMER_SMCFG_SMC);
 1310              		.loc 1 741 9
 1311 036c 7B68     		ldr	r3, [r7, #4]
 1312 036e 1B68     		ldr	r3, [r3]
 1313              		.loc 1 741 40
 1314 0370 0833     		adds	r3, r3, #8
 1315 0372 1B68     		ldr	r3, [r3]
 1316              		.loc 1 741 9
 1317 0374 7A68     		ldr	r2, [r7, #4]
 1318 0376 1268     		ldr	r2, [r2]
 1319              		.loc 1 741 40
 1320 0378 0832     		adds	r2, r2, #8
 1321 037a 23F00703 		bic	r3, r3, #7
 1322 037e 1360     		str	r3, [r2]
 742:../firmware/gd32f3x0_hal_peripheral/Source/gd32f3x0_hal_timer.c ****         /* set the SMC bit */
 743:../firmware/gd32f3x0_hal_peripheral/Source/gd32f3x0_hal_timer.c ****         TIMER_SMCFG(timer_dev->periph) |= (uint32_t)TIMER_SLAVE_MODE_EXTERNAL0;
 1323              		.loc 1 743 9
 1324 0380 7B68     		ldr	r3, [r7, #4]
 1325 0382 1B68     		ldr	r3, [r3]
 1326              		.loc 1 743 40
 1327 0384 0833     		adds	r3, r3, #8
 1328 0386 1B68     		ldr	r3, [r3]
 1329              		.loc 1 743 9
 1330 0388 7A68     		ldr	r2, [r7, #4]
 1331 038a 1268     		ldr	r2, [r2]
 1332              		.loc 1 743 40
 1333 038c 0832     		adds	r2, r2, #8
 1334 038e 43F00703 		orr	r3, r3, #7
 1335 0392 1360     		str	r3, [r2]
 744:../firmware/gd32f3x0_hal_peripheral/Source/gd32f3x0_hal_timer.c ****         break;
 1336              		.loc 1 744 9
 1337 0394 5DE0     		b	.L45
 1338              	.L36:
 745:../firmware/gd32f3x0_hal_peripheral/Source/gd32f3x0_hal_timer.c ****     case TIMER_CLOCK_SOURCE_ETIMODE0:
 746:../firmware/gd32f3x0_hal_peripheral/Source/gd32f3x0_hal_timer.c ****         /* configure TIMER external trigger input */
 747:../firmware/gd32f3x0_hal_peripheral/Source/gd32f3x0_hal_timer.c ****         hals_timer_external_trigger_config(timer_dev->periph, timer_clocksource ->clock_prescaler,
 1339              		.loc 1 747 9
 1340 0396 7B68     		ldr	r3, [r7, #4]
 1341 0398 1868     		ldr	r0, [r3]
 1342 039a 3B68     		ldr	r3, [r7]
 1343 039c 9968     		ldr	r1, [r3, #8]
 1344 039e 3B68     		ldr	r3, [r7]
 1345 03a0 5A68     		ldr	r2, [r3, #4]
 1346 03a2 3B68     		ldr	r3, [r7]
 1347 03a4 DB68     		ldr	r3, [r3, #12]
 1348 03a6 FFF7FEFF 		bl	hals_timer_external_trigger_config
 748:../firmware/gd32f3x0_hal_peripheral/Source/gd32f3x0_hal_timer.c ****                                            timer_clocksource->clock_polarity, timer_clocksource->cl
 749:../firmware/gd32f3x0_hal_peripheral/Source/gd32f3x0_hal_timer.c ****         /* select TIMER input trigger source */
 750:../firmware/gd32f3x0_hal_peripheral/Source/gd32f3x0_hal_timer.c ****         hals_timer_input_trigger_source_select(timer_dev->periph, TIMER_SMCFG_TRGSEL_ETIFP);
 1349              		.loc 1 750 9
 1350 03aa 7B68     		ldr	r3, [r7, #4]
 1351 03ac 1B68     		ldr	r3, [r3]
 1352 03ae 7021     		movs	r1, #112
 1353 03b0 1846     		mov	r0, r3
 1354 03b2 FFF7FEFF 		bl	hals_timer_input_trigger_source_select
 751:../firmware/gd32f3x0_hal_peripheral/Source/gd32f3x0_hal_timer.c ****         /* reset the SMC bit */
 752:../firmware/gd32f3x0_hal_peripheral/Source/gd32f3x0_hal_timer.c ****         TIMER_SMCFG(timer_dev->periph) &= (~(uint32_t)TIMER_SMCFG_SMC);
 1355              		.loc 1 752 9
 1356 03b6 7B68     		ldr	r3, [r7, #4]
 1357 03b8 1B68     		ldr	r3, [r3]
 1358              		.loc 1 752 40
 1359 03ba 0833     		adds	r3, r3, #8
 1360 03bc 1B68     		ldr	r3, [r3]
 1361              		.loc 1 752 9
 1362 03be 7A68     		ldr	r2, [r7, #4]
 1363 03c0 1268     		ldr	r2, [r2]
 1364              		.loc 1 752 40
 1365 03c2 0832     		adds	r2, r2, #8
 1366 03c4 23F00703 		bic	r3, r3, #7
 1367 03c8 1360     		str	r3, [r2]
 753:../firmware/gd32f3x0_hal_peripheral/Source/gd32f3x0_hal_timer.c ****         /* set the SMC bit */
 754:../firmware/gd32f3x0_hal_peripheral/Source/gd32f3x0_hal_timer.c ****         TIMER_SMCFG(timer_dev->periph) |= (uint32_t)TIMER_SLAVE_MODE_EXTERNAL0;
 1368              		.loc 1 754 9
 1369 03ca 7B68     		ldr	r3, [r7, #4]
 1370 03cc 1B68     		ldr	r3, [r3]
 1371              		.loc 1 754 40
 1372 03ce 0833     		adds	r3, r3, #8
 1373 03d0 1B68     		ldr	r3, [r3]
 1374              		.loc 1 754 9
 1375 03d2 7A68     		ldr	r2, [r7, #4]
 1376 03d4 1268     		ldr	r2, [r2]
 1377              		.loc 1 754 40
 1378 03d6 0832     		adds	r2, r2, #8
 1379 03d8 43F00703 		orr	r3, r3, #7
 1380 03dc 1360     		str	r3, [r2]
 755:../firmware/gd32f3x0_hal_peripheral/Source/gd32f3x0_hal_timer.c ****         break;
 1381              		.loc 1 755 9
 1382 03de 38E0     		b	.L45
 1383              	.L34:
 756:../firmware/gd32f3x0_hal_peripheral/Source/gd32f3x0_hal_timer.c ****     case TIMER_CLOCK_SOURCE_ETIMODE1:
 757:../firmware/gd32f3x0_hal_peripheral/Source/gd32f3x0_hal_timer.c ****         if((smc_val != TIMER_SLAVE_MODE_RESTART) && (smc_val != TIMER_SLAVE_MODE_PAUSE) && (smc_val
 1384              		.loc 1 757 11
 1385 03e0 FB68     		ldr	r3, [r7, #12]
 1386 03e2 042B     		cmp	r3, #4
 1387 03e4 0FD0     		beq	.L46
 1388              		.loc 1 757 50 discriminator 1
 1389 03e6 FB68     		ldr	r3, [r7, #12]
 1390 03e8 052B     		cmp	r3, #5
 1391 03ea 0CD0     		beq	.L46
 1392              		.loc 1 757 89 discriminator 2
 1393 03ec FB68     		ldr	r3, [r7, #12]
 1394 03ee 062B     		cmp	r3, #6
 1395 03f0 09D0     		beq	.L46
 758:../firmware/gd32f3x0_hal_peripheral/Source/gd32f3x0_hal_timer.c ****             /* reset the SMC bit */
 759:../firmware/gd32f3x0_hal_peripheral/Source/gd32f3x0_hal_timer.c ****             TIMER_SMCFG(timer_dev->periph) &= (~(uint32_t)TIMER_SMCFG_SMC);
 1396              		.loc 1 759 13
 1397 03f2 7B68     		ldr	r3, [r7, #4]
 1398 03f4 1B68     		ldr	r3, [r3]
 1399              		.loc 1 759 44
 1400 03f6 0833     		adds	r3, r3, #8
 1401 03f8 1B68     		ldr	r3, [r3]
 1402              		.loc 1 759 13
 1403 03fa 7A68     		ldr	r2, [r7, #4]
 1404 03fc 1268     		ldr	r2, [r2]
 1405              		.loc 1 759 44
 1406 03fe 0832     		adds	r2, r2, #8
 1407 0400 23F00703 		bic	r3, r3, #7
 1408 0404 1360     		str	r3, [r2]
 1409              	.L46:
 760:../firmware/gd32f3x0_hal_peripheral/Source/gd32f3x0_hal_timer.c ****         }
 761:../firmware/gd32f3x0_hal_peripheral/Source/gd32f3x0_hal_timer.c ****         if(trgs_val == TIMER_SMCFG_TRGSEL_ETIFP) {
 1410              		.loc 1 761 11
 1411 0406 BB68     		ldr	r3, [r7, #8]
 1412 0408 702B     		cmp	r3, #112
 1413 040a 09D1     		bne	.L47
 762:../firmware/gd32f3x0_hal_peripheral/Source/gd32f3x0_hal_timer.c ****             /* reset TRGS bits */
 763:../firmware/gd32f3x0_hal_peripheral/Source/gd32f3x0_hal_timer.c ****             TIMER_SMCFG(timer_dev->periph) &= (~(uint32_t)TIMER_SMCFG_TRGS);
 1414              		.loc 1 763 13
 1415 040c 7B68     		ldr	r3, [r7, #4]
 1416 040e 1B68     		ldr	r3, [r3]
 1417              		.loc 1 763 44
 1418 0410 0833     		adds	r3, r3, #8
 1419 0412 1B68     		ldr	r3, [r3]
 1420              		.loc 1 763 13
 1421 0414 7A68     		ldr	r2, [r7, #4]
 1422 0416 1268     		ldr	r2, [r2]
 1423              		.loc 1 763 44
 1424 0418 0832     		adds	r2, r2, #8
 1425 041a 23F07003 		bic	r3, r3, #112
 1426 041e 1360     		str	r3, [r2]
 1427              	.L47:
 764:../firmware/gd32f3x0_hal_peripheral/Source/gd32f3x0_hal_timer.c ****         }
 765:../firmware/gd32f3x0_hal_peripheral/Source/gd32f3x0_hal_timer.c ****         /* configure TIMER external trigger input */
 766:../firmware/gd32f3x0_hal_peripheral/Source/gd32f3x0_hal_timer.c ****         hals_timer_external_trigger_config(timer_dev->periph, timer_clocksource ->clock_prescaler,
 1428              		.loc 1 766 9
 1429 0420 7B68     		ldr	r3, [r7, #4]
 1430 0422 1868     		ldr	r0, [r3]
 1431 0424 3B68     		ldr	r3, [r7]
 1432 0426 9968     		ldr	r1, [r3, #8]
 1433 0428 3B68     		ldr	r3, [r7]
 1434 042a 5A68     		ldr	r2, [r3, #4]
 1435 042c 3B68     		ldr	r3, [r7]
 1436 042e DB68     		ldr	r3, [r3, #12]
 1437 0430 FFF7FEFF 		bl	hals_timer_external_trigger_config
 767:../firmware/gd32f3x0_hal_peripheral/Source/gd32f3x0_hal_timer.c ****                                            timer_clocksource->clock_polarity, timer_clocksource->cl
 768:../firmware/gd32f3x0_hal_peripheral/Source/gd32f3x0_hal_timer.c ****         /* configure TIMER the external clock mode1 */
 769:../firmware/gd32f3x0_hal_peripheral/Source/gd32f3x0_hal_timer.c ****         TIMER_SMCFG(timer_dev->periph) |= (uint32_t)TIMER_SMCFG_SMC1;
 1438              		.loc 1 769 9
 1439 0434 7B68     		ldr	r3, [r7, #4]
 1440 0436 1B68     		ldr	r3, [r3]
 1441              		.loc 1 769 40
 1442 0438 0833     		adds	r3, r3, #8
 1443 043a 1B68     		ldr	r3, [r3]
 1444              		.loc 1 769 9
 1445 043c 7A68     		ldr	r2, [r7, #4]
 1446 043e 1268     		ldr	r2, [r2]
 1447              		.loc 1 769 40
 1448 0440 0832     		adds	r2, r2, #8
 1449 0442 43F48043 		orr	r3, r3, #16384
 1450 0446 1360     		str	r3, [r2]
 770:../firmware/gd32f3x0_hal_peripheral/Source/gd32f3x0_hal_timer.c ****         break;
 1451              		.loc 1 770 9
 1452 0448 03E0     		b	.L45
 1453              	.L35:
 771:../firmware/gd32f3x0_hal_peripheral/Source/gd32f3x0_hal_timer.c ****     default:
 772:../firmware/gd32f3x0_hal_peripheral/Source/gd32f3x0_hal_timer.c ****         HAL_DEBUGW("parameter [timer_clocksource->clock_source] value is undefine");
 773:../firmware/gd32f3x0_hal_peripheral/Source/gd32f3x0_hal_timer.c ****         return HAL_ERR_VAL;
 1454              		.loc 1 773 16
 1455 044a 6FF00503 		mvn	r3, #5
 1456 044e 05E0     		b	.L48
 1457              	.L49:
 655:../firmware/gd32f3x0_hal_peripheral/Source/gd32f3x0_hal_timer.c ****     case TIMER_CLOCK_SOURCE_ITI0:
 1458              		.loc 1 655 9
 1459 0450 00BF     		nop
 1460              	.L45:
 774:../firmware/gd32f3x0_hal_peripheral/Source/gd32f3x0_hal_timer.c ****     }
 775:../firmware/gd32f3x0_hal_peripheral/Source/gd32f3x0_hal_timer.c **** 
 776:../firmware/gd32f3x0_hal_peripheral/Source/gd32f3x0_hal_timer.c ****     /* change TIMER state */
 777:../firmware/gd32f3x0_hal_peripheral/Source/gd32f3x0_hal_timer.c ****     timer_dev->state = HAL_TIMER_STATE_READY;
 1461              		.loc 1 777 22
 1462 0452 7B68     		ldr	r3, [r7, #4]
 1463 0454 0522     		movs	r2, #5
 1464 0456 83F85520 		strb	r2, [r3, #85]
 778:../firmware/gd32f3x0_hal_peripheral/Source/gd32f3x0_hal_timer.c **** 
 779:../firmware/gd32f3x0_hal_peripheral/Source/gd32f3x0_hal_timer.c ****     return HAL_ERR_NONE;
 1465              		.loc 1 779 12
 1466 045a 0023     		movs	r3, #0
 1467              	.L48:
 780:../firmware/gd32f3x0_hal_peripheral/Source/gd32f3x0_hal_timer.c **** }
 1468              		.loc 1 780 1
 1469 045c 1846     		mov	r0, r3
 1470 045e 1037     		adds	r7, r7, #16
 1471              		.cfi_def_cfa_offset 8
 1472 0460 BD46     		mov	sp, r7
 1473              		.cfi_def_cfa_register 13
 1474              		@ sp needed
 1475 0462 80BD     		pop	{r7, pc}
 1476              		.cfi_endproc
 1477              	.LFE126:
 1479              		.section	.text.hal_timer_slave_mode_config,"ax",%progbits
 1480              		.align	1
 1481              		.global	hal_timer_slave_mode_config
 1482              		.syntax unified
 1483              		.thumb
 1484              		.thumb_func
 1485              		.fpu softvfp
 1487              	hal_timer_slave_mode_config:
 1488              	.LFB127:
 781:../firmware/gd32f3x0_hal_peripheral/Source/gd32f3x0_hal_timer.c **** 
 782:../firmware/gd32f3x0_hal_peripheral/Source/gd32f3x0_hal_timer.c **** /*!
 783:../firmware/gd32f3x0_hal_peripheral/Source/gd32f3x0_hal_timer.c ****     \brief      configure TIMER slave mode
 784:../firmware/gd32f3x0_hal_peripheral/Source/gd32f3x0_hal_timer.c ****     \param[in]  timer_dev: TIMER device information structure
 785:../firmware/gd32f3x0_hal_peripheral/Source/gd32f3x0_hal_timer.c ****                   the structure is not necessary to be reconfigured after structure initialization,
 786:../firmware/gd32f3x0_hal_peripheral/Source/gd32f3x0_hal_timer.c ****                   the structure parameters altering is automatically configured by core
 787:../firmware/gd32f3x0_hal_peripheral/Source/gd32f3x0_hal_timer.c ****     \param[in]  timer_slavemode: TIMER slave mode configuration structure
 788:../firmware/gd32f3x0_hal_peripheral/Source/gd32f3x0_hal_timer.c ****                   slavemode: the argument could be selected from enumeration <hal_timer_slave_mode_
 789:../firmware/gd32f3x0_hal_peripheral/Source/gd32f3x0_hal_timer.c ****                   trigger_selection: the argument could be selected from enumeration <hal_timer_inp
 790:../firmware/gd32f3x0_hal_peripheral/Source/gd32f3x0_hal_timer.c ****                   trigger_polarity:
 791:../firmware/gd32f3x0_hal_peripheral/Source/gd32f3x0_hal_timer.c ****                   only one parameter can be selected which is shown as below:
 792:../firmware/gd32f3x0_hal_peripheral/Source/gd32f3x0_hal_timer.c ****       \arg          TIMER_CLOCK_TRIGGER_ETI_POLARITY_RISING: trigger input source is ETI, active hi
 793:../firmware/gd32f3x0_hal_peripheral/Source/gd32f3x0_hal_timer.c ****       \arg          TIMER_CLOCK_TRIGGER_ETI_POLARITY_FALLING: trigger input source is ETI, active l
 794:../firmware/gd32f3x0_hal_peripheral/Source/gd32f3x0_hal_timer.c ****       \arg          TIMER_CLOCK_TRIGGER_POLARITY_RISING: trigger input source is CIx(x=0,1), rising
 795:../firmware/gd32f3x0_hal_peripheral/Source/gd32f3x0_hal_timer.c ****       \arg          TIMER_CLOCK_TRIGGER_POLARITY_FALLING: trigger input source is CIx(x=0,1), falli
 796:../firmware/gd32f3x0_hal_peripheral/Source/gd32f3x0_hal_timer.c ****       \arg          TIMER_CLOCK_TRIGGER_POLARITY_BOTH_EDGE: trigger input source is CI0F_ED, both r
 797:../firmware/gd32f3x0_hal_peripheral/Source/gd32f3x0_hal_timer.c ****                   trigger_prescaler:
 798:../firmware/gd32f3x0_hal_peripheral/Source/gd32f3x0_hal_timer.c ****                   only one parameter can be selected which is shown as below:
 799:../firmware/gd32f3x0_hal_peripheral/Source/gd32f3x0_hal_timer.c ****       \arg          TIMER_EXT_TRI_PRESCALER_OFF: external trigger no divided
 800:../firmware/gd32f3x0_hal_peripheral/Source/gd32f3x0_hal_timer.c ****       \arg          TIMER_EXT_TRI_PRESCALER_DIV2: external trigger divided by 2
 801:../firmware/gd32f3x0_hal_peripheral/Source/gd32f3x0_hal_timer.c ****       \arg          TIMER_EXT_TRI_PRESCALER_DIV4: external trigger divided by 4
 802:../firmware/gd32f3x0_hal_peripheral/Source/gd32f3x0_hal_timer.c ****       \arg          TIMER_EXT_TRI_PRESCALER_DIV8: external trigger divided by 8
 803:../firmware/gd32f3x0_hal_peripheral/Source/gd32f3x0_hal_timer.c ****                   trigger_filter: 0~15
 804:../firmware/gd32f3x0_hal_peripheral/Source/gd32f3x0_hal_timer.c ****     \param[out] none
 805:../firmware/gd32f3x0_hal_peripheral/Source/gd32f3x0_hal_timer.c ****     \retval     error code: HAL_ERR_NONE, HAL_ERR_ADDRESS, HAL_ERR_NO_SUPPORT, HAL_ERR_VAL, details
 806:../firmware/gd32f3x0_hal_peripheral/Source/gd32f3x0_hal_timer.c **** */
 807:../firmware/gd32f3x0_hal_peripheral/Source/gd32f3x0_hal_timer.c **** int32_t hal_timer_slave_mode_config(hal_timer_dev_struct *timer_dev, hal_timer_slave_mode_struct *t
 808:../firmware/gd32f3x0_hal_peripheral/Source/gd32f3x0_hal_timer.c **** {
 1489              		.loc 1 808 1
 1490              		.cfi_startproc
 1491              		@ args = 0, pretend = 0, frame = 8
 1492              		@ frame_needed = 1, uses_anonymous_args = 0
 1493 0000 80B5     		push	{r7, lr}
 1494              		.cfi_def_cfa_offset 8
 1495              		.cfi_offset 7, -8
 1496              		.cfi_offset 14, -4
 1497 0002 82B0     		sub	sp, sp, #8
 1498              		.cfi_def_cfa_offset 16
 1499 0004 00AF     		add	r7, sp, #0
 1500              		.cfi_def_cfa_register 7
 1501 0006 7860     		str	r0, [r7, #4]
 1502 0008 3960     		str	r1, [r7]
 809:../firmware/gd32f3x0_hal_peripheral/Source/gd32f3x0_hal_timer.c **** #if (1 == HAL_PARAMETER_CHECK)
 810:../firmware/gd32f3x0_hal_peripheral/Source/gd32f3x0_hal_timer.c ****     /* check the parameters */
 811:../firmware/gd32f3x0_hal_peripheral/Source/gd32f3x0_hal_timer.c ****     if((NULL == timer_dev) || (NULL == timer_slavemode)) {
 812:../firmware/gd32f3x0_hal_peripheral/Source/gd32f3x0_hal_timer.c ****         HAL_DEBUGE("pointer [timer_dev] or [timer_slavemode] address is invalid");
 813:../firmware/gd32f3x0_hal_peripheral/Source/gd32f3x0_hal_timer.c ****         return HAL_ERR_ADDRESS;
 814:../firmware/gd32f3x0_hal_peripheral/Source/gd32f3x0_hal_timer.c ****     }
 815:../firmware/gd32f3x0_hal_peripheral/Source/gd32f3x0_hal_timer.c **** #if defined(GD32F350)
 816:../firmware/gd32f3x0_hal_peripheral/Source/gd32f3x0_hal_timer.c ****     /* check the parameters */
 817:../firmware/gd32f3x0_hal_peripheral/Source/gd32f3x0_hal_timer.c ****     if((TIMER5 == timer_dev->periph) || (TIMER13 == timer_dev->periph) || (TIMER15 == timer_dev->pe
 818:../firmware/gd32f3x0_hal_peripheral/Source/gd32f3x0_hal_timer.c ****         HAL_DEBUGE("the [timer_slavemode->slavemode] of [timer_dev] is invalid");
 819:../firmware/gd32f3x0_hal_peripheral/Source/gd32f3x0_hal_timer.c ****         return HAL_ERR_NO_SUPPORT;
 820:../firmware/gd32f3x0_hal_peripheral/Source/gd32f3x0_hal_timer.c ****     }
 821:../firmware/gd32f3x0_hal_peripheral/Source/gd32f3x0_hal_timer.c **** #else
 822:../firmware/gd32f3x0_hal_peripheral/Source/gd32f3x0_hal_timer.c ****     /* check the parameters */
 823:../firmware/gd32f3x0_hal_peripheral/Source/gd32f3x0_hal_timer.c ****     if((TIMER13 == timer_dev->periph) || (TIMER15 == timer_dev->periph) || (TIMER16 == timer_dev->p
 824:../firmware/gd32f3x0_hal_peripheral/Source/gd32f3x0_hal_timer.c ****         HAL_DEBUGE("the [timer_slavemode->slavemode] of [timer_dev] is invalid");
 825:../firmware/gd32f3x0_hal_peripheral/Source/gd32f3x0_hal_timer.c ****         return HAL_ERR_NO_SUPPORT;
 826:../firmware/gd32f3x0_hal_peripheral/Source/gd32f3x0_hal_timer.c ****     }
 827:../firmware/gd32f3x0_hal_peripheral/Source/gd32f3x0_hal_timer.c **** #endif /* GD32F350 */
 828:../firmware/gd32f3x0_hal_peripheral/Source/gd32f3x0_hal_timer.c ****     /* check the parameters */
 829:../firmware/gd32f3x0_hal_peripheral/Source/gd32f3x0_hal_timer.c ****     if((TIMER_TRIGGER_SOURCE_ETIFP == timer_slavemode->trigger_selection) && (TIMER14 == timer_dev-
 830:../firmware/gd32f3x0_hal_peripheral/Source/gd32f3x0_hal_timer.c ****         HAL_DEBUGE("the [timer_slavemode->trigger_selection] value of [timer_dev] is invalid");
 831:../firmware/gd32f3x0_hal_peripheral/Source/gd32f3x0_hal_timer.c ****         return HAL_ERR_NO_SUPPORT;
 832:../firmware/gd32f3x0_hal_peripheral/Source/gd32f3x0_hal_timer.c ****     }
 833:../firmware/gd32f3x0_hal_peripheral/Source/gd32f3x0_hal_timer.c ****     if(TIMER_TRIGGER_SOURCE_DISABLE == timer_slavemode->trigger_selection) {
 834:../firmware/gd32f3x0_hal_peripheral/Source/gd32f3x0_hal_timer.c ****         HAL_DEBUGE("the [timer_slavemode->trigger_selection] value of [timer_dev] is invalid");
 835:../firmware/gd32f3x0_hal_peripheral/Source/gd32f3x0_hal_timer.c ****         return HAL_ERR_NO_SUPPORT;
 836:../firmware/gd32f3x0_hal_peripheral/Source/gd32f3x0_hal_timer.c ****     }
 837:../firmware/gd32f3x0_hal_peripheral/Source/gd32f3x0_hal_timer.c **** #endif /* 1 == HAL_PARAMETER_CHECK */
 838:../firmware/gd32f3x0_hal_peripheral/Source/gd32f3x0_hal_timer.c **** 
 839:../firmware/gd32f3x0_hal_peripheral/Source/gd32f3x0_hal_timer.c ****     timer_dev->state = HAL_TIMER_STATE_BUSY;
 1503              		.loc 1 839 22
 1504 000a 7B68     		ldr	r3, [r7, #4]
 1505 000c 0222     		movs	r2, #2
 1506 000e 83F85520 		strb	r2, [r3, #85]
 840:../firmware/gd32f3x0_hal_peripheral/Source/gd32f3x0_hal_timer.c **** 
 841:../firmware/gd32f3x0_hal_peripheral/Source/gd32f3x0_hal_timer.c ****     /* disable the TIMER interrupt */
 842:../firmware/gd32f3x0_hal_peripheral/Source/gd32f3x0_hal_timer.c ****     hals_timer_interrupt_disable(timer_dev->periph, TIMER_INT_TRG);
 1507              		.loc 1 842 5
 1508 0012 7B68     		ldr	r3, [r7, #4]
 1509 0014 1B68     		ldr	r3, [r3]
 1510 0016 4021     		movs	r1, #64
 1511 0018 1846     		mov	r0, r3
 1512 001a FFF7FEFF 		bl	hals_timer_interrupt_disable
 843:../firmware/gd32f3x0_hal_peripheral/Source/gd32f3x0_hal_timer.c ****     /* disable the TIMER DMA trigger request */
 844:../firmware/gd32f3x0_hal_peripheral/Source/gd32f3x0_hal_timer.c ****     hals_timer_dma_disable(timer_dev->periph, TIMER_DMA_TRGD);
 1513              		.loc 1 844 5
 1514 001e 7B68     		ldr	r3, [r7, #4]
 1515 0020 1B68     		ldr	r3, [r3]
 1516 0022 4FF48041 		mov	r1, #16384
 1517 0026 1846     		mov	r0, r3
 1518 0028 FFF7FEFF 		bl	hals_timer_dma_disable
 845:../firmware/gd32f3x0_hal_peripheral/Source/gd32f3x0_hal_timer.c **** 
 846:../firmware/gd32f3x0_hal_peripheral/Source/gd32f3x0_hal_timer.c ****     switch(timer_slavemode->trigger_selection) {
 1519              		.loc 1 846 27
 1520 002c 3B68     		ldr	r3, [r7]
 1521 002e 5B78     		ldrb	r3, [r3, #1]	@ zero_extendqisi2
 1522              		.loc 1 846 5
 1523 0030 702B     		cmp	r3, #112
 1524 0032 00F0B480 		beq	.L51
 1525 0036 702B     		cmp	r3, #112
 1526 0038 00F3BC80 		bgt	.L52
 1527 003c 602B     		cmp	r3, #96
 1528 003e 56D0     		beq	.L53
 1529 0040 602B     		cmp	r3, #96
 1530 0042 00F3B780 		bgt	.L52
 1531 0046 502B     		cmp	r3, #80
 1532 0048 1BD0     		beq	.L54
 1533 004a 502B     		cmp	r3, #80
 1534 004c 00F3B280 		bgt	.L52
 1535 0050 402B     		cmp	r3, #64
 1536 0052 00F08380 		beq	.L55
 1537 0056 402B     		cmp	r3, #64
 1538 0058 00F3AC80 		bgt	.L52
 1539 005c 302B     		cmp	r3, #48
 1540 005e 00F0AC80 		beq	.L62
 1541 0062 302B     		cmp	r3, #48
 1542 0064 00F3A680 		bgt	.L52
 1543 0068 202B     		cmp	r3, #32
 1544 006a 00F0A880 		beq	.L63
 1545 006e 202B     		cmp	r3, #32
 1546 0070 00F3A080 		bgt	.L52
 1547 0074 002B     		cmp	r3, #0
 1548 0076 00F0A480 		beq	.L64
 1549 007a 102B     		cmp	r3, #16
 1550 007c 00F0A380 		beq	.L65
 1551 0080 98E0     		b	.L52
 1552              	.L54:
 847:../firmware/gd32f3x0_hal_peripheral/Source/gd32f3x0_hal_timer.c ****     case TIMER_TRIGGER_SOURCE_ITI0:
 848:../firmware/gd32f3x0_hal_peripheral/Source/gd32f3x0_hal_timer.c ****         /* no need to config polarity, prescaler, filter */
 849:../firmware/gd32f3x0_hal_peripheral/Source/gd32f3x0_hal_timer.c ****         break;
 850:../firmware/gd32f3x0_hal_peripheral/Source/gd32f3x0_hal_timer.c ****     case TIMER_TRIGGER_SOURCE_ITI1:
 851:../firmware/gd32f3x0_hal_peripheral/Source/gd32f3x0_hal_timer.c ****         /* no need to config polarity, prescaler, filter */
 852:../firmware/gd32f3x0_hal_peripheral/Source/gd32f3x0_hal_timer.c ****         break;
 853:../firmware/gd32f3x0_hal_peripheral/Source/gd32f3x0_hal_timer.c ****     case TIMER_TRIGGER_SOURCE_ITI2:
 854:../firmware/gd32f3x0_hal_peripheral/Source/gd32f3x0_hal_timer.c ****         /* no need to config polarity, prescaler, filter */
 855:../firmware/gd32f3x0_hal_peripheral/Source/gd32f3x0_hal_timer.c ****         break;
 856:../firmware/gd32f3x0_hal_peripheral/Source/gd32f3x0_hal_timer.c ****     case TIMER_TRIGGER_SOURCE_ITI3:
 857:../firmware/gd32f3x0_hal_peripheral/Source/gd32f3x0_hal_timer.c ****         /* no need to config polarity, prescaler, filter */
 858:../firmware/gd32f3x0_hal_peripheral/Source/gd32f3x0_hal_timer.c ****         break;
 859:../firmware/gd32f3x0_hal_peripheral/Source/gd32f3x0_hal_timer.c ****     case TIMER_TRIGGER_SOURCE_CI0FE0:
 860:../firmware/gd32f3x0_hal_peripheral/Source/gd32f3x0_hal_timer.c ****         /* reset the CH0EN bit */
 861:../firmware/gd32f3x0_hal_peripheral/Source/gd32f3x0_hal_timer.c ****         TIMER_CHCTL2(timer_dev->periph) &= (~(uint32_t)(TIMER_CHCTL2_CH0EN | TIMER_CHCTL2_CH0NEN));
 1553              		.loc 1 861 9
 1554 0082 7B68     		ldr	r3, [r7, #4]
 1555 0084 1B68     		ldr	r3, [r3]
 1556              		.loc 1 861 41
 1557 0086 2033     		adds	r3, r3, #32
 1558 0088 1B68     		ldr	r3, [r3]
 1559              		.loc 1 861 9
 1560 008a 7A68     		ldr	r2, [r7, #4]
 1561 008c 1268     		ldr	r2, [r2]
 1562              		.loc 1 861 41
 1563 008e 2032     		adds	r2, r2, #32
 1564 0090 23F00503 		bic	r3, r3, #5
 1565 0094 1360     		str	r3, [r2]
 862:../firmware/gd32f3x0_hal_peripheral/Source/gd32f3x0_hal_timer.c ****         /* reset the CH0P and CH0NP bits */
 863:../firmware/gd32f3x0_hal_peripheral/Source/gd32f3x0_hal_timer.c ****         TIMER_CHCTL2(timer_dev->periph) &= (~(uint32_t)(TIMER_CHCTL2_CH0P | TIMER_CHCTL2_CH0NP));
 1566              		.loc 1 863 9
 1567 0096 7B68     		ldr	r3, [r7, #4]
 1568 0098 1B68     		ldr	r3, [r3]
 1569              		.loc 1 863 41
 1570 009a 2033     		adds	r3, r3, #32
 1571 009c 1B68     		ldr	r3, [r3]
 1572              		.loc 1 863 9
 1573 009e 7A68     		ldr	r2, [r7, #4]
 1574 00a0 1268     		ldr	r2, [r2]
 1575              		.loc 1 863 41
 1576 00a2 2032     		adds	r2, r2, #32
 1577 00a4 23F00A03 		bic	r3, r3, #10
 1578 00a8 1360     		str	r3, [r2]
 864:../firmware/gd32f3x0_hal_peripheral/Source/gd32f3x0_hal_timer.c ****         /* config polarity */
 865:../firmware/gd32f3x0_hal_peripheral/Source/gd32f3x0_hal_timer.c ****         TIMER_CHCTL2(timer_dev->periph) |= (uint32_t)(timer_slavemode->trigger_polarity);
 1579              		.loc 1 865 9
 1580 00aa 7B68     		ldr	r3, [r7, #4]
 1581 00ac 1B68     		ldr	r3, [r3]
 1582              		.loc 1 865 41
 1583 00ae 2033     		adds	r3, r3, #32
 1584 00b0 1A68     		ldr	r2, [r3]
 1585              		.loc 1 865 70
 1586 00b2 3B68     		ldr	r3, [r7]
 1587 00b4 5B68     		ldr	r3, [r3, #4]
 1588              		.loc 1 865 9
 1589 00b6 7968     		ldr	r1, [r7, #4]
 1590 00b8 0968     		ldr	r1, [r1]
 1591              		.loc 1 865 41
 1592 00ba 2031     		adds	r1, r1, #32
 1593 00bc 1343     		orrs	r3, r3, r2
 1594 00be 0B60     		str	r3, [r1]
 866:../firmware/gd32f3x0_hal_peripheral/Source/gd32f3x0_hal_timer.c ****         /* reset the CH0CAPFLT bit */
 867:../firmware/gd32f3x0_hal_peripheral/Source/gd32f3x0_hal_timer.c ****         TIMER_CHCTL0(timer_dev->periph) &= (~(uint32_t)TIMER_CHCTL0_CH0CAPFLT);
 1595              		.loc 1 867 9
 1596 00c0 7B68     		ldr	r3, [r7, #4]
 1597 00c2 1B68     		ldr	r3, [r3]
 1598              		.loc 1 867 41
 1599 00c4 1833     		adds	r3, r3, #24
 1600 00c6 1B68     		ldr	r3, [r3]
 1601              		.loc 1 867 9
 1602 00c8 7A68     		ldr	r2, [r7, #4]
 1603 00ca 1268     		ldr	r2, [r2]
 1604              		.loc 1 867 41
 1605 00cc 1832     		adds	r2, r2, #24
 1606 00ce 23F0F003 		bic	r3, r3, #240
 1607 00d2 1360     		str	r3, [r2]
 868:../firmware/gd32f3x0_hal_peripheral/Source/gd32f3x0_hal_timer.c ****         /* config filter */
 869:../firmware/gd32f3x0_hal_peripheral/Source/gd32f3x0_hal_timer.c ****         TIMER_CHCTL0(timer_dev->periph) |= (uint32_t)((uint32_t)(timer_slavemode->trigger_filter) <
 1608              		.loc 1 869 9
 1609 00d4 7B68     		ldr	r3, [r7, #4]
 1610 00d6 1B68     		ldr	r3, [r3]
 1611              		.loc 1 869 41
 1612 00d8 1833     		adds	r3, r3, #24
 1613 00da 1A68     		ldr	r2, [r3]
 1614              		.loc 1 869 81
 1615 00dc 3B68     		ldr	r3, [r7]
 1616 00de DB68     		ldr	r3, [r3, #12]
 1617              		.loc 1 869 44
 1618 00e0 1B01     		lsls	r3, r3, #4
 1619              		.loc 1 869 9
 1620 00e2 7968     		ldr	r1, [r7, #4]
 1621 00e4 0968     		ldr	r1, [r1]
 1622              		.loc 1 869 41
 1623 00e6 1831     		adds	r1, r1, #24
 1624 00e8 1343     		orrs	r3, r3, r2
 1625 00ea 0B60     		str	r3, [r1]
 870:../firmware/gd32f3x0_hal_peripheral/Source/gd32f3x0_hal_timer.c ****         break;
 1626              		.loc 1 870 9
 1627 00ec 6CE0     		b	.L60
 1628              	.L53:
 871:../firmware/gd32f3x0_hal_peripheral/Source/gd32f3x0_hal_timer.c ****     case TIMER_TRIGGER_SOURCE_CI1FE1:
 872:../firmware/gd32f3x0_hal_peripheral/Source/gd32f3x0_hal_timer.c ****         /* reset the CH1EN bit */
 873:../firmware/gd32f3x0_hal_peripheral/Source/gd32f3x0_hal_timer.c ****         TIMER_CHCTL2(timer_dev->periph) &= (~(uint32_t)(TIMER_CHCTL2_CH1EN | TIMER_CHCTL2_CH1NEN));
 1629              		.loc 1 873 9
 1630 00ee 7B68     		ldr	r3, [r7, #4]
 1631 00f0 1B68     		ldr	r3, [r3]
 1632              		.loc 1 873 41
 1633 00f2 2033     		adds	r3, r3, #32
 1634 00f4 1B68     		ldr	r3, [r3]
 1635              		.loc 1 873 9
 1636 00f6 7A68     		ldr	r2, [r7, #4]
 1637 00f8 1268     		ldr	r2, [r2]
 1638              		.loc 1 873 41
 1639 00fa 2032     		adds	r2, r2, #32
 1640 00fc 23F05003 		bic	r3, r3, #80
 1641 0100 1360     		str	r3, [r2]
 874:../firmware/gd32f3x0_hal_peripheral/Source/gd32f3x0_hal_timer.c ****         /* reset the CH1P and CH1NP bits */
 875:../firmware/gd32f3x0_hal_peripheral/Source/gd32f3x0_hal_timer.c ****         TIMER_CHCTL2(timer_dev->periph) &= (~(uint32_t)(TIMER_CHCTL2_CH1P | TIMER_CHCTL2_CH1NP));
 1642              		.loc 1 875 9
 1643 0102 7B68     		ldr	r3, [r7, #4]
 1644 0104 1B68     		ldr	r3, [r3]
 1645              		.loc 1 875 41
 1646 0106 2033     		adds	r3, r3, #32
 1647 0108 1B68     		ldr	r3, [r3]
 1648              		.loc 1 875 9
 1649 010a 7A68     		ldr	r2, [r7, #4]
 1650 010c 1268     		ldr	r2, [r2]
 1651              		.loc 1 875 41
 1652 010e 2032     		adds	r2, r2, #32
 1653 0110 23F0A003 		bic	r3, r3, #160
 1654 0114 1360     		str	r3, [r2]
 876:../firmware/gd32f3x0_hal_peripheral/Source/gd32f3x0_hal_timer.c ****         /* config polarity */
 877:../firmware/gd32f3x0_hal_peripheral/Source/gd32f3x0_hal_timer.c ****         TIMER_CHCTL2(timer_dev->periph) |= (uint32_t)((uint32_t)(timer_slavemode->trigger_polarity)
 1655              		.loc 1 877 9
 1656 0116 7B68     		ldr	r3, [r7, #4]
 1657 0118 1B68     		ldr	r3, [r3]
 1658              		.loc 1 877 41
 1659 011a 2033     		adds	r3, r3, #32
 1660 011c 1A68     		ldr	r2, [r3]
 1661              		.loc 1 877 81
 1662 011e 3B68     		ldr	r3, [r7]
 1663 0120 5B68     		ldr	r3, [r3, #4]
 1664              		.loc 1 877 44
 1665 0122 1B01     		lsls	r3, r3, #4
 1666              		.loc 1 877 9
 1667 0124 7968     		ldr	r1, [r7, #4]
 1668 0126 0968     		ldr	r1, [r1]
 1669              		.loc 1 877 41
 1670 0128 2031     		adds	r1, r1, #32
 1671 012a 1343     		orrs	r3, r3, r2
 1672 012c 0B60     		str	r3, [r1]
 878:../firmware/gd32f3x0_hal_peripheral/Source/gd32f3x0_hal_timer.c ****         /* reset the CH1CAPFLT bit */
 879:../firmware/gd32f3x0_hal_peripheral/Source/gd32f3x0_hal_timer.c ****         TIMER_CHCTL0(timer_dev->periph) &= (~(uint32_t)TIMER_CHCTL0_CH1CAPFLT);
 1673              		.loc 1 879 9
 1674 012e 7B68     		ldr	r3, [r7, #4]
 1675 0130 1B68     		ldr	r3, [r3]
 1676              		.loc 1 879 41
 1677 0132 1833     		adds	r3, r3, #24
 1678 0134 1B68     		ldr	r3, [r3]
 1679              		.loc 1 879 9
 1680 0136 7A68     		ldr	r2, [r7, #4]
 1681 0138 1268     		ldr	r2, [r2]
 1682              		.loc 1 879 41
 1683 013a 1832     		adds	r2, r2, #24
 1684 013c 23F47043 		bic	r3, r3, #61440
 1685 0140 1360     		str	r3, [r2]
 880:../firmware/gd32f3x0_hal_peripheral/Source/gd32f3x0_hal_timer.c ****         /* config filter */
 881:../firmware/gd32f3x0_hal_peripheral/Source/gd32f3x0_hal_timer.c ****         TIMER_CHCTL0(timer_dev->periph) |= (uint32_t)((uint32_t)(timer_slavemode->trigger_filter) <
 1686              		.loc 1 881 9
 1687 0142 7B68     		ldr	r3, [r7, #4]
 1688 0144 1B68     		ldr	r3, [r3]
 1689              		.loc 1 881 41
 1690 0146 1833     		adds	r3, r3, #24
 1691 0148 1A68     		ldr	r2, [r3]
 1692              		.loc 1 881 81
 1693 014a 3B68     		ldr	r3, [r7]
 1694 014c DB68     		ldr	r3, [r3, #12]
 1695              		.loc 1 881 44
 1696 014e 1B03     		lsls	r3, r3, #12
 1697              		.loc 1 881 9
 1698 0150 7968     		ldr	r1, [r7, #4]
 1699 0152 0968     		ldr	r1, [r1]
 1700              		.loc 1 881 41
 1701 0154 1831     		adds	r1, r1, #24
 1702 0156 1343     		orrs	r3, r3, r2
 1703 0158 0B60     		str	r3, [r1]
 882:../firmware/gd32f3x0_hal_peripheral/Source/gd32f3x0_hal_timer.c ****         break;
 1704              		.loc 1 882 9
 1705 015a 35E0     		b	.L60
 1706              	.L55:
 883:../firmware/gd32f3x0_hal_peripheral/Source/gd32f3x0_hal_timer.c ****     case TIMER_TRIGGER_SOURCE_CI0FED:
 884:../firmware/gd32f3x0_hal_peripheral/Source/gd32f3x0_hal_timer.c ****         /* reset the CH0EN bit */
 885:../firmware/gd32f3x0_hal_peripheral/Source/gd32f3x0_hal_timer.c ****         TIMER_CHCTL2(timer_dev->periph) &= (~(uint32_t)(TIMER_CHCTL2_CH1EN | TIMER_CHCTL2_CH1NEN));
 1707              		.loc 1 885 9
 1708 015c 7B68     		ldr	r3, [r7, #4]
 1709 015e 1B68     		ldr	r3, [r3]
 1710              		.loc 1 885 41
 1711 0160 2033     		adds	r3, r3, #32
 1712 0162 1B68     		ldr	r3, [r3]
 1713              		.loc 1 885 9
 1714 0164 7A68     		ldr	r2, [r7, #4]
 1715 0166 1268     		ldr	r2, [r2]
 1716              		.loc 1 885 41
 1717 0168 2032     		adds	r2, r2, #32
 1718 016a 23F05003 		bic	r3, r3, #80
 1719 016e 1360     		str	r3, [r2]
 886:../firmware/gd32f3x0_hal_peripheral/Source/gd32f3x0_hal_timer.c ****         /* reset the CH0CAPFLT bit */
 887:../firmware/gd32f3x0_hal_peripheral/Source/gd32f3x0_hal_timer.c ****         TIMER_CHCTL0(timer_dev->periph) &= (~(uint32_t)TIMER_CHCTL0_CH0CAPFLT);
 1720              		.loc 1 887 9
 1721 0170 7B68     		ldr	r3, [r7, #4]
 1722 0172 1B68     		ldr	r3, [r3]
 1723              		.loc 1 887 41
 1724 0174 1833     		adds	r3, r3, #24
 1725 0176 1B68     		ldr	r3, [r3]
 1726              		.loc 1 887 9
 1727 0178 7A68     		ldr	r2, [r7, #4]
 1728 017a 1268     		ldr	r2, [r2]
 1729              		.loc 1 887 41
 1730 017c 1832     		adds	r2, r2, #24
 1731 017e 23F0F003 		bic	r3, r3, #240
 1732 0182 1360     		str	r3, [r2]
 888:../firmware/gd32f3x0_hal_peripheral/Source/gd32f3x0_hal_timer.c ****         /* config filter */
 889:../firmware/gd32f3x0_hal_peripheral/Source/gd32f3x0_hal_timer.c ****         TIMER_CHCTL0(timer_dev->periph) |= (uint32_t)((uint32_t)(timer_slavemode->trigger_filter) <
 1733              		.loc 1 889 9
 1734 0184 7B68     		ldr	r3, [r7, #4]
 1735 0186 1B68     		ldr	r3, [r3]
 1736              		.loc 1 889 41
 1737 0188 1833     		adds	r3, r3, #24
 1738 018a 1A68     		ldr	r2, [r3]
 1739              		.loc 1 889 81
 1740 018c 3B68     		ldr	r3, [r7]
 1741 018e DB68     		ldr	r3, [r3, #12]
 1742              		.loc 1 889 44
 1743 0190 1B01     		lsls	r3, r3, #4
 1744              		.loc 1 889 9
 1745 0192 7968     		ldr	r1, [r7, #4]
 1746 0194 0968     		ldr	r1, [r1]
 1747              		.loc 1 889 41
 1748 0196 1831     		adds	r1, r1, #24
 1749 0198 1343     		orrs	r3, r3, r2
 1750 019a 0B60     		str	r3, [r1]
 890:../firmware/gd32f3x0_hal_peripheral/Source/gd32f3x0_hal_timer.c ****         break;
 1751              		.loc 1 890 9
 1752 019c 14E0     		b	.L60
 1753              	.L51:
 891:../firmware/gd32f3x0_hal_peripheral/Source/gd32f3x0_hal_timer.c ****     case TIMER_TRIGGER_SOURCE_ETIFP:
 892:../firmware/gd32f3x0_hal_peripheral/Source/gd32f3x0_hal_timer.c ****         /* configure TIMER external trigger input */
 893:../firmware/gd32f3x0_hal_peripheral/Source/gd32f3x0_hal_timer.c ****         hals_timer_external_trigger_config(timer_dev->periph, timer_slavemode->trigger_prescaler,
 1754              		.loc 1 893 9
 1755 019e 7B68     		ldr	r3, [r7, #4]
 1756 01a0 1868     		ldr	r0, [r3]
 1757 01a2 3B68     		ldr	r3, [r7]
 1758 01a4 9968     		ldr	r1, [r3, #8]
 1759 01a6 3B68     		ldr	r3, [r7]
 1760 01a8 5A68     		ldr	r2, [r3, #4]
 1761 01aa 3B68     		ldr	r3, [r7]
 1762 01ac DB68     		ldr	r3, [r3, #12]
 1763 01ae FFF7FEFF 		bl	hals_timer_external_trigger_config
 894:../firmware/gd32f3x0_hal_peripheral/Source/gd32f3x0_hal_timer.c ****                                            timer_slavemode->trigger_polarity, timer_slavemode->trig
 895:../firmware/gd32f3x0_hal_peripheral/Source/gd32f3x0_hal_timer.c ****         break;
 1764              		.loc 1 895 9
 1765 01b2 09E0     		b	.L60
 1766              	.L52:
 896:../firmware/gd32f3x0_hal_peripheral/Source/gd32f3x0_hal_timer.c ****     default:
 897:../firmware/gd32f3x0_hal_peripheral/Source/gd32f3x0_hal_timer.c ****         HAL_DEBUGW("parameter [timer_slavemode->trigger_selection] value is undefine");
 898:../firmware/gd32f3x0_hal_peripheral/Source/gd32f3x0_hal_timer.c ****         return HAL_ERR_VAL;
 1767              		.loc 1 898 16
 1768 01b4 6FF00503 		mvn	r3, #5
 1769 01b8 1BE0     		b	.L61
 1770              	.L62:
 858:../firmware/gd32f3x0_hal_peripheral/Source/gd32f3x0_hal_timer.c ****     case TIMER_TRIGGER_SOURCE_CI0FE0:
 1771              		.loc 1 858 9
 1772 01ba 00BF     		nop
 1773 01bc 04E0     		b	.L60
 1774              	.L63:
 855:../firmware/gd32f3x0_hal_peripheral/Source/gd32f3x0_hal_timer.c ****     case TIMER_TRIGGER_SOURCE_ITI3:
 1775              		.loc 1 855 9
 1776 01be 00BF     		nop
 1777 01c0 02E0     		b	.L60
 1778              	.L64:
 849:../firmware/gd32f3x0_hal_peripheral/Source/gd32f3x0_hal_timer.c ****     case TIMER_TRIGGER_SOURCE_ITI1:
 1779              		.loc 1 849 9
 1780 01c2 00BF     		nop
 1781 01c4 00E0     		b	.L60
 1782              	.L65:
 852:../firmware/gd32f3x0_hal_peripheral/Source/gd32f3x0_hal_timer.c ****     case TIMER_TRIGGER_SOURCE_ITI2:
 1783              		.loc 1 852 9
 1784 01c6 00BF     		nop
 1785              	.L60:
 899:../firmware/gd32f3x0_hal_peripheral/Source/gd32f3x0_hal_timer.c ****     }
 900:../firmware/gd32f3x0_hal_peripheral/Source/gd32f3x0_hal_timer.c **** 
 901:../firmware/gd32f3x0_hal_peripheral/Source/gd32f3x0_hal_timer.c ****     /* select TIMER input trigger source  */
 902:../firmware/gd32f3x0_hal_peripheral/Source/gd32f3x0_hal_timer.c ****     hals_timer_input_trigger_source_select(timer_dev->periph, timer_slavemode->trigger_selection);
 1786              		.loc 1 902 5
 1787 01c8 7B68     		ldr	r3, [r7, #4]
 1788 01ca 1A68     		ldr	r2, [r3]
 1789              		.loc 1 902 78
 1790 01cc 3B68     		ldr	r3, [r7]
 1791 01ce 5B78     		ldrb	r3, [r3, #1]	@ zero_extendqisi2
 1792              		.loc 1 902 5
 1793 01d0 1946     		mov	r1, r3
 1794 01d2 1046     		mov	r0, r2
 1795 01d4 FFF7FEFF 		bl	hals_timer_input_trigger_source_select
 903:../firmware/gd32f3x0_hal_peripheral/Source/gd32f3x0_hal_timer.c ****     /* select TIMER slave mode */
 904:../firmware/gd32f3x0_hal_peripheral/Source/gd32f3x0_hal_timer.c ****     hals_timer_slave_mode_select(timer_dev->periph, timer_slavemode->slavemode);
 1796              		.loc 1 904 5
 1797 01d8 7B68     		ldr	r3, [r7, #4]
 1798 01da 1A68     		ldr	r2, [r3]
 1799              		.loc 1 904 68
 1800 01dc 3B68     		ldr	r3, [r7]
 1801 01de 1B78     		ldrb	r3, [r3]	@ zero_extendqisi2
 1802              		.loc 1 904 5
 1803 01e0 1946     		mov	r1, r3
 1804 01e2 1046     		mov	r0, r2
 1805 01e4 FFF7FEFF 		bl	hals_timer_slave_mode_select
 905:../firmware/gd32f3x0_hal_peripheral/Source/gd32f3x0_hal_timer.c **** 
 906:../firmware/gd32f3x0_hal_peripheral/Source/gd32f3x0_hal_timer.c ****     /* change TIMER state */
 907:../firmware/gd32f3x0_hal_peripheral/Source/gd32f3x0_hal_timer.c ****     timer_dev->state = HAL_TIMER_STATE_READY;
 1806              		.loc 1 907 22
 1807 01e8 7B68     		ldr	r3, [r7, #4]
 1808 01ea 0522     		movs	r2, #5
 1809 01ec 83F85520 		strb	r2, [r3, #85]
 908:../firmware/gd32f3x0_hal_peripheral/Source/gd32f3x0_hal_timer.c **** 
 909:../firmware/gd32f3x0_hal_peripheral/Source/gd32f3x0_hal_timer.c ****     return HAL_ERR_NONE;
 1810              		.loc 1 909 12
 1811 01f0 0023     		movs	r3, #0
 1812              	.L61:
 910:../firmware/gd32f3x0_hal_peripheral/Source/gd32f3x0_hal_timer.c **** }
 1813              		.loc 1 910 1
 1814 01f2 1846     		mov	r0, r3
 1815 01f4 0837     		adds	r7, r7, #8
 1816              		.cfi_def_cfa_offset 8
 1817 01f6 BD46     		mov	sp, r7
 1818              		.cfi_def_cfa_register 13
 1819              		@ sp needed
 1820 01f8 80BD     		pop	{r7, pc}
 1821              		.cfi_endproc
 1822              	.LFE127:
 1824              		.section	.text.hal_timer_decoder_config,"ax",%progbits
 1825              		.align	1
 1826              		.global	hal_timer_decoder_config
 1827              		.syntax unified
 1828              		.thumb
 1829              		.thumb_func
 1830              		.fpu softvfp
 1832              	hal_timer_decoder_config:
 1833              	.LFB128:
 911:../firmware/gd32f3x0_hal_peripheral/Source/gd32f3x0_hal_timer.c **** 
 912:../firmware/gd32f3x0_hal_peripheral/Source/gd32f3x0_hal_timer.c **** /*!
 913:../firmware/gd32f3x0_hal_peripheral/Source/gd32f3x0_hal_timer.c ****     \brief      configure TIMER decoder mode
 914:../firmware/gd32f3x0_hal_peripheral/Source/gd32f3x0_hal_timer.c ****     \param[in]  timer_dev: TIMER device information structure
 915:../firmware/gd32f3x0_hal_peripheral/Source/gd32f3x0_hal_timer.c ****                   the structure is not necessary to be reconfigured after structure initialization,
 916:../firmware/gd32f3x0_hal_peripheral/Source/gd32f3x0_hal_timer.c ****                   the structure parameters altering is automatically configured by core
 917:../firmware/gd32f3x0_hal_peripheral/Source/gd32f3x0_hal_timer.c ****     \param[in]  timer_decoder: TIMER decoder mode configuration structure
 918:../firmware/gd32f3x0_hal_peripheral/Source/gd32f3x0_hal_timer.c ****                   decoder_mode: the argument could be selected from enumeration <hal_timer_decoder_
 919:../firmware/gd32f3x0_hal_peripheral/Source/gd32f3x0_hal_timer.c ****                   ci0_polarity/ci1_polarity:
 920:../firmware/gd32f3x0_hal_peripheral/Source/gd32f3x0_hal_timer.c ****                   only one parameter can be selected which is shown as below:
 921:../firmware/gd32f3x0_hal_peripheral/Source/gd32f3x0_hal_timer.c ****       \arg          TIMER_IC_POLARITY_RISING : input capture rising edge
 922:../firmware/gd32f3x0_hal_peripheral/Source/gd32f3x0_hal_timer.c ****       \arg          TIMER_IC_POLARITY_FALLING : input capture falling edge
 923:../firmware/gd32f3x0_hal_peripheral/Source/gd32f3x0_hal_timer.c ****                   ci0_selection/ci1_selection:
 924:../firmware/gd32f3x0_hal_peripheral/Source/gd32f3x0_hal_timer.c ****                   only one parameter can be selected which is shown as below:
 925:../firmware/gd32f3x0_hal_peripheral/Source/gd32f3x0_hal_timer.c ****       \arg          TIMER_IC_SELECTION_DIRECTTI : channel y is configured as input and icy is mappe
 926:../firmware/gd32f3x0_hal_peripheral/Source/gd32f3x0_hal_timer.c ****       \arg          TIMER_IC_SELECTION_INDIRECTTI : channel y is configured as input and icy is map
 927:../firmware/gd32f3x0_hal_peripheral/Source/gd32f3x0_hal_timer.c ****       \arg          TIMER_IC_SELECTION_ITS : channel y is configured as input and icy is mapped on 
 928:../firmware/gd32f3x0_hal_peripheral/Source/gd32f3x0_hal_timer.c ****                   ci0_prescaler/ci1_prescaler:
 929:../firmware/gd32f3x0_hal_peripheral/Source/gd32f3x0_hal_timer.c ****                   only one parameter can be selected which is shown as below:
 930:../firmware/gd32f3x0_hal_peripheral/Source/gd32f3x0_hal_timer.c ****       \arg          TIMER_IC_PRESCALER_OFF : no prescaler
 931:../firmware/gd32f3x0_hal_peripheral/Source/gd32f3x0_hal_timer.c ****       \arg          TIMER_IC_PRESCALER_DIV2 : divided by 2
 932:../firmware/gd32f3x0_hal_peripheral/Source/gd32f3x0_hal_timer.c ****       \arg          TIMER_IC_PRESCALER_DIV4 : divided by 4
 933:../firmware/gd32f3x0_hal_peripheral/Source/gd32f3x0_hal_timer.c ****       \arg          TIMER_IC_PRESCALER_DIV8 : divided by 8
 934:../firmware/gd32f3x0_hal_peripheral/Source/gd32f3x0_hal_timer.c ****                   ci0_filter/ci1_filter: 0~15
 935:../firmware/gd32f3x0_hal_peripheral/Source/gd32f3x0_hal_timer.c ****     \param[out] none
 936:../firmware/gd32f3x0_hal_peripheral/Source/gd32f3x0_hal_timer.c ****     \retval     error code: HAL_ERR_NONE, HAL_ERR_ADDRESS, HAL_ERR_NO_SUPPORT, details refer to gd3
 937:../firmware/gd32f3x0_hal_peripheral/Source/gd32f3x0_hal_timer.c **** */
 938:../firmware/gd32f3x0_hal_peripheral/Source/gd32f3x0_hal_timer.c **** int32_t hal_timer_decoder_config(hal_timer_dev_struct *timer_dev, hal_timer_decoder_struct *timer_d
 939:../firmware/gd32f3x0_hal_peripheral/Source/gd32f3x0_hal_timer.c **** {
 1834              		.loc 1 939 1
 1835              		.cfi_startproc
 1836              		@ args = 0, pretend = 0, frame = 8
 1837              		@ frame_needed = 1, uses_anonymous_args = 0
 1838 0000 80B5     		push	{r7, lr}
 1839              		.cfi_def_cfa_offset 8
 1840              		.cfi_offset 7, -8
 1841              		.cfi_offset 14, -4
 1842 0002 82B0     		sub	sp, sp, #8
 1843              		.cfi_def_cfa_offset 16
 1844 0004 00AF     		add	r7, sp, #0
 1845              		.cfi_def_cfa_register 7
 1846 0006 7860     		str	r0, [r7, #4]
 1847 0008 3960     		str	r1, [r7]
 940:../firmware/gd32f3x0_hal_peripheral/Source/gd32f3x0_hal_timer.c ****     static hal_timer_input_capture_struct ic0_capture;
 941:../firmware/gd32f3x0_hal_peripheral/Source/gd32f3x0_hal_timer.c ****     static hal_timer_input_capture_struct ic1_capture;
 942:../firmware/gd32f3x0_hal_peripheral/Source/gd32f3x0_hal_timer.c **** 
 943:../firmware/gd32f3x0_hal_peripheral/Source/gd32f3x0_hal_timer.c **** #if (1 == HAL_PARAMETER_CHECK)
 944:../firmware/gd32f3x0_hal_peripheral/Source/gd32f3x0_hal_timer.c ****     /* check the parameters */
 945:../firmware/gd32f3x0_hal_peripheral/Source/gd32f3x0_hal_timer.c ****     if((NULL == timer_dev) || (NULL == timer_decoder)) {
 946:../firmware/gd32f3x0_hal_peripheral/Source/gd32f3x0_hal_timer.c ****         HAL_DEBUGE("pointer [timer_dev] or [timer_decoder] address is invalid");
 947:../firmware/gd32f3x0_hal_peripheral/Source/gd32f3x0_hal_timer.c ****         return HAL_ERR_ADDRESS;
 948:../firmware/gd32f3x0_hal_peripheral/Source/gd32f3x0_hal_timer.c ****     }
 949:../firmware/gd32f3x0_hal_peripheral/Source/gd32f3x0_hal_timer.c **** 
 950:../firmware/gd32f3x0_hal_peripheral/Source/gd32f3x0_hal_timer.c **** #if (defined(GD32F350) || defined(GD32F330))
 951:../firmware/gd32f3x0_hal_peripheral/Source/gd32f3x0_hal_timer.c ****     /* check the parameters */
 952:../firmware/gd32f3x0_hal_peripheral/Source/gd32f3x0_hal_timer.c ****     if((TIMER0 != timer_dev->periph) && (TIMER1 != timer_dev->periph) && (TIMER2 != timer_dev->peri
 953:../firmware/gd32f3x0_hal_peripheral/Source/gd32f3x0_hal_timer.c ****         HAL_DEBUGE("the [timer_decoder->decoder_mode] of [timer_dev] is invalid");
 954:../firmware/gd32f3x0_hal_peripheral/Source/gd32f3x0_hal_timer.c ****         return HAL_ERR_NO_SUPPORT;
 955:../firmware/gd32f3x0_hal_peripheral/Source/gd32f3x0_hal_timer.c ****     }
 956:../firmware/gd32f3x0_hal_peripheral/Source/gd32f3x0_hal_timer.c **** #else
 957:../firmware/gd32f3x0_hal_peripheral/Source/gd32f3x0_hal_timer.c ****     /* check the parameters */
 958:../firmware/gd32f3x0_hal_peripheral/Source/gd32f3x0_hal_timer.c ****     if((TIMER0 != timer_dev->periph) && (TIMER2 != timer_dev->periph)) {
 959:../firmware/gd32f3x0_hal_peripheral/Source/gd32f3x0_hal_timer.c ****         HAL_DEBUGE("the [timer_decoder->decoder_mode] of [timer_dev] is invalid");
 960:../firmware/gd32f3x0_hal_peripheral/Source/gd32f3x0_hal_timer.c ****         return HAL_ERR_NO_SUPPORT;
 961:../firmware/gd32f3x0_hal_peripheral/Source/gd32f3x0_hal_timer.c ****     }
 962:../firmware/gd32f3x0_hal_peripheral/Source/gd32f3x0_hal_timer.c **** #endif /* GD32F350 */
 963:../firmware/gd32f3x0_hal_peripheral/Source/gd32f3x0_hal_timer.c **** #endif /* 1 == HAL_PARAMETER_CHECK */
 964:../firmware/gd32f3x0_hal_peripheral/Source/gd32f3x0_hal_timer.c **** 
 965:../firmware/gd32f3x0_hal_peripheral/Source/gd32f3x0_hal_timer.c ****     timer_dev->state = HAL_TIMER_STATE_BUSY;
 1848              		.loc 1 965 22
 1849 000a 7B68     		ldr	r3, [r7, #4]
 1850 000c 0222     		movs	r2, #2
 1851 000e 83F85520 		strb	r2, [r3, #85]
 966:../firmware/gd32f3x0_hal_peripheral/Source/gd32f3x0_hal_timer.c **** 
 967:../firmware/gd32f3x0_hal_peripheral/Source/gd32f3x0_hal_timer.c ****     TIMER_SMCFG(timer_dev->periph) &= (~(uint32_t)TIMER_SMCFG_SMC);
 1852              		.loc 1 967 5
 1853 0012 7B68     		ldr	r3, [r7, #4]
 1854 0014 1B68     		ldr	r3, [r3]
 1855              		.loc 1 967 36
 1856 0016 0833     		adds	r3, r3, #8
 1857 0018 1B68     		ldr	r3, [r3]
 1858              		.loc 1 967 5
 1859 001a 7A68     		ldr	r2, [r7, #4]
 1860 001c 1268     		ldr	r2, [r2]
 1861              		.loc 1 967 36
 1862 001e 0832     		adds	r2, r2, #8
 1863 0020 23F00703 		bic	r3, r3, #7
 1864 0024 1360     		str	r3, [r2]
 968:../firmware/gd32f3x0_hal_peripheral/Source/gd32f3x0_hal_timer.c ****     TIMER_SMCFG(timer_dev->periph) |= (uint32_t)timer_decoder->decoder_mode;
 1865              		.loc 1 968 5
 1866 0026 7B68     		ldr	r3, [r7, #4]
 1867 0028 1B68     		ldr	r3, [r3]
 1868              		.loc 1 968 36
 1869 002a 0833     		adds	r3, r3, #8
 1870 002c 1B68     		ldr	r3, [r3]
 1871              		.loc 1 968 62
 1872 002e 3A68     		ldr	r2, [r7]
 1873 0030 1278     		ldrb	r2, [r2]	@ zero_extendqisi2
 1874              		.loc 1 968 39
 1875 0032 1146     		mov	r1, r2
 1876              		.loc 1 968 5
 1877 0034 7A68     		ldr	r2, [r7, #4]
 1878 0036 1268     		ldr	r2, [r2]
 1879              		.loc 1 968 36
 1880 0038 0832     		adds	r2, r2, #8
 1881 003a 0B43     		orrs	r3, r3, r1
 1882 003c 1360     		str	r3, [r2]
 969:../firmware/gd32f3x0_hal_peripheral/Source/gd32f3x0_hal_timer.c **** 
 970:../firmware/gd32f3x0_hal_peripheral/Source/gd32f3x0_hal_timer.c ****     /* channel 0 input parameter structure */
 971:../firmware/gd32f3x0_hal_peripheral/Source/gd32f3x0_hal_timer.c ****     ic0_capture.ic_polarity = timer_decoder->ci0_polarity;
 1883              		.loc 1 971 44
 1884 003e 3B68     		ldr	r3, [r7]
 1885 0040 5A88     		ldrh	r2, [r3, #2]
 1886              		.loc 1 971 29
 1887 0042 1A4B     		ldr	r3, .L68
 1888 0044 1A80     		strh	r2, [r3]	@ movhi
 972:../firmware/gd32f3x0_hal_peripheral/Source/gd32f3x0_hal_timer.c ****     ic0_capture.ic_selection = timer_decoder->ci0_selection;
 1889              		.loc 1 972 45
 1890 0046 3B68     		ldr	r3, [r7]
 1891 0048 9A88     		ldrh	r2, [r3, #4]
 1892              		.loc 1 972 30
 1893 004a 184B     		ldr	r3, .L68
 1894 004c 5A80     		strh	r2, [r3, #2]	@ movhi
 973:../firmware/gd32f3x0_hal_peripheral/Source/gd32f3x0_hal_timer.c ****     ic0_capture.ic_prescaler = timer_decoder->ci0_prescaler;
 1895              		.loc 1 973 45
 1896 004e 3B68     		ldr	r3, [r7]
 1897 0050 DA88     		ldrh	r2, [r3, #6]
 1898              		.loc 1 973 30
 1899 0052 164B     		ldr	r3, .L68
 1900 0054 9A80     		strh	r2, [r3, #4]	@ movhi
 974:../firmware/gd32f3x0_hal_peripheral/Source/gd32f3x0_hal_timer.c ****     ic0_capture.ic_filter = timer_decoder->ci0_filter;
 1901              		.loc 1 974 42
 1902 0056 3B68     		ldr	r3, [r7]
 1903 0058 1A89     		ldrh	r2, [r3, #8]
 1904              		.loc 1 974 27
 1905 005a 144B     		ldr	r3, .L68
 1906 005c DA80     		strh	r2, [r3, #6]	@ movhi
 975:../firmware/gd32f3x0_hal_peripheral/Source/gd32f3x0_hal_timer.c ****     /* channel 1 input parameter structure */
 976:../firmware/gd32f3x0_hal_peripheral/Source/gd32f3x0_hal_timer.c ****     ic1_capture.ic_polarity = timer_decoder->ci1_polarity;
 1907              		.loc 1 976 44
 1908 005e 3B68     		ldr	r3, [r7]
 1909 0060 5A89     		ldrh	r2, [r3, #10]
 1910              		.loc 1 976 29
 1911 0062 134B     		ldr	r3, .L68+4
 1912 0064 1A80     		strh	r2, [r3]	@ movhi
 977:../firmware/gd32f3x0_hal_peripheral/Source/gd32f3x0_hal_timer.c ****     ic1_capture.ic_selection = timer_decoder->ci1_selection;
 1913              		.loc 1 977 45
 1914 0066 3B68     		ldr	r3, [r7]
 1915 0068 9A89     		ldrh	r2, [r3, #12]
 1916              		.loc 1 977 30
 1917 006a 114B     		ldr	r3, .L68+4
 1918 006c 5A80     		strh	r2, [r3, #2]	@ movhi
 978:../firmware/gd32f3x0_hal_peripheral/Source/gd32f3x0_hal_timer.c ****     ic1_capture.ic_prescaler = timer_decoder->ci1_prescaler;
 1919              		.loc 1 978 45
 1920 006e 3B68     		ldr	r3, [r7]
 1921 0070 DA89     		ldrh	r2, [r3, #14]
 1922              		.loc 1 978 30
 1923 0072 0F4B     		ldr	r3, .L68+4
 1924 0074 9A80     		strh	r2, [r3, #4]	@ movhi
 979:../firmware/gd32f3x0_hal_peripheral/Source/gd32f3x0_hal_timer.c ****     ic1_capture.ic_filter = timer_decoder->ci1_filter;
 1925              		.loc 1 979 42
 1926 0076 3B68     		ldr	r3, [r7]
 1927 0078 1A8A     		ldrh	r2, [r3, #16]
 1928              		.loc 1 979 27
 1929 007a 0D4B     		ldr	r3, .L68+4
 1930 007c DA80     		strh	r2, [r3, #6]	@ movhi
 980:../firmware/gd32f3x0_hal_peripheral/Source/gd32f3x0_hal_timer.c ****     /* configure TIMER input capture parameter */
 981:../firmware/gd32f3x0_hal_peripheral/Source/gd32f3x0_hal_timer.c ****     hals_timer_channel_input_capture_config(timer_dev->periph, TIMER_CH_0, &ic0_capture);
 1931              		.loc 1 981 5
 1932 007e 7B68     		ldr	r3, [r7, #4]
 1933 0080 1B68     		ldr	r3, [r3]
 1934 0082 0A4A     		ldr	r2, .L68
 1935 0084 0021     		movs	r1, #0
 1936 0086 1846     		mov	r0, r3
 1937 0088 FFF7FEFF 		bl	hals_timer_channel_input_capture_config
 982:../firmware/gd32f3x0_hal_peripheral/Source/gd32f3x0_hal_timer.c ****     /* configure TIMER input capture parameter */
 983:../firmware/gd32f3x0_hal_peripheral/Source/gd32f3x0_hal_timer.c ****     hals_timer_channel_input_capture_config(timer_dev->periph, TIMER_CH_1, &ic1_capture);
 1938              		.loc 1 983 5
 1939 008c 7B68     		ldr	r3, [r7, #4]
 1940 008e 1B68     		ldr	r3, [r3]
 1941 0090 074A     		ldr	r2, .L68+4
 1942 0092 0121     		movs	r1, #1
 1943 0094 1846     		mov	r0, r3
 1944 0096 FFF7FEFF 		bl	hals_timer_channel_input_capture_config
 984:../firmware/gd32f3x0_hal_peripheral/Source/gd32f3x0_hal_timer.c **** 
 985:../firmware/gd32f3x0_hal_peripheral/Source/gd32f3x0_hal_timer.c ****     /* change TIMER state */
 986:../firmware/gd32f3x0_hal_peripheral/Source/gd32f3x0_hal_timer.c ****     timer_dev->state = HAL_TIMER_STATE_READY;
 1945              		.loc 1 986 22
 1946 009a 7B68     		ldr	r3, [r7, #4]
 1947 009c 0522     		movs	r2, #5
 1948 009e 83F85520 		strb	r2, [r3, #85]
 987:../firmware/gd32f3x0_hal_peripheral/Source/gd32f3x0_hal_timer.c **** 
 988:../firmware/gd32f3x0_hal_peripheral/Source/gd32f3x0_hal_timer.c ****     return HAL_ERR_NONE;
 1949              		.loc 1 988 12
 1950 00a2 0023     		movs	r3, #0
 989:../firmware/gd32f3x0_hal_peripheral/Source/gd32f3x0_hal_timer.c **** }
 1951              		.loc 1 989 1
 1952 00a4 1846     		mov	r0, r3
 1953 00a6 0837     		adds	r7, r7, #8
 1954              		.cfi_def_cfa_offset 8
 1955 00a8 BD46     		mov	sp, r7
 1956              		.cfi_def_cfa_register 13
 1957              		@ sp needed
 1958 00aa 80BD     		pop	{r7, pc}
 1959              	.L69:
 1960              		.align	2
 1961              	.L68:
 1962 00ac 00000000 		.word	ic0_capture.10993
 1963 00b0 00000000 		.word	ic1_capture.10994
 1964              		.cfi_endproc
 1965              	.LFE128:
 1967              		.section	.text.hal_timer_hall_sensor_config,"ax",%progbits
 1968              		.align	1
 1969              		.global	hal_timer_hall_sensor_config
 1970              		.syntax unified
 1971              		.thumb
 1972              		.thumb_func
 1973              		.fpu softvfp
 1975              	hal_timer_hall_sensor_config:
 1976              	.LFB129:
 990:../firmware/gd32f3x0_hal_peripheral/Source/gd32f3x0_hal_timer.c **** 
 991:../firmware/gd32f3x0_hal_peripheral/Source/gd32f3x0_hal_timer.c **** /*!
 992:../firmware/gd32f3x0_hal_peripheral/Source/gd32f3x0_hal_timer.c ****     \brief      configure TIMER hall sensor mode
 993:../firmware/gd32f3x0_hal_peripheral/Source/gd32f3x0_hal_timer.c ****     \param[in]  timer_dev: TIMER device information structure
 994:../firmware/gd32f3x0_hal_peripheral/Source/gd32f3x0_hal_timer.c ****                   the structure is not necessary to be reconfigured after structure initialization,
 995:../firmware/gd32f3x0_hal_peripheral/Source/gd32f3x0_hal_timer.c ****                   the structure parameters altering is automatically configured by core
 996:../firmware/gd32f3x0_hal_peripheral/Source/gd32f3x0_hal_timer.c ****     \param[in]  timer_hallsensor: TIMER hall sensor mode configuration structure
 997:../firmware/gd32f3x0_hal_peripheral/Source/gd32f3x0_hal_timer.c ****                   cmt_delay: commutation delay(channel 1 compare value)
 998:../firmware/gd32f3x0_hal_peripheral/Source/gd32f3x0_hal_timer.c ****                   ci0_polarity:
 999:../firmware/gd32f3x0_hal_peripheral/Source/gd32f3x0_hal_timer.c ****                   only one parameter can be selected which is shown as below:
1000:../firmware/gd32f3x0_hal_peripheral/Source/gd32f3x0_hal_timer.c ****       \arg          TIMER_IC_POLARITY_RISING : input capture rising edge
1001:../firmware/gd32f3x0_hal_peripheral/Source/gd32f3x0_hal_timer.c ****                   ci0_selection:
1002:../firmware/gd32f3x0_hal_peripheral/Source/gd32f3x0_hal_timer.c ****                   only one parameter can be selected which is shown as below:
1003:../firmware/gd32f3x0_hal_peripheral/Source/gd32f3x0_hal_timer.c ****       \arg          TIMER_IC_SELECTION_ITS : channel y is configured as input and icy is mapped on 
1004:../firmware/gd32f3x0_hal_peripheral/Source/gd32f3x0_hal_timer.c ****                   ci0_prescaler:
1005:../firmware/gd32f3x0_hal_peripheral/Source/gd32f3x0_hal_timer.c ****                   only one parameter can be selected which is shown as below:
1006:../firmware/gd32f3x0_hal_peripheral/Source/gd32f3x0_hal_timer.c ****       \arg          TIMER_IC_PRESCALER_OFF : no prescaler
1007:../firmware/gd32f3x0_hal_peripheral/Source/gd32f3x0_hal_timer.c ****       \arg          TIMER_IC_PRESCALER_DIV2 : divided by 2
1008:../firmware/gd32f3x0_hal_peripheral/Source/gd32f3x0_hal_timer.c ****       \arg          TIMER_IC_PRESCALER_DIV4 : divided by 4
1009:../firmware/gd32f3x0_hal_peripheral/Source/gd32f3x0_hal_timer.c ****       \arg          TIMER_IC_PRESCALER_DIV8 : divided by 8
1010:../firmware/gd32f3x0_hal_peripheral/Source/gd32f3x0_hal_timer.c ****                   ci0_filter: 0~15
1011:../firmware/gd32f3x0_hal_peripheral/Source/gd32f3x0_hal_timer.c ****     \param[out] none
1012:../firmware/gd32f3x0_hal_peripheral/Source/gd32f3x0_hal_timer.c ****     \retval     error code: HAL_ERR_NONE, HAL_ERR_ADDRESS, HAL_ERR_NO_SUPPORT, details refer to gd3
1013:../firmware/gd32f3x0_hal_peripheral/Source/gd32f3x0_hal_timer.c **** */
1014:../firmware/gd32f3x0_hal_peripheral/Source/gd32f3x0_hal_timer.c **** int32_t hal_timer_hall_sensor_config(hal_timer_dev_struct *timer_dev, hal_timer_hall_sensor_struct 
1015:../firmware/gd32f3x0_hal_peripheral/Source/gd32f3x0_hal_timer.c **** {
 1977              		.loc 1 1015 1
 1978              		.cfi_startproc
 1979              		@ args = 0, pretend = 0, frame = 8
 1980              		@ frame_needed = 1, uses_anonymous_args = 0
 1981 0000 80B5     		push	{r7, lr}
 1982              		.cfi_def_cfa_offset 8
 1983              		.cfi_offset 7, -8
 1984              		.cfi_offset 14, -4
 1985 0002 82B0     		sub	sp, sp, #8
 1986              		.cfi_def_cfa_offset 16
 1987 0004 00AF     		add	r7, sp, #0
 1988              		.cfi_def_cfa_register 7
 1989 0006 7860     		str	r0, [r7, #4]
 1990 0008 3960     		str	r1, [r7]
1016:../firmware/gd32f3x0_hal_peripheral/Source/gd32f3x0_hal_timer.c ****     static hal_timer_input_capture_struct input_capture;
1017:../firmware/gd32f3x0_hal_peripheral/Source/gd32f3x0_hal_timer.c ****     static hal_timer_output_compare_struct output_compare;
1018:../firmware/gd32f3x0_hal_peripheral/Source/gd32f3x0_hal_timer.c **** #if (1 == HAL_PARAMETER_CHECK)
1019:../firmware/gd32f3x0_hal_peripheral/Source/gd32f3x0_hal_timer.c ****     /* check the parameters */
1020:../firmware/gd32f3x0_hal_peripheral/Source/gd32f3x0_hal_timer.c ****     if((NULL == timer_dev) || (NULL == timer_hallsensor)) {
1021:../firmware/gd32f3x0_hal_peripheral/Source/gd32f3x0_hal_timer.c ****         HAL_DEBUGE("pointer [timer_dev] or [timer_hallsensor] address is invalid");
1022:../firmware/gd32f3x0_hal_peripheral/Source/gd32f3x0_hal_timer.c ****         return HAL_ERR_ADDRESS;
1023:../firmware/gd32f3x0_hal_peripheral/Source/gd32f3x0_hal_timer.c ****     }
1024:../firmware/gd32f3x0_hal_peripheral/Source/gd32f3x0_hal_timer.c **** 
1025:../firmware/gd32f3x0_hal_peripheral/Source/gd32f3x0_hal_timer.c **** #if (defined(GD32F350) || defined(GD32F330))
1026:../firmware/gd32f3x0_hal_peripheral/Source/gd32f3x0_hal_timer.c ****     /* check the parameters */
1027:../firmware/gd32f3x0_hal_peripheral/Source/gd32f3x0_hal_timer.c ****     if((TIMER0 != timer_dev->periph) && (TIMER1 != timer_dev->periph) && (TIMER2 != timer_dev->peri
1028:../firmware/gd32f3x0_hal_peripheral/Source/gd32f3x0_hal_timer.c ****         HAL_DEBUGE("the hall sensor mode of [timer_dev] is invalid");
1029:../firmware/gd32f3x0_hal_peripheral/Source/gd32f3x0_hal_timer.c ****         return HAL_ERR_NO_SUPPORT;
1030:../firmware/gd32f3x0_hal_peripheral/Source/gd32f3x0_hal_timer.c ****     }
1031:../firmware/gd32f3x0_hal_peripheral/Source/gd32f3x0_hal_timer.c **** #else
1032:../firmware/gd32f3x0_hal_peripheral/Source/gd32f3x0_hal_timer.c ****     /* check the parameters */
1033:../firmware/gd32f3x0_hal_peripheral/Source/gd32f3x0_hal_timer.c ****     if((TIMER0 != timer_dev->periph) && (TIMER2 != timer_dev->periph)) {
1034:../firmware/gd32f3x0_hal_peripheral/Source/gd32f3x0_hal_timer.c ****         HAL_DEBUGE("the hall sensor mode of [timer_dev] is invalid");
1035:../firmware/gd32f3x0_hal_peripheral/Source/gd32f3x0_hal_timer.c ****         return HAL_ERR_NO_SUPPORT;
1036:../firmware/gd32f3x0_hal_peripheral/Source/gd32f3x0_hal_timer.c ****     }
1037:../firmware/gd32f3x0_hal_peripheral/Source/gd32f3x0_hal_timer.c **** #endif /* GD32F350 */
1038:../firmware/gd32f3x0_hal_peripheral/Source/gd32f3x0_hal_timer.c **** #endif /* 1 == HAL_PARAMETER_CHECK */
1039:../firmware/gd32f3x0_hal_peripheral/Source/gd32f3x0_hal_timer.c **** 
1040:../firmware/gd32f3x0_hal_peripheral/Source/gd32f3x0_hal_timer.c ****     timer_dev->state = HAL_TIMER_STATE_BUSY;
 1991              		.loc 1 1040 22
 1992 000a 7B68     		ldr	r3, [r7, #4]
 1993 000c 0222     		movs	r2, #2
 1994 000e 83F85520 		strb	r2, [r3, #85]
1041:../firmware/gd32f3x0_hal_peripheral/Source/gd32f3x0_hal_timer.c **** 
1042:../firmware/gd32f3x0_hal_peripheral/Source/gd32f3x0_hal_timer.c ****     /* structure parameter config */
1043:../firmware/gd32f3x0_hal_peripheral/Source/gd32f3x0_hal_timer.c ****     input_capture.ic_polarity  = timer_hallsensor->ci0_polarity;
 1995              		.loc 1 1043 50
 1996 0012 3B68     		ldr	r3, [r7]
 1997 0014 9A88     		ldrh	r2, [r3, #4]
 1998              		.loc 1 1043 32
 1999 0016 2E4B     		ldr	r3, .L72
 2000 0018 1A80     		strh	r2, [r3]	@ movhi
1044:../firmware/gd32f3x0_hal_peripheral/Source/gd32f3x0_hal_timer.c ****     input_capture.ic_selection = timer_hallsensor->ci0_selection;
 2001              		.loc 1 1044 50
 2002 001a 3B68     		ldr	r3, [r7]
 2003 001c DA88     		ldrh	r2, [r3, #6]
 2004              		.loc 1 1044 32
 2005 001e 2C4B     		ldr	r3, .L72
 2006 0020 5A80     		strh	r2, [r3, #2]	@ movhi
1045:../firmware/gd32f3x0_hal_peripheral/Source/gd32f3x0_hal_timer.c ****     input_capture.ic_prescaler = timer_hallsensor->ci0_prescaler;
 2007              		.loc 1 1045 50
 2008 0022 3B68     		ldr	r3, [r7]
 2009 0024 1A89     		ldrh	r2, [r3, #8]
 2010              		.loc 1 1045 32
 2011 0026 2A4B     		ldr	r3, .L72
 2012 0028 9A80     		strh	r2, [r3, #4]	@ movhi
1046:../firmware/gd32f3x0_hal_peripheral/Source/gd32f3x0_hal_timer.c ****     input_capture.ic_filter    = timer_hallsensor->ci0_filter;
 2013              		.loc 1 1046 50
 2014 002a 3B68     		ldr	r3, [r7]
 2015 002c 5A89     		ldrh	r2, [r3, #10]
 2016              		.loc 1 1046 32
 2017 002e 284B     		ldr	r3, .L72
 2018 0030 DA80     		strh	r2, [r3, #6]	@ movhi
1047:../firmware/gd32f3x0_hal_peripheral/Source/gd32f3x0_hal_timer.c ****     hals_timer_channel_input_capture_config(timer_dev->periph, TIMER_CH_0, &input_capture);
 2019              		.loc 1 1047 5
 2020 0032 7B68     		ldr	r3, [r7, #4]
 2021 0034 1B68     		ldr	r3, [r3]
 2022 0036 264A     		ldr	r2, .L72
 2023 0038 0021     		movs	r1, #0
 2024 003a 1846     		mov	r0, r3
 2025 003c FFF7FEFF 		bl	hals_timer_channel_input_capture_config
1048:../firmware/gd32f3x0_hal_peripheral/Source/gd32f3x0_hal_timer.c **** 
1049:../firmware/gd32f3x0_hal_peripheral/Source/gd32f3x0_hal_timer.c ****     /* configure TIMER hall sensor mode*/
1050:../firmware/gd32f3x0_hal_peripheral/Source/gd32f3x0_hal_timer.c ****     /* set TI0S bit */
1051:../firmware/gd32f3x0_hal_peripheral/Source/gd32f3x0_hal_timer.c ****     TIMER_CTL1(timer_dev->periph) |= (uint32_t)TIMER_CTL1_TI0S;
 2026              		.loc 1 1051 5
 2027 0040 7B68     		ldr	r3, [r7, #4]
 2028 0042 1B68     		ldr	r3, [r3]
 2029              		.loc 1 1051 35
 2030 0044 0433     		adds	r3, r3, #4
 2031 0046 1B68     		ldr	r3, [r3]
 2032              		.loc 1 1051 5
 2033 0048 7A68     		ldr	r2, [r7, #4]
 2034 004a 1268     		ldr	r2, [r2]
 2035              		.loc 1 1051 35
 2036 004c 0432     		adds	r2, r2, #4
 2037 004e 43F08003 		orr	r3, r3, #128
 2038 0052 1360     		str	r3, [r2]
1052:../firmware/gd32f3x0_hal_peripheral/Source/gd32f3x0_hal_timer.c ****     /* select TIMER input trigger source */
1053:../firmware/gd32f3x0_hal_peripheral/Source/gd32f3x0_hal_timer.c ****     hals_timer_input_trigger_source_select(timer_dev->periph, TIMER_SMCFG_TRGSEL_CI0F_ED);
 2039              		.loc 1 1053 5
 2040 0054 7B68     		ldr	r3, [r7, #4]
 2041 0056 1B68     		ldr	r3, [r3]
 2042 0058 4021     		movs	r1, #64
 2043 005a 1846     		mov	r0, r3
 2044 005c FFF7FEFF 		bl	hals_timer_input_trigger_source_select
1054:../firmware/gd32f3x0_hal_peripheral/Source/gd32f3x0_hal_timer.c ****     /* select TIMER slave mode */
1055:../firmware/gd32f3x0_hal_peripheral/Source/gd32f3x0_hal_timer.c ****     hals_timer_slave_mode_select(timer_dev->periph, TIMER_SLAVE_MODE_RESTART);
 2045              		.loc 1 1055 5
 2046 0060 7B68     		ldr	r3, [r7, #4]
 2047 0062 1B68     		ldr	r3, [r3]
 2048 0064 0421     		movs	r1, #4
 2049 0066 1846     		mov	r0, r3
 2050 0068 FFF7FEFF 		bl	hals_timer_slave_mode_select
1056:../firmware/gd32f3x0_hal_peripheral/Source/gd32f3x0_hal_timer.c **** 
1057:../firmware/gd32f3x0_hal_peripheral/Source/gd32f3x0_hal_timer.c ****     /* TIMER output compare mode structure config */
1058:../firmware/gd32f3x0_hal_peripheral/Source/gd32f3x0_hal_timer.c ****     output_compare.compare_mode = TIMER_OC_MODE_PWM0;
 2051              		.loc 1 1058 33
 2052 006c 194B     		ldr	r3, .L72+4
 2053 006e 6022     		movs	r2, #96
 2054 0070 1A70     		strb	r2, [r3]
1059:../firmware/gd32f3x0_hal_peripheral/Source/gd32f3x0_hal_timer.c ****     output_compare.oc_pulse_value = timer_hallsensor->cmt_delay;
 2055              		.loc 1 1059 53
 2056 0072 3B68     		ldr	r3, [r7]
 2057 0074 1B68     		ldr	r3, [r3]
 2058              		.loc 1 1059 35
 2059 0076 174A     		ldr	r2, .L72+4
 2060 0078 5360     		str	r3, [r2, #4]
1060:../firmware/gd32f3x0_hal_peripheral/Source/gd32f3x0_hal_timer.c ****     output_compare.oc_polarity = TIMER_OC_POLARITY_HIGH;
 2061              		.loc 1 1060 32
 2062 007a 164B     		ldr	r3, .L72+4
 2063 007c 0022     		movs	r2, #0
 2064 007e 1A81     		strh	r2, [r3, #8]	@ movhi
1061:../firmware/gd32f3x0_hal_peripheral/Source/gd32f3x0_hal_timer.c ****     output_compare.ocn_polarity = TIMER_OCN_POLARITY_HIGH;
 2065              		.loc 1 1061 33
 2066 0080 144B     		ldr	r3, .L72+4
 2067 0082 0022     		movs	r2, #0
 2068 0084 5A81     		strh	r2, [r3, #10]	@ movhi
1062:../firmware/gd32f3x0_hal_peripheral/Source/gd32f3x0_hal_timer.c ****     output_compare.oc_idlestate = TIMER_OC_IDLE_STATE_LOW;
 2069              		.loc 1 1062 33
 2070 0086 134B     		ldr	r3, .L72+4
 2071 0088 0022     		movs	r2, #0
 2072 008a 9A81     		strh	r2, [r3, #12]	@ movhi
1063:../firmware/gd32f3x0_hal_peripheral/Source/gd32f3x0_hal_timer.c ****     output_compare.ocn_idlestate = TIMER_OCN_IDLE_STATE_LOW;
 2073              		.loc 1 1063 34
 2074 008c 114B     		ldr	r3, .L72+4
 2075 008e 0022     		movs	r2, #0
 2076 0090 DA81     		strh	r2, [r3, #14]	@ movhi
1064:../firmware/gd32f3x0_hal_peripheral/Source/gd32f3x0_hal_timer.c ****     output_compare.oc_shadow = TIMER_OC_SHADOW_ENABLE;
 2077              		.loc 1 1064 30
 2078 0092 104B     		ldr	r3, .L72+4
 2079 0094 0822     		movs	r2, #8
 2080 0096 1A82     		strh	r2, [r3, #16]	@ movhi
1065:../firmware/gd32f3x0_hal_peripheral/Source/gd32f3x0_hal_timer.c ****     output_compare.oc_fastmode = TIMER_OC_FAST_DISABLE;
 2081              		.loc 1 1065 32
 2082 0098 0E4B     		ldr	r3, .L72+4
 2083 009a 0022     		movs	r2, #0
 2084 009c 5A82     		strh	r2, [r3, #18]	@ movhi
1066:../firmware/gd32f3x0_hal_peripheral/Source/gd32f3x0_hal_timer.c ****     output_compare.oc_clearmode = TIMER_OC_CLEAR_DISABLE;
 2085              		.loc 1 1066 33
 2086 009e 0D4B     		ldr	r3, .L72+4
 2087 00a0 0022     		movs	r2, #0
 2088 00a2 9A82     		strh	r2, [r3, #20]	@ movhi
1067:../firmware/gd32f3x0_hal_peripheral/Source/gd32f3x0_hal_timer.c ****     /* initialize TIMER output compare mode */
1068:../firmware/gd32f3x0_hal_peripheral/Source/gd32f3x0_hal_timer.c ****     hals_timer_channel_output_config(timer_dev->periph, TIMER_CH_1, &output_compare);
 2089              		.loc 1 1068 5
 2090 00a4 7B68     		ldr	r3, [r7, #4]
 2091 00a6 1B68     		ldr	r3, [r3]
 2092 00a8 0A4A     		ldr	r2, .L72+4
 2093 00aa 0121     		movs	r1, #1
 2094 00ac 1846     		mov	r0, r3
 2095 00ae FFF7FEFF 		bl	hals_timer_channel_output_config
1069:../firmware/gd32f3x0_hal_peripheral/Source/gd32f3x0_hal_timer.c **** 
1070:../firmware/gd32f3x0_hal_peripheral/Source/gd32f3x0_hal_timer.c ****     /* select TIMER master mode output trigger source */
1071:../firmware/gd32f3x0_hal_peripheral/Source/gd32f3x0_hal_timer.c ****     hals_timer_master_output_trigger_source_select(timer_dev->periph, TIMER_TRI_OUT_SRC_O1CPRE);
 2096              		.loc 1 1071 5
 2097 00b2 7B68     		ldr	r3, [r7, #4]
 2098 00b4 1B68     		ldr	r3, [r3]
 2099 00b6 5021     		movs	r1, #80
 2100 00b8 1846     		mov	r0, r3
 2101 00ba FFF7FEFF 		bl	hals_timer_master_output_trigger_source_select
1072:../firmware/gd32f3x0_hal_peripheral/Source/gd32f3x0_hal_timer.c ****     /* change TIMER state */
1073:../firmware/gd32f3x0_hal_peripheral/Source/gd32f3x0_hal_timer.c ****     timer_dev->state = HAL_TIMER_STATE_READY;
 2102              		.loc 1 1073 22
 2103 00be 7B68     		ldr	r3, [r7, #4]
 2104 00c0 0522     		movs	r2, #5
 2105 00c2 83F85520 		strb	r2, [r3, #85]
1074:../firmware/gd32f3x0_hal_peripheral/Source/gd32f3x0_hal_timer.c **** 
1075:../firmware/gd32f3x0_hal_peripheral/Source/gd32f3x0_hal_timer.c ****     return HAL_ERR_NONE;
 2106              		.loc 1 1075 12
 2107 00c6 0023     		movs	r3, #0
1076:../firmware/gd32f3x0_hal_peripheral/Source/gd32f3x0_hal_timer.c **** }
 2108              		.loc 1 1076 1
 2109 00c8 1846     		mov	r0, r3
 2110 00ca 0837     		adds	r7, r7, #8
 2111              		.cfi_def_cfa_offset 8
 2112 00cc BD46     		mov	sp, r7
 2113              		.cfi_def_cfa_register 13
 2114              		@ sp needed
 2115 00ce 80BD     		pop	{r7, pc}
 2116              	.L73:
 2117              		.align	2
 2118              	.L72:
 2119 00d0 00000000 		.word	input_capture.10999
 2120 00d4 00000000 		.word	output_compare.11000
 2121              		.cfi_endproc
 2122              	.LFE129:
 2124              		.section	.text.hal_timer_struct_init,"ax",%progbits
 2125              		.align	1
 2126              		.global	hal_timer_struct_init
 2127              		.syntax unified
 2128              		.thumb
 2129              		.thumb_func
 2130              		.fpu softvfp
 2132              	hal_timer_struct_init:
 2133              	.LFB130:
1077:../firmware/gd32f3x0_hal_peripheral/Source/gd32f3x0_hal_timer.c **** 
1078:../firmware/gd32f3x0_hal_peripheral/Source/gd32f3x0_hal_timer.c **** /*!
1079:../firmware/gd32f3x0_hal_peripheral/Source/gd32f3x0_hal_timer.c ****     \brief      initialize TIMER structure with the default values
1080:../firmware/gd32f3x0_hal_peripheral/Source/gd32f3x0_hal_timer.c ****     \param[in]  hal_struct_type: the argument could be selected from enumeration <hal_timer_struct_
1081:../firmware/gd32f3x0_hal_peripheral/Source/gd32f3x0_hal_timer.c ****     \param[in]  p_struct: pointer to TIMER structure that contains the configuration information
1082:../firmware/gd32f3x0_hal_peripheral/Source/gd32f3x0_hal_timer.c ****     \param[out] none
1083:../firmware/gd32f3x0_hal_peripheral/Source/gd32f3x0_hal_timer.c ****     \retval     error code: HAL_ERR_NONE, HAL_ERR_ADDRESS, HAL_ERR_VAL, details refer to gd32f3x0_h
1084:../firmware/gd32f3x0_hal_peripheral/Source/gd32f3x0_hal_timer.c **** */
1085:../firmware/gd32f3x0_hal_peripheral/Source/gd32f3x0_hal_timer.c **** int32_t hal_timer_struct_init(hal_timer_struct_type_enum hal_struct_type, void *p_struct)
1086:../firmware/gd32f3x0_hal_peripheral/Source/gd32f3x0_hal_timer.c **** {
 2134              		.loc 1 1086 1
 2135              		.cfi_startproc
 2136              		@ args = 0, pretend = 0, frame = 8
 2137              		@ frame_needed = 1, uses_anonymous_args = 0
 2138              		@ link register save eliminated.
 2139 0000 80B4     		push	{r7}
 2140              		.cfi_def_cfa_offset 4
 2141              		.cfi_offset 7, -4
 2142 0002 83B0     		sub	sp, sp, #12
 2143              		.cfi_def_cfa_offset 16
 2144 0004 00AF     		add	r7, sp, #0
 2145              		.cfi_def_cfa_register 7
 2146 0006 0346     		mov	r3, r0
 2147 0008 3960     		str	r1, [r7]
 2148 000a FB71     		strb	r3, [r7, #7]
1087:../firmware/gd32f3x0_hal_peripheral/Source/gd32f3x0_hal_timer.c **** #if (1 == HAL_PARAMETER_CHECK)
1088:../firmware/gd32f3x0_hal_peripheral/Source/gd32f3x0_hal_timer.c ****     /* check the parameters */
1089:../firmware/gd32f3x0_hal_peripheral/Source/gd32f3x0_hal_timer.c ****     if(NULL == p_struct) {
1090:../firmware/gd32f3x0_hal_peripheral/Source/gd32f3x0_hal_timer.c ****         HAL_DEBUGE("pointer [*p_struct] address is invalid");
1091:../firmware/gd32f3x0_hal_peripheral/Source/gd32f3x0_hal_timer.c ****         return HAL_ERR_ADDRESS;
1092:../firmware/gd32f3x0_hal_peripheral/Source/gd32f3x0_hal_timer.c ****     }
1093:../firmware/gd32f3x0_hal_peripheral/Source/gd32f3x0_hal_timer.c **** #endif /* 1 = HAL_PARAMETER_CHECK */
1094:../firmware/gd32f3x0_hal_peripheral/Source/gd32f3x0_hal_timer.c **** 
1095:../firmware/gd32f3x0_hal_peripheral/Source/gd32f3x0_hal_timer.c ****     switch(hal_struct_type) {
 2149              		.loc 1 1095 5
 2150 000c FB79     		ldrb	r3, [r7, #7]	@ zero_extendqisi2
 2151 000e 0E2B     		cmp	r3, #14
 2152 0010 00F27D81 		bhi	.L75
 2153 0014 01A2     		adr	r2, .L77
 2154 0016 52F823F0 		ldr	pc, [r2, r3, lsl #2]
 2155 001a 00BF     		.p2align 2
 2156              	.L77:
 2157 001c 59000000 		.word	.L91+1
 2158 0020 93000000 		.word	.L90+1
 2159 0024 AD000000 		.word	.L89+1
 2160 0028 E5000000 		.word	.L88+1
 2161 002c 13010000 		.word	.L87+1
 2162 0030 2D010000 		.word	.L86+1
 2163 0034 47010000 		.word	.L85+1
 2164 0038 67010000 		.word	.L84+1
 2165 003c 9F010000 		.word	.L83+1
 2166 0040 B3010000 		.word	.L82+1
 2167 0044 D3010000 		.word	.L81+1
 2168 0048 17020000 		.word	.L80+1
 2169 004c 2B020000 		.word	.L79+1
 2170 0050 51020000 		.word	.L78+1
 2171 0054 77020000 		.word	.L76+1
 2172              		.p2align 1
 2173              	.L91:
1096:../firmware/gd32f3x0_hal_peripheral/Source/gd32f3x0_hal_timer.c ****     case HAL_TIMER_INIT_STRUCT:
1097:../firmware/gd32f3x0_hal_peripheral/Source/gd32f3x0_hal_timer.c ****         /* initialize TIMER basic init configuration structure with the default values */
1098:../firmware/gd32f3x0_hal_peripheral/Source/gd32f3x0_hal_timer.c ****         ((hal_timer_init_struct *)p_struct)->prescaler          = 0U;
 2174              		.loc 1 1098 65
 2175 0058 3B68     		ldr	r3, [r7]
 2176 005a 0022     		movs	r2, #0
 2177 005c 1A80     		strh	r2, [r3]	@ movhi
1099:../firmware/gd32f3x0_hal_peripheral/Source/gd32f3x0_hal_timer.c ****         ((hal_timer_init_struct *)p_struct)->alignedmode        = TIMER_COUNTER_EDGE;
 2178              		.loc 1 1099 65
 2179 005e 3B68     		ldr	r3, [r7]
 2180 0060 0022     		movs	r2, #0
 2181 0062 5A80     		strh	r2, [r3, #2]	@ movhi
1100:../firmware/gd32f3x0_hal_peripheral/Source/gd32f3x0_hal_timer.c ****         ((hal_timer_init_struct *)p_struct)->counter_direction  = TIMER_COUNTER_UP;
 2182              		.loc 1 1100 65
 2183 0064 3B68     		ldr	r3, [r7]
 2184 0066 0022     		movs	r2, #0
 2185 0068 9A80     		strh	r2, [r3, #4]	@ movhi
1101:../firmware/gd32f3x0_hal_peripheral/Source/gd32f3x0_hal_timer.c ****         ((hal_timer_init_struct *)p_struct)->period             = 65535U;
 2186              		.loc 1 1101 65
 2187 006a 3B68     		ldr	r3, [r7]
 2188 006c 4FF6FF72 		movw	r2, #65535
 2189 0070 9A60     		str	r2, [r3, #8]
1102:../firmware/gd32f3x0_hal_peripheral/Source/gd32f3x0_hal_timer.c ****         ((hal_timer_init_struct *)p_struct)->clock_division     = TIMER_CKDIV_DIV1;
 2190              		.loc 1 1102 65
 2191 0072 3B68     		ldr	r3, [r7]
 2192 0074 0022     		movs	r2, #0
 2193 0076 9A81     		strh	r2, [r3, #12]	@ movhi
1103:../firmware/gd32f3x0_hal_peripheral/Source/gd32f3x0_hal_timer.c ****         ((hal_timer_init_struct *)p_struct)->repetition_counter = 0U;
 2194              		.loc 1 1103 65
 2195 0078 3B68     		ldr	r3, [r7]
 2196 007a 0022     		movs	r2, #0
 2197 007c 9A73     		strb	r2, [r3, #14]
1104:../firmware/gd32f3x0_hal_peripheral/Source/gd32f3x0_hal_timer.c ****         ((hal_timer_init_struct *)p_struct)->autoreload_shadow  = TIMER_CARL_SHADOW_DISABLE;
 2198              		.loc 1 1104 65
 2199 007e 3B68     		ldr	r3, [r7]
 2200 0080 0022     		movs	r2, #0
 2201 0082 1A61     		str	r2, [r3, #16]
1105:../firmware/gd32f3x0_hal_peripheral/Source/gd32f3x0_hal_timer.c ****         ((hal_timer_init_struct *)p_struct)->trgo_selection     = TIMER_TRI_OUT_SRC_RESET;
 2202              		.loc 1 1105 65
 2203 0084 3B68     		ldr	r3, [r7]
 2204 0086 0022     		movs	r2, #0
 2205 0088 1A76     		strb	r2, [r3, #24]
1106:../firmware/gd32f3x0_hal_peripheral/Source/gd32f3x0_hal_timer.c ****         ((hal_timer_init_struct *)p_struct)->master_slave_mode  = DISABLE;
 2206              		.loc 1 1106 65
 2207 008a 3B68     		ldr	r3, [r7]
 2208 008c 0022     		movs	r2, #0
 2209 008e 5A61     		str	r2, [r3, #20]
1107:../firmware/gd32f3x0_hal_peripheral/Source/gd32f3x0_hal_timer.c ****         break;
 2210              		.loc 1 1107 9
 2211 0090 40E1     		b	.L92
 2212              	.L90:
1108:../firmware/gd32f3x0_hal_peripheral/Source/gd32f3x0_hal_timer.c ****     case HAL_TIMER_INPUT_CAPTURE_STRUCT:
1109:../firmware/gd32f3x0_hal_peripheral/Source/gd32f3x0_hal_timer.c ****         /* initialize TIMER input capture configuration structure with the default values */
1110:../firmware/gd32f3x0_hal_peripheral/Source/gd32f3x0_hal_timer.c ****         ((hal_timer_input_capture_struct *)p_struct)->ic_polarity     = TIMER_IC_POLARITY_RISING;
 2213              		.loc 1 1110 71
 2214 0092 3B68     		ldr	r3, [r7]
 2215 0094 0022     		movs	r2, #0
 2216 0096 1A80     		strh	r2, [r3]	@ movhi
1111:../firmware/gd32f3x0_hal_peripheral/Source/gd32f3x0_hal_timer.c ****         ((hal_timer_input_capture_struct *)p_struct)->ic_selection    = TIMER_IC_SELECTION_DIRECTTI
 2217              		.loc 1 1111 71
 2218 0098 3B68     		ldr	r3, [r7]
 2219 009a 0122     		movs	r2, #1
 2220 009c 5A80     		strh	r2, [r3, #2]	@ movhi
1112:../firmware/gd32f3x0_hal_peripheral/Source/gd32f3x0_hal_timer.c ****         ((hal_timer_input_capture_struct *)p_struct)->ic_prescaler    = TIMER_IC_PRESCALER_OFF;
 2221              		.loc 1 1112 71
 2222 009e 3B68     		ldr	r3, [r7]
 2223 00a0 0022     		movs	r2, #0
 2224 00a2 9A80     		strh	r2, [r3, #4]	@ movhi
1113:../firmware/gd32f3x0_hal_peripheral/Source/gd32f3x0_hal_timer.c ****         ((hal_timer_input_capture_struct *)p_struct)->ic_filter       = 0U;
 2225              		.loc 1 1113 71
 2226 00a4 3B68     		ldr	r3, [r7]
 2227 00a6 0022     		movs	r2, #0
 2228 00a8 DA80     		strh	r2, [r3, #6]	@ movhi
1114:../firmware/gd32f3x0_hal_peripheral/Source/gd32f3x0_hal_timer.c ****         break;
 2229              		.loc 1 1114 9
 2230 00aa 33E1     		b	.L92
 2231              	.L89:
1115:../firmware/gd32f3x0_hal_peripheral/Source/gd32f3x0_hal_timer.c ****     case HAL_TIMER_OUTPUT_COMPARE_STRUCT:
1116:../firmware/gd32f3x0_hal_peripheral/Source/gd32f3x0_hal_timer.c ****         /* initialize TIMER output compare configuration structure with the default values */
1117:../firmware/gd32f3x0_hal_peripheral/Source/gd32f3x0_hal_timer.c ****         ((hal_timer_output_compare_struct *)p_struct)->compare_mode   = TIMER_OC_MODE_TIMING;
 2232              		.loc 1 1117 71
 2233 00ac 3B68     		ldr	r3, [r7]
 2234 00ae 0022     		movs	r2, #0
 2235 00b0 1A70     		strb	r2, [r3]
1118:../firmware/gd32f3x0_hal_peripheral/Source/gd32f3x0_hal_timer.c ****         ((hal_timer_output_compare_struct *)p_struct)->oc_pulse_value = 0U;
 2236              		.loc 1 1118 71
 2237 00b2 3B68     		ldr	r3, [r7]
 2238 00b4 0022     		movs	r2, #0
 2239 00b6 5A60     		str	r2, [r3, #4]
1119:../firmware/gd32f3x0_hal_peripheral/Source/gd32f3x0_hal_timer.c ****         ((hal_timer_output_compare_struct *)p_struct)->oc_polarity    = TIMER_OC_POLARITY_HIGH;
 2240              		.loc 1 1119 71
 2241 00b8 3B68     		ldr	r3, [r7]
 2242 00ba 0022     		movs	r2, #0
 2243 00bc 1A81     		strh	r2, [r3, #8]	@ movhi
1120:../firmware/gd32f3x0_hal_peripheral/Source/gd32f3x0_hal_timer.c ****         ((hal_timer_output_compare_struct *)p_struct)->oc_idlestate   = TIMER_OC_IDLE_STATE_LOW;
 2244              		.loc 1 1120 71
 2245 00be 3B68     		ldr	r3, [r7]
 2246 00c0 0022     		movs	r2, #0
 2247 00c2 9A81     		strh	r2, [r3, #12]	@ movhi
1121:../firmware/gd32f3x0_hal_peripheral/Source/gd32f3x0_hal_timer.c ****         ((hal_timer_output_compare_struct *)p_struct)->ocn_polarity   = TIMER_OCN_POLARITY_HIGH ;
 2248              		.loc 1 1121 71
 2249 00c4 3B68     		ldr	r3, [r7]
 2250 00c6 0022     		movs	r2, #0
 2251 00c8 5A81     		strh	r2, [r3, #10]	@ movhi
1122:../firmware/gd32f3x0_hal_peripheral/Source/gd32f3x0_hal_timer.c ****         ((hal_timer_output_compare_struct *)p_struct)->ocn_idlestate  = TIMER_OCN_IDLE_STATE_LOW;
 2252              		.loc 1 1122 71
 2253 00ca 3B68     		ldr	r3, [r7]
 2254 00cc 0022     		movs	r2, #0
 2255 00ce DA81     		strh	r2, [r3, #14]	@ movhi
1123:../firmware/gd32f3x0_hal_peripheral/Source/gd32f3x0_hal_timer.c ****         ((hal_timer_output_compare_struct *)p_struct)->oc_shadow      = TIMER_OC_SHADOW_DISABLE;
 2256              		.loc 1 1123 71
 2257 00d0 3B68     		ldr	r3, [r7]
 2258 00d2 0022     		movs	r2, #0
 2259 00d4 1A82     		strh	r2, [r3, #16]	@ movhi
1124:../firmware/gd32f3x0_hal_peripheral/Source/gd32f3x0_hal_timer.c ****         ((hal_timer_output_compare_struct *)p_struct)->oc_fastmode    = TIMER_OC_FAST_DISABLE;
 2260              		.loc 1 1124 71
 2261 00d6 3B68     		ldr	r3, [r7]
 2262 00d8 0022     		movs	r2, #0
 2263 00da 5A82     		strh	r2, [r3, #18]	@ movhi
1125:../firmware/gd32f3x0_hal_peripheral/Source/gd32f3x0_hal_timer.c ****         ((hal_timer_output_compare_struct *)p_struct)->oc_clearmode   = TIMER_OC_CLEAR_DISABLE;
 2264              		.loc 1 1125 71
 2265 00dc 3B68     		ldr	r3, [r7]
 2266 00de 0022     		movs	r2, #0
 2267 00e0 9A82     		strh	r2, [r3, #20]	@ movhi
1126:../firmware/gd32f3x0_hal_peripheral/Source/gd32f3x0_hal_timer.c ****         break;
 2268              		.loc 1 1126 9
 2269 00e2 17E1     		b	.L92
 2270              	.L88:
1127:../firmware/gd32f3x0_hal_peripheral/Source/gd32f3x0_hal_timer.c ****     case HAL_TIMER_BREAK_STRUCT:
1128:../firmware/gd32f3x0_hal_peripheral/Source/gd32f3x0_hal_timer.c ****         /* initialize TIMER break and complementary channel protection configuration structure with
1129:../firmware/gd32f3x0_hal_peripheral/Source/gd32f3x0_hal_timer.c ****         ((hal_timer_break_struct *)p_struct)->run_offstate     = TIMER_ROS_STATE_DISABLE;
 2271              		.loc 1 1129 64
 2272 00e4 3B68     		ldr	r3, [r7]
 2273 00e6 0022     		movs	r2, #0
 2274 00e8 1A80     		strh	r2, [r3]	@ movhi
1130:../firmware/gd32f3x0_hal_peripheral/Source/gd32f3x0_hal_timer.c ****         ((hal_timer_break_struct *)p_struct)->idel_offstate    = TIMER_IOS_STATE_DISABLE;
 2275              		.loc 1 1130 64
 2276 00ea 3B68     		ldr	r3, [r7]
 2277 00ec 0022     		movs	r2, #0
 2278 00ee 5A80     		strh	r2, [r3, #2]	@ movhi
1131:../firmware/gd32f3x0_hal_peripheral/Source/gd32f3x0_hal_timer.c ****         ((hal_timer_break_struct *)p_struct)->dead_time        = 0U;
 2279              		.loc 1 1131 64
 2280 00f0 3B68     		ldr	r3, [r7]
 2281 00f2 0022     		movs	r2, #0
 2282 00f4 9A80     		strh	r2, [r3, #4]	@ movhi
1132:../firmware/gd32f3x0_hal_peripheral/Source/gd32f3x0_hal_timer.c ****         ((hal_timer_break_struct *)p_struct)->break_polarity   = TIMER_BREAK_POLARITY_HIGH;
 2283              		.loc 1 1132 64
 2284 00f6 3B68     		ldr	r3, [r7]
 2285 00f8 4FF40052 		mov	r2, #8192
 2286 00fc DA80     		strh	r2, [r3, #6]	@ movhi
1133:../firmware/gd32f3x0_hal_peripheral/Source/gd32f3x0_hal_timer.c ****         ((hal_timer_break_struct *)p_struct)->output_autostate = TIMER_OUTAUTO_DISABLE;
 2287              		.loc 1 1133 64
 2288 00fe 3B68     		ldr	r3, [r7]
 2289 0100 0022     		movs	r2, #0
 2290 0102 1A81     		strh	r2, [r3, #8]	@ movhi
1134:../firmware/gd32f3x0_hal_peripheral/Source/gd32f3x0_hal_timer.c ****         ((hal_timer_break_struct *)p_struct)->protect_mode     = TIMER_CCHP_PROT_OFF;
 2291              		.loc 1 1134 64
 2292 0104 3B68     		ldr	r3, [r7]
 2293 0106 0022     		movs	r2, #0
 2294 0108 5A81     		strh	r2, [r3, #10]	@ movhi
1135:../firmware/gd32f3x0_hal_peripheral/Source/gd32f3x0_hal_timer.c ****         ((hal_timer_break_struct *)p_struct)->break_state      = TIMER_BREAK_DISABLE;
 2295              		.loc 1 1135 64
 2296 010a 3B68     		ldr	r3, [r7]
 2297 010c 0022     		movs	r2, #0
 2298 010e 9A81     		strh	r2, [r3, #12]	@ movhi
1136:../firmware/gd32f3x0_hal_peripheral/Source/gd32f3x0_hal_timer.c ****         break;
 2299              		.loc 1 1136 9
 2300 0110 00E1     		b	.L92
 2301              	.L87:
1137:../firmware/gd32f3x0_hal_peripheral/Source/gd32f3x0_hal_timer.c ****     case HAL_TIMER_CLEAR_SOURCE_STRUCT:
1138:../firmware/gd32f3x0_hal_peripheral/Source/gd32f3x0_hal_timer.c ****         /* initialize TIMER external trigger ETI configuration structure with the default values */
1139:../firmware/gd32f3x0_hal_peripheral/Source/gd32f3x0_hal_timer.c ****         ((hal_timer_clear_source_struct *)p_struct)->clear_source         = TIMER_OCPRE_CLEAR_SOURC
 2302              		.loc 1 1139 75
 2303 0112 3B68     		ldr	r3, [r7]
 2304 0114 0022     		movs	r2, #0
 2305 0116 1A70     		strb	r2, [r3]
1140:../firmware/gd32f3x0_hal_peripheral/Source/gd32f3x0_hal_timer.c ****         ((hal_timer_clear_source_struct *)p_struct)->exttrigger_polarity  = TIMER_EXT_TRI_POLARITY_
 2306              		.loc 1 1140 75
 2307 0118 3B68     		ldr	r3, [r7]
 2308 011a 0022     		movs	r2, #0
 2309 011c 5A60     		str	r2, [r3, #4]
1141:../firmware/gd32f3x0_hal_peripheral/Source/gd32f3x0_hal_timer.c ****         ((hal_timer_clear_source_struct *)p_struct)->exttrigger_prescaler = TIMER_EXT_TRI_PRESCALER
 2310              		.loc 1 1141 75
 2311 011e 3B68     		ldr	r3, [r7]
 2312 0120 0022     		movs	r2, #0
 2313 0122 9A60     		str	r2, [r3, #8]
1142:../firmware/gd32f3x0_hal_peripheral/Source/gd32f3x0_hal_timer.c ****         ((hal_timer_clear_source_struct *)p_struct)->exttrigger_filter    = 0U;
 2314              		.loc 1 1142 75
 2315 0124 3B68     		ldr	r3, [r7]
 2316 0126 0022     		movs	r2, #0
 2317 0128 DA60     		str	r2, [r3, #12]
1143:../firmware/gd32f3x0_hal_peripheral/Source/gd32f3x0_hal_timer.c ****         break;
 2318              		.loc 1 1143 9
 2319 012a F3E0     		b	.L92
 2320              	.L86:
1144:../firmware/gd32f3x0_hal_peripheral/Source/gd32f3x0_hal_timer.c ****     case HAL_TIMER_CLOCK_SOURCE_STRUCT:
1145:../firmware/gd32f3x0_hal_peripheral/Source/gd32f3x0_hal_timer.c ****         /* initialize TIMER external trigger ETI configuration structure with the default values */
1146:../firmware/gd32f3x0_hal_peripheral/Source/gd32f3x0_hal_timer.c ****         ((hal_timer_clock_source_struct *)p_struct)->clock_source    = TIMER_CLOCK_SOURCE_CK_TIMER;
 2321              		.loc 1 1146 70
 2322 012c 3B68     		ldr	r3, [r7]
 2323 012e 0122     		movs	r2, #1
 2324 0130 1A80     		strh	r2, [r3]	@ movhi
1147:../firmware/gd32f3x0_hal_peripheral/Source/gd32f3x0_hal_timer.c ****         ((hal_timer_clock_source_struct *)p_struct)->clock_polarity  = TIMER_CLOCK_TRIGGER_ETI_POLA
 2325              		.loc 1 1147 70
 2326 0132 3B68     		ldr	r3, [r7]
 2327 0134 0022     		movs	r2, #0
 2328 0136 5A60     		str	r2, [r3, #4]
1148:../firmware/gd32f3x0_hal_peripheral/Source/gd32f3x0_hal_timer.c ****         ((hal_timer_clock_source_struct *)p_struct)->clock_prescaler = TIMER_EXT_TRI_PRESCALER_OFF;
 2329              		.loc 1 1148 70
 2330 0138 3B68     		ldr	r3, [r7]
 2331 013a 0022     		movs	r2, #0
 2332 013c 9A60     		str	r2, [r3, #8]
1149:../firmware/gd32f3x0_hal_peripheral/Source/gd32f3x0_hal_timer.c ****         ((hal_timer_clock_source_struct *)p_struct)->clock_filter    = 0U;
 2333              		.loc 1 1149 70
 2334 013e 3B68     		ldr	r3, [r7]
 2335 0140 0022     		movs	r2, #0
 2336 0142 DA60     		str	r2, [r3, #12]
1150:../firmware/gd32f3x0_hal_peripheral/Source/gd32f3x0_hal_timer.c ****         break;
 2337              		.loc 1 1150 9
 2338 0144 E6E0     		b	.L92
 2339              	.L85:
1151:../firmware/gd32f3x0_hal_peripheral/Source/gd32f3x0_hal_timer.c ****     case HAL_TIMER_SLAVE_MODE_STRUCT:
1152:../firmware/gd32f3x0_hal_peripheral/Source/gd32f3x0_hal_timer.c ****         /* initialize TIMER slave mode configuration structure with the default values */
1153:../firmware/gd32f3x0_hal_peripheral/Source/gd32f3x0_hal_timer.c ****         ((hal_timer_slave_mode_struct *)p_struct)->slavemode         = TIMER_SLAVE_DISABLE_MODE;
 2340              		.loc 1 1153 70
 2341 0146 3B68     		ldr	r3, [r7]
 2342 0148 0022     		movs	r2, #0
 2343 014a 1A70     		strb	r2, [r3]
1154:../firmware/gd32f3x0_hal_peripheral/Source/gd32f3x0_hal_timer.c ****         ((hal_timer_slave_mode_struct *)p_struct)->trigger_selection = TIMER_TRIGGER_SOURCE_ITI0;
 2344              		.loc 1 1154 70
 2345 014c 3B68     		ldr	r3, [r7]
 2346 014e 0022     		movs	r2, #0
 2347 0150 5A70     		strb	r2, [r3, #1]
1155:../firmware/gd32f3x0_hal_peripheral/Source/gd32f3x0_hal_timer.c ****         ((hal_timer_slave_mode_struct *)p_struct)->trigger_polarity  = TIMER_CLOCK_TRIGGER_ETI_POLA
 2348              		.loc 1 1155 70
 2349 0152 3B68     		ldr	r3, [r7]
 2350 0154 0022     		movs	r2, #0
 2351 0156 5A60     		str	r2, [r3, #4]
1156:../firmware/gd32f3x0_hal_peripheral/Source/gd32f3x0_hal_timer.c ****         ((hal_timer_slave_mode_struct *)p_struct)->trigger_prescaler = TIMER_EXT_TRI_PRESCALER_OFF;
 2352              		.loc 1 1156 70
 2353 0158 3B68     		ldr	r3, [r7]
 2354 015a 0022     		movs	r2, #0
 2355 015c 9A60     		str	r2, [r3, #8]
1157:../firmware/gd32f3x0_hal_peripheral/Source/gd32f3x0_hal_timer.c ****         ((hal_timer_slave_mode_struct *)p_struct)->trigger_filter    = 0U;
 2356              		.loc 1 1157 70
 2357 015e 3B68     		ldr	r3, [r7]
 2358 0160 0022     		movs	r2, #0
 2359 0162 DA60     		str	r2, [r3, #12]
1158:../firmware/gd32f3x0_hal_peripheral/Source/gd32f3x0_hal_timer.c ****         break;
 2360              		.loc 1 1158 9
 2361 0164 D6E0     		b	.L92
 2362              	.L84:
1159:../firmware/gd32f3x0_hal_peripheral/Source/gd32f3x0_hal_timer.c ****     case HAL_TIMER_DECODER_STRUCT:
1160:../firmware/gd32f3x0_hal_peripheral/Source/gd32f3x0_hal_timer.c ****         /* initialize TIMER decoder mode configuration structure with the default values */
1161:../firmware/gd32f3x0_hal_peripheral/Source/gd32f3x0_hal_timer.c ****         ((hal_timer_decoder_struct *)p_struct)->decoder_mode  = TIMER_QUADRATURE_DECODER_MODE0;
 2363              		.loc 1 1161 63
 2364 0166 3B68     		ldr	r3, [r7]
 2365 0168 0122     		movs	r2, #1
 2366 016a 1A70     		strb	r2, [r3]
1162:../firmware/gd32f3x0_hal_peripheral/Source/gd32f3x0_hal_timer.c ****         ((hal_timer_decoder_struct *)p_struct)->ci0_polarity  = TIMER_IC_POLARITY_RISING;
 2367              		.loc 1 1162 63
 2368 016c 3B68     		ldr	r3, [r7]
 2369 016e 0022     		movs	r2, #0
 2370 0170 5A80     		strh	r2, [r3, #2]	@ movhi
1163:../firmware/gd32f3x0_hal_peripheral/Source/gd32f3x0_hal_timer.c ****         ((hal_timer_decoder_struct *)p_struct)->ci0_selection = TIMER_IC_SELECTION_DIRECTTI;
 2371              		.loc 1 1163 63
 2372 0172 3B68     		ldr	r3, [r7]
 2373 0174 0122     		movs	r2, #1
 2374 0176 9A80     		strh	r2, [r3, #4]	@ movhi
1164:../firmware/gd32f3x0_hal_peripheral/Source/gd32f3x0_hal_timer.c ****         ((hal_timer_decoder_struct *)p_struct)->ci0_prescaler = TIMER_IC_PRESCALER_OFF;
 2375              		.loc 1 1164 63
 2376 0178 3B68     		ldr	r3, [r7]
 2377 017a 0022     		movs	r2, #0
 2378 017c DA80     		strh	r2, [r3, #6]	@ movhi
1165:../firmware/gd32f3x0_hal_peripheral/Source/gd32f3x0_hal_timer.c ****         ((hal_timer_decoder_struct *)p_struct)->ci0_filter    = 0U;
 2379              		.loc 1 1165 63
 2380 017e 3B68     		ldr	r3, [r7]
 2381 0180 0022     		movs	r2, #0
 2382 0182 1A81     		strh	r2, [r3, #8]	@ movhi
1166:../firmware/gd32f3x0_hal_peripheral/Source/gd32f3x0_hal_timer.c ****         ((hal_timer_decoder_struct *)p_struct)->ci1_polarity  = TIMER_IC_POLARITY_RISING;
 2383              		.loc 1 1166 63
 2384 0184 3B68     		ldr	r3, [r7]
 2385 0186 0022     		movs	r2, #0
 2386 0188 5A81     		strh	r2, [r3, #10]	@ movhi
1167:../firmware/gd32f3x0_hal_peripheral/Source/gd32f3x0_hal_timer.c ****         ((hal_timer_decoder_struct *)p_struct)->ci1_selection = TIMER_IC_SELECTION_DIRECTTI;
 2387              		.loc 1 1167 63
 2388 018a 3B68     		ldr	r3, [r7]
 2389 018c 0122     		movs	r2, #1
 2390 018e 9A81     		strh	r2, [r3, #12]	@ movhi
1168:../firmware/gd32f3x0_hal_peripheral/Source/gd32f3x0_hal_timer.c ****         ((hal_timer_decoder_struct *)p_struct)->ci1_prescaler = TIMER_IC_PRESCALER_OFF;
 2391              		.loc 1 1168 63
 2392 0190 3B68     		ldr	r3, [r7]
 2393 0192 0022     		movs	r2, #0
 2394 0194 DA81     		strh	r2, [r3, #14]	@ movhi
1169:../firmware/gd32f3x0_hal_peripheral/Source/gd32f3x0_hal_timer.c ****         ((hal_timer_decoder_struct *)p_struct)->ci1_filter    = 0U;
 2395              		.loc 1 1169 63
 2396 0196 3B68     		ldr	r3, [r7]
 2397 0198 0022     		movs	r2, #0
 2398 019a 1A82     		strh	r2, [r3, #16]	@ movhi
1170:../firmware/gd32f3x0_hal_peripheral/Source/gd32f3x0_hal_timer.c ****         break;
 2399              		.loc 1 1170 9
 2400 019c BAE0     		b	.L92
 2401              	.L83:
1171:../firmware/gd32f3x0_hal_peripheral/Source/gd32f3x0_hal_timer.c ****     case HAL_TIMER_DECODER_DMA_CONFIG_STRUCT:
1172:../firmware/gd32f3x0_hal_peripheral/Source/gd32f3x0_hal_timer.c ****         /* initialize TIMER decoder mode DMA transfer configuration structure with the default valu
1173:../firmware/gd32f3x0_hal_peripheral/Source/gd32f3x0_hal_timer.c ****         ((hal_timer_decoder_dma_config_struct *)p_struct)->mem_addr0 = NULL;
 2402              		.loc 1 1173 70
 2403 019e 3B68     		ldr	r3, [r7]
 2404 01a0 0022     		movs	r2, #0
 2405 01a2 1A60     		str	r2, [r3]
1174:../firmware/gd32f3x0_hal_peripheral/Source/gd32f3x0_hal_timer.c ****         ((hal_timer_decoder_dma_config_struct *)p_struct)->mem_addr1 = NULL;
 2406              		.loc 1 1174 70
 2407 01a4 3B68     		ldr	r3, [r7]
 2408 01a6 0022     		movs	r2, #0
 2409 01a8 5A60     		str	r2, [r3, #4]
1175:../firmware/gd32f3x0_hal_peripheral/Source/gd32f3x0_hal_timer.c ****         ((hal_timer_decoder_dma_config_struct *)p_struct)->length    = 0U;
 2410              		.loc 1 1175 70
 2411 01aa 3B68     		ldr	r3, [r7]
 2412 01ac 0022     		movs	r2, #0
 2413 01ae 1A81     		strh	r2, [r3, #8]	@ movhi
1176:../firmware/gd32f3x0_hal_peripheral/Source/gd32f3x0_hal_timer.c ****         break;
 2414              		.loc 1 1176 9
 2415 01b0 B0E0     		b	.L92
 2416              	.L82:
1177:../firmware/gd32f3x0_hal_peripheral/Source/gd32f3x0_hal_timer.c ****     case HAL_TIMER_HALL_SENSOR_STRUCT:
1178:../firmware/gd32f3x0_hal_peripheral/Source/gd32f3x0_hal_timer.c ****         /* initialize TIMER HALL sensor mode configuration structure with the default values */
1179:../firmware/gd32f3x0_hal_peripheral/Source/gd32f3x0_hal_timer.c ****         ((hal_timer_hall_sensor_struct *)p_struct)->cmt_delay     = 0U;
 2417              		.loc 1 1179 67
 2418 01b2 3B68     		ldr	r3, [r7]
 2419 01b4 0022     		movs	r2, #0
 2420 01b6 1A60     		str	r2, [r3]
1180:../firmware/gd32f3x0_hal_peripheral/Source/gd32f3x0_hal_timer.c ****         ((hal_timer_hall_sensor_struct *)p_struct)->ci0_polarity  = TIMER_IC_POLARITY_RISING;
 2421              		.loc 1 1180 67
 2422 01b8 3B68     		ldr	r3, [r7]
 2423 01ba 0022     		movs	r2, #0
 2424 01bc 9A80     		strh	r2, [r3, #4]	@ movhi
1181:../firmware/gd32f3x0_hal_peripheral/Source/gd32f3x0_hal_timer.c ****         ((hal_timer_hall_sensor_struct *)p_struct)->ci0_selection = TIMER_IC_SELECTION_ITS;
 2425              		.loc 1 1181 67
 2426 01be 3B68     		ldr	r3, [r7]
 2427 01c0 0322     		movs	r2, #3
 2428 01c2 DA80     		strh	r2, [r3, #6]	@ movhi
1182:../firmware/gd32f3x0_hal_peripheral/Source/gd32f3x0_hal_timer.c ****         ((hal_timer_hall_sensor_struct *)p_struct)->ci0_prescaler = TIMER_IC_PRESCALER_OFF;
 2429              		.loc 1 1182 67
 2430 01c4 3B68     		ldr	r3, [r7]
 2431 01c6 0022     		movs	r2, #0
 2432 01c8 1A81     		strh	r2, [r3, #8]	@ movhi
1183:../firmware/gd32f3x0_hal_peripheral/Source/gd32f3x0_hal_timer.c ****         ((hal_timer_hall_sensor_struct *)p_struct)->ci0_filter    = 0U;
 2433              		.loc 1 1183 67
 2434 01ca 3B68     		ldr	r3, [r7]
 2435 01cc 0022     		movs	r2, #0
 2436 01ce 5A81     		strh	r2, [r3, #10]	@ movhi
1184:../firmware/gd32f3x0_hal_peripheral/Source/gd32f3x0_hal_timer.c ****         break;
 2437              		.loc 1 1184 9
 2438 01d0 A0E0     		b	.L92
 2439              	.L81:
1185:../firmware/gd32f3x0_hal_peripheral/Source/gd32f3x0_hal_timer.c ****     case HAL_TIMER_SINGLE_PULSE_STRUCT:
1186:../firmware/gd32f3x0_hal_peripheral/Source/gd32f3x0_hal_timer.c ****         /* initialize TIMER HALL sensor mode configuration structure with the default values */
1187:../firmware/gd32f3x0_hal_peripheral/Source/gd32f3x0_hal_timer.c ****         ((hal_timer_single_pulse_struct *)p_struct)->sp_compare_mode   = TIMER_OC_MODE_TIMING;
 2440              		.loc 1 1187 72
 2441 01d2 3B68     		ldr	r3, [r7]
 2442 01d4 0022     		movs	r2, #0
 2443 01d6 1A70     		strb	r2, [r3]
1188:../firmware/gd32f3x0_hal_peripheral/Source/gd32f3x0_hal_timer.c ****         ((hal_timer_single_pulse_struct *)p_struct)->sp_oc_pulse_value = 0U;
 2444              		.loc 1 1188 72
 2445 01d8 3B68     		ldr	r3, [r7]
 2446 01da 0022     		movs	r2, #0
 2447 01dc 5A60     		str	r2, [r3, #4]
1189:../firmware/gd32f3x0_hal_peripheral/Source/gd32f3x0_hal_timer.c ****         ((hal_timer_single_pulse_struct *)p_struct)->sp_oc_polarity    = TIMER_OC_POLARITY_HIGH;
 2448              		.loc 1 1189 72
 2449 01de 3B68     		ldr	r3, [r7]
 2450 01e0 0022     		movs	r2, #0
 2451 01e2 1A81     		strh	r2, [r3, #8]	@ movhi
1190:../firmware/gd32f3x0_hal_peripheral/Source/gd32f3x0_hal_timer.c ****         ((hal_timer_single_pulse_struct *)p_struct)->sp_ocn_polarity   = TIMER_OCN_POLARITY_HIGH;
 2452              		.loc 1 1190 72
 2453 01e4 3B68     		ldr	r3, [r7]
 2454 01e6 0022     		movs	r2, #0
 2455 01e8 5A81     		strh	r2, [r3, #10]	@ movhi
1191:../firmware/gd32f3x0_hal_peripheral/Source/gd32f3x0_hal_timer.c ****         ((hal_timer_single_pulse_struct *)p_struct)->sp_oc_idlestate   = TIMER_OC_IDLE_STATE_LOW;
 2456              		.loc 1 1191 72
 2457 01ea 3B68     		ldr	r3, [r7]
 2458 01ec 0022     		movs	r2, #0
 2459 01ee 9A81     		strh	r2, [r3, #12]	@ movhi
1192:../firmware/gd32f3x0_hal_peripheral/Source/gd32f3x0_hal_timer.c ****         ((hal_timer_single_pulse_struct *)p_struct)->sp_ocn_idlestate  = TIMER_OCN_IDLE_STATE_LOW;
 2460              		.loc 1 1192 72
 2461 01f0 3B68     		ldr	r3, [r7]
 2462 01f2 0022     		movs	r2, #0
 2463 01f4 DA81     		strh	r2, [r3, #14]	@ movhi
1193:../firmware/gd32f3x0_hal_peripheral/Source/gd32f3x0_hal_timer.c ****         ((hal_timer_single_pulse_struct *)p_struct)->sp_oc_fastmode    = TIMER_OC_FAST_DISABLE;
 2464              		.loc 1 1193 72
 2465 01f6 3B68     		ldr	r3, [r7]
 2466 01f8 0022     		movs	r2, #0
 2467 01fa 1A82     		strh	r2, [r3, #16]	@ movhi
1194:../firmware/gd32f3x0_hal_peripheral/Source/gd32f3x0_hal_timer.c ****         ((hal_timer_single_pulse_struct *)p_struct)->sp_oc_clearmode   = TIMER_OC_CLEAR_DISABLE;
 2468              		.loc 1 1194 72
 2469 01fc 3B68     		ldr	r3, [r7]
 2470 01fe 0022     		movs	r2, #0
 2471 0200 5A82     		strh	r2, [r3, #18]	@ movhi
1195:../firmware/gd32f3x0_hal_peripheral/Source/gd32f3x0_hal_timer.c ****         ((hal_timer_single_pulse_struct *)p_struct)->sp_ic_polarity    = TIMER_IC_POLARITY_RISING;
 2472              		.loc 1 1195 72
 2473 0202 3B68     		ldr	r3, [r7]
 2474 0204 0022     		movs	r2, #0
 2475 0206 9A82     		strh	r2, [r3, #20]	@ movhi
1196:../firmware/gd32f3x0_hal_peripheral/Source/gd32f3x0_hal_timer.c ****         ((hal_timer_single_pulse_struct *)p_struct)->sp_ic_selection   = TIMER_IC_SELECTION_DIRECTT
 2476              		.loc 1 1196 72
 2477 0208 3B68     		ldr	r3, [r7]
 2478 020a 0122     		movs	r2, #1
 2479 020c DA82     		strh	r2, [r3, #22]	@ movhi
1197:../firmware/gd32f3x0_hal_peripheral/Source/gd32f3x0_hal_timer.c ****         ((hal_timer_single_pulse_struct *)p_struct)->sp_ic_filter      = 0U;
 2480              		.loc 1 1197 72
 2481 020e 3B68     		ldr	r3, [r7]
 2482 0210 0022     		movs	r2, #0
 2483 0212 1A83     		strh	r2, [r3, #24]	@ movhi
1198:../firmware/gd32f3x0_hal_peripheral/Source/gd32f3x0_hal_timer.c ****         break;
 2484              		.loc 1 1198 9
 2485 0214 7EE0     		b	.L92
 2486              	.L80:
1199:../firmware/gd32f3x0_hal_peripheral/Source/gd32f3x0_hal_timer.c ****     case HAL_TIMER_DMA_TRANSFER_CONFIG_STRUCT:
1200:../firmware/gd32f3x0_hal_peripheral/Source/gd32f3x0_hal_timer.c ****         /* initialize TIMER DMA transfer configuration structure with the default values */
1201:../firmware/gd32f3x0_hal_peripheral/Source/gd32f3x0_hal_timer.c ****         ((hal_timer_dma_transfer_config_struct *)p_struct)->start_addr = TIMER_DMA_START_ADDRESS_CT
 2487              		.loc 1 1201 72
 2488 0216 3B68     		ldr	r3, [r7]
 2489 0218 0022     		movs	r2, #0
 2490 021a 1A70     		strb	r2, [r3]
1202:../firmware/gd32f3x0_hal_peripheral/Source/gd32f3x0_hal_timer.c ****         ((hal_timer_dma_transfer_config_struct *)p_struct)->mem_addr   = NULL;
 2491              		.loc 1 1202 72
 2492 021c 3B68     		ldr	r3, [r7]
 2493 021e 0022     		movs	r2, #0
 2494 0220 5A60     		str	r2, [r3, #4]
1203:../firmware/gd32f3x0_hal_peripheral/Source/gd32f3x0_hal_timer.c ****         ((hal_timer_dma_transfer_config_struct *)p_struct)->length     = TIMER_DMACFG_DMATC_1TRANSF
 2495              		.loc 1 1203 72
 2496 0222 3B68     		ldr	r3, [r7]
 2497 0224 0022     		movs	r2, #0
 2498 0226 1A81     		strh	r2, [r3, #8]	@ movhi
1204:../firmware/gd32f3x0_hal_peripheral/Source/gd32f3x0_hal_timer.c ****         break;
 2499              		.loc 1 1204 9
 2500 0228 74E0     		b	.L92
 2501              	.L79:
1205:../firmware/gd32f3x0_hal_peripheral/Source/gd32f3x0_hal_timer.c ****     case HAL_TIMER_IRQ_STRUCT:
1206:../firmware/gd32f3x0_hal_peripheral/Source/gd32f3x0_hal_timer.c ****         /* initialize TIMER interrupt user callback function pointer structure with the default val
1207:../firmware/gd32f3x0_hal_peripheral/Source/gd32f3x0_hal_timer.c ****         ((hal_timer_irq_struct *)p_struct)->update_handle           = NULL;
 2502              		.loc 1 1207 69
 2503 022a 3B68     		ldr	r3, [r7]
 2504 022c 0022     		movs	r2, #0
 2505 022e 1A60     		str	r2, [r3]
1208:../firmware/gd32f3x0_hal_peripheral/Source/gd32f3x0_hal_timer.c ****         ((hal_timer_irq_struct *)p_struct)->channelx_capture_handle = NULL;
 2506              		.loc 1 1208 69
 2507 0230 3B68     		ldr	r3, [r7]
 2508 0232 0022     		movs	r2, #0
 2509 0234 5A60     		str	r2, [r3, #4]
1209:../firmware/gd32f3x0_hal_peripheral/Source/gd32f3x0_hal_timer.c ****         ((hal_timer_irq_struct *)p_struct)->channelx_compare_handle = NULL;
 2510              		.loc 1 1209 69
 2511 0236 3B68     		ldr	r3, [r7]
 2512 0238 0022     		movs	r2, #0
 2513 023a 9A60     		str	r2, [r3, #8]
1210:../firmware/gd32f3x0_hal_peripheral/Source/gd32f3x0_hal_timer.c ****         ((hal_timer_irq_struct *)p_struct)->commutation_handle      = NULL;
 2514              		.loc 1 1210 69
 2515 023c 3B68     		ldr	r3, [r7]
 2516 023e 0022     		movs	r2, #0
 2517 0240 DA60     		str	r2, [r3, #12]
1211:../firmware/gd32f3x0_hal_peripheral/Source/gd32f3x0_hal_timer.c ****         ((hal_timer_irq_struct *)p_struct)->trigger_handle          = NULL;
 2518              		.loc 1 1211 69
 2519 0242 3B68     		ldr	r3, [r7]
 2520 0244 0022     		movs	r2, #0
 2521 0246 1A61     		str	r2, [r3, #16]
1212:../firmware/gd32f3x0_hal_peripheral/Source/gd32f3x0_hal_timer.c ****         ((hal_timer_irq_struct *)p_struct)->break_handle            = NULL;
 2522              		.loc 1 1212 69
 2523 0248 3B68     		ldr	r3, [r7]
 2524 024a 0022     		movs	r2, #0
 2525 024c 5A61     		str	r2, [r3, #20]
1213:../firmware/gd32f3x0_hal_peripheral/Source/gd32f3x0_hal_timer.c ****         break;
 2526              		.loc 1 1213 9
 2527 024e 61E0     		b	.L92
 2528              	.L78:
1214:../firmware/gd32f3x0_hal_peripheral/Source/gd32f3x0_hal_timer.c ****     case HAL_TIMER_DMA_HANDLE_CB_STRUCT:
1215:../firmware/gd32f3x0_hal_peripheral/Source/gd32f3x0_hal_timer.c ****         /* initialize TIMER DMA interrupt user callback function pointer structure with the default
1216:../firmware/gd32f3x0_hal_peripheral/Source/gd32f3x0_hal_timer.c ****         ((hal_timer_dma_handle_cb_struct *)p_struct)->update_dma_full_transcom_handle           = N
 2529              		.loc 1 1216 97
 2530 0250 3B68     		ldr	r3, [r7]
 2531 0252 0022     		movs	r2, #0
 2532 0254 1A60     		str	r2, [r3]
1217:../firmware/gd32f3x0_hal_peripheral/Source/gd32f3x0_hal_timer.c ****         ((hal_timer_dma_handle_cb_struct *)p_struct)->channelx_capture_dma_full_transcom_handle = N
 2533              		.loc 1 1217 97
 2534 0256 3B68     		ldr	r3, [r7]
 2535 0258 0022     		movs	r2, #0
 2536 025a 5A60     		str	r2, [r3, #4]
1218:../firmware/gd32f3x0_hal_peripheral/Source/gd32f3x0_hal_timer.c ****         ((hal_timer_dma_handle_cb_struct *)p_struct)->channelx_compare_dma_full_transcom_handle = N
 2537              		.loc 1 1218 97
 2538 025c 3B68     		ldr	r3, [r7]
 2539 025e 0022     		movs	r2, #0
 2540 0260 9A60     		str	r2, [r3, #8]
1219:../firmware/gd32f3x0_hal_peripheral/Source/gd32f3x0_hal_timer.c ****         ((hal_timer_dma_handle_cb_struct *)p_struct)->commutation_dma_full_transcom_handle      = N
 2541              		.loc 1 1219 97
 2542 0262 3B68     		ldr	r3, [r7]
 2543 0264 0022     		movs	r2, #0
 2544 0266 DA60     		str	r2, [r3, #12]
1220:../firmware/gd32f3x0_hal_peripheral/Source/gd32f3x0_hal_timer.c ****         ((hal_timer_dma_handle_cb_struct *)p_struct)->trigger_dma_full_transcom_handle          = N
 2545              		.loc 1 1220 97
 2546 0268 3B68     		ldr	r3, [r7]
 2547 026a 0022     		movs	r2, #0
 2548 026c 1A61     		str	r2, [r3, #16]
1221:../firmware/gd32f3x0_hal_peripheral/Source/gd32f3x0_hal_timer.c ****         ((hal_timer_dma_handle_cb_struct *)p_struct)->error_handle                              = N
 2549              		.loc 1 1221 97
 2550 026e 3B68     		ldr	r3, [r7]
 2551 0270 0022     		movs	r2, #0
 2552 0272 5A61     		str	r2, [r3, #20]
1222:../firmware/gd32f3x0_hal_peripheral/Source/gd32f3x0_hal_timer.c ****         break;
 2553              		.loc 1 1222 9
 2554 0274 4EE0     		b	.L92
 2555              	.L76:
1223:../firmware/gd32f3x0_hal_peripheral/Source/gd32f3x0_hal_timer.c ****     case HAL_TIMER_DEV_STRUCT:
1224:../firmware/gd32f3x0_hal_peripheral/Source/gd32f3x0_hal_timer.c ****         /* initialize TIMER device information structure with the default values */
1225:../firmware/gd32f3x0_hal_peripheral/Source/gd32f3x0_hal_timer.c ****         ((hal_timer_dev_struct *)p_struct)->periph = 0;
 2556              		.loc 1 1225 52
 2557 0276 3B68     		ldr	r3, [r7]
 2558 0278 0022     		movs	r2, #0
 2559 027a 1A60     		str	r2, [r3]
1226:../firmware/gd32f3x0_hal_peripheral/Source/gd32f3x0_hal_timer.c ****         ((hal_timer_dev_struct *)p_struct)->timer_irq.update_handle                             = N
 2560              		.loc 1 1226 97
 2561 027c 3B68     		ldr	r3, [r7]
 2562 027e 0022     		movs	r2, #0
 2563 0280 9A60     		str	r2, [r3, #8]
1227:../firmware/gd32f3x0_hal_peripheral/Source/gd32f3x0_hal_timer.c ****         ((hal_timer_dev_struct *)p_struct)->timer_irq.channelx_capture_handle                   = N
