   1              		.cpu cortex-m4
   2              		.eabi_attribute 20, 1
   3              		.eabi_attribute 21, 1
   4              		.eabi_attribute 23, 3
   5              		.eabi_attribute 24, 1
   6              		.eabi_attribute 25, 1
   7              		.eabi_attribute 26, 1
   8              		.eabi_attribute 30, 6
   9              		.eabi_attribute 34, 1
  10              		.eabi_attribute 18, 4
  11              		.file	"gd32f3x0_hal_i2c.c"
  12              		.text
  13              	.Ltext0:
  14              		.cfi_sections	.debug_frame
  15              		.section	.text.hal_i2c_struct_init,"ax",%progbits
  16              		.align	1
  17              		.global	hal_i2c_struct_init
  18              		.arch armv7e-m
  19              		.syntax unified
  20              		.thumb
  21              		.thumb_func
  22              		.fpu softvfp
  24              	hal_i2c_struct_init:
  25              	.LFB119:
  26              		.file 1 "../firmware/gd32f3x0_hal_peripheral/Source/gd32f3x0_hal_i2c.c"
   1:../firmware/gd32f3x0_hal_peripheral/Source/gd32f3x0_hal_i2c.c **** /*!
   2:../firmware/gd32f3x0_hal_peripheral/Source/gd32f3x0_hal_i2c.c ****     \file    gd32f3x0_hal_i2c.c
   3:../firmware/gd32f3x0_hal_peripheral/Source/gd32f3x0_hal_i2c.c ****     \brief   I2C driver
   4:../firmware/gd32f3x0_hal_peripheral/Source/gd32f3x0_hal_i2c.c **** 
   5:../firmware/gd32f3x0_hal_peripheral/Source/gd32f3x0_hal_i2c.c ****     \version 2023-08-01, V1.0.0, HAL firmware for GD32F3x0
   6:../firmware/gd32f3x0_hal_peripheral/Source/gd32f3x0_hal_i2c.c **** */
   7:../firmware/gd32f3x0_hal_peripheral/Source/gd32f3x0_hal_i2c.c **** 
   8:../firmware/gd32f3x0_hal_peripheral/Source/gd32f3x0_hal_i2c.c **** /*
   9:../firmware/gd32f3x0_hal_peripheral/Source/gd32f3x0_hal_i2c.c ****     Copyright (c) 2023, GigaDevice Semiconductor Inc.
  10:../firmware/gd32f3x0_hal_peripheral/Source/gd32f3x0_hal_i2c.c **** 
  11:../firmware/gd32f3x0_hal_peripheral/Source/gd32f3x0_hal_i2c.c ****     All rights reserved.
  12:../firmware/gd32f3x0_hal_peripheral/Source/gd32f3x0_hal_i2c.c **** 
  13:../firmware/gd32f3x0_hal_peripheral/Source/gd32f3x0_hal_i2c.c ****     Redistribution and use in source and binary forms, with or without modification,
  14:../firmware/gd32f3x0_hal_peripheral/Source/gd32f3x0_hal_i2c.c **** are permitted provided that the following conditions are met:
  15:../firmware/gd32f3x0_hal_peripheral/Source/gd32f3x0_hal_i2c.c **** 
  16:../firmware/gd32f3x0_hal_peripheral/Source/gd32f3x0_hal_i2c.c ****     1. Redistributions of source code must retain the above copyright notice, this
  17:../firmware/gd32f3x0_hal_peripheral/Source/gd32f3x0_hal_i2c.c ****        list of conditions and the following disclaimer.
  18:../firmware/gd32f3x0_hal_peripheral/Source/gd32f3x0_hal_i2c.c ****     2. Redistributions in binary form must reproduce the above copyright notice,
  19:../firmware/gd32f3x0_hal_peripheral/Source/gd32f3x0_hal_i2c.c ****        this list of conditions and the following disclaimer in the documentation
  20:../firmware/gd32f3x0_hal_peripheral/Source/gd32f3x0_hal_i2c.c ****        and/or other materials provided with the distribution.
  21:../firmware/gd32f3x0_hal_peripheral/Source/gd32f3x0_hal_i2c.c ****     3. Neither the name of the copyright holder nor the names of its contributors
  22:../firmware/gd32f3x0_hal_peripheral/Source/gd32f3x0_hal_i2c.c ****        may be used to endorse or promote products derived from this software without
  23:../firmware/gd32f3x0_hal_peripheral/Source/gd32f3x0_hal_i2c.c ****        specific prior written permission.
  24:../firmware/gd32f3x0_hal_peripheral/Source/gd32f3x0_hal_i2c.c **** 
  25:../firmware/gd32f3x0_hal_peripheral/Source/gd32f3x0_hal_i2c.c ****     THIS SOFTWARE IS PROVIDED BY THE COPYRIGHT HOLDERS AND CONTRIBUTORS "AS IS"
  26:../firmware/gd32f3x0_hal_peripheral/Source/gd32f3x0_hal_i2c.c **** AND ANY EXPRESS OR IMPLIED WARRANTIES, INCLUDING, BUT NOT LIMITED TO, THE IMPLIED
  27:../firmware/gd32f3x0_hal_peripheral/Source/gd32f3x0_hal_i2c.c **** WARRANTIES OF MERCHANTABILITY AND FITNESS FOR A PARTICULAR PURPOSE ARE DISCLAIMED.
  28:../firmware/gd32f3x0_hal_peripheral/Source/gd32f3x0_hal_i2c.c **** IN NO EVENT SHALL THE COPYRIGHT HOLDER OR CONTRIBUTORS BE LIABLE FOR ANY DIRECT,
  29:../firmware/gd32f3x0_hal_peripheral/Source/gd32f3x0_hal_i2c.c **** INDIRECT, INCIDENTAL, SPECIAL, EXEMPLARY, OR CONSEQUENTIAL DAMAGES (INCLUDING, BUT
  30:../firmware/gd32f3x0_hal_peripheral/Source/gd32f3x0_hal_i2c.c **** NOT LIMITED TO, PROCUREMENT OF SUBSTITUTE GOODS OR SERVICES; LOSS OF USE, DATA, OR
  31:../firmware/gd32f3x0_hal_peripheral/Source/gd32f3x0_hal_i2c.c **** PROFITS; OR BUSINESS INTERRUPTION) HOWEVER CAUSED AND ON ANY THEORY OF LIABILITY,
  32:../firmware/gd32f3x0_hal_peripheral/Source/gd32f3x0_hal_i2c.c **** WHETHER IN CONTRACT, STRICT LIABILITY, OR TORT (INCLUDING NEGLIGENCE OR OTHERWISE)
  33:../firmware/gd32f3x0_hal_peripheral/Source/gd32f3x0_hal_i2c.c **** ARISING IN ANY WAY OUT OF THE USE OF THIS SOFTWARE, EVEN IF ADVISED OF THE POSSIBILITY
  34:../firmware/gd32f3x0_hal_peripheral/Source/gd32f3x0_hal_i2c.c **** OF SUCH DAMAGE.
  35:../firmware/gd32f3x0_hal_peripheral/Source/gd32f3x0_hal_i2c.c **** */
  36:../firmware/gd32f3x0_hal_peripheral/Source/gd32f3x0_hal_i2c.c **** 
  37:../firmware/gd32f3x0_hal_peripheral/Source/gd32f3x0_hal_i2c.c **** #include "gd32f3x0_hal.h"
  38:../firmware/gd32f3x0_hal_peripheral/Source/gd32f3x0_hal_i2c.c **** 
  39:../firmware/gd32f3x0_hal_peripheral/Source/gd32f3x0_hal_i2c.c **** #define SLAVE10_FIRST_BYTE(address)         ((0xF0) | (uint8_t)((address & 0x0300U)>>7U))
  40:../firmware/gd32f3x0_hal_peripheral/Source/gd32f3x0_hal_i2c.c **** #define SLAVE10_SECOND_BYTE(address)        ((uint8_t)(address & 0x00FFU))
  41:../firmware/gd32f3x0_hal_peripheral/Source/gd32f3x0_hal_i2c.c **** #define I2C_MEMORY_ADDRESS_MSB(address)     ((uint8_t)((address & 0xFF00U) >> 8U))
  42:../firmware/gd32f3x0_hal_peripheral/Source/gd32f3x0_hal_i2c.c **** #define I2C_MEMORY_ADDRESS_LSB(address)     ((uint8_t)(address & 0x00FFU))
  43:../firmware/gd32f3x0_hal_peripheral/Source/gd32f3x0_hal_i2c.c **** 
  44:../firmware/gd32f3x0_hal_peripheral/Source/gd32f3x0_hal_i2c.c **** /* wait the flag status until timeout */
  45:../firmware/gd32f3x0_hal_peripheral/Source/gd32f3x0_hal_i2c.c **** static int32_t _i2c_wait_flag_timeout(uint32_t i2c_periph, i2c_flag_enum flag, \
  46:../firmware/gd32f3x0_hal_peripheral/Source/gd32f3x0_hal_i2c.c ****                                       FlagStatus status, uint32_t timeout_ms);
  47:../firmware/gd32f3x0_hal_peripheral/Source/gd32f3x0_hal_i2c.c **** 
  48:../firmware/gd32f3x0_hal_peripheral/Source/gd32f3x0_hal_i2c.c **** /* master sends device address for write request */
  49:../firmware/gd32f3x0_hal_peripheral/Source/gd32f3x0_hal_i2c.c **** static int32_t _i2c_master_write(hal_i2c_dev_struct *i2c_dev, uint32_t timeout_ms);
  50:../firmware/gd32f3x0_hal_peripheral/Source/gd32f3x0_hal_i2c.c **** /* event handler in I2C master transmit mode */
  51:../firmware/gd32f3x0_hal_peripheral/Source/gd32f3x0_hal_i2c.c **** static void _i2c_master_transmit_interrupt(void *i2c);
  52:../firmware/gd32f3x0_hal_peripheral/Source/gd32f3x0_hal_i2c.c **** /* DMA full finish handler in I2C master transmit mode */
  53:../firmware/gd32f3x0_hal_peripheral/Source/gd32f3x0_hal_i2c.c **** static void _i2c_transmit_dma(void *dma);
  54:../firmware/gd32f3x0_hal_peripheral/Source/gd32f3x0_hal_i2c.c **** /* handle the I2C DMA error process */
  55:../firmware/gd32f3x0_hal_peripheral/Source/gd32f3x0_hal_i2c.c **** static void _i2c_dma_error(void *dma);
  56:../firmware/gd32f3x0_hal_peripheral/Source/gd32f3x0_hal_i2c.c **** 
  57:../firmware/gd32f3x0_hal_peripheral/Source/gd32f3x0_hal_i2c.c **** /* master sends device address for read request */
  58:../firmware/gd32f3x0_hal_peripheral/Source/gd32f3x0_hal_i2c.c **** static int32_t _i2c_master_read(hal_i2c_dev_struct *i2c_dev, uint32_t timeout_ms);
  59:../firmware/gd32f3x0_hal_peripheral/Source/gd32f3x0_hal_i2c.c **** /* event handler in I2C master receive mode */
  60:../firmware/gd32f3x0_hal_peripheral/Source/gd32f3x0_hal_i2c.c **** static void _i2c_master_receive_interrupt(void *i2c);
  61:../firmware/gd32f3x0_hal_peripheral/Source/gd32f3x0_hal_i2c.c **** /* DMA full finish handler in I2C master receive mode */
  62:../firmware/gd32f3x0_hal_peripheral/Source/gd32f3x0_hal_i2c.c **** static void _i2c_receive_dma(void *dma);
  63:../firmware/gd32f3x0_hal_peripheral/Source/gd32f3x0_hal_i2c.c **** 
  64:../firmware/gd32f3x0_hal_peripheral/Source/gd32f3x0_hal_i2c.c **** /* event handler in I2C slave transmit mode */
  65:../firmware/gd32f3x0_hal_peripheral/Source/gd32f3x0_hal_i2c.c **** static void _i2c_slave_transmit_interrupt(void *i2c);
  66:../firmware/gd32f3x0_hal_peripheral/Source/gd32f3x0_hal_i2c.c **** /* event handler in I2C slave receive mode */
  67:../firmware/gd32f3x0_hal_peripheral/Source/gd32f3x0_hal_i2c.c **** static void _i2c_slave_receive_interrupt(void *i2c);
  68:../firmware/gd32f3x0_hal_peripheral/Source/gd32f3x0_hal_i2c.c **** /* event handler in I2C slave serial receive mode */
  69:../firmware/gd32f3x0_hal_peripheral/Source/gd32f3x0_hal_i2c.c **** static void _i2c_slave_serial_receive_interrupt(void *i2c);
  70:../firmware/gd32f3x0_hal_peripheral/Source/gd32f3x0_hal_i2c.c **** 
  71:../firmware/gd32f3x0_hal_peripheral/Source/gd32f3x0_hal_i2c.c **** /* master sends device address for memory write request */
  72:../firmware/gd32f3x0_hal_peripheral/Source/gd32f3x0_hal_i2c.c **** static int32_t _i2c_memory_write(hal_i2c_dev_struct *i2c_dev, uint32_t timeout_ms);
  73:../firmware/gd32f3x0_hal_peripheral/Source/gd32f3x0_hal_i2c.c **** /* master sends device address for memory read request */
  74:../firmware/gd32f3x0_hal_peripheral/Source/gd32f3x0_hal_i2c.c **** static int32_t _i2c_memory_read(hal_i2c_dev_struct *i2c_dev, uint32_t timeout_ms);
  75:../firmware/gd32f3x0_hal_peripheral/Source/gd32f3x0_hal_i2c.c **** /* event handler of memory write in I2C master mode */
  76:../firmware/gd32f3x0_hal_peripheral/Source/gd32f3x0_hal_i2c.c **** static void _i2c_memmory_write_interrupt(void *i2c);
  77:../firmware/gd32f3x0_hal_peripheral/Source/gd32f3x0_hal_i2c.c **** /* event handler of memory read in I2C master mode */
  78:../firmware/gd32f3x0_hal_peripheral/Source/gd32f3x0_hal_i2c.c **** static void _i2c_memory_read_interrupt(void *i2c);
  79:../firmware/gd32f3x0_hal_peripheral/Source/gd32f3x0_hal_i2c.c **** 
  80:../firmware/gd32f3x0_hal_peripheral/Source/gd32f3x0_hal_i2c.c **** /* event handler for address listen in slave mode */
  81:../firmware/gd32f3x0_hal_peripheral/Source/gd32f3x0_hal_i2c.c **** static void _i2c_address_listen_interrupt(void *i2c);
  82:../firmware/gd32f3x0_hal_peripheral/Source/gd32f3x0_hal_i2c.c **** 
  83:../firmware/gd32f3x0_hal_peripheral/Source/gd32f3x0_hal_i2c.c **** /*!
  84:../firmware/gd32f3x0_hal_peripheral/Source/gd32f3x0_hal_i2c.c ****     \brief      initialize the I2C structure with the default values
  85:../firmware/gd32f3x0_hal_peripheral/Source/gd32f3x0_hal_i2c.c ****     \param[in]  struct_type: refer to hal_i2c_struct_type_enum
  86:../firmware/gd32f3x0_hal_peripheral/Source/gd32f3x0_hal_i2c.c ****     \param[in]  p_struct: pointer to I2C structure that contains the configuration information
  87:../firmware/gd32f3x0_hal_peripheral/Source/gd32f3x0_hal_i2c.c ****     \param[out] none
  88:../firmware/gd32f3x0_hal_peripheral/Source/gd32f3x0_hal_i2c.c ****     \retval     none
  89:../firmware/gd32f3x0_hal_peripheral/Source/gd32f3x0_hal_i2c.c **** */
  90:../firmware/gd32f3x0_hal_peripheral/Source/gd32f3x0_hal_i2c.c **** void hal_i2c_struct_init(hal_i2c_struct_type_enum struct_type, void *p_struct)
  91:../firmware/gd32f3x0_hal_peripheral/Source/gd32f3x0_hal_i2c.c **** {
  27              		.loc 1 91 1
  28              		.cfi_startproc
  29              		@ args = 0, pretend = 0, frame = 8
  30              		@ frame_needed = 1, uses_anonymous_args = 0
  31              		@ link register save eliminated.
  32 0000 80B4     		push	{r7}
  33              		.cfi_def_cfa_offset 4
  34              		.cfi_offset 7, -4
  35 0002 83B0     		sub	sp, sp, #12
  36              		.cfi_def_cfa_offset 16
  37 0004 00AF     		add	r7, sp, #0
  38              		.cfi_def_cfa_register 7
  39 0006 0346     		mov	r3, r0
  40 0008 3960     		str	r1, [r7]
  41 000a FB71     		strb	r3, [r7, #7]
  92:../firmware/gd32f3x0_hal_peripheral/Source/gd32f3x0_hal_i2c.c **** #if (1 == HAL_PARAMETER_CHECK)
  93:../firmware/gd32f3x0_hal_peripheral/Source/gd32f3x0_hal_i2c.c ****     if(NULL == p_struct) {
  94:../firmware/gd32f3x0_hal_peripheral/Source/gd32f3x0_hal_i2c.c ****         HAL_DEBUGE("parameter [*p_struct] value is invalid");
  95:../firmware/gd32f3x0_hal_peripheral/Source/gd32f3x0_hal_i2c.c ****     }
  96:../firmware/gd32f3x0_hal_peripheral/Source/gd32f3x0_hal_i2c.c **** #endif /* 1 == HAL_PARAMETER_CHECK */
  97:../firmware/gd32f3x0_hal_peripheral/Source/gd32f3x0_hal_i2c.c **** 
  98:../firmware/gd32f3x0_hal_peripheral/Source/gd32f3x0_hal_i2c.c ****     switch(struct_type) {
  42              		.loc 1 98 5
  43 000c FB79     		ldrb	r3, [r7, #7]	@ zero_extendqisi2
  44 000e 022B     		cmp	r3, #2
  45 0010 71D0     		beq	.L2
  46 0012 022B     		cmp	r3, #2
  47 0014 75DC     		bgt	.L7
  48 0016 002B     		cmp	r3, #0
  49 0018 02D0     		beq	.L4
  50 001a 012B     		cmp	r3, #1
  51 001c 19D0     		beq	.L5
  99:../firmware/gd32f3x0_hal_peripheral/Source/gd32f3x0_hal_i2c.c ****     case HAL_I2C_INIT_STRUCT:
 100:../firmware/gd32f3x0_hal_peripheral/Source/gd32f3x0_hal_i2c.c ****         /* initialize I2C initialization structure with the default values */
 101:../firmware/gd32f3x0_hal_peripheral/Source/gd32f3x0_hal_i2c.c ****         ((hal_i2c_init_struct *)p_struct)->duty_cycle = I2C_DTCY_2;
 102:../firmware/gd32f3x0_hal_peripheral/Source/gd32f3x0_hal_i2c.c ****         ((hal_i2c_init_struct *)p_struct)->clock_speed = 100000U;
 103:../firmware/gd32f3x0_hal_peripheral/Source/gd32f3x0_hal_i2c.c ****         ((hal_i2c_init_struct *)p_struct)->address_format = I2C_ADDFORMAT_7BITS;
 104:../firmware/gd32f3x0_hal_peripheral/Source/gd32f3x0_hal_i2c.c ****         ((hal_i2c_init_struct *)p_struct)->own_address1 = 0U;
 105:../firmware/gd32f3x0_hal_peripheral/Source/gd32f3x0_hal_i2c.c ****         ((hal_i2c_init_struct *)p_struct)->dual_address = I2C_DUADEN_DISABLE;
 106:../firmware/gd32f3x0_hal_peripheral/Source/gd32f3x0_hal_i2c.c ****         ((hal_i2c_init_struct *)p_struct)->own_address2 = 0U;
 107:../firmware/gd32f3x0_hal_peripheral/Source/gd32f3x0_hal_i2c.c ****         ((hal_i2c_init_struct *)p_struct)->general_call = I2C_GCEN_DISABLE;
 108:../firmware/gd32f3x0_hal_peripheral/Source/gd32f3x0_hal_i2c.c ****         ((hal_i2c_init_struct *)p_struct)->no_stretch = I2C_SCLSTRETCH_DISABLE;
 109:../firmware/gd32f3x0_hal_peripheral/Source/gd32f3x0_hal_i2c.c ****         break;
 110:../firmware/gd32f3x0_hal_peripheral/Source/gd32f3x0_hal_i2c.c ****     case HAL_I2C_DEV_STRUCT:
 111:../firmware/gd32f3x0_hal_peripheral/Source/gd32f3x0_hal_i2c.c ****         /* initialize I2C device information structure with the default values */
 112:../firmware/gd32f3x0_hal_peripheral/Source/gd32f3x0_hal_i2c.c ****         ((hal_i2c_dev_struct *)p_struct)->periph = 0;
 113:../firmware/gd32f3x0_hal_peripheral/Source/gd32f3x0_hal_i2c.c ****         ((hal_i2c_dev_struct *)p_struct)->i2c_irq.error_handle = NULL;
 114:../firmware/gd32f3x0_hal_peripheral/Source/gd32f3x0_hal_i2c.c ****         ((hal_i2c_dev_struct *)p_struct)->i2c_irq.event_handle = NULL;
 115:../firmware/gd32f3x0_hal_peripheral/Source/gd32f3x0_hal_i2c.c ****         ((hal_i2c_dev_struct *)p_struct)->p_dma_rx = NULL;
 116:../firmware/gd32f3x0_hal_peripheral/Source/gd32f3x0_hal_i2c.c ****         ((hal_i2c_dev_struct *)p_struct)->p_dma_tx = NULL;
 117:../firmware/gd32f3x0_hal_peripheral/Source/gd32f3x0_hal_i2c.c ****         ((hal_i2c_dev_struct *)p_struct)->txbuffer.buffer = NULL;
 118:../firmware/gd32f3x0_hal_peripheral/Source/gd32f3x0_hal_i2c.c ****         ((hal_i2c_dev_struct *)p_struct)->txbuffer.length = 0U;
 119:../firmware/gd32f3x0_hal_peripheral/Source/gd32f3x0_hal_i2c.c ****         ((hal_i2c_dev_struct *)p_struct)->txbuffer.pos = 0U;
 120:../firmware/gd32f3x0_hal_peripheral/Source/gd32f3x0_hal_i2c.c ****         ((hal_i2c_dev_struct *)p_struct)->rxbuffer.buffer = NULL;
 121:../firmware/gd32f3x0_hal_peripheral/Source/gd32f3x0_hal_i2c.c ****         ((hal_i2c_dev_struct *)p_struct)->rxbuffer.length = 0U;
 122:../firmware/gd32f3x0_hal_peripheral/Source/gd32f3x0_hal_i2c.c ****         ((hal_i2c_dev_struct *)p_struct)->rxbuffer.pos = 0U;
 123:../firmware/gd32f3x0_hal_peripheral/Source/gd32f3x0_hal_i2c.c ****         ((hal_i2c_dev_struct *)p_struct)->rxbuffer.pos = 0U;
 124:../firmware/gd32f3x0_hal_peripheral/Source/gd32f3x0_hal_i2c.c ****         ((hal_i2c_dev_struct *)p_struct)->error_state = HAL_I2C_ERROR_NONE;
 125:../firmware/gd32f3x0_hal_peripheral/Source/gd32f3x0_hal_i2c.c ****         ((hal_i2c_dev_struct *)p_struct)->tx_state = HAL_I2C_STATE_READY;
 126:../firmware/gd32f3x0_hal_peripheral/Source/gd32f3x0_hal_i2c.c ****         ((hal_i2c_dev_struct *)p_struct)->rx_state = HAL_I2C_STATE_READY;
 127:../firmware/gd32f3x0_hal_peripheral/Source/gd32f3x0_hal_i2c.c ****         ((hal_i2c_dev_struct *)p_struct)->previous_state = HAL_I2C_PREVIOUS_STATE_NONE;
 128:../firmware/gd32f3x0_hal_peripheral/Source/gd32f3x0_hal_i2c.c ****         ((hal_i2c_dev_struct *)p_struct)->last_error = HAL_I2C_ERROR_NONE;
 129:../firmware/gd32f3x0_hal_peripheral/Source/gd32f3x0_hal_i2c.c ****         ((hal_i2c_dev_struct *)p_struct)->slave_address.device_address = 0U;
 130:../firmware/gd32f3x0_hal_peripheral/Source/gd32f3x0_hal_i2c.c ****         ((hal_i2c_dev_struct *)p_struct)->slave_address.memory_address = 0U;
 131:../firmware/gd32f3x0_hal_peripheral/Source/gd32f3x0_hal_i2c.c ****         ((hal_i2c_dev_struct *)p_struct)->slave_address.address_size = I2C_MEMORY_ADDRESS_8BIT;
 132:../firmware/gd32f3x0_hal_peripheral/Source/gd32f3x0_hal_i2c.c ****         ((hal_i2c_dev_struct *)p_struct)->slave_address.address_complete = RESET;
 133:../firmware/gd32f3x0_hal_peripheral/Source/gd32f3x0_hal_i2c.c ****         ((hal_i2c_dev_struct *)p_struct)->slave_address.address_count = 0U;
 134:../firmware/gd32f3x0_hal_peripheral/Source/gd32f3x0_hal_i2c.c ****         ((hal_i2c_dev_struct *)p_struct)->slave_address.second_addressing = RESET;
 135:../firmware/gd32f3x0_hal_peripheral/Source/gd32f3x0_hal_i2c.c ****         ((hal_i2c_dev_struct *)p_struct)->transfer_option = I2C_NO_OPTION_TRANSFER;
 136:../firmware/gd32f3x0_hal_peripheral/Source/gd32f3x0_hal_i2c.c ****         ((hal_i2c_dev_struct *)p_struct)->mutex = HAL_MUTEX_UNLOCKED;
 137:../firmware/gd32f3x0_hal_peripheral/Source/gd32f3x0_hal_i2c.c ****         break;
 138:../firmware/gd32f3x0_hal_peripheral/Source/gd32f3x0_hal_i2c.c ****     case HAL_I2C_IRQ_STRUCT:
 139:../firmware/gd32f3x0_hal_peripheral/Source/gd32f3x0_hal_i2c.c ****         /* initialize I2C irq structure with the default values */
 140:../firmware/gd32f3x0_hal_peripheral/Source/gd32f3x0_hal_i2c.c ****         ((hal_i2c_irq_struct *)p_struct)->error_handle = NULL;
 141:../firmware/gd32f3x0_hal_peripheral/Source/gd32f3x0_hal_i2c.c ****         ((hal_i2c_irq_struct *)p_struct)->event_handle = NULL;
 142:../firmware/gd32f3x0_hal_peripheral/Source/gd32f3x0_hal_i2c.c ****     default:
 143:../firmware/gd32f3x0_hal_peripheral/Source/gd32f3x0_hal_i2c.c ****         HAL_DEBUGW("parameter [hal_struct_type] value is undefine");
 144:../firmware/gd32f3x0_hal_peripheral/Source/gd32f3x0_hal_i2c.c ****         break;
  52              		.loc 1 144 9
  53 001e 70E0     		b	.L7
  54              	.L4:
 101:../firmware/gd32f3x0_hal_peripheral/Source/gd32f3x0_hal_i2c.c ****         ((hal_i2c_init_struct *)p_struct)->clock_speed = 100000U;
  55              		.loc 1 101 55
  56 0020 3B68     		ldr	r3, [r7]
  57 0022 0022     		movs	r2, #0
  58 0024 5A60     		str	r2, [r3, #4]
 102:../firmware/gd32f3x0_hal_peripheral/Source/gd32f3x0_hal_i2c.c ****         ((hal_i2c_init_struct *)p_struct)->address_format = I2C_ADDFORMAT_7BITS;
  59              		.loc 1 102 56
  60 0026 3B68     		ldr	r3, [r7]
  61 0028 394A     		ldr	r2, .L8
  62 002a 1A60     		str	r2, [r3]
 103:../firmware/gd32f3x0_hal_peripheral/Source/gd32f3x0_hal_i2c.c ****         ((hal_i2c_init_struct *)p_struct)->own_address1 = 0U;
  63              		.loc 1 103 59
  64 002c 3B68     		ldr	r3, [r7]
  65 002e 0022     		movs	r2, #0
  66 0030 9A60     		str	r2, [r3, #8]
 104:../firmware/gd32f3x0_hal_peripheral/Source/gd32f3x0_hal_i2c.c ****         ((hal_i2c_init_struct *)p_struct)->dual_address = I2C_DUADEN_DISABLE;
  67              		.loc 1 104 57
  68 0032 3B68     		ldr	r3, [r7]
  69 0034 0022     		movs	r2, #0
  70 0036 DA60     		str	r2, [r3, #12]
 105:../firmware/gd32f3x0_hal_peripheral/Source/gd32f3x0_hal_i2c.c ****         ((hal_i2c_init_struct *)p_struct)->own_address2 = 0U;
  71              		.loc 1 105 57
  72 0038 3B68     		ldr	r3, [r7]
  73 003a 0022     		movs	r2, #0
  74 003c 1A61     		str	r2, [r3, #16]
 106:../firmware/gd32f3x0_hal_peripheral/Source/gd32f3x0_hal_i2c.c ****         ((hal_i2c_init_struct *)p_struct)->general_call = I2C_GCEN_DISABLE;
  75              		.loc 1 106 57
  76 003e 3B68     		ldr	r3, [r7]
  77 0040 0022     		movs	r2, #0
  78 0042 5A61     		str	r2, [r3, #20]
 107:../firmware/gd32f3x0_hal_peripheral/Source/gd32f3x0_hal_i2c.c ****         ((hal_i2c_init_struct *)p_struct)->no_stretch = I2C_SCLSTRETCH_DISABLE;
  79              		.loc 1 107 57
  80 0044 3B68     		ldr	r3, [r7]
  81 0046 0022     		movs	r2, #0
  82 0048 9A61     		str	r2, [r3, #24]
 108:../firmware/gd32f3x0_hal_peripheral/Source/gd32f3x0_hal_i2c.c ****         break;
  83              		.loc 1 108 55
  84 004a 3B68     		ldr	r3, [r7]
  85 004c 8022     		movs	r2, #128
  86 004e DA61     		str	r2, [r3, #28]
 109:../firmware/gd32f3x0_hal_peripheral/Source/gd32f3x0_hal_i2c.c ****     case HAL_I2C_DEV_STRUCT:
  87              		.loc 1 109 9
  88 0050 58E0     		b	.L6
  89              	.L5:
 112:../firmware/gd32f3x0_hal_peripheral/Source/gd32f3x0_hal_i2c.c ****         ((hal_i2c_dev_struct *)p_struct)->i2c_irq.error_handle = NULL;
  90              		.loc 1 112 50
  91 0052 3B68     		ldr	r3, [r7]
  92 0054 0022     		movs	r2, #0
  93 0056 1A60     		str	r2, [r3]
 113:../firmware/gd32f3x0_hal_peripheral/Source/gd32f3x0_hal_i2c.c ****         ((hal_i2c_dev_struct *)p_struct)->i2c_irq.event_handle = NULL;
  94              		.loc 1 113 64
  95 0058 3B68     		ldr	r3, [r7]
  96 005a 0022     		movs	r2, #0
  97 005c 9A60     		str	r2, [r3, #8]
 114:../firmware/gd32f3x0_hal_peripheral/Source/gd32f3x0_hal_i2c.c ****         ((hal_i2c_dev_struct *)p_struct)->p_dma_rx = NULL;
  98              		.loc 1 114 64
  99 005e 3B68     		ldr	r3, [r7]
 100 0060 0022     		movs	r2, #0
 101 0062 5A60     		str	r2, [r3, #4]
 115:../firmware/gd32f3x0_hal_peripheral/Source/gd32f3x0_hal_i2c.c ****         ((hal_i2c_dev_struct *)p_struct)->p_dma_tx = NULL;
 102              		.loc 1 115 52
 103 0064 3B68     		ldr	r3, [r7]
 104 0066 0022     		movs	r2, #0
 105 0068 DA60     		str	r2, [r3, #12]
 116:../firmware/gd32f3x0_hal_peripheral/Source/gd32f3x0_hal_i2c.c ****         ((hal_i2c_dev_struct *)p_struct)->txbuffer.buffer = NULL;
 106              		.loc 1 116 52
 107 006a 3B68     		ldr	r3, [r7]
 108 006c 0022     		movs	r2, #0
 109 006e 1A61     		str	r2, [r3, #16]
 117:../firmware/gd32f3x0_hal_peripheral/Source/gd32f3x0_hal_i2c.c ****         ((hal_i2c_dev_struct *)p_struct)->txbuffer.length = 0U;
 110              		.loc 1 117 59
 111 0070 3B68     		ldr	r3, [r7]
 112 0072 0022     		movs	r2, #0
 113 0074 5A61     		str	r2, [r3, #20]
 118:../firmware/gd32f3x0_hal_peripheral/Source/gd32f3x0_hal_i2c.c ****         ((hal_i2c_dev_struct *)p_struct)->txbuffer.pos = 0U;
 114              		.loc 1 118 59
 115 0076 3B68     		ldr	r3, [r7]
 116 0078 0022     		movs	r2, #0
 117 007a 9A61     		str	r2, [r3, #24]
 119:../firmware/gd32f3x0_hal_peripheral/Source/gd32f3x0_hal_i2c.c ****         ((hal_i2c_dev_struct *)p_struct)->rxbuffer.buffer = NULL;
 118              		.loc 1 119 56
 119 007c 3B68     		ldr	r3, [r7]
 120 007e 0022     		movs	r2, #0
 121 0080 DA61     		str	r2, [r3, #28]
 120:../firmware/gd32f3x0_hal_peripheral/Source/gd32f3x0_hal_i2c.c ****         ((hal_i2c_dev_struct *)p_struct)->rxbuffer.length = 0U;
 122              		.loc 1 120 59
 123 0082 3B68     		ldr	r3, [r7]
 124 0084 0022     		movs	r2, #0
 125 0086 1A62     		str	r2, [r3, #32]
 121:../firmware/gd32f3x0_hal_peripheral/Source/gd32f3x0_hal_i2c.c ****         ((hal_i2c_dev_struct *)p_struct)->rxbuffer.pos = 0U;
 126              		.loc 1 121 59
 127 0088 3B68     		ldr	r3, [r7]
 128 008a 0022     		movs	r2, #0
 129 008c 5A62     		str	r2, [r3, #36]
 122:../firmware/gd32f3x0_hal_peripheral/Source/gd32f3x0_hal_i2c.c ****         ((hal_i2c_dev_struct *)p_struct)->rxbuffer.pos = 0U;
 130              		.loc 1 122 56
 131 008e 3B68     		ldr	r3, [r7]
 132 0090 0022     		movs	r2, #0
 133 0092 9A62     		str	r2, [r3, #40]
 123:../firmware/gd32f3x0_hal_peripheral/Source/gd32f3x0_hal_i2c.c ****         ((hal_i2c_dev_struct *)p_struct)->error_state = HAL_I2C_ERROR_NONE;
 134              		.loc 1 123 56
 135 0094 3B68     		ldr	r3, [r7]
 136 0096 0022     		movs	r2, #0
 137 0098 9A62     		str	r2, [r3, #40]
 124:../firmware/gd32f3x0_hal_peripheral/Source/gd32f3x0_hal_i2c.c ****         ((hal_i2c_dev_struct *)p_struct)->tx_state = HAL_I2C_STATE_READY;
 138              		.loc 1 124 55
 139 009a 3B68     		ldr	r3, [r7]
 140 009c 0022     		movs	r2, #0
 141 009e DA63     		str	r2, [r3, #60]
 125:../firmware/gd32f3x0_hal_peripheral/Source/gd32f3x0_hal_i2c.c ****         ((hal_i2c_dev_struct *)p_struct)->rx_state = HAL_I2C_STATE_READY;
 142              		.loc 1 125 52
 143 00a0 3B68     		ldr	r3, [r7]
 144 00a2 0022     		movs	r2, #0
 145 00a4 83F84020 		strb	r2, [r3, #64]
 126:../firmware/gd32f3x0_hal_peripheral/Source/gd32f3x0_hal_i2c.c ****         ((hal_i2c_dev_struct *)p_struct)->previous_state = HAL_I2C_PREVIOUS_STATE_NONE;
 146              		.loc 1 126 52
 147 00a8 3B68     		ldr	r3, [r7]
 148 00aa 0022     		movs	r2, #0
 149 00ac 83F84120 		strb	r2, [r3, #65]
 127:../firmware/gd32f3x0_hal_peripheral/Source/gd32f3x0_hal_i2c.c ****         ((hal_i2c_dev_struct *)p_struct)->last_error = HAL_I2C_ERROR_NONE;
 150              		.loc 1 127 58
 151 00b0 3B68     		ldr	r3, [r7]
 152 00b2 0022     		movs	r2, #0
 153 00b4 5A64     		str	r2, [r3, #68]
 128:../firmware/gd32f3x0_hal_peripheral/Source/gd32f3x0_hal_i2c.c ****         ((hal_i2c_dev_struct *)p_struct)->slave_address.device_address = 0U;
 154              		.loc 1 128 54
 155 00b6 3B68     		ldr	r3, [r7]
 156 00b8 0022     		movs	r2, #0
 157 00ba 5A87     		strh	r2, [r3, #58]	@ movhi
 129:../firmware/gd32f3x0_hal_peripheral/Source/gd32f3x0_hal_i2c.c ****         ((hal_i2c_dev_struct *)p_struct)->slave_address.memory_address = 0U;
 158              		.loc 1 129 72
 159 00bc 3B68     		ldr	r3, [r7]
 160 00be 0022     		movs	r2, #0
 161 00c0 DA62     		str	r2, [r3, #44]
 130:../firmware/gd32f3x0_hal_peripheral/Source/gd32f3x0_hal_i2c.c ****         ((hal_i2c_dev_struct *)p_struct)->slave_address.address_size = I2C_MEMORY_ADDRESS_8BIT;
 162              		.loc 1 130 72
 163 00c2 3B68     		ldr	r3, [r7]
 164 00c4 0022     		movs	r2, #0
 165 00c6 1A86     		strh	r2, [r3, #48]	@ movhi
 131:../firmware/gd32f3x0_hal_peripheral/Source/gd32f3x0_hal_i2c.c ****         ((hal_i2c_dev_struct *)p_struct)->slave_address.address_complete = RESET;
 166              		.loc 1 131 70
 167 00c8 3B68     		ldr	r3, [r7]
 168 00ca 0022     		movs	r2, #0
 169 00cc 5A86     		strh	r2, [r3, #50]	@ movhi
 132:../firmware/gd32f3x0_hal_peripheral/Source/gd32f3x0_hal_i2c.c ****         ((hal_i2c_dev_struct *)p_struct)->slave_address.address_count = 0U;
 170              		.loc 1 132 74
 171 00ce 3B68     		ldr	r3, [r7]
 172 00d0 0022     		movs	r2, #0
 173 00d2 83F83420 		strb	r2, [r3, #52]
 133:../firmware/gd32f3x0_hal_peripheral/Source/gd32f3x0_hal_i2c.c ****         ((hal_i2c_dev_struct *)p_struct)->slave_address.second_addressing = RESET;
 174              		.loc 1 133 71
 175 00d6 3B68     		ldr	r3, [r7]
 176 00d8 0022     		movs	r2, #0
 177 00da 83F83520 		strb	r2, [r3, #53]
 134:../firmware/gd32f3x0_hal_peripheral/Source/gd32f3x0_hal_i2c.c ****         ((hal_i2c_dev_struct *)p_struct)->transfer_option = I2C_NO_OPTION_TRANSFER;
 178              		.loc 1 134 75
 179 00de 3B68     		ldr	r3, [r7]
 180 00e0 0022     		movs	r2, #0
 181 00e2 83F83620 		strb	r2, [r3, #54]
 135:../firmware/gd32f3x0_hal_peripheral/Source/gd32f3x0_hal_i2c.c ****         ((hal_i2c_dev_struct *)p_struct)->mutex = HAL_MUTEX_UNLOCKED;
 182              		.loc 1 135 59
 183 00e6 3B68     		ldr	r3, [r7]
 184 00e8 0122     		movs	r2, #1
 185 00ea 1A87     		strh	r2, [r3, #56]	@ movhi
 136:../firmware/gd32f3x0_hal_peripheral/Source/gd32f3x0_hal_i2c.c ****         break;
 186              		.loc 1 136 49
 187 00ec 3B68     		ldr	r3, [r7]
 188 00ee 0022     		movs	r2, #0
 189 00f0 83F85020 		strb	r2, [r3, #80]
 137:../firmware/gd32f3x0_hal_peripheral/Source/gd32f3x0_hal_i2c.c ****     case HAL_I2C_IRQ_STRUCT:
 190              		.loc 1 137 9
 191 00f4 06E0     		b	.L6
 192              	.L2:
 140:../firmware/gd32f3x0_hal_peripheral/Source/gd32f3x0_hal_i2c.c ****         ((hal_i2c_irq_struct *)p_struct)->event_handle = NULL;
 193              		.loc 1 140 56
 194 00f6 3B68     		ldr	r3, [r7]
 195 00f8 0022     		movs	r2, #0
 196 00fa 5A60     		str	r2, [r3, #4]
 141:../firmware/gd32f3x0_hal_peripheral/Source/gd32f3x0_hal_i2c.c ****     default:
 197              		.loc 1 141 56
 198 00fc 3B68     		ldr	r3, [r7]
 199 00fe 0022     		movs	r2, #0
 200 0100 1A60     		str	r2, [r3]
 201              	.L7:
 202              		.loc 1 144 9
 203 0102 00BF     		nop
 204              	.L6:
 145:../firmware/gd32f3x0_hal_peripheral/Source/gd32f3x0_hal_i2c.c ****     }
 146:../firmware/gd32f3x0_hal_peripheral/Source/gd32f3x0_hal_i2c.c **** }
 205              		.loc 1 146 1
 206 0104 00BF     		nop
 207 0106 0C37     		adds	r7, r7, #12
 208              		.cfi_def_cfa_offset 4
 209 0108 BD46     		mov	sp, r7
 210              		.cfi_def_cfa_register 13
 211              		@ sp needed
 212 010a 80BC     		pop	{r7}
 213              		.cfi_restore 7
 214              		.cfi_def_cfa_offset 0
 215 010c 7047     		bx	lr
 216              	.L9:
 217 010e 00BF     		.align	2
 218              	.L8:
 219 0110 A0860100 		.word	100000
 220              		.cfi_endproc
 221              	.LFE119:
 223              		.section	.text.hal_i2c_deinit,"ax",%progbits
 224              		.align	1
 225              		.global	hal_i2c_deinit
 226              		.syntax unified
 227              		.thumb
 228              		.thumb_func
 229              		.fpu softvfp
 231              	hal_i2c_deinit:
 232              	.LFB120:
 147:../firmware/gd32f3x0_hal_peripheral/Source/gd32f3x0_hal_i2c.c **** 
 148:../firmware/gd32f3x0_hal_peripheral/Source/gd32f3x0_hal_i2c.c **** /*!
 149:../firmware/gd32f3x0_hal_peripheral/Source/gd32f3x0_hal_i2c.c ****     \brief      deinitialize I2C
 150:../firmware/gd32f3x0_hal_peripheral/Source/gd32f3x0_hal_i2c.c ****     \param[in]  i2c_dev: I2C device information structrue
 151:../firmware/gd32f3x0_hal_peripheral/Source/gd32f3x0_hal_i2c.c ****                   the structure is not necessary to be reconfigured after structrue initialization,
 152:../firmware/gd32f3x0_hal_peripheral/Source/gd32f3x0_hal_i2c.c ****                   the structure parameters altering is automatically configured by core
 153:../firmware/gd32f3x0_hal_peripheral/Source/gd32f3x0_hal_i2c.c ****     \param[out] none
 154:../firmware/gd32f3x0_hal_peripheral/Source/gd32f3x0_hal_i2c.c ****     \retval     none
 155:../firmware/gd32f3x0_hal_peripheral/Source/gd32f3x0_hal_i2c.c **** */
 156:../firmware/gd32f3x0_hal_peripheral/Source/gd32f3x0_hal_i2c.c **** void hal_i2c_deinit(hal_i2c_dev_struct *i2c_dev)
 157:../firmware/gd32f3x0_hal_peripheral/Source/gd32f3x0_hal_i2c.c **** {
 233              		.loc 1 157 1
 234              		.cfi_startproc
 235              		@ args = 0, pretend = 0, frame = 16
 236              		@ frame_needed = 1, uses_anonymous_args = 0
 237 0000 80B5     		push	{r7, lr}
 238              		.cfi_def_cfa_offset 8
 239              		.cfi_offset 7, -8
 240              		.cfi_offset 14, -4
 241 0002 84B0     		sub	sp, sp, #16
 242              		.cfi_def_cfa_offset 24
 243 0004 00AF     		add	r7, sp, #0
 244              		.cfi_def_cfa_register 7
 245 0006 7860     		str	r0, [r7, #4]
 158:../firmware/gd32f3x0_hal_peripheral/Source/gd32f3x0_hal_i2c.c ****     uint32_t periph;
 159:../firmware/gd32f3x0_hal_peripheral/Source/gd32f3x0_hal_i2c.c **** #if (1 == HAL_PARAMETER_CHECK)
 160:../firmware/gd32f3x0_hal_peripheral/Source/gd32f3x0_hal_i2c.c ****     /* check the parameters */
 161:../firmware/gd32f3x0_hal_peripheral/Source/gd32f3x0_hal_i2c.c ****     if(NULL == i2c_dev) {
 162:../firmware/gd32f3x0_hal_peripheral/Source/gd32f3x0_hal_i2c.c ****         HAL_DEBUGE("pointer [i2c_dev] address is invalid");
 163:../firmware/gd32f3x0_hal_peripheral/Source/gd32f3x0_hal_i2c.c ****     }
 164:../firmware/gd32f3x0_hal_peripheral/Source/gd32f3x0_hal_i2c.c **** #endif /* 1 = HAL_PARAMETER_CHECK */
 165:../firmware/gd32f3x0_hal_peripheral/Source/gd32f3x0_hal_i2c.c **** 
 166:../firmware/gd32f3x0_hal_peripheral/Source/gd32f3x0_hal_i2c.c ****     periph = i2c_dev->periph;
 246              		.loc 1 166 12
 247 0008 7B68     		ldr	r3, [r7, #4]
 248 000a 1B68     		ldr	r3, [r3]
 249 000c FB60     		str	r3, [r7, #12]
 167:../firmware/gd32f3x0_hal_peripheral/Source/gd32f3x0_hal_i2c.c ****     if(I2C0 == periph) {
 250              		.loc 1 167 7
 251 000e FB68     		ldr	r3, [r7, #12]
 252 0010 144A     		ldr	r2, .L14
 253 0012 9342     		cmp	r3, r2
 254 0014 0FD1     		bne	.L11
 168:../firmware/gd32f3x0_hal_peripheral/Source/gd32f3x0_hal_i2c.c ****         hal_rcu_periph_reset_enable(RCU_I2C0RST);
 255              		.loc 1 168 9
 256 0016 40F21540 		movw	r0, #1045
 257 001a FFF7FEFF 		bl	hal_rcu_periph_reset_enable
 169:../firmware/gd32f3x0_hal_peripheral/Source/gd32f3x0_hal_i2c.c ****         hal_rcu_periph_reset_disable(RCU_I2C0RST);
 258              		.loc 1 169 9
 259 001e 40F21540 		movw	r0, #1045
 260 0022 FFF7FEFF 		bl	hal_rcu_periph_reset_disable
 170:../firmware/gd32f3x0_hal_peripheral/Source/gd32f3x0_hal_i2c.c **** 
 171:../firmware/gd32f3x0_hal_peripheral/Source/gd32f3x0_hal_i2c.c ****         hal_i2c_struct_init(HAL_I2C_DEV_STRUCT, i2c_dev);
 261              		.loc 1 171 9
 262 0026 7968     		ldr	r1, [r7, #4]
 263 0028 0120     		movs	r0, #1
 264 002a FFF7FEFF 		bl	hal_i2c_struct_init
 172:../firmware/gd32f3x0_hal_peripheral/Source/gd32f3x0_hal_i2c.c ****         i2c_dev->periph = periph;
 265              		.loc 1 172 25
 266 002e 7B68     		ldr	r3, [r7, #4]
 267 0030 FA68     		ldr	r2, [r7, #12]
 268 0032 1A60     		str	r2, [r3]
 173:../firmware/gd32f3x0_hal_peripheral/Source/gd32f3x0_hal_i2c.c ****     } else if(I2C1 == periph) {
 174:../firmware/gd32f3x0_hal_peripheral/Source/gd32f3x0_hal_i2c.c ****         hal_rcu_periph_reset_enable(RCU_I2C1RST);
 175:../firmware/gd32f3x0_hal_peripheral/Source/gd32f3x0_hal_i2c.c ****         hal_rcu_periph_reset_disable(RCU_I2C1RST);
 176:../firmware/gd32f3x0_hal_peripheral/Source/gd32f3x0_hal_i2c.c ****         hal_i2c_struct_init(HAL_I2C_DEV_STRUCT, i2c_dev);
 177:../firmware/gd32f3x0_hal_peripheral/Source/gd32f3x0_hal_i2c.c ****         i2c_dev->periph = periph;
 178:../firmware/gd32f3x0_hal_peripheral/Source/gd32f3x0_hal_i2c.c ****     } else {
 179:../firmware/gd32f3x0_hal_peripheral/Source/gd32f3x0_hal_i2c.c ****         HAL_DEBUGE("parameter [i2c_dev->periph] value is invalid");
 180:../firmware/gd32f3x0_hal_peripheral/Source/gd32f3x0_hal_i2c.c ****     }
 181:../firmware/gd32f3x0_hal_peripheral/Source/gd32f3x0_hal_i2c.c **** }
 269              		.loc 1 181 1
 270 0034 12E0     		b	.L13
 271              	.L11:
 173:../firmware/gd32f3x0_hal_peripheral/Source/gd32f3x0_hal_i2c.c ****     } else if(I2C1 == periph) {
 272              		.loc 1 173 14
 273 0036 FB68     		ldr	r3, [r7, #12]
 274 0038 0B4A     		ldr	r2, .L14+4
 275 003a 9342     		cmp	r3, r2
 276 003c 0ED1     		bne	.L13
 174:../firmware/gd32f3x0_hal_peripheral/Source/gd32f3x0_hal_i2c.c ****         hal_rcu_periph_reset_disable(RCU_I2C1RST);
 277              		.loc 1 174 9
 278 003e 40F21640 		movw	r0, #1046
 279 0042 FFF7FEFF 		bl	hal_rcu_periph_reset_enable
 175:../firmware/gd32f3x0_hal_peripheral/Source/gd32f3x0_hal_i2c.c ****         hal_i2c_struct_init(HAL_I2C_DEV_STRUCT, i2c_dev);
 280              		.loc 1 175 9
 281 0046 40F21640 		movw	r0, #1046
 282 004a FFF7FEFF 		bl	hal_rcu_periph_reset_disable
 176:../firmware/gd32f3x0_hal_peripheral/Source/gd32f3x0_hal_i2c.c ****         i2c_dev->periph = periph;
 283              		.loc 1 176 9
 284 004e 7968     		ldr	r1, [r7, #4]
 285 0050 0120     		movs	r0, #1
 286 0052 FFF7FEFF 		bl	hal_i2c_struct_init
 177:../firmware/gd32f3x0_hal_peripheral/Source/gd32f3x0_hal_i2c.c ****     } else {
 287              		.loc 1 177 25
 288 0056 7B68     		ldr	r3, [r7, #4]
 289 0058 FA68     		ldr	r2, [r7, #12]
 290 005a 1A60     		str	r2, [r3]
 291              	.L13:
 292              		.loc 1 181 1
 293 005c 00BF     		nop
 294 005e 1037     		adds	r7, r7, #16
 295              		.cfi_def_cfa_offset 8
 296 0060 BD46     		mov	sp, r7
 297              		.cfi_def_cfa_register 13
 298              		@ sp needed
 299 0062 80BD     		pop	{r7, pc}
 300              	.L15:
 301              		.align	2
 302              	.L14:
 303 0064 00540040 		.word	1073763328
 304 0068 00580040 		.word	1073764352
 305              		.cfi_endproc
 306              	.LFE120:
 308              		.section	.text.hal_i2c_init,"ax",%progbits
 309              		.align	1
 310              		.global	hal_i2c_init
 311              		.syntax unified
 312              		.thumb
 313              		.thumb_func
 314              		.fpu softvfp
 316              	hal_i2c_init:
 317              	.LFB121:
 182:../firmware/gd32f3x0_hal_peripheral/Source/gd32f3x0_hal_i2c.c **** 
 183:../firmware/gd32f3x0_hal_peripheral/Source/gd32f3x0_hal_i2c.c **** /*!
 184:../firmware/gd32f3x0_hal_peripheral/Source/gd32f3x0_hal_i2c.c ****     \brief      initialize I2C
 185:../firmware/gd32f3x0_hal_peripheral/Source/gd32f3x0_hal_i2c.c ****     \param[in]  i2c_dev: I2C device information structrue
 186:../firmware/gd32f3x0_hal_peripheral/Source/gd32f3x0_hal_i2c.c ****                   the structure is not necessary to be reconfigured after structrue initialization,
 187:../firmware/gd32f3x0_hal_peripheral/Source/gd32f3x0_hal_i2c.c ****                   the structure parameters altering is automatically configured by core
 188:../firmware/gd32f3x0_hal_peripheral/Source/gd32f3x0_hal_i2c.c ****     \param[in]  periph: specify which I2C is initialized
 189:../firmware/gd32f3x0_hal_peripheral/Source/gd32f3x0_hal_i2c.c ****     \param[in]  i2c_init: the initialization data needed to initialize I2C
 190:../firmware/gd32f3x0_hal_peripheral/Source/gd32f3x0_hal_i2c.c ****                   duty_cycle: I2C_DTCY_2, I2C_DTCY_16_9
 191:../firmware/gd32f3x0_hal_peripheral/Source/gd32f3x0_hal_i2c.c ****                   clock_speed: I2C clock speed, supports standard mode (up to 100 kHz), fast mode
 192:../firmware/gd32f3x0_hal_peripheral/Source/gd32f3x0_hal_i2c.c ****                                (up to 400 kHz) and fast mode plus (up to 1MHz)
 193:../firmware/gd32f3x0_hal_peripheral/Source/gd32f3x0_hal_i2c.c ****                   address_format: I2C_ADDFORMAT_7BITS, I2C_ADDFORMAT_10BITS
 194:../firmware/gd32f3x0_hal_peripheral/Source/gd32f3x0_hal_i2c.c ****                   own_address1: I2C address
 195:../firmware/gd32f3x0_hal_peripheral/Source/gd32f3x0_hal_i2c.c ****                   dual_address: I2C_DUADEN_ENABLE, I2C_DUADEN_DISABLE
 196:../firmware/gd32f3x0_hal_peripheral/Source/gd32f3x0_hal_i2c.c ****                   own_address2: the second address in dual-address mode
 197:../firmware/gd32f3x0_hal_peripheral/Source/gd32f3x0_hal_i2c.c ****                   general_call: I2C_GCEN_ENABLE, I2C_GCEN_DISABLE
 198:../firmware/gd32f3x0_hal_peripheral/Source/gd32f3x0_hal_i2c.c ****                   no_stretch: I2C_SCLSTRETCH_ENABLE, I2C_SCLSTRETCH_DISABLE
 199:../firmware/gd32f3x0_hal_peripheral/Source/gd32f3x0_hal_i2c.c ****     \param[out] none
 200:../firmware/gd32f3x0_hal_peripheral/Source/gd32f3x0_hal_i2c.c ****     \retval     error code: HAL_ERR_NONE, HAL_ERR_VAL, HAL_ERR_ADDRESS, details refer to gd32f3x0_h
 201:../firmware/gd32f3x0_hal_peripheral/Source/gd32f3x0_hal_i2c.c **** */
 202:../firmware/gd32f3x0_hal_peripheral/Source/gd32f3x0_hal_i2c.c **** int32_t hal_i2c_init(hal_i2c_dev_struct *i2c_dev, uint32_t periph, \
 203:../firmware/gd32f3x0_hal_peripheral/Source/gd32f3x0_hal_i2c.c ****                      hal_i2c_init_struct *i2c_init)
 204:../firmware/gd32f3x0_hal_peripheral/Source/gd32f3x0_hal_i2c.c **** {
 318              		.loc 1 204 1
 319              		.cfi_startproc
 320              		@ args = 0, pretend = 0, frame = 16
 321              		@ frame_needed = 1, uses_anonymous_args = 0
 322 0000 80B5     		push	{r7, lr}
 323              		.cfi_def_cfa_offset 8
 324              		.cfi_offset 7, -8
 325              		.cfi_offset 14, -4
 326 0002 84B0     		sub	sp, sp, #16
 327              		.cfi_def_cfa_offset 24
 328 0004 00AF     		add	r7, sp, #0
 329              		.cfi_def_cfa_register 7
 330 0006 F860     		str	r0, [r7, #12]
 331 0008 B960     		str	r1, [r7, #8]
 332 000a 7A60     		str	r2, [r7, #4]
 205:../firmware/gd32f3x0_hal_peripheral/Source/gd32f3x0_hal_i2c.c **** #if (1 == HAL_PARAMETER_CHECK)
 206:../firmware/gd32f3x0_hal_peripheral/Source/gd32f3x0_hal_i2c.c ****     /* check I2C pointer and i2c_init address */
 207:../firmware/gd32f3x0_hal_peripheral/Source/gd32f3x0_hal_i2c.c ****     if((NULL == i2c_dev) && (NULL == i2c_init)) {
 208:../firmware/gd32f3x0_hal_peripheral/Source/gd32f3x0_hal_i2c.c ****         HAL_DEBUGE("pointer [i2c_dev] or [i2c_init] address is invalid");
 209:../firmware/gd32f3x0_hal_peripheral/Source/gd32f3x0_hal_i2c.c ****         return HAL_ERR_ADDRESS;
 210:../firmware/gd32f3x0_hal_peripheral/Source/gd32f3x0_hal_i2c.c ****     }
 211:../firmware/gd32f3x0_hal_peripheral/Source/gd32f3x0_hal_i2c.c ****     /* check periph parameter */
 212:../firmware/gd32f3x0_hal_peripheral/Source/gd32f3x0_hal_i2c.c ****     if((I2C0 != periph) && (I2C1 != periph)) {
 213:../firmware/gd32f3x0_hal_peripheral/Source/gd32f3x0_hal_i2c.c ****         HAL_DEBUGE("parameter [periph] value is invalid");
 214:../firmware/gd32f3x0_hal_peripheral/Source/gd32f3x0_hal_i2c.c ****         return HAL_ERR_VAL;
 215:../firmware/gd32f3x0_hal_peripheral/Source/gd32f3x0_hal_i2c.c ****     }
 216:../firmware/gd32f3x0_hal_peripheral/Source/gd32f3x0_hal_i2c.c ****     /* check periph value from I2C device struct */
 217:../firmware/gd32f3x0_hal_peripheral/Source/gd32f3x0_hal_i2c.c ****     if(0 != i2c_dev->periph) {
 218:../firmware/gd32f3x0_hal_peripheral/Source/gd32f3x0_hal_i2c.c ****         HAL_DEBUGI("periph value from i2c device struct has been rewrite");
 219:../firmware/gd32f3x0_hal_peripheral/Source/gd32f3x0_hal_i2c.c ****     }
 220:../firmware/gd32f3x0_hal_peripheral/Source/gd32f3x0_hal_i2c.c **** #endif /* 1 == HAL_PARAMETER_CHECK */
 221:../firmware/gd32f3x0_hal_peripheral/Source/gd32f3x0_hal_i2c.c **** 
 222:../firmware/gd32f3x0_hal_peripheral/Source/gd32f3x0_hal_i2c.c ****     i2c_dev->periph = periph;
 333              		.loc 1 222 21
 334 000c FB68     		ldr	r3, [r7, #12]
 335 000e BA68     		ldr	r2, [r7, #8]
 336 0010 1A60     		str	r2, [r3]
 223:../firmware/gd32f3x0_hal_peripheral/Source/gd32f3x0_hal_i2c.c ****     /* configure I2C clock */
 224:../firmware/gd32f3x0_hal_peripheral/Source/gd32f3x0_hal_i2c.c ****     hals_i2c_clock_config(periph, i2c_init->clock_speed, i2c_init->duty_cycle);
 337              		.loc 1 224 5
 338 0012 7B68     		ldr	r3, [r7, #4]
 339 0014 1968     		ldr	r1, [r3]
 340 0016 7B68     		ldr	r3, [r7, #4]
 341 0018 5B68     		ldr	r3, [r3, #4]
 342 001a 1A46     		mov	r2, r3
 343 001c B868     		ldr	r0, [r7, #8]
 344 001e FFF7FEFF 		bl	hals_i2c_clock_config
 225:../firmware/gd32f3x0_hal_peripheral/Source/gd32f3x0_hal_i2c.c ****     /* configure I2C address */
 226:../firmware/gd32f3x0_hal_peripheral/Source/gd32f3x0_hal_i2c.c ****     i2c_init->own_address1 = i2c_init->own_address1 << 1;
 345              		.loc 1 226 38
 346 0022 7B68     		ldr	r3, [r7, #4]
 347 0024 DB68     		ldr	r3, [r3, #12]
 348              		.loc 1 226 53
 349 0026 5A00     		lsls	r2, r3, #1
 350              		.loc 1 226 28
 351 0028 7B68     		ldr	r3, [r7, #4]
 352 002a DA60     		str	r2, [r3, #12]
 227:../firmware/gd32f3x0_hal_peripheral/Source/gd32f3x0_hal_i2c.c ****     hals_i2c_mode_addr_config(periph, I2C_I2CMODE_ENABLE, i2c_init->address_format, \
 353              		.loc 1 227 5
 354 002c 7B68     		ldr	r3, [r7, #4]
 355 002e 9A68     		ldr	r2, [r3, #8]
 356 0030 7B68     		ldr	r3, [r7, #4]
 357 0032 DB68     		ldr	r3, [r3, #12]
 358 0034 0021     		movs	r1, #0
 359 0036 B868     		ldr	r0, [r7, #8]
 360 0038 FFF7FEFF 		bl	hals_i2c_mode_addr_config
 228:../firmware/gd32f3x0_hal_peripheral/Source/gd32f3x0_hal_i2c.c ****                               i2c_init->own_address1);
 229:../firmware/gd32f3x0_hal_peripheral/Source/gd32f3x0_hal_i2c.c ****     /* configure dual-address mode */
 230:../firmware/gd32f3x0_hal_peripheral/Source/gd32f3x0_hal_i2c.c ****     if(I2C_DUADEN_ENABLE == i2c_init->dual_address) {
 361              		.loc 1 230 37
 362 003c 7B68     		ldr	r3, [r7, #4]
 363 003e 1B69     		ldr	r3, [r3, #16]
 364              		.loc 1 230 7
 365 0040 012B     		cmp	r3, #1
 366 0042 0BD1     		bne	.L17
 231:../firmware/gd32f3x0_hal_peripheral/Source/gd32f3x0_hal_i2c.c ****         i2c_init->own_address2 = i2c_init->own_address2 << 1;
 367              		.loc 1 231 42
 368 0044 7B68     		ldr	r3, [r7, #4]
 369 0046 5B69     		ldr	r3, [r3, #20]
 370              		.loc 1 231 57
 371 0048 5A00     		lsls	r2, r3, #1
 372              		.loc 1 231 32
 373 004a 7B68     		ldr	r3, [r7, #4]
 374 004c 5A61     		str	r2, [r3, #20]
 232:../firmware/gd32f3x0_hal_peripheral/Source/gd32f3x0_hal_i2c.c ****         hals_i2c_dualaddr_enable(periph, i2c_init->own_address2);
 375              		.loc 1 232 9
 376 004e 7B68     		ldr	r3, [r7, #4]
 377 0050 5B69     		ldr	r3, [r3, #20]
 378 0052 1946     		mov	r1, r3
 379 0054 B868     		ldr	r0, [r7, #8]
 380 0056 FFF7FEFF 		bl	hals_i2c_dualaddr_enable
 381 005a 02E0     		b	.L18
 382              	.L17:
 233:../firmware/gd32f3x0_hal_peripheral/Source/gd32f3x0_hal_i2c.c ****     } else {
 234:../firmware/gd32f3x0_hal_peripheral/Source/gd32f3x0_hal_i2c.c ****         hals_i2c_dualaddr_disable(periph);
 383              		.loc 1 234 9
 384 005c B868     		ldr	r0, [r7, #8]
 385 005e FFF7FEFF 		bl	hals_i2c_dualaddr_disable
 386              	.L18:
 235:../firmware/gd32f3x0_hal_peripheral/Source/gd32f3x0_hal_i2c.c ****     }
 236:../firmware/gd32f3x0_hal_peripheral/Source/gd32f3x0_hal_i2c.c ****     /* configure whether to stretch SCL low when data is not ready in slave mode */
 237:../firmware/gd32f3x0_hal_peripheral/Source/gd32f3x0_hal_i2c.c ****     hals_i2c_stretch_scl_low_config(periph, i2c_init->no_stretch);
 387              		.loc 1 237 5
 388 0062 7B68     		ldr	r3, [r7, #4]
 389 0064 DB69     		ldr	r3, [r3, #28]
 390 0066 1946     		mov	r1, r3
 391 0068 B868     		ldr	r0, [r7, #8]
 392 006a FFF7FEFF 		bl	hals_i2c_stretch_scl_low_config
 238:../firmware/gd32f3x0_hal_peripheral/Source/gd32f3x0_hal_i2c.c ****     /* whether or not to response to a general call */
 239:../firmware/gd32f3x0_hal_peripheral/Source/gd32f3x0_hal_i2c.c ****     hals_i2c_slave_response_to_gcall_config(periph, i2c_init->general_call);
 393              		.loc 1 239 5
 394 006e 7B68     		ldr	r3, [r7, #4]
 395 0070 9B69     		ldr	r3, [r3, #24]
 396 0072 1946     		mov	r1, r3
 397 0074 B868     		ldr	r0, [r7, #8]
 398 0076 FFF7FEFF 		bl	hals_i2c_slave_response_to_gcall_config
 240:../firmware/gd32f3x0_hal_peripheral/Source/gd32f3x0_hal_i2c.c ****     /* enable I2C */
 241:../firmware/gd32f3x0_hal_peripheral/Source/gd32f3x0_hal_i2c.c ****     HAL_I2C_ENABLE(periph);
 399              		.loc 1 241 5
 400 007a BB68     		ldr	r3, [r7, #8]
 401 007c 1A68     		ldr	r2, [r3]
 402 007e BB68     		ldr	r3, [r7, #8]
 403 0080 42F00102 		orr	r2, r2, #1
 404 0084 1A60     		str	r2, [r3]
 242:../firmware/gd32f3x0_hal_peripheral/Source/gd32f3x0_hal_i2c.c ****     /* enable acknowledge */
 243:../firmware/gd32f3x0_hal_peripheral/Source/gd32f3x0_hal_i2c.c ****     hals_i2c_ack_config(periph, I2C_ACK_ENABLE);
 405              		.loc 1 243 5
 406 0086 4FF48061 		mov	r1, #1024
 407 008a B868     		ldr	r0, [r7, #8]
 408 008c FFF7FEFF 		bl	hals_i2c_ack_config
 244:../firmware/gd32f3x0_hal_peripheral/Source/gd32f3x0_hal_i2c.c ****     i2c_dev->tx_state = HAL_I2C_STATE_READY;
 409              		.loc 1 244 23
 410 0090 FB68     		ldr	r3, [r7, #12]
 411 0092 0022     		movs	r2, #0
 412 0094 83F84020 		strb	r2, [r3, #64]
 245:../firmware/gd32f3x0_hal_peripheral/Source/gd32f3x0_hal_i2c.c ****     i2c_dev->rx_state = HAL_I2C_STATE_READY;
 413              		.loc 1 245 23
 414 0098 FB68     		ldr	r3, [r7, #12]
 415 009a 0022     		movs	r2, #0
 416 009c 83F84120 		strb	r2, [r3, #65]
 246:../firmware/gd32f3x0_hal_peripheral/Source/gd32f3x0_hal_i2c.c **** 
 247:../firmware/gd32f3x0_hal_peripheral/Source/gd32f3x0_hal_i2c.c ****     return HAL_ERR_NONE;
 417              		.loc 1 247 12
 418 00a0 0023     		movs	r3, #0
 248:../firmware/gd32f3x0_hal_peripheral/Source/gd32f3x0_hal_i2c.c **** }
 419              		.loc 1 248 1
 420 00a2 1846     		mov	r0, r3
 421 00a4 1037     		adds	r7, r7, #16
 422              		.cfi_def_cfa_offset 8
 423 00a6 BD46     		mov	sp, r7
 424              		.cfi_def_cfa_register 13
 425              		@ sp needed
 426 00a8 80BD     		pop	{r7, pc}
 427              		.cfi_endproc
 428              	.LFE121:
 430              		.section	.text.hal_i2c_error_irq,"ax",%progbits
 431              		.align	1
 432              		.global	hal_i2c_error_irq
 433              		.syntax unified
 434              		.thumb
 435              		.thumb_func
 436              		.fpu softvfp
 438              	hal_i2c_error_irq:
 439              	.LFB122:
 249:../firmware/gd32f3x0_hal_peripheral/Source/gd32f3x0_hal_i2c.c **** 
 250:../firmware/gd32f3x0_hal_peripheral/Source/gd32f3x0_hal_i2c.c **** /*!
 251:../firmware/gd32f3x0_hal_peripheral/Source/gd32f3x0_hal_i2c.c ****     \brief      I2C error interrupt handler
 252:../firmware/gd32f3x0_hal_peripheral/Source/gd32f3x0_hal_i2c.c ****     \param[in]  i2c_dev: I2C device information structrue
 253:../firmware/gd32f3x0_hal_peripheral/Source/gd32f3x0_hal_i2c.c ****                   the structure is not necessary to be reconfigured after structrue initialization,
 254:../firmware/gd32f3x0_hal_peripheral/Source/gd32f3x0_hal_i2c.c ****                   the structure parameters altering is automatically configured by core
 255:../firmware/gd32f3x0_hal_peripheral/Source/gd32f3x0_hal_i2c.c ****     \param[out] none
 256:../firmware/gd32f3x0_hal_peripheral/Source/gd32f3x0_hal_i2c.c ****     \retval     none
 257:../firmware/gd32f3x0_hal_peripheral/Source/gd32f3x0_hal_i2c.c **** */
 258:../firmware/gd32f3x0_hal_peripheral/Source/gd32f3x0_hal_i2c.c **** void hal_i2c_error_irq(hal_i2c_dev_struct *i2c_dev)
 259:../firmware/gd32f3x0_hal_peripheral/Source/gd32f3x0_hal_i2c.c **** {
 440              		.loc 1 259 1
 441              		.cfi_startproc
 442              		@ args = 0, pretend = 0, frame = 8
 443              		@ frame_needed = 1, uses_anonymous_args = 0
 444 0000 80B5     		push	{r7, lr}
 445              		.cfi_def_cfa_offset 8
 446              		.cfi_offset 7, -8
 447              		.cfi_offset 14, -4
 448 0002 82B0     		sub	sp, sp, #8
 449              		.cfi_def_cfa_offset 16
 450 0004 00AF     		add	r7, sp, #0
 451              		.cfi_def_cfa_register 7
 452 0006 7860     		str	r0, [r7, #4]
 260:../firmware/gd32f3x0_hal_peripheral/Source/gd32f3x0_hal_i2c.c **** #if (1 == HAL_PARAMETER_CHECK)
 261:../firmware/gd32f3x0_hal_peripheral/Source/gd32f3x0_hal_i2c.c ****     /* check the parameters */
 262:../firmware/gd32f3x0_hal_peripheral/Source/gd32f3x0_hal_i2c.c ****     if(NULL == i2c_dev) {
 263:../firmware/gd32f3x0_hal_peripheral/Source/gd32f3x0_hal_i2c.c ****         HAL_DEBUGE("pointer [i2c_dev] address is invalid");
 264:../firmware/gd32f3x0_hal_peripheral/Source/gd32f3x0_hal_i2c.c ****     }
 265:../firmware/gd32f3x0_hal_peripheral/Source/gd32f3x0_hal_i2c.c **** #endif /* 1 = HAL_PARAMETER_CHECK */
 266:../firmware/gd32f3x0_hal_peripheral/Source/gd32f3x0_hal_i2c.c ****     /* no acknowledge received */
 267:../firmware/gd32f3x0_hal_peripheral/Source/gd32f3x0_hal_i2c.c ****     if(hals_i2c_interrupt_flag_get(i2c_dev->periph, I2C_INT_FLAG_AERR)) {
 453              		.loc 1 267 8
 454 0008 7B68     		ldr	r3, [r7, #4]
 455 000a 1B68     		ldr	r3, [r3]
 456 000c 4449     		ldr	r1, .L28
 457 000e 1846     		mov	r0, r3
 458 0010 FFF7FEFF 		bl	hals_i2c_interrupt_flag_get
 459 0014 0346     		mov	r3, r0
 460              		.loc 1 267 7
 461 0016 002B     		cmp	r3, #0
 462 0018 0ED0     		beq	.L21
 268:../firmware/gd32f3x0_hal_peripheral/Source/gd32f3x0_hal_i2c.c ****         hals_i2c_interrupt_flag_clear(i2c_dev->periph, I2C_INT_FLAG_AERR);
 463              		.loc 1 268 9
 464 001a 7B68     		ldr	r3, [r7, #4]
 465 001c 1B68     		ldr	r3, [r3]
 466 001e 4049     		ldr	r1, .L28
 467 0020 1846     		mov	r0, r3
 468 0022 FFF7FEFF 		bl	hals_i2c_interrupt_flag_clear
 269:../firmware/gd32f3x0_hal_peripheral/Source/gd32f3x0_hal_i2c.c ****         i2c_dev->error_state |= HAL_I2C_ERROR_AERR;
 469              		.loc 1 269 30
 470 0026 7B68     		ldr	r3, [r7, #4]
 471 0028 DB6B     		ldr	r3, [r3, #60]
 472 002a 43F00402 		orr	r2, r3, #4
 473 002e 7B68     		ldr	r3, [r7, #4]
 474 0030 DA63     		str	r2, [r3, #60]
 270:../firmware/gd32f3x0_hal_peripheral/Source/gd32f3x0_hal_i2c.c ****         i2c_dev->last_error = HAL_I2C_ERROR_AERR;
 475              		.loc 1 270 29
 476 0032 7B68     		ldr	r3, [r7, #4]
 477 0034 0422     		movs	r2, #4
 478 0036 5A87     		strh	r2, [r3, #58]	@ movhi
 479              	.L21:
 271:../firmware/gd32f3x0_hal_peripheral/Source/gd32f3x0_hal_i2c.c ****     }
 272:../firmware/gd32f3x0_hal_peripheral/Source/gd32f3x0_hal_i2c.c **** 
 273:../firmware/gd32f3x0_hal_peripheral/Source/gd32f3x0_hal_i2c.c ****     /* over-run or under-run when SCL stretch is disabled */
 274:../firmware/gd32f3x0_hal_peripheral/Source/gd32f3x0_hal_i2c.c ****     if(hals_i2c_interrupt_flag_get(i2c_dev->periph, I2C_INT_FLAG_OUERR)) {
 480              		.loc 1 274 8
 481 0038 7B68     		ldr	r3, [r7, #4]
 482 003a 1B68     		ldr	r3, [r3]
 483 003c 3949     		ldr	r1, .L28+4
 484 003e 1846     		mov	r0, r3
 485 0040 FFF7FEFF 		bl	hals_i2c_interrupt_flag_get
 486 0044 0346     		mov	r3, r0
 487              		.loc 1 274 7
 488 0046 002B     		cmp	r3, #0
 489 0048 0ED0     		beq	.L22
 275:../firmware/gd32f3x0_hal_peripheral/Source/gd32f3x0_hal_i2c.c ****         hals_i2c_interrupt_flag_clear(i2c_dev->periph, I2C_INT_FLAG_OUERR);
 490              		.loc 1 275 9
 491 004a 7B68     		ldr	r3, [r7, #4]
 492 004c 1B68     		ldr	r3, [r3]
 493 004e 3549     		ldr	r1, .L28+4
 494 0050 1846     		mov	r0, r3
 495 0052 FFF7FEFF 		bl	hals_i2c_interrupt_flag_clear
 276:../firmware/gd32f3x0_hal_peripheral/Source/gd32f3x0_hal_i2c.c ****         i2c_dev->error_state |= HAL_I2C_ERROR_OUERR;
 496              		.loc 1 276 30
 497 0056 7B68     		ldr	r3, [r7, #4]
 498 0058 DB6B     		ldr	r3, [r3, #60]
 499 005a 43F00802 		orr	r2, r3, #8
 500 005e 7B68     		ldr	r3, [r7, #4]
 501 0060 DA63     		str	r2, [r3, #60]
 277:../firmware/gd32f3x0_hal_peripheral/Source/gd32f3x0_hal_i2c.c ****         i2c_dev->last_error = HAL_I2C_ERROR_OUERR;
 502              		.loc 1 277 29
 503 0062 7B68     		ldr	r3, [r7, #4]
 504 0064 0822     		movs	r2, #8
 505 0066 5A87     		strh	r2, [r3, #58]	@ movhi
 506              	.L22:
 278:../firmware/gd32f3x0_hal_peripheral/Source/gd32f3x0_hal_i2c.c ****     }
 279:../firmware/gd32f3x0_hal_peripheral/Source/gd32f3x0_hal_i2c.c **** 
 280:../firmware/gd32f3x0_hal_peripheral/Source/gd32f3x0_hal_i2c.c ****     /* arbitration lost */
 281:../firmware/gd32f3x0_hal_peripheral/Source/gd32f3x0_hal_i2c.c ****     if(hals_i2c_interrupt_flag_get(i2c_dev->periph, I2C_INT_FLAG_LOSTARB)) {
 507              		.loc 1 281 8
 508 0068 7B68     		ldr	r3, [r7, #4]
 509 006a 1B68     		ldr	r3, [r3]
 510 006c 2E49     		ldr	r1, .L28+8
 511 006e 1846     		mov	r0, r3
 512 0070 FFF7FEFF 		bl	hals_i2c_interrupt_flag_get
 513 0074 0346     		mov	r3, r0
 514              		.loc 1 281 7
 515 0076 002B     		cmp	r3, #0
 516 0078 0ED0     		beq	.L23
 282:../firmware/gd32f3x0_hal_peripheral/Source/gd32f3x0_hal_i2c.c ****         hals_i2c_interrupt_flag_clear(i2c_dev->periph, I2C_INT_FLAG_LOSTARB);
 517              		.loc 1 282 9
 518 007a 7B68     		ldr	r3, [r7, #4]
 519 007c 1B68     		ldr	r3, [r3]
 520 007e 2A49     		ldr	r1, .L28+8
 521 0080 1846     		mov	r0, r3
 522 0082 FFF7FEFF 		bl	hals_i2c_interrupt_flag_clear
 283:../firmware/gd32f3x0_hal_peripheral/Source/gd32f3x0_hal_i2c.c ****         i2c_dev->error_state |= HAL_I2C_ERROR_LOSTARB;
 523              		.loc 1 283 30
 524 0086 7B68     		ldr	r3, [r7, #4]
 525 0088 DB6B     		ldr	r3, [r3, #60]
 526 008a 43F00202 		orr	r2, r3, #2
 527 008e 7B68     		ldr	r3, [r7, #4]
 528 0090 DA63     		str	r2, [r3, #60]
 284:../firmware/gd32f3x0_hal_peripheral/Source/gd32f3x0_hal_i2c.c ****         i2c_dev->last_error = HAL_I2C_ERROR_LOSTARB;
 529              		.loc 1 284 29
 530 0092 7B68     		ldr	r3, [r7, #4]
 531 0094 0222     		movs	r2, #2
 532 0096 5A87     		strh	r2, [r3, #58]	@ movhi
 533              	.L23:
 285:../firmware/gd32f3x0_hal_peripheral/Source/gd32f3x0_hal_i2c.c ****     }
 286:../firmware/gd32f3x0_hal_peripheral/Source/gd32f3x0_hal_i2c.c **** 
 287:../firmware/gd32f3x0_hal_peripheral/Source/gd32f3x0_hal_i2c.c ****     /* bus error */
 288:../firmware/gd32f3x0_hal_peripheral/Source/gd32f3x0_hal_i2c.c ****     if(hals_i2c_interrupt_flag_get(i2c_dev->periph, I2C_INT_FLAG_BERR)) {
 534              		.loc 1 288 8
 535 0098 7B68     		ldr	r3, [r7, #4]
 536 009a 1B68     		ldr	r3, [r3]
 537 009c 2349     		ldr	r1, .L28+12
 538 009e 1846     		mov	r0, r3
 539 00a0 FFF7FEFF 		bl	hals_i2c_interrupt_flag_get
 540 00a4 0346     		mov	r3, r0
 541              		.loc 1 288 7
 542 00a6 002B     		cmp	r3, #0
 543 00a8 0ED0     		beq	.L24
 289:../firmware/gd32f3x0_hal_peripheral/Source/gd32f3x0_hal_i2c.c ****         hals_i2c_interrupt_flag_clear(i2c_dev->periph, I2C_INT_FLAG_BERR);
 544              		.loc 1 289 9
 545 00aa 7B68     		ldr	r3, [r7, #4]
 546 00ac 1B68     		ldr	r3, [r3]
 547 00ae 1F49     		ldr	r1, .L28+12
 548 00b0 1846     		mov	r0, r3
 549 00b2 FFF7FEFF 		bl	hals_i2c_interrupt_flag_clear
 290:../firmware/gd32f3x0_hal_peripheral/Source/gd32f3x0_hal_i2c.c ****         i2c_dev->error_state |= HAL_I2C_ERROR_BERR;
 550              		.loc 1 290 30
 551 00b6 7B68     		ldr	r3, [r7, #4]
 552 00b8 DB6B     		ldr	r3, [r3, #60]
 553 00ba 43F00102 		orr	r2, r3, #1
 554 00be 7B68     		ldr	r3, [r7, #4]
 555 00c0 DA63     		str	r2, [r3, #60]
 291:../firmware/gd32f3x0_hal_peripheral/Source/gd32f3x0_hal_i2c.c ****         i2c_dev->last_error = HAL_I2C_ERROR_BERR;
 556              		.loc 1 291 29
 557 00c2 7B68     		ldr	r3, [r7, #4]
 558 00c4 0122     		movs	r2, #1
 559 00c6 5A87     		strh	r2, [r3, #58]	@ movhi
 560              	.L24:
 292:../firmware/gd32f3x0_hal_peripheral/Source/gd32f3x0_hal_i2c.c ****     }
 293:../firmware/gd32f3x0_hal_peripheral/Source/gd32f3x0_hal_i2c.c **** 
 294:../firmware/gd32f3x0_hal_peripheral/Source/gd32f3x0_hal_i2c.c ****     /* CRC value doesn't match */
 295:../firmware/gd32f3x0_hal_peripheral/Source/gd32f3x0_hal_i2c.c ****     if(hals_i2c_interrupt_flag_get(i2c_dev->periph, I2C_INT_FLAG_PECERR)) {
 561              		.loc 1 295 8
 562 00c8 7B68     		ldr	r3, [r7, #4]
 563 00ca 1B68     		ldr	r3, [r3]
 564 00cc 1849     		ldr	r1, .L28+16
 565 00ce 1846     		mov	r0, r3
 566 00d0 FFF7FEFF 		bl	hals_i2c_interrupt_flag_get
 567 00d4 0346     		mov	r3, r0
 568              		.loc 1 295 7
 569 00d6 002B     		cmp	r3, #0
 570 00d8 0ED0     		beq	.L25
 296:../firmware/gd32f3x0_hal_peripheral/Source/gd32f3x0_hal_i2c.c ****         hals_i2c_interrupt_flag_clear(i2c_dev->periph, I2C_INT_FLAG_PECERR);
 571              		.loc 1 296 9
 572 00da 7B68     		ldr	r3, [r7, #4]
 573 00dc 1B68     		ldr	r3, [r3]
 574 00de 1449     		ldr	r1, .L28+16
 575 00e0 1846     		mov	r0, r3
 576 00e2 FFF7FEFF 		bl	hals_i2c_interrupt_flag_clear
 297:../firmware/gd32f3x0_hal_peripheral/Source/gd32f3x0_hal_i2c.c ****         i2c_dev->error_state |= HAL_I2C_ERROR_PECERR;
 577              		.loc 1 297 30
 578 00e6 7B68     		ldr	r3, [r7, #4]
 579 00e8 DB6B     		ldr	r3, [r3, #60]
 580 00ea 43F01002 		orr	r2, r3, #16
 581 00ee 7B68     		ldr	r3, [r7, #4]
 582 00f0 DA63     		str	r2, [r3, #60]
 298:../firmware/gd32f3x0_hal_peripheral/Source/gd32f3x0_hal_i2c.c ****         i2c_dev->last_error = HAL_I2C_ERROR_PECERR;
 583              		.loc 1 298 29
 584 00f2 7B68     		ldr	r3, [r7, #4]
 585 00f4 1022     		movs	r2, #16
 586 00f6 5A87     		strh	r2, [r3, #58]	@ movhi
 587              	.L25:
 299:../firmware/gd32f3x0_hal_peripheral/Source/gd32f3x0_hal_i2c.c ****     }
 300:../firmware/gd32f3x0_hal_peripheral/Source/gd32f3x0_hal_i2c.c **** 
 301:../firmware/gd32f3x0_hal_peripheral/Source/gd32f3x0_hal_i2c.c ****     if(HAL_I2C_ERROR_NONE != i2c_dev->error_state) {
 588              		.loc 1 301 37
 589 00f8 7B68     		ldr	r3, [r7, #4]
 590 00fa DB6B     		ldr	r3, [r3, #60]
 591              		.loc 1 301 7
 592 00fc 002B     		cmp	r3, #0
 593 00fe 0AD0     		beq	.L27
 302:../firmware/gd32f3x0_hal_peripheral/Source/gd32f3x0_hal_i2c.c ****         if(i2c_dev->i2c_irq.error_handle != NULL) {
 594              		.loc 1 302 28
 595 0100 7B68     		ldr	r3, [r7, #4]
 596 0102 9B68     		ldr	r3, [r3, #8]
 597              		.loc 1 302 11
 598 0104 002B     		cmp	r3, #0
 599 0106 06D0     		beq	.L27
 303:../firmware/gd32f3x0_hal_peripheral/Source/gd32f3x0_hal_i2c.c ****             i2c_dev->i2c_irq.error_handle(i2c_dev);
 600              		.loc 1 303 29
 601 0108 7B68     		ldr	r3, [r7, #4]
 602 010a 9B68     		ldr	r3, [r3, #8]
 603              		.loc 1 303 13
 604 010c 7868     		ldr	r0, [r7, #4]
 605 010e 9847     		blx	r3
 606              	.LVL0:
 304:../firmware/gd32f3x0_hal_peripheral/Source/gd32f3x0_hal_i2c.c ****             i2c_dev->error_state = HAL_I2C_ERROR_NONE;
 607              		.loc 1 304 34
 608 0110 7B68     		ldr	r3, [r7, #4]
 609 0112 0022     		movs	r2, #0
 610 0114 DA63     		str	r2, [r3, #60]
 611              	.L27:
 305:../firmware/gd32f3x0_hal_peripheral/Source/gd32f3x0_hal_i2c.c ****         }
 306:../firmware/gd32f3x0_hal_peripheral/Source/gd32f3x0_hal_i2c.c ****     }
 307:../firmware/gd32f3x0_hal_peripheral/Source/gd32f3x0_hal_i2c.c **** }
 612              		.loc 1 307 1
 613 0116 00BF     		nop
 614 0118 0837     		adds	r7, r7, #8
 615              		.cfi_def_cfa_offset 8
 616 011a BD46     		mov	sp, r7
 617              		.cfi_def_cfa_register 13
 618              		@ sp needed
 619 011c 80BD     		pop	{r7, pc}
 620              	.L29:
 621 011e 00BF     		.align	2
 622              	.L28:
 623 0120 08010A05 		.word	84541704
 624 0124 08010B05 		.word	84607240
 625 0128 08010905 		.word	84476168
 626 012c 08010805 		.word	84410632
 627 0130 08010C05 		.word	84672776
 628              		.cfi_endproc
 629              	.LFE122:
 631              		.section	.text.hal_i2c_event_irq,"ax",%progbits
 632              		.align	1
 633              		.global	hal_i2c_event_irq
 634              		.syntax unified
 635              		.thumb
 636              		.thumb_func
 637              		.fpu softvfp
 639              	hal_i2c_event_irq:
 640              	.LFB123:
 308:../firmware/gd32f3x0_hal_peripheral/Source/gd32f3x0_hal_i2c.c **** 
 309:../firmware/gd32f3x0_hal_peripheral/Source/gd32f3x0_hal_i2c.c **** /*!
 310:../firmware/gd32f3x0_hal_peripheral/Source/gd32f3x0_hal_i2c.c ****     \brief      I2C event interrupt handler
 311:../firmware/gd32f3x0_hal_peripheral/Source/gd32f3x0_hal_i2c.c ****     \param[in]  i2c_dev: I2C device information structrue
 312:../firmware/gd32f3x0_hal_peripheral/Source/gd32f3x0_hal_i2c.c ****                   the structure is not necessary to be reconfigured after structrue initialization,
 313:../firmware/gd32f3x0_hal_peripheral/Source/gd32f3x0_hal_i2c.c ****                   the structure parameters altering is automatically configured by core
 314:../firmware/gd32f3x0_hal_peripheral/Source/gd32f3x0_hal_i2c.c ****     \param[out] none
 315:../firmware/gd32f3x0_hal_peripheral/Source/gd32f3x0_hal_i2c.c ****     \retval     none
 316:../firmware/gd32f3x0_hal_peripheral/Source/gd32f3x0_hal_i2c.c **** */
 317:../firmware/gd32f3x0_hal_peripheral/Source/gd32f3x0_hal_i2c.c **** void hal_i2c_event_irq(hal_i2c_dev_struct *i2c_dev)
 318:../firmware/gd32f3x0_hal_peripheral/Source/gd32f3x0_hal_i2c.c **** {
 641              		.loc 1 318 1
 642              		.cfi_startproc
 643              		@ args = 0, pretend = 0, frame = 8
 644              		@ frame_needed = 1, uses_anonymous_args = 0
 645 0000 80B5     		push	{r7, lr}
 646              		.cfi_def_cfa_offset 8
 647              		.cfi_offset 7, -8
 648              		.cfi_offset 14, -4
 649 0002 82B0     		sub	sp, sp, #8
 650              		.cfi_def_cfa_offset 16
 651 0004 00AF     		add	r7, sp, #0
 652              		.cfi_def_cfa_register 7
 653 0006 7860     		str	r0, [r7, #4]
 319:../firmware/gd32f3x0_hal_peripheral/Source/gd32f3x0_hal_i2c.c **** #if (1 == HAL_PARAMETER_CHECK)
 320:../firmware/gd32f3x0_hal_peripheral/Source/gd32f3x0_hal_i2c.c ****     /* check the parameters */
 321:../firmware/gd32f3x0_hal_peripheral/Source/gd32f3x0_hal_i2c.c ****     if(NULL == i2c_dev) {
 322:../firmware/gd32f3x0_hal_peripheral/Source/gd32f3x0_hal_i2c.c ****         HAL_DEBUGE("pointer [i2c_dev] address is invalid");
 323:../firmware/gd32f3x0_hal_peripheral/Source/gd32f3x0_hal_i2c.c ****     }
 324:../firmware/gd32f3x0_hal_peripheral/Source/gd32f3x0_hal_i2c.c **** #endif /* 1 = HAL_PARAMETER_CHECK */
 325:../firmware/gd32f3x0_hal_peripheral/Source/gd32f3x0_hal_i2c.c **** 
 326:../firmware/gd32f3x0_hal_peripheral/Source/gd32f3x0_hal_i2c.c ****     if(i2c_dev->i2c_irq.event_handle != NULL) {
 654              		.loc 1 326 24
 655 0008 7B68     		ldr	r3, [r7, #4]
 656 000a 5B68     		ldr	r3, [r3, #4]
 657              		.loc 1 326 7
 658 000c 002B     		cmp	r3, #0
 659 000e 04D0     		beq	.L30
 327:../firmware/gd32f3x0_hal_peripheral/Source/gd32f3x0_hal_i2c.c ****         i2c_dev->i2c_irq.event_handle(i2c_dev);
 660              		.loc 1 327 25
 661 0010 7B68     		ldr	r3, [r7, #4]
 662 0012 5B68     		ldr	r3, [r3, #4]
 663              		.loc 1 327 9
 664 0014 7868     		ldr	r0, [r7, #4]
 665 0016 9847     		blx	r3
 666              	.LVL1:
 328:../firmware/gd32f3x0_hal_peripheral/Source/gd32f3x0_hal_i2c.c ****         return;
 667              		.loc 1 328 9
 668 0018 00BF     		nop
 669              	.L30:
 329:../firmware/gd32f3x0_hal_peripheral/Source/gd32f3x0_hal_i2c.c ****     }
 330:../firmware/gd32f3x0_hal_peripheral/Source/gd32f3x0_hal_i2c.c **** 
 331:../firmware/gd32f3x0_hal_peripheral/Source/gd32f3x0_hal_i2c.c **** }
 670              		.loc 1 331 1
 671 001a 0837     		adds	r7, r7, #8
 672              		.cfi_def_cfa_offset 8
 673 001c BD46     		mov	sp, r7
 674              		.cfi_def_cfa_register 13
 675              		@ sp needed
 676 001e 80BD     		pop	{r7, pc}
 677              		.cfi_endproc
 678              	.LFE123:
 680              		.section	.text.hal_i2c_start,"ax",%progbits
 681              		.align	1
 682              		.global	hal_i2c_start
 683              		.syntax unified
 684              		.thumb
 685              		.thumb_func
 686              		.fpu softvfp
 688              	hal_i2c_start:
 689              	.LFB124:
 332:../firmware/gd32f3x0_hal_peripheral/Source/gd32f3x0_hal_i2c.c **** 
 333:../firmware/gd32f3x0_hal_peripheral/Source/gd32f3x0_hal_i2c.c **** /*!
 334:../firmware/gd32f3x0_hal_peripheral/Source/gd32f3x0_hal_i2c.c ****     \brief      start I2C module function
 335:../firmware/gd32f3x0_hal_peripheral/Source/gd32f3x0_hal_i2c.c ****     \param[in]  i2c_dev: I2C device information structrue
 336:../firmware/gd32f3x0_hal_peripheral/Source/gd32f3x0_hal_i2c.c ****                   the structure is not necessary to be reconfigured after structrue initialization,
 337:../firmware/gd32f3x0_hal_peripheral/Source/gd32f3x0_hal_i2c.c ****                   the structure parameters altering is automatically configured by core
 338:../firmware/gd32f3x0_hal_peripheral/Source/gd32f3x0_hal_i2c.c ****     \param[out] none
 339:../firmware/gd32f3x0_hal_peripheral/Source/gd32f3x0_hal_i2c.c ****     \retval
 340:../firmware/gd32f3x0_hal_peripheral/Source/gd32f3x0_hal_i2c.c **** */
 341:../firmware/gd32f3x0_hal_peripheral/Source/gd32f3x0_hal_i2c.c **** void hal_i2c_start(hal_i2c_dev_struct *i2c_dev)
 342:../firmware/gd32f3x0_hal_peripheral/Source/gd32f3x0_hal_i2c.c **** {
 690              		.loc 1 342 1
 691              		.cfi_startproc
 692              		@ args = 0, pretend = 0, frame = 8
 693              		@ frame_needed = 1, uses_anonymous_args = 0
 694              		@ link register save eliminated.
 695 0000 80B4     		push	{r7}
 696              		.cfi_def_cfa_offset 4
 697              		.cfi_offset 7, -4
 698 0002 83B0     		sub	sp, sp, #12
 699              		.cfi_def_cfa_offset 16
 700 0004 00AF     		add	r7, sp, #0
 701              		.cfi_def_cfa_register 7
 702 0006 7860     		str	r0, [r7, #4]
 343:../firmware/gd32f3x0_hal_peripheral/Source/gd32f3x0_hal_i2c.c **** #if (1 == HAL_PARAMETER_CHECK)
 344:../firmware/gd32f3x0_hal_peripheral/Source/gd32f3x0_hal_i2c.c ****     /* check the parameters */
 345:../firmware/gd32f3x0_hal_peripheral/Source/gd32f3x0_hal_i2c.c ****     if(NULL == i2c_dev) {
 346:../firmware/gd32f3x0_hal_peripheral/Source/gd32f3x0_hal_i2c.c ****         HAL_DEBUGE("pointer [i2c_dev] address is invalid");
 347:../firmware/gd32f3x0_hal_peripheral/Source/gd32f3x0_hal_i2c.c ****     }
 348:../firmware/gd32f3x0_hal_peripheral/Source/gd32f3x0_hal_i2c.c **** #endif /* 1 = HAL_PARAMETER_CHECK */
 349:../firmware/gd32f3x0_hal_peripheral/Source/gd32f3x0_hal_i2c.c **** 
 350:../firmware/gd32f3x0_hal_peripheral/Source/gd32f3x0_hal_i2c.c ****     I2C_CTL0(i2c_dev->periph) |= I2C_CTL0_I2CEN;
 703              		.loc 1 350 5
 704 0008 7B68     		ldr	r3, [r7, #4]
 705 000a 1B68     		ldr	r3, [r3]
 706              		.loc 1 350 31
 707 000c 1B68     		ldr	r3, [r3]
 708              		.loc 1 350 5
 709 000e 7A68     		ldr	r2, [r7, #4]
 710 0010 1268     		ldr	r2, [r2]
 711              		.loc 1 350 31
 712 0012 43F00103 		orr	r3, r3, #1
 713 0016 1360     		str	r3, [r2]
 351:../firmware/gd32f3x0_hal_peripheral/Source/gd32f3x0_hal_i2c.c **** }
 714              		.loc 1 351 1
 715 0018 00BF     		nop
 716 001a 0C37     		adds	r7, r7, #12
 717              		.cfi_def_cfa_offset 4
 718 001c BD46     		mov	sp, r7
 719              		.cfi_def_cfa_register 13
 720              		@ sp needed
 721 001e 80BC     		pop	{r7}
 722              		.cfi_restore 7
 723              		.cfi_def_cfa_offset 0
 724 0020 7047     		bx	lr
 725              		.cfi_endproc
 726              	.LFE124:
 728              		.section	.text.hal_i2c_stop,"ax",%progbits
 729              		.align	1
 730              		.global	hal_i2c_stop
 731              		.syntax unified
 732              		.thumb
 733              		.thumb_func
 734              		.fpu softvfp
 736              	hal_i2c_stop:
 737              	.LFB125:
 352:../firmware/gd32f3x0_hal_peripheral/Source/gd32f3x0_hal_i2c.c **** 
 353:../firmware/gd32f3x0_hal_peripheral/Source/gd32f3x0_hal_i2c.c **** /*!
 354:../firmware/gd32f3x0_hal_peripheral/Source/gd32f3x0_hal_i2c.c ****     \brief      stop I2C module function
 355:../firmware/gd32f3x0_hal_peripheral/Source/gd32f3x0_hal_i2c.c ****     \param[in]  i2c_dev: I2C device information structrue
 356:../firmware/gd32f3x0_hal_peripheral/Source/gd32f3x0_hal_i2c.c ****                   the structure is not necessary to be reconfigured after structrue initialization,
 357:../firmware/gd32f3x0_hal_peripheral/Source/gd32f3x0_hal_i2c.c ****                   the structure parameters altering is automatically configured by core
 358:../firmware/gd32f3x0_hal_peripheral/Source/gd32f3x0_hal_i2c.c ****     \param[out] none
 359:../firmware/gd32f3x0_hal_peripheral/Source/gd32f3x0_hal_i2c.c ****     \retval
 360:../firmware/gd32f3x0_hal_peripheral/Source/gd32f3x0_hal_i2c.c **** */
 361:../firmware/gd32f3x0_hal_peripheral/Source/gd32f3x0_hal_i2c.c **** void hal_i2c_stop(hal_i2c_dev_struct *i2c_dev)
 362:../firmware/gd32f3x0_hal_peripheral/Source/gd32f3x0_hal_i2c.c **** {
 738              		.loc 1 362 1
 739              		.cfi_startproc
 740              		@ args = 0, pretend = 0, frame = 8
 741              		@ frame_needed = 1, uses_anonymous_args = 0
 742              		@ link register save eliminated.
 743 0000 80B4     		push	{r7}
 744              		.cfi_def_cfa_offset 4
 745              		.cfi_offset 7, -4
 746 0002 83B0     		sub	sp, sp, #12
 747              		.cfi_def_cfa_offset 16
 748 0004 00AF     		add	r7, sp, #0
 749              		.cfi_def_cfa_register 7
 750 0006 7860     		str	r0, [r7, #4]
 363:../firmware/gd32f3x0_hal_peripheral/Source/gd32f3x0_hal_i2c.c **** #if (1 == HAL_PARAMETER_CHECK)
 364:../firmware/gd32f3x0_hal_peripheral/Source/gd32f3x0_hal_i2c.c ****     /* check the parameters */
 365:../firmware/gd32f3x0_hal_peripheral/Source/gd32f3x0_hal_i2c.c ****     if(NULL == i2c_dev) {
 366:../firmware/gd32f3x0_hal_peripheral/Source/gd32f3x0_hal_i2c.c ****         HAL_DEBUGE("pointer [i2c_dev] address is invalid");
 367:../firmware/gd32f3x0_hal_peripheral/Source/gd32f3x0_hal_i2c.c ****     }
 368:../firmware/gd32f3x0_hal_peripheral/Source/gd32f3x0_hal_i2c.c **** #endif /* 1 = HAL_PARAMETER_CHECK */
 369:../firmware/gd32f3x0_hal_peripheral/Source/gd32f3x0_hal_i2c.c **** 
 370:../firmware/gd32f3x0_hal_peripheral/Source/gd32f3x0_hal_i2c.c ****     I2C_CTL0(i2c_dev->periph) &= ~(I2C_CTL0_I2CEN);
 751              		.loc 1 370 5
 752 0008 7B68     		ldr	r3, [r7, #4]
 753 000a 1B68     		ldr	r3, [r3]
 754              		.loc 1 370 31
 755 000c 1B68     		ldr	r3, [r3]
 756              		.loc 1 370 5
 757 000e 7A68     		ldr	r2, [r7, #4]
 758 0010 1268     		ldr	r2, [r2]
 759              		.loc 1 370 31
 760 0012 23F00103 		bic	r3, r3, #1
 761 0016 1360     		str	r3, [r2]
 371:../firmware/gd32f3x0_hal_peripheral/Source/gd32f3x0_hal_i2c.c **** }
 762              		.loc 1 371 1
 763 0018 00BF     		nop
 764 001a 0C37     		adds	r7, r7, #12
 765              		.cfi_def_cfa_offset 4
 766 001c BD46     		mov	sp, r7
 767              		.cfi_def_cfa_register 13
 768              		@ sp needed
 769 001e 80BC     		pop	{r7}
 770              		.cfi_restore 7
 771              		.cfi_def_cfa_offset 0
 772 0020 7047     		bx	lr
 773              		.cfi_endproc
 774              	.LFE125:
 776              		.section	.text.hal_i2c_irq_handle_set,"ax",%progbits
 777              		.align	1
 778              		.global	hal_i2c_irq_handle_set
 779              		.syntax unified
 780              		.thumb
 781              		.thumb_func
 782              		.fpu softvfp
 784              	hal_i2c_irq_handle_set:
 785              	.LFB126:
 372:../firmware/gd32f3x0_hal_peripheral/Source/gd32f3x0_hal_i2c.c **** 
 373:../firmware/gd32f3x0_hal_peripheral/Source/gd32f3x0_hal_i2c.c **** /*!
 374:../firmware/gd32f3x0_hal_peripheral/Source/gd32f3x0_hal_i2c.c ****     \brief      set user-defined interrupt callback function,
 375:../firmware/gd32f3x0_hal_peripheral/Source/gd32f3x0_hal_i2c.c ****                 which will be registered and called when corresponding interrupt be triggered
 376:../firmware/gd32f3x0_hal_peripheral/Source/gd32f3x0_hal_i2c.c ****     \param[in]  i2c_dev: I2C device information structrue
 377:../firmware/gd32f3x0_hal_peripheral/Source/gd32f3x0_hal_i2c.c ****                   the structure is not necessary to be reconfigured after structrue initialization,
 378:../firmware/gd32f3x0_hal_peripheral/Source/gd32f3x0_hal_i2c.c ****                   the structure parameters altering is automatically configured by core
 379:../firmware/gd32f3x0_hal_peripheral/Source/gd32f3x0_hal_i2c.c ****     \param[in]  p_irq: the structure that contains callback handlers of I2C interrupt
 380:../firmware/gd32f3x0_hal_peripheral/Source/gd32f3x0_hal_i2c.c ****                 The structure member can be assigned as following parameters:
 381:../firmware/gd32f3x0_hal_peripheral/Source/gd32f3x0_hal_i2c.c ****       \arg        hal_irq_handle_cb function pointer: the function is user-defined,
 382:../firmware/gd32f3x0_hal_peripheral/Source/gd32f3x0_hal_i2c.c ****                     the corresponding callback mechanism is in use, and enable corresponding interr
 383:../firmware/gd32f3x0_hal_peripheral/Source/gd32f3x0_hal_i2c.c ****       \arg        NULL: The corresponding callback mechanism is out of use, and
 384:../firmware/gd32f3x0_hal_peripheral/Source/gd32f3x0_hal_i2c.c ****                     disable corresponding interrupt
 385:../firmware/gd32f3x0_hal_peripheral/Source/gd32f3x0_hal_i2c.c ****     \param[out] none
 386:../firmware/gd32f3x0_hal_peripheral/Source/gd32f3x0_hal_i2c.c ****     \retval     none
 387:../firmware/gd32f3x0_hal_peripheral/Source/gd32f3x0_hal_i2c.c **** */
 388:../firmware/gd32f3x0_hal_peripheral/Source/gd32f3x0_hal_i2c.c **** void hal_i2c_irq_handle_set(hal_i2c_dev_struct *i2c_dev, hal_i2c_irq_struct *p_irq)
 389:../firmware/gd32f3x0_hal_peripheral/Source/gd32f3x0_hal_i2c.c **** {
 786              		.loc 1 389 1
 787              		.cfi_startproc
 788              		@ args = 0, pretend = 0, frame = 8
 789              		@ frame_needed = 1, uses_anonymous_args = 0
 790 0000 80B5     		push	{r7, lr}
 791              		.cfi_def_cfa_offset 8
 792              		.cfi_offset 7, -8
 793              		.cfi_offset 14, -4
 794 0002 82B0     		sub	sp, sp, #8
 795              		.cfi_def_cfa_offset 16
 796 0004 00AF     		add	r7, sp, #0
 797              		.cfi_def_cfa_register 7
 798 0006 7860     		str	r0, [r7, #4]
 799 0008 3960     		str	r1, [r7]
 390:../firmware/gd32f3x0_hal_peripheral/Source/gd32f3x0_hal_i2c.c **** #if (1 == HAL_PARAMETER_CHECK)
 391:../firmware/gd32f3x0_hal_peripheral/Source/gd32f3x0_hal_i2c.c ****     /* check the parameters */
 392:../firmware/gd32f3x0_hal_peripheral/Source/gd32f3x0_hal_i2c.c ****     if((NULL == i2c_dev) || (NULL == p_irq)) {
 393:../firmware/gd32f3x0_hal_peripheral/Source/gd32f3x0_hal_i2c.c ****         HAL_DEBUGE("pointer [i2c_dev] or [p_irq] address is invalid");
 394:../firmware/gd32f3x0_hal_peripheral/Source/gd32f3x0_hal_i2c.c ****     }
 395:../firmware/gd32f3x0_hal_peripheral/Source/gd32f3x0_hal_i2c.c **** #endif /* 1 = HAL_PARAMETER_CHECK */
 396:../firmware/gd32f3x0_hal_peripheral/Source/gd32f3x0_hal_i2c.c **** 
 397:../firmware/gd32f3x0_hal_peripheral/Source/gd32f3x0_hal_i2c.c ****     /* event interrupt handler set */
 398:../firmware/gd32f3x0_hal_peripheral/Source/gd32f3x0_hal_i2c.c ****     if(NULL != p_irq->event_handle) {
 800              		.loc 1 398 21
 801 000a 3B68     		ldr	r3, [r7]
 802 000c 1B68     		ldr	r3, [r3]
 803              		.loc 1 398 7
 804 000e 002B     		cmp	r3, #0
 805 0010 12D0     		beq	.L35
 399:../firmware/gd32f3x0_hal_peripheral/Source/gd32f3x0_hal_i2c.c ****         i2c_dev->i2c_irq.event_handle = p_irq->event_handle;
 806              		.loc 1 399 46
 807 0012 3B68     		ldr	r3, [r7]
 808 0014 1A68     		ldr	r2, [r3]
 809              		.loc 1 399 39
 810 0016 7B68     		ldr	r3, [r7, #4]
 811 0018 5A60     		str	r2, [r3, #4]
 400:../firmware/gd32f3x0_hal_peripheral/Source/gd32f3x0_hal_i2c.c ****         hals_i2c_interrupt_enable(i2c_dev->periph, I2C_INT_BUF);
 812              		.loc 1 400 9
 813 001a 7B68     		ldr	r3, [r7, #4]
 814 001c 1B68     		ldr	r3, [r3]
 815 001e 4FF48571 		mov	r1, #266
 816 0022 1846     		mov	r0, r3
 817 0024 FFF7FEFF 		bl	hals_i2c_interrupt_enable
 401:../firmware/gd32f3x0_hal_peripheral/Source/gd32f3x0_hal_i2c.c ****         hals_i2c_interrupt_enable(i2c_dev->periph, I2C_INT_EV);
 818              		.loc 1 401 9
 819 0028 7B68     		ldr	r3, [r7, #4]
 820 002a 1B68     		ldr	r3, [r3]
 821 002c 40F20911 		movw	r1, #265
 822 0030 1846     		mov	r0, r3
 823 0032 FFF7FEFF 		bl	hals_i2c_interrupt_enable
 824 0036 10E0     		b	.L36
 825              	.L35:
 402:../firmware/gd32f3x0_hal_peripheral/Source/gd32f3x0_hal_i2c.c ****     } else {
 403:../firmware/gd32f3x0_hal_peripheral/Source/gd32f3x0_hal_i2c.c ****         i2c_dev->i2c_irq.event_handle = NULL;
 826              		.loc 1 403 39
 827 0038 7B68     		ldr	r3, [r7, #4]
 828 003a 0022     		movs	r2, #0
 829 003c 5A60     		str	r2, [r3, #4]
 404:../firmware/gd32f3x0_hal_peripheral/Source/gd32f3x0_hal_i2c.c ****         hals_i2c_interrupt_disable(i2c_dev->periph, I2C_INT_BUF);
 830              		.loc 1 404 9
 831 003e 7B68     		ldr	r3, [r7, #4]
 832 0040 1B68     		ldr	r3, [r3]
 833 0042 4FF48571 		mov	r1, #266
 834 0046 1846     		mov	r0, r3
 835 0048 FFF7FEFF 		bl	hals_i2c_interrupt_disable
 405:../firmware/gd32f3x0_hal_peripheral/Source/gd32f3x0_hal_i2c.c ****         hals_i2c_interrupt_disable(i2c_dev->periph, I2C_INT_EV);
 836              		.loc 1 405 9
 837 004c 7B68     		ldr	r3, [r7, #4]
 838 004e 1B68     		ldr	r3, [r3]
 839 0050 40F20911 		movw	r1, #265
 840 0054 1846     		mov	r0, r3
 841 0056 FFF7FEFF 		bl	hals_i2c_interrupt_disable
 842              	.L36:
 406:../firmware/gd32f3x0_hal_peripheral/Source/gd32f3x0_hal_i2c.c ****     }
 407:../firmware/gd32f3x0_hal_peripheral/Source/gd32f3x0_hal_i2c.c ****     /* error interrupt handler set */
 408:../firmware/gd32f3x0_hal_peripheral/Source/gd32f3x0_hal_i2c.c ****     if(NULL != p_irq->error_handle) {
 843              		.loc 1 408 21
 844 005a 3B68     		ldr	r3, [r7]
 845 005c 5B68     		ldr	r3, [r3, #4]
 846              		.loc 1 408 7
 847 005e 002B     		cmp	r3, #0
 848 0060 0BD0     		beq	.L37
 409:../firmware/gd32f3x0_hal_peripheral/Source/gd32f3x0_hal_i2c.c ****         i2c_dev->i2c_irq.error_handle = p_irq->error_handle;
 849              		.loc 1 409 46
 850 0062 3B68     		ldr	r3, [r7]
 851 0064 5A68     		ldr	r2, [r3, #4]
 852              		.loc 1 409 39
 853 0066 7B68     		ldr	r3, [r7, #4]
 854 0068 9A60     		str	r2, [r3, #8]
 410:../firmware/gd32f3x0_hal_peripheral/Source/gd32f3x0_hal_i2c.c ****         hals_i2c_interrupt_enable(i2c_dev->periph, I2C_INT_ERR);
 855              		.loc 1 410 9
 856 006a 7B68     		ldr	r3, [r7, #4]
 857 006c 1B68     		ldr	r3, [r3]
 858 006e 4FF48471 		mov	r1, #264
 859 0072 1846     		mov	r0, r3
 860 0074 FFF7FEFF 		bl	hals_i2c_interrupt_enable
 411:../firmware/gd32f3x0_hal_peripheral/Source/gd32f3x0_hal_i2c.c ****     } else {
 412:../firmware/gd32f3x0_hal_peripheral/Source/gd32f3x0_hal_i2c.c ****         i2c_dev->i2c_irq.error_handle = NULL;
 413:../firmware/gd32f3x0_hal_peripheral/Source/gd32f3x0_hal_i2c.c ****         hals_i2c_interrupt_disable(i2c_dev->periph, I2C_INT_ERR);
 414:../firmware/gd32f3x0_hal_peripheral/Source/gd32f3x0_hal_i2c.c ****     }
 415:../firmware/gd32f3x0_hal_peripheral/Source/gd32f3x0_hal_i2c.c **** }
 861              		.loc 1 415 1
 862 0078 09E0     		b	.L39
 863              	.L37:
 412:../firmware/gd32f3x0_hal_peripheral/Source/gd32f3x0_hal_i2c.c ****         hals_i2c_interrupt_disable(i2c_dev->periph, I2C_INT_ERR);
 864              		.loc 1 412 39
 865 007a 7B68     		ldr	r3, [r7, #4]
 866 007c 0022     		movs	r2, #0
 867 007e 9A60     		str	r2, [r3, #8]
 413:../firmware/gd32f3x0_hal_peripheral/Source/gd32f3x0_hal_i2c.c ****     }
 868              		.loc 1 413 9
 869 0080 7B68     		ldr	r3, [r7, #4]
 870 0082 1B68     		ldr	r3, [r3]
 871 0084 4FF48471 		mov	r1, #264
 872 0088 1846     		mov	r0, r3
 873 008a FFF7FEFF 		bl	hals_i2c_interrupt_disable
 874              	.L39:
 875              		.loc 1 415 1
 876 008e 00BF     		nop
 877 0090 0837     		adds	r7, r7, #8
 878              		.cfi_def_cfa_offset 8
 879 0092 BD46     		mov	sp, r7
 880              		.cfi_def_cfa_register 13
 881              		@ sp needed
 882 0094 80BD     		pop	{r7, pc}
 883              		.cfi_endproc
 884              	.LFE126:
 886              		.section	.text.hal_i2c_irq_handle_all_reset,"ax",%progbits
 887              		.align	1
 888              		.global	hal_i2c_irq_handle_all_reset
 889              		.syntax unified
 890              		.thumb
 891              		.thumb_func
 892              		.fpu softvfp
 894              	hal_i2c_irq_handle_all_reset:
 895              	.LFB127:
 416:../firmware/gd32f3x0_hal_peripheral/Source/gd32f3x0_hal_i2c.c **** 
 417:../firmware/gd32f3x0_hal_peripheral/Source/gd32f3x0_hal_i2c.c **** /*!
 418:../firmware/gd32f3x0_hal_peripheral/Source/gd32f3x0_hal_i2c.c ****     \brief      reset all user-defined interrupt callback function,
 419:../firmware/gd32f3x0_hal_peripheral/Source/gd32f3x0_hal_i2c.c ****                 which will be registered and called when corresponding interrupt be triggered
 420:../firmware/gd32f3x0_hal_peripheral/Source/gd32f3x0_hal_i2c.c ****     \param[in]  i2c_dev: I2C device information structrue
 421:../firmware/gd32f3x0_hal_peripheral/Source/gd32f3x0_hal_i2c.c ****                   the structure is not necessary to be reconfigured after structrue initialization,
 422:../firmware/gd32f3x0_hal_peripheral/Source/gd32f3x0_hal_i2c.c ****                   the structure parameters altering is automatically configured by core
 423:../firmware/gd32f3x0_hal_peripheral/Source/gd32f3x0_hal_i2c.c ****     \param[out] none
 424:../firmware/gd32f3x0_hal_peripheral/Source/gd32f3x0_hal_i2c.c ****     \retval     none
 425:../firmware/gd32f3x0_hal_peripheral/Source/gd32f3x0_hal_i2c.c **** */
 426:../firmware/gd32f3x0_hal_peripheral/Source/gd32f3x0_hal_i2c.c **** void hal_i2c_irq_handle_all_reset(hal_i2c_dev_struct *i2c_dev)
 427:../firmware/gd32f3x0_hal_peripheral/Source/gd32f3x0_hal_i2c.c **** {
 896              		.loc 1 427 1
 897              		.cfi_startproc
 898              		@ args = 0, pretend = 0, frame = 8
 899              		@ frame_needed = 1, uses_anonymous_args = 0
 900              		@ link register save eliminated.
 901 0000 80B4     		push	{r7}
 902              		.cfi_def_cfa_offset 4
 903              		.cfi_offset 7, -4
 904 0002 83B0     		sub	sp, sp, #12
 905              		.cfi_def_cfa_offset 16
 906 0004 00AF     		add	r7, sp, #0
 907              		.cfi_def_cfa_register 7
 908 0006 7860     		str	r0, [r7, #4]
 428:../firmware/gd32f3x0_hal_peripheral/Source/gd32f3x0_hal_i2c.c ****     /* configure interrupt callback function to NULL */
 429:../firmware/gd32f3x0_hal_peripheral/Source/gd32f3x0_hal_i2c.c ****     i2c_dev->i2c_irq.event_handle = NULL;
 909              		.loc 1 429 35
 910 0008 7B68     		ldr	r3, [r7, #4]
 911 000a 0022     		movs	r2, #0
 912 000c 5A60     		str	r2, [r3, #4]
 430:../firmware/gd32f3x0_hal_peripheral/Source/gd32f3x0_hal_i2c.c ****     i2c_dev->i2c_irq.error_handle = NULL;
 913              		.loc 1 430 35
 914 000e 7B68     		ldr	r3, [r7, #4]
 915 0010 0022     		movs	r2, #0
 916 0012 9A60     		str	r2, [r3, #8]
 431:../firmware/gd32f3x0_hal_peripheral/Source/gd32f3x0_hal_i2c.c **** }
 917              		.loc 1 431 1
 918 0014 00BF     		nop
 919 0016 0C37     		adds	r7, r7, #12
 920              		.cfi_def_cfa_offset 4
 921 0018 BD46     		mov	sp, r7
 922              		.cfi_def_cfa_register 13
 923              		@ sp needed
 924 001a 80BC     		pop	{r7}
 925              		.cfi_restore 7
 926              		.cfi_def_cfa_offset 0
 927 001c 7047     		bx	lr
 928              		.cfi_endproc
 929              	.LFE127:
 931              		.section	.text.hal_i2c_master_transmit_poll,"ax",%progbits
 932              		.align	1
 933              		.global	hal_i2c_master_transmit_poll
 934              		.syntax unified
 935              		.thumb
 936              		.thumb_func
 937              		.fpu softvfp
 939              	hal_i2c_master_transmit_poll:
 940              	.LFB128:
 432:../firmware/gd32f3x0_hal_peripheral/Source/gd32f3x0_hal_i2c.c **** 
 433:../firmware/gd32f3x0_hal_peripheral/Source/gd32f3x0_hal_i2c.c **** /*!
 434:../firmware/gd32f3x0_hal_peripheral/Source/gd32f3x0_hal_i2c.c ****     \brief      transmit amounts of data in master mode, poll transmit process and completed status
 435:../firmware/gd32f3x0_hal_peripheral/Source/gd32f3x0_hal_i2c.c ****                 the function is blocking
 436:../firmware/gd32f3x0_hal_peripheral/Source/gd32f3x0_hal_i2c.c ****     \param[in]  i2c_dev: I2C device information structrue
 437:../firmware/gd32f3x0_hal_peripheral/Source/gd32f3x0_hal_i2c.c ****                   the structure is not necessary to be reconfigured after structrue initialization,
 438:../firmware/gd32f3x0_hal_peripheral/Source/gd32f3x0_hal_i2c.c ****                   the structure parameters altering is automatically configured by core
 439:../firmware/gd32f3x0_hal_peripheral/Source/gd32f3x0_hal_i2c.c ****     \param[in]  p_buffer: pointer to txbuffer
 440:../firmware/gd32f3x0_hal_peripheral/Source/gd32f3x0_hal_i2c.c ****     \param[in]  length: length of data to be sent
 441:../firmware/gd32f3x0_hal_peripheral/Source/gd32f3x0_hal_i2c.c ****     \param[in]  timeout_ms: timeout duration
 442:../firmware/gd32f3x0_hal_peripheral/Source/gd32f3x0_hal_i2c.c ****     \param[out] none
 443:../firmware/gd32f3x0_hal_peripheral/Source/gd32f3x0_hal_i2c.c ****     \retval     error code: HAL_ERR_NONE, HAL_ERR_ADDRESS, HAL_ERR_TIMEOUT, HAL_ERR_BUSY,
 444:../firmware/gd32f3x0_hal_peripheral/Source/gd32f3x0_hal_i2c.c ****                 details refer to gd32f3x0_hal.h
 445:../firmware/gd32f3x0_hal_peripheral/Source/gd32f3x0_hal_i2c.c **** */
 446:../firmware/gd32f3x0_hal_peripheral/Source/gd32f3x0_hal_i2c.c **** int32_t hal_i2c_master_transmit_poll(hal_i2c_dev_struct *i2c_dev, uint8_t *p_buffer, \
 447:../firmware/gd32f3x0_hal_peripheral/Source/gd32f3x0_hal_i2c.c ****                                      uint32_t length, uint32_t timeout_ms)
 448:../firmware/gd32f3x0_hal_peripheral/Source/gd32f3x0_hal_i2c.c **** {
 941              		.loc 1 448 1
 942              		.cfi_startproc
 943              		@ args = 0, pretend = 0, frame = 24
 944              		@ frame_needed = 1, uses_anonymous_args = 0
 945 0000 80B5     		push	{r7, lr}
 946              		.cfi_def_cfa_offset 8
 947              		.cfi_offset 7, -8
 948              		.cfi_offset 14, -4
 949 0002 86B0     		sub	sp, sp, #24
 950              		.cfi_def_cfa_offset 32
 951 0004 00AF     		add	r7, sp, #0
 952              		.cfi_def_cfa_register 7
 953 0006 F860     		str	r0, [r7, #12]
 954 0008 B960     		str	r1, [r7, #8]
 955 000a 7A60     		str	r2, [r7, #4]
 956 000c 3B60     		str	r3, [r7]
 449:../firmware/gd32f3x0_hal_peripheral/Source/gd32f3x0_hal_i2c.c ****     uint32_t data_length;
 450:../firmware/gd32f3x0_hal_peripheral/Source/gd32f3x0_hal_i2c.c **** #if (1 == HAL_PARAMETER_CHECK)
 451:../firmware/gd32f3x0_hal_peripheral/Source/gd32f3x0_hal_i2c.c ****     /* check the parameters */
 452:../firmware/gd32f3x0_hal_peripheral/Source/gd32f3x0_hal_i2c.c ****     if((NULL == i2c_dev) || (NULL == p_buffer) || (0U == length)) {
 453:../firmware/gd32f3x0_hal_peripheral/Source/gd32f3x0_hal_i2c.c ****         HAL_DEBUGE("parameter [i2c_dev] or [p_buffer] or [length] value is invalid");
 454:../firmware/gd32f3x0_hal_peripheral/Source/gd32f3x0_hal_i2c.c ****         return HAL_ERR_ADDRESS;
 455:../firmware/gd32f3x0_hal_peripheral/Source/gd32f3x0_hal_i2c.c ****     }
 456:../firmware/gd32f3x0_hal_peripheral/Source/gd32f3x0_hal_i2c.c **** #endif /* 1 == HAL_PARAMETER_CHECK */
 457:../firmware/gd32f3x0_hal_peripheral/Source/gd32f3x0_hal_i2c.c **** 
 458:../firmware/gd32f3x0_hal_peripheral/Source/gd32f3x0_hal_i2c.c ****     HAL_LOCK(i2c_dev);
 957              		.loc 1 458 5
 958 000e FB68     		ldr	r3, [r7, #12]
 959 0010 93F85030 		ldrb	r3, [r3, #80]	@ zero_extendqisi2
 960 0014 012B     		cmp	r3, #1
 961 0016 02D1     		bne	.L42
 962              		.loc 1 458 5 is_stmt 0 discriminator 1
 963 0018 6FF00103 		mvn	r3, #1
 964 001c 7FE0     		b	.L43
 965              	.L42:
 966              		.loc 1 458 5 discriminator 2
 967 001e FB68     		ldr	r3, [r7, #12]
 968 0020 0122     		movs	r2, #1
 969 0022 83F85020 		strb	r2, [r3, #80]
 459:../firmware/gd32f3x0_hal_peripheral/Source/gd32f3x0_hal_i2c.c ****     /* check the tx_state whether it is busy or not */
 460:../firmware/gd32f3x0_hal_peripheral/Source/gd32f3x0_hal_i2c.c ****     if(HAL_I2C_STATE_BUSY == i2c_dev->tx_state) {
 970              		.loc 1 460 37 is_stmt 1 discriminator 2
 971 0026 FB68     		ldr	r3, [r7, #12]
 972 0028 93F84030 		ldrb	r3, [r3, #64]
 973 002c DBB2     		uxtb	r3, r3
 974              		.loc 1 460 7 discriminator 2
 975 002e 012B     		cmp	r3, #1
 976 0030 02D1     		bne	.L44
 461:../firmware/gd32f3x0_hal_peripheral/Source/gd32f3x0_hal_i2c.c ****         HAL_DEBUGE("i2c tx has already been used, please wait until run_state change to free ");
 462:../firmware/gd32f3x0_hal_peripheral/Source/gd32f3x0_hal_i2c.c ****         return HAL_ERR_BUSY;
 977              		.loc 1 462 16
 978 0032 6FF00203 		mvn	r3, #2
 979 0036 72E0     		b	.L43
 980              	.L44:
 463:../firmware/gd32f3x0_hal_peripheral/Source/gd32f3x0_hal_i2c.c ****     }
 464:../firmware/gd32f3x0_hal_peripheral/Source/gd32f3x0_hal_i2c.c **** 
 465:../firmware/gd32f3x0_hal_peripheral/Source/gd32f3x0_hal_i2c.c ****     /* initialize transmit parameters */
 466:../firmware/gd32f3x0_hal_peripheral/Source/gd32f3x0_hal_i2c.c ****     i2c_dev->txbuffer.buffer = (uint8_t *)p_buffer;
 981              		.loc 1 466 30
 982 0038 FB68     		ldr	r3, [r7, #12]
 983 003a BA68     		ldr	r2, [r7, #8]
 984 003c 5A61     		str	r2, [r3, #20]
 467:../firmware/gd32f3x0_hal_peripheral/Source/gd32f3x0_hal_i2c.c ****     i2c_dev->txbuffer.length = length;
 985              		.loc 1 467 30
 986 003e FB68     		ldr	r3, [r7, #12]
 987 0040 7A68     		ldr	r2, [r7, #4]
 988 0042 9A61     		str	r2, [r3, #24]
 468:../firmware/gd32f3x0_hal_peripheral/Source/gd32f3x0_hal_i2c.c ****     i2c_dev->txbuffer.pos = 0;
 989              		.loc 1 468 27
 990 0044 FB68     		ldr	r3, [r7, #12]
 991 0046 0022     		movs	r2, #0
 992 0048 DA61     		str	r2, [r3, #28]
 469:../firmware/gd32f3x0_hal_peripheral/Source/gd32f3x0_hal_i2c.c ****     data_length = i2c_dev->txbuffer.length;
 993              		.loc 1 469 17
 994 004a FB68     		ldr	r3, [r7, #12]
 995 004c 9B69     		ldr	r3, [r3, #24]
 996 004e 7B61     		str	r3, [r7, #20]
 470:../firmware/gd32f3x0_hal_peripheral/Source/gd32f3x0_hal_i2c.c **** 
 471:../firmware/gd32f3x0_hal_peripheral/Source/gd32f3x0_hal_i2c.c ****     /* wait until I2C bus is idle */
 472:../firmware/gd32f3x0_hal_peripheral/Source/gd32f3x0_hal_i2c.c ****     if(HAL_ERR_NONE != _i2c_wait_flag_timeout(i2c_dev->periph, I2C_FLAG_I2CBSY, RESET, timeout_ms))
 997              		.loc 1 472 24
 998 0050 FB68     		ldr	r3, [r7, #12]
 999 0052 1868     		ldr	r0, [r3]
 1000 0054 3B68     		ldr	r3, [r7]
 1001 0056 0022     		movs	r2, #0
 1002 0058 40F20161 		movw	r1, #1537
 1003 005c FFF7FEFF 		bl	_i2c_wait_flag_timeout
 1004 0060 0346     		mov	r3, r0
 1005              		.loc 1 472 7
 1006 0062 002B     		cmp	r3, #0
 1007 0064 02D0     		beq	.L45
 473:../firmware/gd32f3x0_hal_peripheral/Source/gd32f3x0_hal_i2c.c ****         HAL_DEBUGW("i2c busy timeout");
 474:../firmware/gd32f3x0_hal_peripheral/Source/gd32f3x0_hal_i2c.c ****         return HAL_ERR_TIMEOUT;
 1008              		.loc 1 474 16
 1009 0066 6FF00403 		mvn	r3, #4
 1010 006a 58E0     		b	.L43
 1011              	.L45:
 475:../firmware/gd32f3x0_hal_peripheral/Source/gd32f3x0_hal_i2c.c ****     }
 476:../firmware/gd32f3x0_hal_peripheral/Source/gd32f3x0_hal_i2c.c **** 
 477:../firmware/gd32f3x0_hal_peripheral/Source/gd32f3x0_hal_i2c.c ****     i2c_dev->tx_state = HAL_I2C_STATE_BUSY;
 1012              		.loc 1 477 23
 1013 006c FB68     		ldr	r3, [r7, #12]
 1014 006e 0122     		movs	r2, #1
 1015 0070 83F84020 		strb	r2, [r3, #64]
 478:../firmware/gd32f3x0_hal_peripheral/Source/gd32f3x0_hal_i2c.c ****     i2c_dev->error_state = HAL_I2C_ERROR_NONE;
 1016              		.loc 1 478 26
 1017 0074 FB68     		ldr	r3, [r7, #12]
 1018 0076 0022     		movs	r2, #0
 1019 0078 DA63     		str	r2, [r3, #60]
 479:../firmware/gd32f3x0_hal_peripheral/Source/gd32f3x0_hal_i2c.c ****     /* master sends device address for write request */
 480:../firmware/gd32f3x0_hal_peripheral/Source/gd32f3x0_hal_i2c.c ****     if(HAL_ERR_NONE != _i2c_master_write(i2c_dev, timeout_ms)) {
 1020              		.loc 1 480 24
 1021 007a 3968     		ldr	r1, [r7]
 1022 007c F868     		ldr	r0, [r7, #12]
 1023 007e FFF7FEFF 		bl	_i2c_master_write
 1024 0082 0346     		mov	r3, r0
 1025              		.loc 1 480 7
 1026 0084 002B     		cmp	r3, #0
 1027 0086 02D0     		beq	.L46
 481:../firmware/gd32f3x0_hal_peripheral/Source/gd32f3x0_hal_i2c.c ****         return HAL_ERR_TIMEOUT;
 1028              		.loc 1 481 16
 1029 0088 6FF00403 		mvn	r3, #4
 1030 008c 47E0     		b	.L43
 1031              	.L46:
 482:../firmware/gd32f3x0_hal_peripheral/Source/gd32f3x0_hal_i2c.c ****     }
 483:../firmware/gd32f3x0_hal_peripheral/Source/gd32f3x0_hal_i2c.c ****     /* clear ADDSEND bit */
 484:../firmware/gd32f3x0_hal_peripheral/Source/gd32f3x0_hal_i2c.c ****     hals_i2c_flag_clear(i2c_dev->periph, I2C_FLAG_ADDSEND);
 1032              		.loc 1 484 5
 1033 008e FB68     		ldr	r3, [r7, #12]
 1034 0090 1B68     		ldr	r3, [r3]
 1035 0092 40F20151 		movw	r1, #1281
 1036 0096 1846     		mov	r0, r3
 1037 0098 FFF7FEFF 		bl	hals_i2c_flag_clear
 485:../firmware/gd32f3x0_hal_peripheral/Source/gd32f3x0_hal_i2c.c ****     while(i2c_dev->txbuffer.pos < data_length) {
 1038              		.loc 1 485 10
 1039 009c 21E0     		b	.L47
 1040              	.L49:
 486:../firmware/gd32f3x0_hal_peripheral/Source/gd32f3x0_hal_i2c.c ****         /* wait until the transmission data register is empty */
 487:../firmware/gd32f3x0_hal_peripheral/Source/gd32f3x0_hal_i2c.c ****         if(HAL_ERR_NONE != _i2c_wait_flag_timeout(i2c_dev->periph, I2C_FLAG_TBE, SET, timeout_ms)) 
 1041              		.loc 1 487 28
 1042 009e FB68     		ldr	r3, [r7, #12]
 1043 00a0 1868     		ldr	r0, [r3]
 1044 00a2 3B68     		ldr	r3, [r7]
 1045 00a4 0122     		movs	r2, #1
 1046 00a6 40F20751 		movw	r1, #1287
 1047 00aa FFF7FEFF 		bl	_i2c_wait_flag_timeout
 1048 00ae 0346     		mov	r3, r0
 1049              		.loc 1 487 11
 1050 00b0 002B     		cmp	r3, #0
 1051 00b2 02D0     		beq	.L48
 488:../firmware/gd32f3x0_hal_peripheral/Source/gd32f3x0_hal_i2c.c ****             HAL_DEBUGW("i2c get TBE timeout");
 489:../firmware/gd32f3x0_hal_peripheral/Source/gd32f3x0_hal_i2c.c ****             return HAL_ERR_TIMEOUT;
 1052              		.loc 1 489 20
 1053 00b4 6FF00403 		mvn	r3, #4
 1054 00b8 31E0     		b	.L43
 1055              	.L48:
 490:../firmware/gd32f3x0_hal_peripheral/Source/gd32f3x0_hal_i2c.c ****         }
 491:../firmware/gd32f3x0_hal_peripheral/Source/gd32f3x0_hal_i2c.c ****         hals_i2c_data_transmit(i2c_dev->periph, *i2c_dev->txbuffer.buffer);
 1056              		.loc 1 491 9
 1057 00ba FB68     		ldr	r3, [r7, #12]
 1058 00bc 1A68     		ldr	r2, [r3]
 1059              		.loc 1 491 67
 1060 00be FB68     		ldr	r3, [r7, #12]
 1061 00c0 5B69     		ldr	r3, [r3, #20]
 1062              		.loc 1 491 9
 1063 00c2 1B78     		ldrb	r3, [r3]
 1064 00c4 DBB2     		uxtb	r3, r3
 1065 00c6 1946     		mov	r1, r3
 1066 00c8 1046     		mov	r0, r2
 1067 00ca FFF7FEFF 		bl	hals_i2c_data_transmit
 492:../firmware/gd32f3x0_hal_peripheral/Source/gd32f3x0_hal_i2c.c ****         i2c_dev->txbuffer.buffer++;
 1068              		.loc 1 492 26
 1069 00ce FB68     		ldr	r3, [r7, #12]
 1070 00d0 5B69     		ldr	r3, [r3, #20]
 1071              		.loc 1 492 33
 1072 00d2 5A1C     		adds	r2, r3, #1
 1073 00d4 FB68     		ldr	r3, [r7, #12]
 1074 00d6 5A61     		str	r2, [r3, #20]
 493:../firmware/gd32f3x0_hal_peripheral/Source/gd32f3x0_hal_i2c.c ****         i2c_dev->txbuffer.pos++;
 1075              		.loc 1 493 26
 1076 00d8 FB68     		ldr	r3, [r7, #12]
 1077 00da DB69     		ldr	r3, [r3, #28]
 1078              		.loc 1 493 30
 1079 00dc 5A1C     		adds	r2, r3, #1
 1080 00de FB68     		ldr	r3, [r7, #12]
 1081 00e0 DA61     		str	r2, [r3, #28]
 1082              	.L47:
 485:../firmware/gd32f3x0_hal_peripheral/Source/gd32f3x0_hal_i2c.c ****         /* wait until the transmission data register is empty */
 1083              		.loc 1 485 28
 1084 00e2 FB68     		ldr	r3, [r7, #12]
 1085 00e4 DB69     		ldr	r3, [r3, #28]
 485:../firmware/gd32f3x0_hal_peripheral/Source/gd32f3x0_hal_i2c.c ****         /* wait until the transmission data register is empty */
 1086              		.loc 1 485 10
 1087 00e6 7A69     		ldr	r2, [r7, #20]
 1088 00e8 9A42     		cmp	r2, r3
 1089 00ea D8D8     		bhi	.L49
 494:../firmware/gd32f3x0_hal_peripheral/Source/gd32f3x0_hal_i2c.c ****     }
 495:../firmware/gd32f3x0_hal_peripheral/Source/gd32f3x0_hal_i2c.c ****     /* send a stop condition to I2C bus */
 496:../firmware/gd32f3x0_hal_peripheral/Source/gd32f3x0_hal_i2c.c ****     HAL_I2C_STOP_ON_BUS(i2c_dev->periph);
 1090              		.loc 1 496 5
 1091 00ec FB68     		ldr	r3, [r7, #12]
 1092 00ee 1B68     		ldr	r3, [r3]
 1093 00f0 1B68     		ldr	r3, [r3]
 1094 00f2 FA68     		ldr	r2, [r7, #12]
 1095 00f4 1268     		ldr	r2, [r2]
 1096 00f6 43F40073 		orr	r3, r3, #512
 1097 00fa 1360     		str	r3, [r2]
 497:../firmware/gd32f3x0_hal_peripheral/Source/gd32f3x0_hal_i2c.c ****     while(I2C_CTL0(i2c_dev->periph) & 0x0200);
 1098              		.loc 1 497 10
 1099 00fc 00BF     		nop
 1100              	.L50:
 1101              		.loc 1 497 11 discriminator 1
 1102 00fe FB68     		ldr	r3, [r7, #12]
 1103 0100 1B68     		ldr	r3, [r3]
 1104 0102 1B68     		ldr	r3, [r3]
 1105              		.loc 1 497 37 discriminator 1
 1106 0104 03F40073 		and	r3, r3, #512
 1107              		.loc 1 497 10 discriminator 1
 1108 0108 002B     		cmp	r3, #0
 1109 010a F8D1     		bne	.L50
 498:../firmware/gd32f3x0_hal_peripheral/Source/gd32f3x0_hal_i2c.c ****     i2c_dev->tx_state = HAL_I2C_STATE_READY;
 1110              		.loc 1 498 23
 1111 010c FB68     		ldr	r3, [r7, #12]
 1112 010e 0022     		movs	r2, #0
 1113 0110 83F84020 		strb	r2, [r3, #64]
 499:../firmware/gd32f3x0_hal_peripheral/Source/gd32f3x0_hal_i2c.c **** 
 500:../firmware/gd32f3x0_hal_peripheral/Source/gd32f3x0_hal_i2c.c ****     HAL_UNLOCK(i2c_dev);
 1114              		.loc 1 500 5
 1115 0114 FB68     		ldr	r3, [r7, #12]
 1116 0116 0022     		movs	r2, #0
 1117 0118 83F85020 		strb	r2, [r3, #80]
 501:../firmware/gd32f3x0_hal_peripheral/Source/gd32f3x0_hal_i2c.c ****     return HAL_ERR_NONE;
 1118              		.loc 1 501 12
 1119 011c 0023     		movs	r3, #0
 1120              	.L43:
 502:../firmware/gd32f3x0_hal_peripheral/Source/gd32f3x0_hal_i2c.c **** }
 1121              		.loc 1 502 1
 1122 011e 1846     		mov	r0, r3
 1123 0120 1837     		adds	r7, r7, #24
 1124              		.cfi_def_cfa_offset 8
 1125 0122 BD46     		mov	sp, r7
 1126              		.cfi_def_cfa_register 13
 1127              		@ sp needed
 1128 0124 80BD     		pop	{r7, pc}
 1129              		.cfi_endproc
 1130              	.LFE128:
 1132              		.section	.text.hal_i2c_master_receive_poll,"ax",%progbits
 1133              		.align	1
 1134              		.global	hal_i2c_master_receive_poll
 1135              		.syntax unified
 1136              		.thumb
 1137              		.thumb_func
 1138              		.fpu softvfp
 1140              	hal_i2c_master_receive_poll:
 1141              	.LFB129:
 503:../firmware/gd32f3x0_hal_peripheral/Source/gd32f3x0_hal_i2c.c **** 
 504:../firmware/gd32f3x0_hal_peripheral/Source/gd32f3x0_hal_i2c.c **** /*!
 505:../firmware/gd32f3x0_hal_peripheral/Source/gd32f3x0_hal_i2c.c ****     \brief      receive amounts of data in master mode, poll receive process and completed
 506:../firmware/gd32f3x0_hal_peripheral/Source/gd32f3x0_hal_i2c.c ****                 status, the function is blocking
 507:../firmware/gd32f3x0_hal_peripheral/Source/gd32f3x0_hal_i2c.c ****     \param[in]  i2c_dev: I2C device information structrue
 508:../firmware/gd32f3x0_hal_peripheral/Source/gd32f3x0_hal_i2c.c ****                   the structure is not necessary to be reconfigured after structrue initialization,
 509:../firmware/gd32f3x0_hal_peripheral/Source/gd32f3x0_hal_i2c.c ****                   the structure parameters altering is automatically configured by core
 510:../firmware/gd32f3x0_hal_peripheral/Source/gd32f3x0_hal_i2c.c ****     \param[in]  p_buffer: pointer to rxbuffer
 511:../firmware/gd32f3x0_hal_peripheral/Source/gd32f3x0_hal_i2c.c ****     \param[in]  length: length of data to be read
 512:../firmware/gd32f3x0_hal_peripheral/Source/gd32f3x0_hal_i2c.c ****     \param[in]  timeout_ms: timeout duration
 513:../firmware/gd32f3x0_hal_peripheral/Source/gd32f3x0_hal_i2c.c ****     \param[out] none
 514:../firmware/gd32f3x0_hal_peripheral/Source/gd32f3x0_hal_i2c.c ****     \retval     error code: HAL_ERR_NONE, HAL_ERR_ADDRESS, HAL_ERR_TIMEOUT, HAL_ERR_BUSY,
 515:../firmware/gd32f3x0_hal_peripheral/Source/gd32f3x0_hal_i2c.c ****                 details refer to gd32f3x0_hal.h
 516:../firmware/gd32f3x0_hal_peripheral/Source/gd32f3x0_hal_i2c.c **** */
 517:../firmware/gd32f3x0_hal_peripheral/Source/gd32f3x0_hal_i2c.c **** int32_t hal_i2c_master_receive_poll(hal_i2c_dev_struct *i2c_dev, uint8_t *p_buffer, \
 518:../firmware/gd32f3x0_hal_peripheral/Source/gd32f3x0_hal_i2c.c ****                                     uint32_t length, uint32_t timeout_ms)
 519:../firmware/gd32f3x0_hal_peripheral/Source/gd32f3x0_hal_i2c.c **** {
 1142              		.loc 1 519 1
 1143              		.cfi_startproc
 1144              		@ args = 0, pretend = 0, frame = 16
 1145              		@ frame_needed = 1, uses_anonymous_args = 0
 1146 0000 90B5     		push	{r4, r7, lr}
 1147              		.cfi_def_cfa_offset 12
 1148              		.cfi_offset 4, -12
 1149              		.cfi_offset 7, -8
 1150              		.cfi_offset 14, -4
 1151 0002 85B0     		sub	sp, sp, #20
 1152              		.cfi_def_cfa_offset 32
 1153 0004 00AF     		add	r7, sp, #0
 1154              		.cfi_def_cfa_register 7
 1155 0006 F860     		str	r0, [r7, #12]
 1156 0008 B960     		str	r1, [r7, #8]
 1157 000a 7A60     		str	r2, [r7, #4]
 1158 000c 3B60     		str	r3, [r7]
 520:../firmware/gd32f3x0_hal_peripheral/Source/gd32f3x0_hal_i2c.c **** #if (1 == HAL_PARAMETER_CHECK)
 521:../firmware/gd32f3x0_hal_peripheral/Source/gd32f3x0_hal_i2c.c ****     /* check the parameters */
 522:../firmware/gd32f3x0_hal_peripheral/Source/gd32f3x0_hal_i2c.c ****     if((NULL == i2c_dev) || (NULL == p_buffer) || (0U == length)) {
 523:../firmware/gd32f3x0_hal_peripheral/Source/gd32f3x0_hal_i2c.c ****         HAL_DEBUGE("parameter [i2c_dev] or [p_buffer] or [length] value is invalid");
 524:../firmware/gd32f3x0_hal_peripheral/Source/gd32f3x0_hal_i2c.c ****         return HAL_ERR_ADDRESS;
 525:../firmware/gd32f3x0_hal_peripheral/Source/gd32f3x0_hal_i2c.c ****     }
 526:../firmware/gd32f3x0_hal_peripheral/Source/gd32f3x0_hal_i2c.c **** #endif /* 1 == HAL_PARAMETER_CHECK */
 527:../firmware/gd32f3x0_hal_peripheral/Source/gd32f3x0_hal_i2c.c **** 
 528:../firmware/gd32f3x0_hal_peripheral/Source/gd32f3x0_hal_i2c.c ****     HAL_LOCK(i2c_dev);
 1159              		.loc 1 528 5
 1160 000e FB68     		ldr	r3, [r7, #12]
 1161 0010 93F85030 		ldrb	r3, [r3, #80]	@ zero_extendqisi2
 1162 0014 012B     		cmp	r3, #1
 1163 0016 02D1     		bne	.L52
 1164              		.loc 1 528 5 is_stmt 0 discriminator 1
 1165 0018 6FF00103 		mvn	r3, #1
 1166 001c A5E1     		b	.L53
 1167              	.L52:
 1168              		.loc 1 528 5 discriminator 2
 1169 001e FB68     		ldr	r3, [r7, #12]
 1170 0020 0122     		movs	r2, #1
 1171 0022 83F85020 		strb	r2, [r3, #80]
 529:../firmware/gd32f3x0_hal_peripheral/Source/gd32f3x0_hal_i2c.c ****     /* check the rx_state whether it is busy or not */
 530:../firmware/gd32f3x0_hal_peripheral/Source/gd32f3x0_hal_i2c.c ****     if(HAL_I2C_STATE_BUSY == i2c_dev->rx_state) {
 1172              		.loc 1 530 37 is_stmt 1 discriminator 2
 1173 0026 FB68     		ldr	r3, [r7, #12]
 1174 0028 93F84130 		ldrb	r3, [r3, #65]
 1175 002c DBB2     		uxtb	r3, r3
 1176              		.loc 1 530 7 discriminator 2
 1177 002e 012B     		cmp	r3, #1
 1178 0030 02D1     		bne	.L54
 531:../firmware/gd32f3x0_hal_peripheral/Source/gd32f3x0_hal_i2c.c ****         HAL_DEBUGE("i2c rx has already been used, please wait until run_state change to free ");
 532:../firmware/gd32f3x0_hal_peripheral/Source/gd32f3x0_hal_i2c.c ****         return HAL_ERR_BUSY;
 1179              		.loc 1 532 16
 1180 0032 6FF00203 		mvn	r3, #2
 1181 0036 98E1     		b	.L53
 1182              	.L54:
 533:../firmware/gd32f3x0_hal_peripheral/Source/gd32f3x0_hal_i2c.c ****     }
 534:../firmware/gd32f3x0_hal_peripheral/Source/gd32f3x0_hal_i2c.c **** 
 535:../firmware/gd32f3x0_hal_peripheral/Source/gd32f3x0_hal_i2c.c ****     /* initialize receive parameters */
 536:../firmware/gd32f3x0_hal_peripheral/Source/gd32f3x0_hal_i2c.c ****     i2c_dev->rxbuffer.buffer = (uint8_t *)p_buffer;
 1183              		.loc 1 536 30
 1184 0038 FB68     		ldr	r3, [r7, #12]
 1185 003a BA68     		ldr	r2, [r7, #8]
 1186 003c 1A62     		str	r2, [r3, #32]
 537:../firmware/gd32f3x0_hal_peripheral/Source/gd32f3x0_hal_i2c.c ****     i2c_dev->rxbuffer.length = length;
 1187              		.loc 1 537 30
 1188 003e FB68     		ldr	r3, [r7, #12]
 1189 0040 7A68     		ldr	r2, [r7, #4]
 1190 0042 5A62     		str	r2, [r3, #36]
 538:../firmware/gd32f3x0_hal_peripheral/Source/gd32f3x0_hal_i2c.c ****     i2c_dev->rxbuffer.pos = 0;
 1191              		.loc 1 538 27
 1192 0044 FB68     		ldr	r3, [r7, #12]
 1193 0046 0022     		movs	r2, #0
 1194 0048 9A62     		str	r2, [r3, #40]
 539:../firmware/gd32f3x0_hal_peripheral/Source/gd32f3x0_hal_i2c.c **** 
 540:../firmware/gd32f3x0_hal_peripheral/Source/gd32f3x0_hal_i2c.c ****     /* wait until I2C bus is idle */
 541:../firmware/gd32f3x0_hal_peripheral/Source/gd32f3x0_hal_i2c.c ****     if(HAL_ERR_NONE != _i2c_wait_flag_timeout(i2c_dev->periph, I2C_FLAG_I2CBSY, RESET, timeout_ms))
 1195              		.loc 1 541 24
 1196 004a FB68     		ldr	r3, [r7, #12]
 1197 004c 1868     		ldr	r0, [r3]
 1198 004e 3B68     		ldr	r3, [r7]
 1199 0050 0022     		movs	r2, #0
 1200 0052 40F20161 		movw	r1, #1537
 1201 0056 FFF7FEFF 		bl	_i2c_wait_flag_timeout
 1202 005a 0346     		mov	r3, r0
 1203              		.loc 1 541 7
 1204 005c 002B     		cmp	r3, #0
 1205 005e 02D0     		beq	.L55
 542:../firmware/gd32f3x0_hal_peripheral/Source/gd32f3x0_hal_i2c.c ****         HAL_DEBUGW("i2c busy timeout");
 543:../firmware/gd32f3x0_hal_peripheral/Source/gd32f3x0_hal_i2c.c ****         return HAL_ERR_TIMEOUT;
 1206              		.loc 1 543 16
 1207 0060 6FF00403 		mvn	r3, #4
 1208 0064 81E1     		b	.L53
 1209              	.L55:
 544:../firmware/gd32f3x0_hal_peripheral/Source/gd32f3x0_hal_i2c.c ****     }
 545:../firmware/gd32f3x0_hal_peripheral/Source/gd32f3x0_hal_i2c.c **** 
 546:../firmware/gd32f3x0_hal_peripheral/Source/gd32f3x0_hal_i2c.c ****     i2c_dev->rx_state = HAL_I2C_STATE_BUSY;
 1210              		.loc 1 546 23
 1211 0066 FB68     		ldr	r3, [r7, #12]
 1212 0068 0122     		movs	r2, #1
 1213 006a 83F84120 		strb	r2, [r3, #65]
 547:../firmware/gd32f3x0_hal_peripheral/Source/gd32f3x0_hal_i2c.c ****     i2c_dev->last_error = HAL_I2C_ERROR_NONE;
 1214              		.loc 1 547 25
 1215 006e FB68     		ldr	r3, [r7, #12]
 1216 0070 0022     		movs	r2, #0
 1217 0072 5A87     		strh	r2, [r3, #58]	@ movhi
 548:../firmware/gd32f3x0_hal_peripheral/Source/gd32f3x0_hal_i2c.c ****     /* master sends device address for read request */
 549:../firmware/gd32f3x0_hal_peripheral/Source/gd32f3x0_hal_i2c.c ****     if(HAL_ERR_NONE != _i2c_master_read(i2c_dev, timeout_ms)) {
 1218              		.loc 1 549 24
 1219 0074 3968     		ldr	r1, [r7]
 1220 0076 F868     		ldr	r0, [r7, #12]
 1221 0078 FFF7FEFF 		bl	_i2c_master_read
 1222 007c 0346     		mov	r3, r0
 1223              		.loc 1 549 7
 1224 007e 002B     		cmp	r3, #0
 1225 0080 02D0     		beq	.L56
 550:../firmware/gd32f3x0_hal_peripheral/Source/gd32f3x0_hal_i2c.c ****         return HAL_ERR_TIMEOUT;
 1226              		.loc 1 550 16
 1227 0082 6FF00403 		mvn	r3, #4
 1228 0086 70E1     		b	.L53
 1229              	.L56:
 551:../firmware/gd32f3x0_hal_peripheral/Source/gd32f3x0_hal_i2c.c ****     }
 552:../firmware/gd32f3x0_hal_peripheral/Source/gd32f3x0_hal_i2c.c ****     if(1 == i2c_dev->rxbuffer.length) {
 1230              		.loc 1 552 30
 1231 0088 FB68     		ldr	r3, [r7, #12]
 1232 008a 5B6A     		ldr	r3, [r3, #36]
 1233              		.loc 1 552 7
 1234 008c 012B     		cmp	r3, #1
 1235 008e 15D1     		bne	.L57
 553:../firmware/gd32f3x0_hal_peripheral/Source/gd32f3x0_hal_i2c.c ****         /* disable acknowledge */
 554:../firmware/gd32f3x0_hal_peripheral/Source/gd32f3x0_hal_i2c.c ****         hals_i2c_ack_config(i2c_dev->periph, I2C_ACK_DISABLE);
 1236              		.loc 1 554 9
 1237 0090 FB68     		ldr	r3, [r7, #12]
 1238 0092 1B68     		ldr	r3, [r3]
 1239 0094 0021     		movs	r1, #0
 1240 0096 1846     		mov	r0, r3
 1241 0098 FFF7FEFF 		bl	hals_i2c_ack_config
 555:../firmware/gd32f3x0_hal_peripheral/Source/gd32f3x0_hal_i2c.c ****         /* clear ADDSEND bit */
 556:../firmware/gd32f3x0_hal_peripheral/Source/gd32f3x0_hal_i2c.c ****         hals_i2c_flag_clear(i2c_dev->periph, I2C_FLAG_ADDSEND);
 1242              		.loc 1 556 9
 1243 009c FB68     		ldr	r3, [r7, #12]
 1244 009e 1B68     		ldr	r3, [r3]
 1245 00a0 40F20151 		movw	r1, #1281
 1246 00a4 1846     		mov	r0, r3
 1247 00a6 FFF7FEFF 		bl	hals_i2c_flag_clear
 557:../firmware/gd32f3x0_hal_peripheral/Source/gd32f3x0_hal_i2c.c ****         /* send a stop condition to I2C bus*/
 558:../firmware/gd32f3x0_hal_peripheral/Source/gd32f3x0_hal_i2c.c ****         HAL_I2C_STOP_ON_BUS(i2c_dev->periph);
 1248              		.loc 1 558 9
 1249 00aa FB68     		ldr	r3, [r7, #12]
 1250 00ac 1B68     		ldr	r3, [r3]
 1251 00ae 1B68     		ldr	r3, [r3]
 1252 00b0 FA68     		ldr	r2, [r7, #12]
 1253 00b2 1268     		ldr	r2, [r2]
 1254 00b4 43F40073 		orr	r3, r3, #512
 1255 00b8 1360     		str	r3, [r2]
 1256 00ba 48E1     		b	.L60
 1257              	.L57:
 559:../firmware/gd32f3x0_hal_peripheral/Source/gd32f3x0_hal_i2c.c ****     } else if(2 == i2c_dev->rxbuffer.length) {
 1258              		.loc 1 559 37
 1259 00bc FB68     		ldr	r3, [r7, #12]
 1260 00be 5B6A     		ldr	r3, [r3, #36]
 1261              		.loc 1 559 14
 1262 00c0 022B     		cmp	r3, #2
 1263 00c2 14D1     		bne	.L59
 560:../firmware/gd32f3x0_hal_peripheral/Source/gd32f3x0_hal_i2c.c ****         /* send a NACK for the next data byte which will be received into the shift register */
 561:../firmware/gd32f3x0_hal_peripheral/Source/gd32f3x0_hal_i2c.c ****         hals_i2c_ackpos_config(i2c_dev->periph, I2C_ACKPOS_NEXT);
 1264              		.loc 1 561 9
 1265 00c4 FB68     		ldr	r3, [r7, #12]
 1266 00c6 1B68     		ldr	r3, [r3]
 1267 00c8 4FF40061 		mov	r1, #2048
 1268 00cc 1846     		mov	r0, r3
 1269 00ce FFF7FEFF 		bl	hals_i2c_ackpos_config
 562:../firmware/gd32f3x0_hal_peripheral/Source/gd32f3x0_hal_i2c.c ****         /* disable acknowledge */
 563:../firmware/gd32f3x0_hal_peripheral/Source/gd32f3x0_hal_i2c.c ****         hals_i2c_ack_config(i2c_dev->periph, I2C_ACK_DISABLE);
 1270              		.loc 1 563 9
 1271 00d2 FB68     		ldr	r3, [r7, #12]
 1272 00d4 1B68     		ldr	r3, [r3]
 1273 00d6 0021     		movs	r1, #0
 1274 00d8 1846     		mov	r0, r3
 1275 00da FFF7FEFF 		bl	hals_i2c_ack_config
 564:../firmware/gd32f3x0_hal_peripheral/Source/gd32f3x0_hal_i2c.c ****         /* clear ADDSEND bit */
 565:../firmware/gd32f3x0_hal_peripheral/Source/gd32f3x0_hal_i2c.c ****         hals_i2c_flag_clear(i2c_dev->periph, I2C_FLAG_ADDSEND);
 1276              		.loc 1 565 9
 1277 00de FB68     		ldr	r3, [r7, #12]
 1278 00e0 1B68     		ldr	r3, [r3]
 1279 00e2 40F20151 		movw	r1, #1281
 1280 00e6 1846     		mov	r0, r3
 1281 00e8 FFF7FEFF 		bl	hals_i2c_flag_clear
 1282 00ec 2FE1     		b	.L60
 1283              	.L59:
 566:../firmware/gd32f3x0_hal_peripheral/Source/gd32f3x0_hal_i2c.c ****     } else {
 567:../firmware/gd32f3x0_hal_peripheral/Source/gd32f3x0_hal_i2c.c ****         /* enable acknowledge */
 568:../firmware/gd32f3x0_hal_peripheral/Source/gd32f3x0_hal_i2c.c ****         hals_i2c_ack_config(i2c_dev->periph, I2C_ACK_ENABLE);
 1284              		.loc 1 568 9
 1285 00ee FB68     		ldr	r3, [r7, #12]
 1286 00f0 1B68     		ldr	r3, [r3]
 1287 00f2 4FF48061 		mov	r1, #1024
 1288 00f6 1846     		mov	r0, r3
 1289 00f8 FFF7FEFF 		bl	hals_i2c_ack_config
 569:../firmware/gd32f3x0_hal_peripheral/Source/gd32f3x0_hal_i2c.c ****         /* clear ADDSEND bit */
 570:../firmware/gd32f3x0_hal_peripheral/Source/gd32f3x0_hal_i2c.c ****         hals_i2c_flag_clear(i2c_dev->periph, I2C_FLAG_ADDSEND);
 1290              		.loc 1 570 9
 1291 00fc FB68     		ldr	r3, [r7, #12]
 1292 00fe 1B68     		ldr	r3, [r3]
 1293 0100 40F20151 		movw	r1, #1281
 1294 0104 1846     		mov	r0, r3
 1295 0106 FFF7FEFF 		bl	hals_i2c_flag_clear
 571:../firmware/gd32f3x0_hal_peripheral/Source/gd32f3x0_hal_i2c.c ****     }
 572:../firmware/gd32f3x0_hal_peripheral/Source/gd32f3x0_hal_i2c.c ****     while(i2c_dev->rxbuffer.length > 0) {
 1296              		.loc 1 572 10
 1297 010a 20E1     		b	.L60
 1298              	.L72:
 573:../firmware/gd32f3x0_hal_peripheral/Source/gd32f3x0_hal_i2c.c ****         if(i2c_dev->rxbuffer.length <= 3) {
 1299              		.loc 1 573 29
 1300 010c FB68     		ldr	r3, [r7, #12]
 1301 010e 5B6A     		ldr	r3, [r3, #36]
 1302              		.loc 1 573 11
 1303 0110 032B     		cmp	r3, #3
 1304 0112 00F2FB80 		bhi	.L61
 574:../firmware/gd32f3x0_hal_peripheral/Source/gd32f3x0_hal_i2c.c ****             if(1 == i2c_dev->rxbuffer.length) {
 1305              		.loc 1 574 38
 1306 0116 FB68     		ldr	r3, [r7, #12]
 1307 0118 5B6A     		ldr	r3, [r3, #36]
 1308              		.loc 1 574 15
 1309 011a 012B     		cmp	r3, #1
 1310 011c 21D1     		bne	.L62
 575:../firmware/gd32f3x0_hal_peripheral/Source/gd32f3x0_hal_i2c.c ****                 /* wait until the RBNE bit is set */
 576:../firmware/gd32f3x0_hal_peripheral/Source/gd32f3x0_hal_i2c.c ****                 if(HAL_ERR_NONE != _i2c_wait_flag_timeout(i2c_dev->periph, I2C_FLAG_RBNE, SET, time
 1311              		.loc 1 576 36
 1312 011e FB68     		ldr	r3, [r7, #12]
 1313 0120 1868     		ldr	r0, [r3]
 1314 0122 3B68     		ldr	r3, [r7]
 1315 0124 0122     		movs	r2, #1
 1316 0126 40F20651 		movw	r1, #1286
 1317 012a FFF7FEFF 		bl	_i2c_wait_flag_timeout
 1318 012e 0346     		mov	r3, r0
 1319              		.loc 1 576 19
 1320 0130 002B     		cmp	r3, #0
 1321 0132 02D0     		beq	.L63
 577:../firmware/gd32f3x0_hal_peripheral/Source/gd32f3x0_hal_i2c.c ****                     HAL_DEBUGW("i2c get RBNE timeout");
 578:../firmware/gd32f3x0_hal_peripheral/Source/gd32f3x0_hal_i2c.c ****                     return HAL_ERR_TIMEOUT;
 1322              		.loc 1 578 28
 1323 0134 6FF00403 		mvn	r3, #4
 1324 0138 17E1     		b	.L53
 1325              	.L63:
 579:../firmware/gd32f3x0_hal_peripheral/Source/gd32f3x0_hal_i2c.c ****                 }
 580:../firmware/gd32f3x0_hal_peripheral/Source/gd32f3x0_hal_i2c.c **** 
 581:../firmware/gd32f3x0_hal_peripheral/Source/gd32f3x0_hal_i2c.c ****                 *i2c_dev->rxbuffer.buffer = hals_i2c_data_receive(i2c_dev->periph);
 1326              		.loc 1 581 45
 1327 013a FB68     		ldr	r3, [r7, #12]
 1328 013c 1A68     		ldr	r2, [r3]
 1329              		.loc 1 581 35
 1330 013e FB68     		ldr	r3, [r7, #12]
 1331 0140 1C6A     		ldr	r4, [r3, #32]
 1332              		.loc 1 581 45
 1333 0142 1046     		mov	r0, r2
 1334 0144 FFF7FEFF 		bl	hals_i2c_data_receive
 1335 0148 0346     		mov	r3, r0
 1336              		.loc 1 581 43
 1337 014a 2370     		strb	r3, [r4]
 582:../firmware/gd32f3x0_hal_peripheral/Source/gd32f3x0_hal_i2c.c ****                 i2c_dev->rxbuffer.buffer++;
 1338              		.loc 1 582 34
 1339 014c FB68     		ldr	r3, [r7, #12]
 1340 014e 1B6A     		ldr	r3, [r3, #32]
 1341              		.loc 1 582 41
 1342 0150 5A1C     		adds	r2, r3, #1
 1343 0152 FB68     		ldr	r3, [r7, #12]
 1344 0154 1A62     		str	r2, [r3, #32]
 583:../firmware/gd32f3x0_hal_peripheral/Source/gd32f3x0_hal_i2c.c ****                 i2c_dev->rxbuffer.length--;
 1345              		.loc 1 583 34
 1346 0156 FB68     		ldr	r3, [r7, #12]
 1347 0158 5B6A     		ldr	r3, [r3, #36]
 1348              		.loc 1 583 41
 1349 015a 5A1E     		subs	r2, r3, #1
 1350 015c FB68     		ldr	r3, [r7, #12]
 1351 015e 5A62     		str	r2, [r3, #36]
 1352 0160 F5E0     		b	.L60
 1353              	.L62:
 584:../firmware/gd32f3x0_hal_peripheral/Source/gd32f3x0_hal_i2c.c ****             } else if(2 == i2c_dev->rxbuffer.length) {
 1354              		.loc 1 584 45
 1355 0162 FB68     		ldr	r3, [r7, #12]
 1356 0164 5B6A     		ldr	r3, [r3, #36]
 1357              		.loc 1 584 22
 1358 0166 022B     		cmp	r3, #2
 1359 0168 5ED1     		bne	.L64
 585:../firmware/gd32f3x0_hal_peripheral/Source/gd32f3x0_hal_i2c.c ****                 hals_i2c_ack_config(i2c_dev->periph, I2C_ACK_DISABLE);
 1360              		.loc 1 585 17
 1361 016a FB68     		ldr	r3, [r7, #12]
 1362 016c 1B68     		ldr	r3, [r3]
 1363 016e 0021     		movs	r1, #0
 1364 0170 1846     		mov	r0, r3
 1365 0172 FFF7FEFF 		bl	hals_i2c_ack_config
 586:../firmware/gd32f3x0_hal_peripheral/Source/gd32f3x0_hal_i2c.c ****                 /* wait until the BTC bit is set */
 587:../firmware/gd32f3x0_hal_peripheral/Source/gd32f3x0_hal_i2c.c ****                 if(HAL_ERR_NONE != _i2c_wait_flag_timeout(i2c_dev->periph, I2C_FLAG_BTC, SET, timeo
 1366              		.loc 1 587 36
 1367 0176 FB68     		ldr	r3, [r7, #12]
 1368 0178 1868     		ldr	r0, [r3]
 1369 017a 3B68     		ldr	r3, [r7]
 1370 017c 0122     		movs	r2, #1
 1371 017e 40F20251 		movw	r1, #1282
 1372 0182 FFF7FEFF 		bl	_i2c_wait_flag_timeout
 1373 0186 0346     		mov	r3, r0
 1374              		.loc 1 587 19
 1375 0188 002B     		cmp	r3, #0
 1376 018a 02D0     		beq	.L65
 588:../firmware/gd32f3x0_hal_peripheral/Source/gd32f3x0_hal_i2c.c ****                     HAL_DEBUGW("i2c get BTC timeout");
 589:../firmware/gd32f3x0_hal_peripheral/Source/gd32f3x0_hal_i2c.c ****                     return HAL_ERR_TIMEOUT;
 1377              		.loc 1 589 28
 1378 018c 6FF00403 		mvn	r3, #4
 1379 0190 EBE0     		b	.L53
 1380              	.L65:
 590:../firmware/gd32f3x0_hal_peripheral/Source/gd32f3x0_hal_i2c.c ****                 }
 591:../firmware/gd32f3x0_hal_peripheral/Source/gd32f3x0_hal_i2c.c ****                 /* wait until the RBNE bit is set */
 592:../firmware/gd32f3x0_hal_peripheral/Source/gd32f3x0_hal_i2c.c ****                 if(HAL_ERR_NONE != _i2c_wait_flag_timeout(i2c_dev->periph, I2C_FLAG_RBNE, SET, time
 1381              		.loc 1 592 36
 1382 0192 FB68     		ldr	r3, [r7, #12]
 1383 0194 1868     		ldr	r0, [r3]
 1384 0196 3B68     		ldr	r3, [r7]
 1385 0198 0122     		movs	r2, #1
 1386 019a 40F20651 		movw	r1, #1286
 1387 019e FFF7FEFF 		bl	_i2c_wait_flag_timeout
 1388 01a2 0346     		mov	r3, r0
 1389              		.loc 1 592 19
 1390 01a4 002B     		cmp	r3, #0
 1391 01a6 02D0     		beq	.L66
 593:../firmware/gd32f3x0_hal_peripheral/Source/gd32f3x0_hal_i2c.c ****                     HAL_DEBUGW("i2c get RBNE timeout");
 594:../firmware/gd32f3x0_hal_peripheral/Source/gd32f3x0_hal_i2c.c ****                     return HAL_ERR_TIMEOUT;
 1392              		.loc 1 594 28
 1393 01a8 6FF00403 		mvn	r3, #4
 1394 01ac DDE0     		b	.L53
 1395              	.L66:
 595:../firmware/gd32f3x0_hal_peripheral/Source/gd32f3x0_hal_i2c.c ****                 }
 596:../firmware/gd32f3x0_hal_peripheral/Source/gd32f3x0_hal_i2c.c **** 
 597:../firmware/gd32f3x0_hal_peripheral/Source/gd32f3x0_hal_i2c.c ****                 *i2c_dev->rxbuffer.buffer = hals_i2c_data_receive(i2c_dev->periph);
 1396              		.loc 1 597 45
 1397 01ae FB68     		ldr	r3, [r7, #12]
 1398 01b0 1A68     		ldr	r2, [r3]
 1399              		.loc 1 597 35
 1400 01b2 FB68     		ldr	r3, [r7, #12]
 1401 01b4 1C6A     		ldr	r4, [r3, #32]
 1402              		.loc 1 597 45
 1403 01b6 1046     		mov	r0, r2
 1404 01b8 FFF7FEFF 		bl	hals_i2c_data_receive
 1405 01bc 0346     		mov	r3, r0
 1406              		.loc 1 597 43
 1407 01be 2370     		strb	r3, [r4]
 598:../firmware/gd32f3x0_hal_peripheral/Source/gd32f3x0_hal_i2c.c ****                 i2c_dev->rxbuffer.buffer++;
 1408              		.loc 1 598 34
 1409 01c0 FB68     		ldr	r3, [r7, #12]
 1410 01c2 1B6A     		ldr	r3, [r3, #32]
 1411              		.loc 1 598 41
 1412 01c4 5A1C     		adds	r2, r3, #1
 1413 01c6 FB68     		ldr	r3, [r7, #12]
 1414 01c8 1A62     		str	r2, [r3, #32]
 599:../firmware/gd32f3x0_hal_peripheral/Source/gd32f3x0_hal_i2c.c ****                 i2c_dev->rxbuffer.length--;
 1415              		.loc 1 599 34
 1416 01ca FB68     		ldr	r3, [r7, #12]
 1417 01cc 5B6A     		ldr	r3, [r3, #36]
 1418              		.loc 1 599 41
 1419 01ce 5A1E     		subs	r2, r3, #1
 1420 01d0 FB68     		ldr	r3, [r7, #12]
 1421 01d2 5A62     		str	r2, [r3, #36]
 600:../firmware/gd32f3x0_hal_peripheral/Source/gd32f3x0_hal_i2c.c ****                 /* wait until the RBNE bit is set */
 601:../firmware/gd32f3x0_hal_peripheral/Source/gd32f3x0_hal_i2c.c ****                 if(HAL_ERR_NONE != _i2c_wait_flag_timeout(i2c_dev->periph, I2C_FLAG_RBNE, SET, time
 1422              		.loc 1 601 36
 1423 01d4 FB68     		ldr	r3, [r7, #12]
 1424 01d6 1868     		ldr	r0, [r3]
 1425 01d8 3B68     		ldr	r3, [r7]
 1426 01da 0122     		movs	r2, #1
 1427 01dc 40F20651 		movw	r1, #1286
 1428 01e0 FFF7FEFF 		bl	_i2c_wait_flag_timeout
 1429 01e4 0346     		mov	r3, r0
 1430              		.loc 1 601 19
 1431 01e6 002B     		cmp	r3, #0
 1432 01e8 02D0     		beq	.L67
 602:../firmware/gd32f3x0_hal_peripheral/Source/gd32f3x0_hal_i2c.c ****                     HAL_DEBUGW("i2c get RBNE timeout");
 603:../firmware/gd32f3x0_hal_peripheral/Source/gd32f3x0_hal_i2c.c ****                     return HAL_ERR_TIMEOUT;
 1433              		.loc 1 603 28
 1434 01ea 6FF00403 		mvn	r3, #4
 1435 01ee BCE0     		b	.L53
 1436              	.L67:
 604:../firmware/gd32f3x0_hal_peripheral/Source/gd32f3x0_hal_i2c.c ****                 }
 605:../firmware/gd32f3x0_hal_peripheral/Source/gd32f3x0_hal_i2c.c **** 
 606:../firmware/gd32f3x0_hal_peripheral/Source/gd32f3x0_hal_i2c.c ****                 *i2c_dev->rxbuffer.buffer = hals_i2c_data_receive(i2c_dev->periph);
 1437              		.loc 1 606 45
 1438 01f0 FB68     		ldr	r3, [r7, #12]
 1439 01f2 1A68     		ldr	r2, [r3]
 1440              		.loc 1 606 35
 1441 01f4 FB68     		ldr	r3, [r7, #12]
 1442 01f6 1C6A     		ldr	r4, [r3, #32]
 1443              		.loc 1 606 45
 1444 01f8 1046     		mov	r0, r2
 1445 01fa FFF7FEFF 		bl	hals_i2c_data_receive
 1446 01fe 0346     		mov	r3, r0
 1447              		.loc 1 606 43
 1448 0200 2370     		strb	r3, [r4]
 607:../firmware/gd32f3x0_hal_peripheral/Source/gd32f3x0_hal_i2c.c ****                 i2c_dev->rxbuffer.buffer++;
 1449              		.loc 1 607 34
 1450 0202 FB68     		ldr	r3, [r7, #12]
 1451 0204 1B6A     		ldr	r3, [r3, #32]
 1452              		.loc 1 607 41
 1453 0206 5A1C     		adds	r2, r3, #1
 1454 0208 FB68     		ldr	r3, [r7, #12]
 1455 020a 1A62     		str	r2, [r3, #32]
 608:../firmware/gd32f3x0_hal_peripheral/Source/gd32f3x0_hal_i2c.c ****                 i2c_dev->rxbuffer.length--;
 1456              		.loc 1 608 34
 1457 020c FB68     		ldr	r3, [r7, #12]
 1458 020e 5B6A     		ldr	r3, [r3, #36]
 1459              		.loc 1 608 41
 1460 0210 5A1E     		subs	r2, r3, #1
 1461 0212 FB68     		ldr	r3, [r7, #12]
 1462 0214 5A62     		str	r2, [r3, #36]
 609:../firmware/gd32f3x0_hal_peripheral/Source/gd32f3x0_hal_i2c.c ****                 HAL_I2C_STOP_ON_BUS(i2c_dev->periph);
 1463              		.loc 1 609 17
 1464 0216 FB68     		ldr	r3, [r7, #12]
 1465 0218 1B68     		ldr	r3, [r3]
 1466 021a 1B68     		ldr	r3, [r3]
 1467 021c FA68     		ldr	r2, [r7, #12]
 1468 021e 1268     		ldr	r2, [r2]
 1469 0220 43F40073 		orr	r3, r3, #512
 1470 0224 1360     		str	r3, [r2]
 1471 0226 92E0     		b	.L60
 1472              	.L64:
 610:../firmware/gd32f3x0_hal_peripheral/Source/gd32f3x0_hal_i2c.c ****             } else {
 611:../firmware/gd32f3x0_hal_peripheral/Source/gd32f3x0_hal_i2c.c ****                 /* wait until the BTC bit is set */
 612:../firmware/gd32f3x0_hal_peripheral/Source/gd32f3x0_hal_i2c.c ****                 if(HAL_ERR_NONE != _i2c_wait_flag_timeout(i2c_dev->periph, I2C_FLAG_BTC, SET, timeo
 1473              		.loc 1 612 36
 1474 0228 FB68     		ldr	r3, [r7, #12]
 1475 022a 1868     		ldr	r0, [r3]
 1476 022c 3B68     		ldr	r3, [r7]
 1477 022e 0122     		movs	r2, #1
 1478 0230 40F20251 		movw	r1, #1282
 1479 0234 FFF7FEFF 		bl	_i2c_wait_flag_timeout
 1480 0238 0346     		mov	r3, r0
 1481              		.loc 1 612 19
 1482 023a 002B     		cmp	r3, #0
 1483 023c 02D0     		beq	.L68
 613:../firmware/gd32f3x0_hal_peripheral/Source/gd32f3x0_hal_i2c.c ****                     HAL_DEBUGW("i2c get BTC timeout");
 614:../firmware/gd32f3x0_hal_peripheral/Source/gd32f3x0_hal_i2c.c ****                     return HAL_ERR_TIMEOUT;
 1484              		.loc 1 614 28
 1485 023e 6FF00403 		mvn	r3, #4
 1486 0242 92E0     		b	.L53
 1487              	.L68:
 615:../firmware/gd32f3x0_hal_peripheral/Source/gd32f3x0_hal_i2c.c ****                 }
 616:../firmware/gd32f3x0_hal_peripheral/Source/gd32f3x0_hal_i2c.c **** 
 617:../firmware/gd32f3x0_hal_peripheral/Source/gd32f3x0_hal_i2c.c ****                 hals_i2c_ack_config(i2c_dev->periph, I2C_ACK_DISABLE);
 1488              		.loc 1 617 17
 1489 0244 FB68     		ldr	r3, [r7, #12]
 1490 0246 1B68     		ldr	r3, [r3]
 1491 0248 0021     		movs	r1, #0
 1492 024a 1846     		mov	r0, r3
 1493 024c FFF7FEFF 		bl	hals_i2c_ack_config
 618:../firmware/gd32f3x0_hal_peripheral/Source/gd32f3x0_hal_i2c.c ****                 *i2c_dev->rxbuffer.buffer = hals_i2c_data_receive(i2c_dev->periph);
 1494              		.loc 1 618 45
 1495 0250 FB68     		ldr	r3, [r7, #12]
 1496 0252 1A68     		ldr	r2, [r3]
 1497              		.loc 1 618 35
 1498 0254 FB68     		ldr	r3, [r7, #12]
 1499 0256 1C6A     		ldr	r4, [r3, #32]
 1500              		.loc 1 618 45
 1501 0258 1046     		mov	r0, r2
 1502 025a FFF7FEFF 		bl	hals_i2c_data_receive
 1503 025e 0346     		mov	r3, r0
 1504              		.loc 1 618 43
 1505 0260 2370     		strb	r3, [r4]
 619:../firmware/gd32f3x0_hal_peripheral/Source/gd32f3x0_hal_i2c.c ****                 i2c_dev->rxbuffer.buffer++;
 1506              		.loc 1 619 34
 1507 0262 FB68     		ldr	r3, [r7, #12]
 1508 0264 1B6A     		ldr	r3, [r3, #32]
 1509              		.loc 1 619 41
 1510 0266 5A1C     		adds	r2, r3, #1
 1511 0268 FB68     		ldr	r3, [r7, #12]
 1512 026a 1A62     		str	r2, [r3, #32]
 620:../firmware/gd32f3x0_hal_peripheral/Source/gd32f3x0_hal_i2c.c ****                 i2c_dev->rxbuffer.length--;
 1513              		.loc 1 620 34
 1514 026c FB68     		ldr	r3, [r7, #12]
 1515 026e 5B6A     		ldr	r3, [r3, #36]
 1516              		.loc 1 620 41
 1517 0270 5A1E     		subs	r2, r3, #1
 1518 0272 FB68     		ldr	r3, [r7, #12]
 1519 0274 5A62     		str	r2, [r3, #36]
 621:../firmware/gd32f3x0_hal_peripheral/Source/gd32f3x0_hal_i2c.c ****                 /* wait until the RBNE bit is set */
 622:../firmware/gd32f3x0_hal_peripheral/Source/gd32f3x0_hal_i2c.c ****                 if(HAL_ERR_NONE != _i2c_wait_flag_timeout(i2c_dev->periph, I2C_FLAG_RBNE, SET, time
 1520              		.loc 1 622 36
 1521 0276 FB68     		ldr	r3, [r7, #12]
 1522 0278 1868     		ldr	r0, [r3]
 1523 027a 3B68     		ldr	r3, [r7]
 1524 027c 0122     		movs	r2, #1
 1525 027e 40F20651 		movw	r1, #1286
 1526 0282 FFF7FEFF 		bl	_i2c_wait_flag_timeout
 1527 0286 0346     		mov	r3, r0
 1528              		.loc 1 622 19
 1529 0288 002B     		cmp	r3, #0
 1530 028a 02D0     		beq	.L69
 623:../firmware/gd32f3x0_hal_peripheral/Source/gd32f3x0_hal_i2c.c ****                     HAL_DEBUGW("i2c get RBNE timeout");
 624:../firmware/gd32f3x0_hal_peripheral/Source/gd32f3x0_hal_i2c.c ****                     return HAL_ERR_TIMEOUT;
 1531              		.loc 1 624 28
 1532 028c 6FF00403 		mvn	r3, #4
 1533 0290 6BE0     		b	.L53
 1534              	.L69:
 625:../firmware/gd32f3x0_hal_peripheral/Source/gd32f3x0_hal_i2c.c ****                 }
 626:../firmware/gd32f3x0_hal_peripheral/Source/gd32f3x0_hal_i2c.c **** 
 627:../firmware/gd32f3x0_hal_peripheral/Source/gd32f3x0_hal_i2c.c ****                 *i2c_dev->rxbuffer.buffer = hals_i2c_data_receive(i2c_dev->periph);
 1535              		.loc 1 627 45
 1536 0292 FB68     		ldr	r3, [r7, #12]
 1537 0294 1A68     		ldr	r2, [r3]
 1538              		.loc 1 627 35
 1539 0296 FB68     		ldr	r3, [r7, #12]
 1540 0298 1C6A     		ldr	r4, [r3, #32]
 1541              		.loc 1 627 45
 1542 029a 1046     		mov	r0, r2
 1543 029c FFF7FEFF 		bl	hals_i2c_data_receive
 1544 02a0 0346     		mov	r3, r0
 1545              		.loc 1 627 43
 1546 02a2 2370     		strb	r3, [r4]
 628:../firmware/gd32f3x0_hal_peripheral/Source/gd32f3x0_hal_i2c.c ****                 i2c_dev->rxbuffer.buffer++;
 1547              		.loc 1 628 34
 1548 02a4 FB68     		ldr	r3, [r7, #12]
 1549 02a6 1B6A     		ldr	r3, [r3, #32]
 1550              		.loc 1 628 41
 1551 02a8 5A1C     		adds	r2, r3, #1
 1552 02aa FB68     		ldr	r3, [r7, #12]
 1553 02ac 1A62     		str	r2, [r3, #32]
 629:../firmware/gd32f3x0_hal_peripheral/Source/gd32f3x0_hal_i2c.c ****                 i2c_dev->rxbuffer.length--;
 1554              		.loc 1 629 34
 1555 02ae FB68     		ldr	r3, [r7, #12]
 1556 02b0 5B6A     		ldr	r3, [r3, #36]
 1557              		.loc 1 629 41
 1558 02b2 5A1E     		subs	r2, r3, #1
 1559 02b4 FB68     		ldr	r3, [r7, #12]
 1560 02b6 5A62     		str	r2, [r3, #36]
 630:../firmware/gd32f3x0_hal_peripheral/Source/gd32f3x0_hal_i2c.c ****                 /* wait until the RBNE bit is set */
 631:../firmware/gd32f3x0_hal_peripheral/Source/gd32f3x0_hal_i2c.c ****                 if(HAL_ERR_NONE != _i2c_wait_flag_timeout(i2c_dev->periph, I2C_FLAG_RBNE, SET, time
 1561              		.loc 1 631 36
 1562 02b8 FB68     		ldr	r3, [r7, #12]
 1563 02ba 1868     		ldr	r0, [r3]
 1564 02bc 3B68     		ldr	r3, [r7]
 1565 02be 0122     		movs	r2, #1
 1566 02c0 40F20651 		movw	r1, #1286
 1567 02c4 FFF7FEFF 		bl	_i2c_wait_flag_timeout
 1568 02c8 0346     		mov	r3, r0
 1569              		.loc 1 631 19
 1570 02ca 002B     		cmp	r3, #0
 1571 02cc 02D0     		beq	.L70
 632:../firmware/gd32f3x0_hal_peripheral/Source/gd32f3x0_hal_i2c.c ****                     HAL_DEBUGW("i2c get RBNE timeout");
 633:../firmware/gd32f3x0_hal_peripheral/Source/gd32f3x0_hal_i2c.c ****                     return HAL_ERR_TIMEOUT;
 1572              		.loc 1 633 28
 1573 02ce 6FF00403 		mvn	r3, #4
 1574 02d2 4AE0     		b	.L53
 1575              	.L70:
 634:../firmware/gd32f3x0_hal_peripheral/Source/gd32f3x0_hal_i2c.c ****                 }
 635:../firmware/gd32f3x0_hal_peripheral/Source/gd32f3x0_hal_i2c.c **** 
 636:../firmware/gd32f3x0_hal_peripheral/Source/gd32f3x0_hal_i2c.c ****                 *i2c_dev->rxbuffer.buffer = hals_i2c_data_receive(i2c_dev->periph);
 1576              		.loc 1 636 45
 1577 02d4 FB68     		ldr	r3, [r7, #12]
 1578 02d6 1A68     		ldr	r2, [r3]
 1579              		.loc 1 636 35
 1580 02d8 FB68     		ldr	r3, [r7, #12]
 1581 02da 1C6A     		ldr	r4, [r3, #32]
 1582              		.loc 1 636 45
 1583 02dc 1046     		mov	r0, r2
 1584 02de FFF7FEFF 		bl	hals_i2c_data_receive
 1585 02e2 0346     		mov	r3, r0
 1586              		.loc 1 636 43
 1587 02e4 2370     		strb	r3, [r4]
 637:../firmware/gd32f3x0_hal_peripheral/Source/gd32f3x0_hal_i2c.c ****                 i2c_dev->rxbuffer.buffer++;
 1588              		.loc 1 637 34
 1589 02e6 FB68     		ldr	r3, [r7, #12]
 1590 02e8 1B6A     		ldr	r3, [r3, #32]
 1591              		.loc 1 637 41
 1592 02ea 5A1C     		adds	r2, r3, #1
 1593 02ec FB68     		ldr	r3, [r7, #12]
 1594 02ee 1A62     		str	r2, [r3, #32]
 638:../firmware/gd32f3x0_hal_peripheral/Source/gd32f3x0_hal_i2c.c ****                 i2c_dev->rxbuffer.length--;
 1595              		.loc 1 638 34
 1596 02f0 FB68     		ldr	r3, [r7, #12]
 1597 02f2 5B6A     		ldr	r3, [r3, #36]
 1598              		.loc 1 638 41
 1599 02f4 5A1E     		subs	r2, r3, #1
 1600 02f6 FB68     		ldr	r3, [r7, #12]
 1601 02f8 5A62     		str	r2, [r3, #36]
 639:../firmware/gd32f3x0_hal_peripheral/Source/gd32f3x0_hal_i2c.c ****                 /* send a stop condition to I2C bus */
 640:../firmware/gd32f3x0_hal_peripheral/Source/gd32f3x0_hal_i2c.c ****                 HAL_I2C_STOP_ON_BUS(i2c_dev->periph);
 1602              		.loc 1 640 17
 1603 02fa FB68     		ldr	r3, [r7, #12]
 1604 02fc 1B68     		ldr	r3, [r3]
 1605 02fe 1B68     		ldr	r3, [r3]
 1606 0300 FA68     		ldr	r2, [r7, #12]
 1607 0302 1268     		ldr	r2, [r2]
 1608 0304 43F40073 		orr	r3, r3, #512
 1609 0308 1360     		str	r3, [r2]
 1610 030a 20E0     		b	.L60
 1611              	.L61:
 641:../firmware/gd32f3x0_hal_peripheral/Source/gd32f3x0_hal_i2c.c ****             }
 642:../firmware/gd32f3x0_hal_peripheral/Source/gd32f3x0_hal_i2c.c ****         } else {
 643:../firmware/gd32f3x0_hal_peripheral/Source/gd32f3x0_hal_i2c.c ****             /* wait until the RBNE bit is set */
 644:../firmware/gd32f3x0_hal_peripheral/Source/gd32f3x0_hal_i2c.c ****             if(HAL_ERR_NONE != _i2c_wait_flag_timeout(i2c_dev->periph, I2C_FLAG_RBNE, SET, timeout_
 1612              		.loc 1 644 32
 1613 030c FB68     		ldr	r3, [r7, #12]
 1614 030e 1868     		ldr	r0, [r3]
 1615 0310 3B68     		ldr	r3, [r7]
 1616 0312 0122     		movs	r2, #1
 1617 0314 40F20651 		movw	r1, #1286
 1618 0318 FFF7FEFF 		bl	_i2c_wait_flag_timeout
 1619 031c 0346     		mov	r3, r0
 1620              		.loc 1 644 15
 1621 031e 002B     		cmp	r3, #0
 1622 0320 02D0     		beq	.L71
 645:../firmware/gd32f3x0_hal_peripheral/Source/gd32f3x0_hal_i2c.c ****                 HAL_DEBUGW("i2c get RBNE timeout");
 646:../firmware/gd32f3x0_hal_peripheral/Source/gd32f3x0_hal_i2c.c ****                 return HAL_ERR_TIMEOUT;
 1623              		.loc 1 646 24
 1624 0322 6FF00403 		mvn	r3, #4
 1625 0326 20E0     		b	.L53
 1626              	.L71:
 647:../firmware/gd32f3x0_hal_peripheral/Source/gd32f3x0_hal_i2c.c ****             }
 648:../firmware/gd32f3x0_hal_peripheral/Source/gd32f3x0_hal_i2c.c ****             *i2c_dev->rxbuffer.buffer = hals_i2c_data_receive(i2c_dev->periph);
 1627              		.loc 1 648 41
 1628 0328 FB68     		ldr	r3, [r7, #12]
 1629 032a 1A68     		ldr	r2, [r3]
 1630              		.loc 1 648 31
 1631 032c FB68     		ldr	r3, [r7, #12]
 1632 032e 1C6A     		ldr	r4, [r3, #32]
 1633              		.loc 1 648 41
 1634 0330 1046     		mov	r0, r2
 1635 0332 FFF7FEFF 		bl	hals_i2c_data_receive
 1636 0336 0346     		mov	r3, r0
 1637              		.loc 1 648 39
 1638 0338 2370     		strb	r3, [r4]
 649:../firmware/gd32f3x0_hal_peripheral/Source/gd32f3x0_hal_i2c.c ****             i2c_dev->rxbuffer.buffer++;
 1639              		.loc 1 649 30
 1640 033a FB68     		ldr	r3, [r7, #12]
 1641 033c 1B6A     		ldr	r3, [r3, #32]
 1642              		.loc 1 649 37
 1643 033e 5A1C     		adds	r2, r3, #1
 1644 0340 FB68     		ldr	r3, [r7, #12]
 1645 0342 1A62     		str	r2, [r3, #32]
 650:../firmware/gd32f3x0_hal_peripheral/Source/gd32f3x0_hal_i2c.c ****             i2c_dev->rxbuffer.length--;
 1646              		.loc 1 650 30
 1647 0344 FB68     		ldr	r3, [r7, #12]
 1648 0346 5B6A     		ldr	r3, [r3, #36]
 1649              		.loc 1 650 37
 1650 0348 5A1E     		subs	r2, r3, #1
 1651 034a FB68     		ldr	r3, [r7, #12]
 1652 034c 5A62     		str	r2, [r3, #36]
 1653              	.L60:
 572:../firmware/gd32f3x0_hal_peripheral/Source/gd32f3x0_hal_i2c.c ****         if(i2c_dev->rxbuffer.length <= 3) {
 1654              		.loc 1 572 28
 1655 034e FB68     		ldr	r3, [r7, #12]
 1656 0350 5B6A     		ldr	r3, [r3, #36]
 572:../firmware/gd32f3x0_hal_peripheral/Source/gd32f3x0_hal_i2c.c ****         if(i2c_dev->rxbuffer.length <= 3) {
 1657              		.loc 1 572 10
 1658 0352 002B     		cmp	r3, #0
 1659 0354 7FF4DAAE 		bne	.L72
 651:../firmware/gd32f3x0_hal_peripheral/Source/gd32f3x0_hal_i2c.c ****         }
 652:../firmware/gd32f3x0_hal_peripheral/Source/gd32f3x0_hal_i2c.c ****     }
 653:../firmware/gd32f3x0_hal_peripheral/Source/gd32f3x0_hal_i2c.c ****     i2c_dev->rx_state = HAL_I2C_STATE_READY;
 1660              		.loc 1 653 23
 1661 0358 FB68     		ldr	r3, [r7, #12]
 1662 035a 0022     		movs	r2, #0
 1663 035c 83F84120 		strb	r2, [r3, #65]
 654:../firmware/gd32f3x0_hal_peripheral/Source/gd32f3x0_hal_i2c.c ****     HAL_UNLOCK(i2c_dev);
 1664              		.loc 1 654 5
 1665 0360 FB68     		ldr	r3, [r7, #12]
 1666 0362 0022     		movs	r2, #0
 1667 0364 83F85020 		strb	r2, [r3, #80]
 655:../firmware/gd32f3x0_hal_peripheral/Source/gd32f3x0_hal_i2c.c ****     return HAL_ERR_NONE;
 1668              		.loc 1 655 12
 1669 0368 0023     		movs	r3, #0
 1670              	.L53:
 656:../firmware/gd32f3x0_hal_peripheral/Source/gd32f3x0_hal_i2c.c **** }
 1671              		.loc 1 656 1
 1672 036a 1846     		mov	r0, r3
 1673 036c 1437     		adds	r7, r7, #20
 1674              		.cfi_def_cfa_offset 12
 1675 036e BD46     		mov	sp, r7
 1676              		.cfi_def_cfa_register 13
 1677              		@ sp needed
 1678 0370 90BD     		pop	{r4, r7, pc}
 1679              		.cfi_endproc
 1680              	.LFE129:
 1682              		.section	.text.hal_i2c_slave_transmit_poll,"ax",%progbits
 1683              		.align	1
 1684              		.global	hal_i2c_slave_transmit_poll
 1685              		.syntax unified
 1686              		.thumb
 1687              		.thumb_func
 1688              		.fpu softvfp
 1690              	hal_i2c_slave_transmit_poll:
 1691              	.LFB130:
 657:../firmware/gd32f3x0_hal_peripheral/Source/gd32f3x0_hal_i2c.c **** 
 658:../firmware/gd32f3x0_hal_peripheral/Source/gd32f3x0_hal_i2c.c **** /*!
 659:../firmware/gd32f3x0_hal_peripheral/Source/gd32f3x0_hal_i2c.c ****     \brief      transmit amounts of data in slave mode, poll transmit process and completed status,
 660:../firmware/gd32f3x0_hal_peripheral/Source/gd32f3x0_hal_i2c.c ****                 the function is blocking
 661:../firmware/gd32f3x0_hal_peripheral/Source/gd32f3x0_hal_i2c.c ****     \param[in]  i2c_dev: I2C device information structrue
 662:../firmware/gd32f3x0_hal_peripheral/Source/gd32f3x0_hal_i2c.c ****                   the structure is not necessary to be reconfigured after structrue initialization,
 663:../firmware/gd32f3x0_hal_peripheral/Source/gd32f3x0_hal_i2c.c ****                   the structure parameters altering is automatically configured by core
 664:../firmware/gd32f3x0_hal_peripheral/Source/gd32f3x0_hal_i2c.c ****     \param[in]  p_buffer: pointer to txbuffer
 665:../firmware/gd32f3x0_hal_peripheral/Source/gd32f3x0_hal_i2c.c ****     \param[in]  length: length of data to be sent
 666:../firmware/gd32f3x0_hal_peripheral/Source/gd32f3x0_hal_i2c.c ****     \param[in]  timeout_ms: timeout duration
 667:../firmware/gd32f3x0_hal_peripheral/Source/gd32f3x0_hal_i2c.c ****     \param[out] none
 668:../firmware/gd32f3x0_hal_peripheral/Source/gd32f3x0_hal_i2c.c ****     \retval     error code: HAL_ERR_NONE, HAL_ERR_ADDRESS, HAL_ERR_TIMEOUT, HAL_ERR_BUSY,
 669:../firmware/gd32f3x0_hal_peripheral/Source/gd32f3x0_hal_i2c.c ****                 details refer to gd32f3x0_hal.h
 670:../firmware/gd32f3x0_hal_peripheral/Source/gd32f3x0_hal_i2c.c **** */
 671:../firmware/gd32f3x0_hal_peripheral/Source/gd32f3x0_hal_i2c.c **** int32_t hal_i2c_slave_transmit_poll(hal_i2c_dev_struct *i2c_dev, uint8_t *p_buffer, \
 672:../firmware/gd32f3x0_hal_peripheral/Source/gd32f3x0_hal_i2c.c ****                                     uint32_t length, uint32_t timeout_ms)
 673:../firmware/gd32f3x0_hal_peripheral/Source/gd32f3x0_hal_i2c.c **** {
 1692              		.loc 1 673 1
 1693              		.cfi_startproc
 1694              		@ args = 0, pretend = 0, frame = 24
 1695              		@ frame_needed = 1, uses_anonymous_args = 0
 1696 0000 80B5     		push	{r7, lr}
 1697              		.cfi_def_cfa_offset 8
 1698              		.cfi_offset 7, -8
 1699              		.cfi_offset 14, -4
 1700 0002 86B0     		sub	sp, sp, #24
 1701              		.cfi_def_cfa_offset 32
 1702 0004 00AF     		add	r7, sp, #0
 1703              		.cfi_def_cfa_register 7
 1704 0006 F860     		str	r0, [r7, #12]
 1705 0008 B960     		str	r1, [r7, #8]
 1706 000a 7A60     		str	r2, [r7, #4]
 1707 000c 3B60     		str	r3, [r7]
 674:../firmware/gd32f3x0_hal_peripheral/Source/gd32f3x0_hal_i2c.c ****     uint32_t address_format;
 675:../firmware/gd32f3x0_hal_peripheral/Source/gd32f3x0_hal_i2c.c ****     uint32_t data_length;
 676:../firmware/gd32f3x0_hal_peripheral/Source/gd32f3x0_hal_i2c.c **** 
 677:../firmware/gd32f3x0_hal_peripheral/Source/gd32f3x0_hal_i2c.c **** #if (1 == HAL_PARAMETER_CHECK)
 678:../firmware/gd32f3x0_hal_peripheral/Source/gd32f3x0_hal_i2c.c ****     /* check the parameters */
 679:../firmware/gd32f3x0_hal_peripheral/Source/gd32f3x0_hal_i2c.c ****     if((NULL == i2c_dev) || (NULL == p_buffer) || (0U == length)) {
 680:../firmware/gd32f3x0_hal_peripheral/Source/gd32f3x0_hal_i2c.c ****         HAL_DEBUGE("parameter [i2c_dev] or [p_buffer] or [length] value is invalid");
 681:../firmware/gd32f3x0_hal_peripheral/Source/gd32f3x0_hal_i2c.c ****         return HAL_ERR_ADDRESS;
 682:../firmware/gd32f3x0_hal_peripheral/Source/gd32f3x0_hal_i2c.c ****     }
 683:../firmware/gd32f3x0_hal_peripheral/Source/gd32f3x0_hal_i2c.c **** #endif /* 1 == HAL_PARAMETER_CHECK */
 684:../firmware/gd32f3x0_hal_peripheral/Source/gd32f3x0_hal_i2c.c **** 
 685:../firmware/gd32f3x0_hal_peripheral/Source/gd32f3x0_hal_i2c.c ****     HAL_LOCK(i2c_dev);
 1708              		.loc 1 685 5
 1709 000e FB68     		ldr	r3, [r7, #12]
 1710 0010 93F85030 		ldrb	r3, [r3, #80]	@ zero_extendqisi2
 1711 0014 012B     		cmp	r3, #1
 1712 0016 02D1     		bne	.L74
 1713              		.loc 1 685 5 is_stmt 0 discriminator 1
 1714 0018 6FF00103 		mvn	r3, #1
 1715 001c AEE0     		b	.L75
 1716              	.L74:
 1717              		.loc 1 685 5 discriminator 2
 1718 001e FB68     		ldr	r3, [r7, #12]
 1719 0020 0122     		movs	r2, #1
 1720 0022 83F85020 		strb	r2, [r3, #80]
 686:../firmware/gd32f3x0_hal_peripheral/Source/gd32f3x0_hal_i2c.c ****     /* check the tx_state whether it is busy or not */
 687:../firmware/gd32f3x0_hal_peripheral/Source/gd32f3x0_hal_i2c.c ****     if(HAL_I2C_STATE_BUSY == i2c_dev->tx_state) {
 1721              		.loc 1 687 37 is_stmt 1 discriminator 2
 1722 0026 FB68     		ldr	r3, [r7, #12]
 1723 0028 93F84030 		ldrb	r3, [r3, #64]
 1724 002c DBB2     		uxtb	r3, r3
 1725              		.loc 1 687 7 discriminator 2
 1726 002e 012B     		cmp	r3, #1
 1727 0030 02D1     		bne	.L76
 688:../firmware/gd32f3x0_hal_peripheral/Source/gd32f3x0_hal_i2c.c ****         HAL_DEBUGE("i2c tx has already been used, please wait until run_state change to free ");
 689:../firmware/gd32f3x0_hal_peripheral/Source/gd32f3x0_hal_i2c.c ****         return HAL_ERR_BUSY;
 1728              		.loc 1 689 16
 1729 0032 6FF00203 		mvn	r3, #2
 1730 0036 A1E0     		b	.L75
 1731              	.L76:
 690:../firmware/gd32f3x0_hal_peripheral/Source/gd32f3x0_hal_i2c.c ****     }
 691:../firmware/gd32f3x0_hal_peripheral/Source/gd32f3x0_hal_i2c.c **** 
 692:../firmware/gd32f3x0_hal_peripheral/Source/gd32f3x0_hal_i2c.c ****     /* check the address format */
 693:../firmware/gd32f3x0_hal_peripheral/Source/gd32f3x0_hal_i2c.c ****     if(I2C_SADDR0(i2c_dev->periph)&I2C_SADDR0_ADDFORMAT) {
 1732              		.loc 1 693 8
 1733 0038 FB68     		ldr	r3, [r7, #12]
 1734 003a 1B68     		ldr	r3, [r3]
 1735 003c 0833     		adds	r3, r3, #8
 1736 003e 1B68     		ldr	r3, [r3]
 1737              		.loc 1 693 35
 1738 0040 03F40043 		and	r3, r3, #32768
 1739              		.loc 1 693 7
 1740 0044 002B     		cmp	r3, #0
 1741 0046 03D0     		beq	.L77
 694:../firmware/gd32f3x0_hal_peripheral/Source/gd32f3x0_hal_i2c.c ****         address_format = I2C_ADDFORMAT_10BITS;
 1742              		.loc 1 694 24
 1743 0048 4FF40043 		mov	r3, #32768
 1744 004c 7B61     		str	r3, [r7, #20]
 1745 004e 01E0     		b	.L78
 1746              	.L77:
 695:../firmware/gd32f3x0_hal_peripheral/Source/gd32f3x0_hal_i2c.c ****     } else {
 696:../firmware/gd32f3x0_hal_peripheral/Source/gd32f3x0_hal_i2c.c ****         address_format = I2C_ADDFORMAT_7BITS;
 1747              		.loc 1 696 24
 1748 0050 0023     		movs	r3, #0
 1749 0052 7B61     		str	r3, [r7, #20]
 1750              	.L78:
 697:../firmware/gd32f3x0_hal_peripheral/Source/gd32f3x0_hal_i2c.c ****     }
 698:../firmware/gd32f3x0_hal_peripheral/Source/gd32f3x0_hal_i2c.c ****     /* initialize transmit parameters */
 699:../firmware/gd32f3x0_hal_peripheral/Source/gd32f3x0_hal_i2c.c ****     i2c_dev->txbuffer.buffer = (uint8_t *)p_buffer;
 1751              		.loc 1 699 30
 1752 0054 FB68     		ldr	r3, [r7, #12]
 1753 0056 BA68     		ldr	r2, [r7, #8]
 1754 0058 5A61     		str	r2, [r3, #20]
 700:../firmware/gd32f3x0_hal_peripheral/Source/gd32f3x0_hal_i2c.c ****     i2c_dev->txbuffer.length = length;
 1755              		.loc 1 700 30
 1756 005a FB68     		ldr	r3, [r7, #12]
 1757 005c 7A68     		ldr	r2, [r7, #4]
 1758 005e 9A61     		str	r2, [r3, #24]
 701:../firmware/gd32f3x0_hal_peripheral/Source/gd32f3x0_hal_i2c.c ****     i2c_dev->txbuffer.pos = 0;
 1759              		.loc 1 701 27
 1760 0060 FB68     		ldr	r3, [r7, #12]
 1761 0062 0022     		movs	r2, #0
 1762 0064 DA61     		str	r2, [r3, #28]
 702:../firmware/gd32f3x0_hal_peripheral/Source/gd32f3x0_hal_i2c.c ****     data_length = i2c_dev->txbuffer.length;
 1763              		.loc 1 702 17
 1764 0066 FB68     		ldr	r3, [r7, #12]
 1765 0068 9B69     		ldr	r3, [r3, #24]
 1766 006a 3B61     		str	r3, [r7, #16]
 703:../firmware/gd32f3x0_hal_peripheral/Source/gd32f3x0_hal_i2c.c **** 
 704:../firmware/gd32f3x0_hal_peripheral/Source/gd32f3x0_hal_i2c.c ****     i2c_dev->tx_state = HAL_I2C_STATE_BUSY;
 1767              		.loc 1 704 23
 1768 006c FB68     		ldr	r3, [r7, #12]
 1769 006e 0122     		movs	r2, #1
 1770 0070 83F84020 		strb	r2, [r3, #64]
 705:../firmware/gd32f3x0_hal_peripheral/Source/gd32f3x0_hal_i2c.c ****     i2c_dev->last_error = HAL_I2C_ERROR_NONE;
 1771              		.loc 1 705 25
 1772 0074 FB68     		ldr	r3, [r7, #12]
 1773 0076 0022     		movs	r2, #0
 1774 0078 5A87     		strh	r2, [r3, #58]	@ movhi
 706:../firmware/gd32f3x0_hal_peripheral/Source/gd32f3x0_hal_i2c.c ****     hals_i2c_ack_config(i2c_dev->periph, I2C_ACK_ENABLE);
 1775              		.loc 1 706 5
 1776 007a FB68     		ldr	r3, [r7, #12]
 1777 007c 1B68     		ldr	r3, [r3]
 1778 007e 4FF48061 		mov	r1, #1024
 1779 0082 1846     		mov	r0, r3
 1780 0084 FFF7FEFF 		bl	hals_i2c_ack_config
 707:../firmware/gd32f3x0_hal_peripheral/Source/gd32f3x0_hal_i2c.c ****     /* wait until ADDSEND bit is set */
 708:../firmware/gd32f3x0_hal_peripheral/Source/gd32f3x0_hal_i2c.c ****     if(HAL_ERR_NONE != _i2c_wait_flag_timeout(i2c_dev->periph, I2C_FLAG_ADDSEND, SET, timeout_ms)) 
 1781              		.loc 1 708 24
 1782 0088 FB68     		ldr	r3, [r7, #12]
 1783 008a 1868     		ldr	r0, [r3]
 1784 008c 3B68     		ldr	r3, [r7]
 1785 008e 0122     		movs	r2, #1
 1786 0090 40F20151 		movw	r1, #1281
 1787 0094 FFF7FEFF 		bl	_i2c_wait_flag_timeout
 1788 0098 0346     		mov	r3, r0
 1789              		.loc 1 708 7
 1790 009a 002B     		cmp	r3, #0
 1791 009c 02D0     		beq	.L79
 709:../firmware/gd32f3x0_hal_peripheral/Source/gd32f3x0_hal_i2c.c ****         HAL_DEBUGW("i2c get ADDSEND timeout");
 710:../firmware/gd32f3x0_hal_peripheral/Source/gd32f3x0_hal_i2c.c ****         return HAL_ERR_TIMEOUT;
 1792              		.loc 1 710 16
 1793 009e 6FF00403 		mvn	r3, #4
 1794 00a2 6BE0     		b	.L75
 1795              	.L79:
 711:../firmware/gd32f3x0_hal_peripheral/Source/gd32f3x0_hal_i2c.c ****     }
 712:../firmware/gd32f3x0_hal_peripheral/Source/gd32f3x0_hal_i2c.c ****     /* clear ADDSEND bit */
 713:../firmware/gd32f3x0_hal_peripheral/Source/gd32f3x0_hal_i2c.c ****     hals_i2c_flag_clear(i2c_dev->periph, I2C_FLAG_ADDSEND);
 1796              		.loc 1 713 5
 1797 00a4 FB68     		ldr	r3, [r7, #12]
 1798 00a6 1B68     		ldr	r3, [r3]
 1799 00a8 40F20151 		movw	r1, #1281
 1800 00ac 1846     		mov	r0, r3
 1801 00ae FFF7FEFF 		bl	hals_i2c_flag_clear
 714:../firmware/gd32f3x0_hal_peripheral/Source/gd32f3x0_hal_i2c.c ****     if(I2C_ADDFORMAT_10BITS == address_format) {
 1802              		.loc 1 714 7
 1803 00b2 7B69     		ldr	r3, [r7, #20]
 1804 00b4 B3F5004F 		cmp	r3, #32768
 1805 00b8 37D1     		bne	.L82
 715:../firmware/gd32f3x0_hal_peripheral/Source/gd32f3x0_hal_i2c.c ****         /* wait until ADDSEND bit is set */
 716:../firmware/gd32f3x0_hal_peripheral/Source/gd32f3x0_hal_i2c.c ****         if(HAL_ERR_NONE != _i2c_wait_flag_timeout(i2c_dev->periph, I2C_FLAG_ADDSEND, SET, timeout_m
 1806              		.loc 1 716 28
 1807 00ba FB68     		ldr	r3, [r7, #12]
 1808 00bc 1868     		ldr	r0, [r3]
 1809 00be 3B68     		ldr	r3, [r7]
 1810 00c0 0122     		movs	r2, #1
 1811 00c2 40F20151 		movw	r1, #1281
 1812 00c6 FFF7FEFF 		bl	_i2c_wait_flag_timeout
 1813 00ca 0346     		mov	r3, r0
 1814              		.loc 1 716 11
 1815 00cc 002B     		cmp	r3, #0
 1816 00ce 02D0     		beq	.L81
 717:../firmware/gd32f3x0_hal_peripheral/Source/gd32f3x0_hal_i2c.c ****             HAL_DEBUGW("i2c get ADDSEND timeout");
 718:../firmware/gd32f3x0_hal_peripheral/Source/gd32f3x0_hal_i2c.c ****             return HAL_ERR_TIMEOUT;
 1817              		.loc 1 718 20
 1818 00d0 6FF00403 		mvn	r3, #4
 1819 00d4 52E0     		b	.L75
 1820              	.L81:
 719:../firmware/gd32f3x0_hal_peripheral/Source/gd32f3x0_hal_i2c.c ****         }
 720:../firmware/gd32f3x0_hal_peripheral/Source/gd32f3x0_hal_i2c.c ****         /* clear ADDSEND bit */
 721:../firmware/gd32f3x0_hal_peripheral/Source/gd32f3x0_hal_i2c.c ****         hals_i2c_flag_clear(i2c_dev->periph, I2C_FLAG_ADDSEND);
 1821              		.loc 1 721 9
 1822 00d6 FB68     		ldr	r3, [r7, #12]
 1823 00d8 1B68     		ldr	r3, [r3]
 1824 00da 40F20151 		movw	r1, #1281
 1825 00de 1846     		mov	r0, r3
 1826 00e0 FFF7FEFF 		bl	hals_i2c_flag_clear
 722:../firmware/gd32f3x0_hal_peripheral/Source/gd32f3x0_hal_i2c.c ****     }
 723:../firmware/gd32f3x0_hal_peripheral/Source/gd32f3x0_hal_i2c.c ****     while(data_length > i2c_dev->txbuffer.pos) {
 1827              		.loc 1 723 10
 1828 00e4 21E0     		b	.L82
 1829              	.L84:
 724:../firmware/gd32f3x0_hal_peripheral/Source/gd32f3x0_hal_i2c.c ****         /* wait until the TBE bit is set */
 725:../firmware/gd32f3x0_hal_peripheral/Source/gd32f3x0_hal_i2c.c ****         if(HAL_ERR_NONE != _i2c_wait_flag_timeout(i2c_dev->periph, I2C_FLAG_TBE, SET, timeout_ms)) 
 1830              		.loc 1 725 28
 1831 00e6 FB68     		ldr	r3, [r7, #12]
 1832 00e8 1868     		ldr	r0, [r3]
 1833 00ea 3B68     		ldr	r3, [r7]
 1834 00ec 0122     		movs	r2, #1
 1835 00ee 40F20751 		movw	r1, #1287
 1836 00f2 FFF7FEFF 		bl	_i2c_wait_flag_timeout
 1837 00f6 0346     		mov	r3, r0
 1838              		.loc 1 725 11
 1839 00f8 002B     		cmp	r3, #0
 1840 00fa 02D0     		beq	.L83
 726:../firmware/gd32f3x0_hal_peripheral/Source/gd32f3x0_hal_i2c.c ****             HAL_DEBUGW("i2c get TBE timeout");
 727:../firmware/gd32f3x0_hal_peripheral/Source/gd32f3x0_hal_i2c.c ****             return HAL_ERR_TIMEOUT;
 1841              		.loc 1 727 20
 1842 00fc 6FF00403 		mvn	r3, #4
 1843 0100 3CE0     		b	.L75
 1844              	.L83:
 728:../firmware/gd32f3x0_hal_peripheral/Source/gd32f3x0_hal_i2c.c ****         }
 729:../firmware/gd32f3x0_hal_peripheral/Source/gd32f3x0_hal_i2c.c ****         hals_i2c_data_transmit(i2c_dev->periph, *i2c_dev->txbuffer.buffer);
 1845              		.loc 1 729 9
 1846 0102 FB68     		ldr	r3, [r7, #12]
 1847 0104 1A68     		ldr	r2, [r3]
 1848              		.loc 1 729 67
 1849 0106 FB68     		ldr	r3, [r7, #12]
 1850 0108 5B69     		ldr	r3, [r3, #20]
 1851              		.loc 1 729 9
 1852 010a 1B78     		ldrb	r3, [r3]
 1853 010c DBB2     		uxtb	r3, r3
 1854 010e 1946     		mov	r1, r3
 1855 0110 1046     		mov	r0, r2
 1856 0112 FFF7FEFF 		bl	hals_i2c_data_transmit
 730:../firmware/gd32f3x0_hal_peripheral/Source/gd32f3x0_hal_i2c.c ****         i2c_dev->txbuffer.buffer++;
 1857              		.loc 1 730 26
 1858 0116 FB68     		ldr	r3, [r7, #12]
 1859 0118 5B69     		ldr	r3, [r3, #20]
 1860              		.loc 1 730 33
 1861 011a 5A1C     		adds	r2, r3, #1
 1862 011c FB68     		ldr	r3, [r7, #12]
 1863 011e 5A61     		str	r2, [r3, #20]
 731:../firmware/gd32f3x0_hal_peripheral/Source/gd32f3x0_hal_i2c.c ****         i2c_dev->txbuffer.pos++;
 1864              		.loc 1 731 26
 1865 0120 FB68     		ldr	r3, [r7, #12]
 1866 0122 DB69     		ldr	r3, [r3, #28]
 1867              		.loc 1 731 30
 1868 0124 5A1C     		adds	r2, r3, #1
 1869 0126 FB68     		ldr	r3, [r7, #12]
 1870 0128 DA61     		str	r2, [r3, #28]
 1871              	.L82:
 723:../firmware/gd32f3x0_hal_peripheral/Source/gd32f3x0_hal_i2c.c ****         /* wait until the TBE bit is set */
 1872              		.loc 1 723 42
 1873 012a FB68     		ldr	r3, [r7, #12]
 1874 012c DB69     		ldr	r3, [r3, #28]
 723:../firmware/gd32f3x0_hal_peripheral/Source/gd32f3x0_hal_i2c.c ****         /* wait until the TBE bit is set */
 1875              		.loc 1 723 10
 1876 012e 3A69     		ldr	r2, [r7, #16]
 1877 0130 9A42     		cmp	r2, r3
 1878 0132 D8D8     		bhi	.L84
 732:../firmware/gd32f3x0_hal_peripheral/Source/gd32f3x0_hal_i2c.c ****     }
 733:../firmware/gd32f3x0_hal_peripheral/Source/gd32f3x0_hal_i2c.c ****     /* the master doesn't acknowledge for the last byte */
 734:../firmware/gd32f3x0_hal_peripheral/Source/gd32f3x0_hal_i2c.c ****     if(HAL_ERR_NONE != _i2c_wait_flag_timeout(i2c_dev->periph, I2C_FLAG_AERR, SET, timeout_ms)) {
 1879              		.loc 1 734 24
 1880 0134 FB68     		ldr	r3, [r7, #12]
 1881 0136 1868     		ldr	r0, [r3]
 1882 0138 3B68     		ldr	r3, [r7]
 1883 013a 0122     		movs	r2, #1
 1884 013c 40F20A51 		movw	r1, #1290
 1885 0140 FFF7FEFF 		bl	_i2c_wait_flag_timeout
 1886 0144 0346     		mov	r3, r0
 1887              		.loc 1 734 7
 1888 0146 002B     		cmp	r3, #0
 1889 0148 02D0     		beq	.L85
 735:../firmware/gd32f3x0_hal_peripheral/Source/gd32f3x0_hal_i2c.c ****         HAL_DEBUGW("i2c get AERR timeout");
 736:../firmware/gd32f3x0_hal_peripheral/Source/gd32f3x0_hal_i2c.c ****         return HAL_ERR_TIMEOUT;
 1890              		.loc 1 736 16
 1891 014a 6FF00403 		mvn	r3, #4
 1892 014e 15E0     		b	.L75
 1893              	.L85:
 737:../firmware/gd32f3x0_hal_peripheral/Source/gd32f3x0_hal_i2c.c ****     }
 738:../firmware/gd32f3x0_hal_peripheral/Source/gd32f3x0_hal_i2c.c ****     /* clear the bit of AERR */
 739:../firmware/gd32f3x0_hal_peripheral/Source/gd32f3x0_hal_i2c.c ****     hals_i2c_flag_clear(i2c_dev->periph, I2C_FLAG_AERR);
 1894              		.loc 1 739 5
 1895 0150 FB68     		ldr	r3, [r7, #12]
 1896 0152 1B68     		ldr	r3, [r3]
 1897 0154 40F20A51 		movw	r1, #1290
 1898 0158 1846     		mov	r0, r3
 1899 015a FFF7FEFF 		bl	hals_i2c_flag_clear
 740:../firmware/gd32f3x0_hal_peripheral/Source/gd32f3x0_hal_i2c.c ****     /* disable acknowledge */
 741:../firmware/gd32f3x0_hal_peripheral/Source/gd32f3x0_hal_i2c.c ****     hals_i2c_ack_config(i2c_dev->periph, I2C_ACK_DISABLE);
 1900              		.loc 1 741 5
 1901 015e FB68     		ldr	r3, [r7, #12]
 1902 0160 1B68     		ldr	r3, [r3]
 1903 0162 0021     		movs	r1, #0
 1904 0164 1846     		mov	r0, r3
 1905 0166 FFF7FEFF 		bl	hals_i2c_ack_config
 742:../firmware/gd32f3x0_hal_peripheral/Source/gd32f3x0_hal_i2c.c ****     i2c_dev->tx_state = HAL_I2C_STATE_READY;
 1906              		.loc 1 742 23
 1907 016a FB68     		ldr	r3, [r7, #12]
 1908 016c 0022     		movs	r2, #0
 1909 016e 83F84020 		strb	r2, [r3, #64]
 743:../firmware/gd32f3x0_hal_peripheral/Source/gd32f3x0_hal_i2c.c **** 
 744:../firmware/gd32f3x0_hal_peripheral/Source/gd32f3x0_hal_i2c.c ****     HAL_UNLOCK(i2c_dev);
 1910              		.loc 1 744 5
 1911 0172 FB68     		ldr	r3, [r7, #12]
 1912 0174 0022     		movs	r2, #0
 1913 0176 83F85020 		strb	r2, [r3, #80]
 745:../firmware/gd32f3x0_hal_peripheral/Source/gd32f3x0_hal_i2c.c ****     return HAL_ERR_NONE;
 1914              		.loc 1 745 12
 1915 017a 0023     		movs	r3, #0
 1916              	.L75:
 746:../firmware/gd32f3x0_hal_peripheral/Source/gd32f3x0_hal_i2c.c **** }
 1917              		.loc 1 746 1
 1918 017c 1846     		mov	r0, r3
 1919 017e 1837     		adds	r7, r7, #24
 1920              		.cfi_def_cfa_offset 8
 1921 0180 BD46     		mov	sp, r7
 1922              		.cfi_def_cfa_register 13
 1923              		@ sp needed
 1924 0182 80BD     		pop	{r7, pc}
 1925              		.cfi_endproc
 1926              	.LFE130:
 1928              		.section	.text.hal_i2c_slave_receive_poll,"ax",%progbits
 1929              		.align	1
 1930              		.global	hal_i2c_slave_receive_poll
 1931              		.syntax unified
 1932              		.thumb
 1933              		.thumb_func
 1934              		.fpu softvfp
 1936              	hal_i2c_slave_receive_poll:
 1937              	.LFB131:
 747:../firmware/gd32f3x0_hal_peripheral/Source/gd32f3x0_hal_i2c.c **** 
 748:../firmware/gd32f3x0_hal_peripheral/Source/gd32f3x0_hal_i2c.c **** /*!
 749:../firmware/gd32f3x0_hal_peripheral/Source/gd32f3x0_hal_i2c.c ****     \brief      receive amounts of data in slave mode, poll receive process and completed
 750:../firmware/gd32f3x0_hal_peripheral/Source/gd32f3x0_hal_i2c.c ****                 status, the function is blocking
 751:../firmware/gd32f3x0_hal_peripheral/Source/gd32f3x0_hal_i2c.c ****     \param[in]  i2c_dev: I2C device information structrue
 752:../firmware/gd32f3x0_hal_peripheral/Source/gd32f3x0_hal_i2c.c ****                   the structure is not necessary to be reconfigured after structrue initialization,
 753:../firmware/gd32f3x0_hal_peripheral/Source/gd32f3x0_hal_i2c.c ****                   the structure parameters altering is automatically configured by core
 754:../firmware/gd32f3x0_hal_peripheral/Source/gd32f3x0_hal_i2c.c ****     \param[in]  p_buffer: pointer to rxbuffer
 755:../firmware/gd32f3x0_hal_peripheral/Source/gd32f3x0_hal_i2c.c ****     \param[in]  length: length of data to be read
 756:../firmware/gd32f3x0_hal_peripheral/Source/gd32f3x0_hal_i2c.c ****     \param[in]  timeout_ms: timeout duration
 757:../firmware/gd32f3x0_hal_peripheral/Source/gd32f3x0_hal_i2c.c ****     \param[out] none
 758:../firmware/gd32f3x0_hal_peripheral/Source/gd32f3x0_hal_i2c.c ****     \retval     error code: HAL_ERR_NONE, HAL_ERR_ADDRESS, HAL_ERR_TIMEOUT, HAL_ERR_BUSY,
 759:../firmware/gd32f3x0_hal_peripheral/Source/gd32f3x0_hal_i2c.c ****                 details refer to gd32f3x0_hal.h
 760:../firmware/gd32f3x0_hal_peripheral/Source/gd32f3x0_hal_i2c.c **** */
 761:../firmware/gd32f3x0_hal_peripheral/Source/gd32f3x0_hal_i2c.c **** int32_t hal_i2c_slave_receive_poll(hal_i2c_dev_struct *i2c_dev, uint8_t *p_buffer, \
 762:../firmware/gd32f3x0_hal_peripheral/Source/gd32f3x0_hal_i2c.c ****                                    uint32_t length, uint32_t timeout_ms)
 763:../firmware/gd32f3x0_hal_peripheral/Source/gd32f3x0_hal_i2c.c **** {
 1938              		.loc 1 763 1
 1939              		.cfi_startproc
 1940              		@ args = 0, pretend = 0, frame = 24
 1941              		@ frame_needed = 1, uses_anonymous_args = 0
 1942 0000 90B5     		push	{r4, r7, lr}
 1943              		.cfi_def_cfa_offset 12
 1944              		.cfi_offset 4, -12
 1945              		.cfi_offset 7, -8
 1946              		.cfi_offset 14, -4
 1947 0002 87B0     		sub	sp, sp, #28
 1948              		.cfi_def_cfa_offset 40
 1949 0004 00AF     		add	r7, sp, #0
 1950              		.cfi_def_cfa_register 7
 1951 0006 F860     		str	r0, [r7, #12]
 1952 0008 B960     		str	r1, [r7, #8]
 1953 000a 7A60     		str	r2, [r7, #4]
 1954 000c 3B60     		str	r3, [r7]
 764:../firmware/gd32f3x0_hal_peripheral/Source/gd32f3x0_hal_i2c.c ****     uint32_t data_length;
 765:../firmware/gd32f3x0_hal_peripheral/Source/gd32f3x0_hal_i2c.c **** 
 766:../firmware/gd32f3x0_hal_peripheral/Source/gd32f3x0_hal_i2c.c **** #if (1 == HAL_PARAMETER_CHECK)
 767:../firmware/gd32f3x0_hal_peripheral/Source/gd32f3x0_hal_i2c.c ****     /* check the parameters */
 768:../firmware/gd32f3x0_hal_peripheral/Source/gd32f3x0_hal_i2c.c ****     if((NULL == i2c_dev) || (NULL == p_buffer) || (0U == length)) {
 769:../firmware/gd32f3x0_hal_peripheral/Source/gd32f3x0_hal_i2c.c ****         HAL_DEBUGE("parameter [i2c_dev] or [p_buffer] or [length] value is invalid");
 770:../firmware/gd32f3x0_hal_peripheral/Source/gd32f3x0_hal_i2c.c ****         return HAL_ERR_ADDRESS;
 771:../firmware/gd32f3x0_hal_peripheral/Source/gd32f3x0_hal_i2c.c ****     }
 772:../firmware/gd32f3x0_hal_peripheral/Source/gd32f3x0_hal_i2c.c **** #endif /* 1 == HAL_PARAMETER_CHECK */
 773:../firmware/gd32f3x0_hal_peripheral/Source/gd32f3x0_hal_i2c.c **** 
 774:../firmware/gd32f3x0_hal_peripheral/Source/gd32f3x0_hal_i2c.c ****     HAL_LOCK(i2c_dev);
 1955              		.loc 1 774 5
 1956 000e FB68     		ldr	r3, [r7, #12]
 1957 0010 93F85030 		ldrb	r3, [r3, #80]	@ zero_extendqisi2
 1958 0014 012B     		cmp	r3, #1
 1959 0016 02D1     		bne	.L87
 1960              		.loc 1 774 5 is_stmt 0 discriminator 1
 1961 0018 6FF00103 		mvn	r3, #1
 1962 001c 87E0     		b	.L88
 1963              	.L87:
 1964              		.loc 1 774 5 discriminator 2
 1965 001e FB68     		ldr	r3, [r7, #12]
 1966 0020 0122     		movs	r2, #1
 1967 0022 83F85020 		strb	r2, [r3, #80]
 775:../firmware/gd32f3x0_hal_peripheral/Source/gd32f3x0_hal_i2c.c ****     /* check the rx_state whether it is busy or not */
 776:../firmware/gd32f3x0_hal_peripheral/Source/gd32f3x0_hal_i2c.c ****     if(HAL_I2C_STATE_BUSY == i2c_dev->rx_state) {
 1968              		.loc 1 776 37 is_stmt 1 discriminator 2
 1969 0026 FB68     		ldr	r3, [r7, #12]
 1970 0028 93F84130 		ldrb	r3, [r3, #65]
 1971 002c DBB2     		uxtb	r3, r3
 1972              		.loc 1 776 7 discriminator 2
 1973 002e 012B     		cmp	r3, #1
 1974 0030 02D1     		bne	.L89
 777:../firmware/gd32f3x0_hal_peripheral/Source/gd32f3x0_hal_i2c.c ****         HAL_DEBUGE("i2c rx has already been used, please wait until run_state change to free ");
 778:../firmware/gd32f3x0_hal_peripheral/Source/gd32f3x0_hal_i2c.c ****         return HAL_ERR_BUSY;
 1975              		.loc 1 778 16
 1976 0032 6FF00203 		mvn	r3, #2
 1977 0036 7AE0     		b	.L88
 1978              	.L89:
 779:../firmware/gd32f3x0_hal_peripheral/Source/gd32f3x0_hal_i2c.c ****     }
 780:../firmware/gd32f3x0_hal_peripheral/Source/gd32f3x0_hal_i2c.c **** 
 781:../firmware/gd32f3x0_hal_peripheral/Source/gd32f3x0_hal_i2c.c ****     /* initialize receive parameters */
 782:../firmware/gd32f3x0_hal_peripheral/Source/gd32f3x0_hal_i2c.c ****     i2c_dev->rxbuffer.buffer = (uint8_t *)p_buffer;
 1979              		.loc 1 782 30
 1980 0038 FB68     		ldr	r3, [r7, #12]
 1981 003a BA68     		ldr	r2, [r7, #8]
 1982 003c 1A62     		str	r2, [r3, #32]
 783:../firmware/gd32f3x0_hal_peripheral/Source/gd32f3x0_hal_i2c.c ****     i2c_dev->rxbuffer.length = length;
 1983              		.loc 1 783 30
 1984 003e FB68     		ldr	r3, [r7, #12]
 1985 0040 7A68     		ldr	r2, [r7, #4]
 1986 0042 5A62     		str	r2, [r3, #36]
 784:../firmware/gd32f3x0_hal_peripheral/Source/gd32f3x0_hal_i2c.c ****     i2c_dev->rxbuffer.pos = 0;
 1987              		.loc 1 784 27
 1988 0044 FB68     		ldr	r3, [r7, #12]
 1989 0046 0022     		movs	r2, #0
 1990 0048 9A62     		str	r2, [r3, #40]
 785:../firmware/gd32f3x0_hal_peripheral/Source/gd32f3x0_hal_i2c.c ****     data_length = i2c_dev->rxbuffer.length;
 1991              		.loc 1 785 17
 1992 004a FB68     		ldr	r3, [r7, #12]
 1993 004c 5B6A     		ldr	r3, [r3, #36]
 1994 004e 7B61     		str	r3, [r7, #20]
 786:../firmware/gd32f3x0_hal_peripheral/Source/gd32f3x0_hal_i2c.c **** 
 787:../firmware/gd32f3x0_hal_peripheral/Source/gd32f3x0_hal_i2c.c ****     i2c_dev->rx_state = HAL_I2C_STATE_BUSY;
 1995              		.loc 1 787 23
 1996 0050 FB68     		ldr	r3, [r7, #12]
 1997 0052 0122     		movs	r2, #1
 1998 0054 83F84120 		strb	r2, [r3, #65]
 788:../firmware/gd32f3x0_hal_peripheral/Source/gd32f3x0_hal_i2c.c ****     i2c_dev->last_error = HAL_I2C_ERROR_NONE;
 1999              		.loc 1 788 25
 2000 0058 FB68     		ldr	r3, [r7, #12]
 2001 005a 0022     		movs	r2, #0
 2002 005c 5A87     		strh	r2, [r3, #58]	@ movhi
 789:../firmware/gd32f3x0_hal_peripheral/Source/gd32f3x0_hal_i2c.c ****     hals_i2c_ack_config(i2c_dev->periph, I2C_ACK_ENABLE);
 2003              		.loc 1 789 5
 2004 005e FB68     		ldr	r3, [r7, #12]
 2005 0060 1B68     		ldr	r3, [r3]
 2006 0062 4FF48061 		mov	r1, #1024
 2007 0066 1846     		mov	r0, r3
 2008 0068 FFF7FEFF 		bl	hals_i2c_ack_config
 790:../firmware/gd32f3x0_hal_peripheral/Source/gd32f3x0_hal_i2c.c ****     /* wait until ADDSEND bit is set */
 791:../firmware/gd32f3x0_hal_peripheral/Source/gd32f3x0_hal_i2c.c ****     if(HAL_ERR_NONE != _i2c_wait_flag_timeout(i2c_dev->periph, I2C_FLAG_ADDSEND, SET, timeout_ms)) 
 2009              		.loc 1 791 24
 2010 006c FB68     		ldr	r3, [r7, #12]
 2011 006e 1868     		ldr	r0, [r3]
 2012 0070 3B68     		ldr	r3, [r7]
 2013 0072 0122     		movs	r2, #1
 2014 0074 40F20151 		movw	r1, #1281
 2015 0078 FFF7FEFF 		bl	_i2c_wait_flag_timeout
 2016 007c 0346     		mov	r3, r0
 2017              		.loc 1 791 7
 2018 007e 002B     		cmp	r3, #0
 2019 0080 02D0     		beq	.L90
 792:../firmware/gd32f3x0_hal_peripheral/Source/gd32f3x0_hal_i2c.c ****         HAL_DEBUGW("i2c get ADDSEND timeout");
 793:../firmware/gd32f3x0_hal_peripheral/Source/gd32f3x0_hal_i2c.c ****         return HAL_ERR_TIMEOUT;
 2020              		.loc 1 793 16
 2021 0082 6FF00403 		mvn	r3, #4
 2022 0086 52E0     		b	.L88
 2023              	.L90:
 794:../firmware/gd32f3x0_hal_peripheral/Source/gd32f3x0_hal_i2c.c ****     }
 795:../firmware/gd32f3x0_hal_peripheral/Source/gd32f3x0_hal_i2c.c ****     /* clear ADDSEND bit */
 796:../firmware/gd32f3x0_hal_peripheral/Source/gd32f3x0_hal_i2c.c ****     hals_i2c_flag_clear(i2c_dev->periph, I2C_FLAG_ADDSEND);
 2024              		.loc 1 796 5
 2025 0088 FB68     		ldr	r3, [r7, #12]
 2026 008a 1B68     		ldr	r3, [r3]
 2027 008c 40F20151 		movw	r1, #1281
 2028 0090 1846     		mov	r0, r3
 2029 0092 FFF7FEFF 		bl	hals_i2c_flag_clear
 797:../firmware/gd32f3x0_hal_peripheral/Source/gd32f3x0_hal_i2c.c **** 
 798:../firmware/gd32f3x0_hal_peripheral/Source/gd32f3x0_hal_i2c.c ****     while(i2c_dev->rxbuffer.pos < data_length) {
 2030              		.loc 1 798 10
 2031 0096 20E0     		b	.L91
 2032              	.L93:
 799:../firmware/gd32f3x0_hal_peripheral/Source/gd32f3x0_hal_i2c.c ****         /* wait until the RBNE bit is set */
 800:../firmware/gd32f3x0_hal_peripheral/Source/gd32f3x0_hal_i2c.c ****         if(HAL_ERR_NONE != _i2c_wait_flag_timeout(i2c_dev->periph, I2C_FLAG_RBNE, SET, timeout_ms))
 2033              		.loc 1 800 28
 2034 0098 FB68     		ldr	r3, [r7, #12]
 2035 009a 1868     		ldr	r0, [r3]
 2036 009c 3B68     		ldr	r3, [r7]
 2037 009e 0122     		movs	r2, #1
 2038 00a0 40F20651 		movw	r1, #1286
 2039 00a4 FFF7FEFF 		bl	_i2c_wait_flag_timeout
 2040 00a8 0346     		mov	r3, r0
 2041              		.loc 1 800 11
 2042 00aa 002B     		cmp	r3, #0
 2043 00ac 02D0     		beq	.L92
 801:../firmware/gd32f3x0_hal_peripheral/Source/gd32f3x0_hal_i2c.c ****             HAL_DEBUGW("i2c get RBNE timeout");
 802:../firmware/gd32f3x0_hal_peripheral/Source/gd32f3x0_hal_i2c.c ****             return HAL_ERR_TIMEOUT;
 2044              		.loc 1 802 20
 2045 00ae 6FF00403 		mvn	r3, #4
 2046 00b2 3CE0     		b	.L88
 2047              	.L92:
 803:../firmware/gd32f3x0_hal_peripheral/Source/gd32f3x0_hal_i2c.c ****         }
 804:../firmware/gd32f3x0_hal_peripheral/Source/gd32f3x0_hal_i2c.c ****         *i2c_dev->rxbuffer.buffer = hals_i2c_data_receive(i2c_dev->periph);
 2048              		.loc 1 804 37
 2049 00b4 FB68     		ldr	r3, [r7, #12]
 2050 00b6 1A68     		ldr	r2, [r3]
 2051              		.loc 1 804 27
 2052 00b8 FB68     		ldr	r3, [r7, #12]
 2053 00ba 1C6A     		ldr	r4, [r3, #32]
 2054              		.loc 1 804 37
 2055 00bc 1046     		mov	r0, r2
 2056 00be FFF7FEFF 		bl	hals_i2c_data_receive
 2057 00c2 0346     		mov	r3, r0
 2058              		.loc 1 804 35
 2059 00c4 2370     		strb	r3, [r4]
 805:../firmware/gd32f3x0_hal_peripheral/Source/gd32f3x0_hal_i2c.c ****         i2c_dev->rxbuffer.buffer++;
 2060              		.loc 1 805 26
 2061 00c6 FB68     		ldr	r3, [r7, #12]
 2062 00c8 1B6A     		ldr	r3, [r3, #32]
 2063              		.loc 1 805 33
 2064 00ca 5A1C     		adds	r2, r3, #1
 2065 00cc FB68     		ldr	r3, [r7, #12]
 2066 00ce 1A62     		str	r2, [r3, #32]
 806:../firmware/gd32f3x0_hal_peripheral/Source/gd32f3x0_hal_i2c.c ****         i2c_dev->rxbuffer.pos++;
 2067              		.loc 1 806 26
 2068 00d0 FB68     		ldr	r3, [r7, #12]
 2069 00d2 9B6A     		ldr	r3, [r3, #40]
 2070              		.loc 1 806 30
 2071 00d4 5A1C     		adds	r2, r3, #1
 2072 00d6 FB68     		ldr	r3, [r7, #12]
 2073 00d8 9A62     		str	r2, [r3, #40]
 2074              	.L91:
 798:../firmware/gd32f3x0_hal_peripheral/Source/gd32f3x0_hal_i2c.c ****         /* wait until the RBNE bit is set */
 2075              		.loc 1 798 28
 2076 00da FB68     		ldr	r3, [r7, #12]
 2077 00dc 9B6A     		ldr	r3, [r3, #40]
 798:../firmware/gd32f3x0_hal_peripheral/Source/gd32f3x0_hal_i2c.c ****         /* wait until the RBNE bit is set */
 2078              		.loc 1 798 10
 2079 00de 7A69     		ldr	r2, [r7, #20]
 2080 00e0 9A42     		cmp	r2, r3
 2081 00e2 D9D8     		bhi	.L93
 807:../firmware/gd32f3x0_hal_peripheral/Source/gd32f3x0_hal_i2c.c ****     }
 808:../firmware/gd32f3x0_hal_peripheral/Source/gd32f3x0_hal_i2c.c ****     /* wait until the STPDET bit is set */
 809:../firmware/gd32f3x0_hal_peripheral/Source/gd32f3x0_hal_i2c.c ****     if(HAL_ERR_NONE != _i2c_wait_flag_timeout(i2c_dev->periph, I2C_FLAG_STPDET, SET, timeout_ms)) {
 2082              		.loc 1 809 24
 2083 00e4 FB68     		ldr	r3, [r7, #12]
 2084 00e6 1868     		ldr	r0, [r3]
 2085 00e8 3B68     		ldr	r3, [r7]
 2086 00ea 0122     		movs	r2, #1
 2087 00ec 40F20451 		movw	r1, #1284
 2088 00f0 FFF7FEFF 		bl	_i2c_wait_flag_timeout
 2089 00f4 0346     		mov	r3, r0
 2090              		.loc 1 809 7
 2091 00f6 002B     		cmp	r3, #0
 2092 00f8 02D0     		beq	.L94
 810:../firmware/gd32f3x0_hal_peripheral/Source/gd32f3x0_hal_i2c.c ****         HAL_DEBUGW("i2c get stop timeout");
 811:../firmware/gd32f3x0_hal_peripheral/Source/gd32f3x0_hal_i2c.c ****         return HAL_ERR_TIMEOUT;
 2093              		.loc 1 811 16
 2094 00fa 6FF00403 		mvn	r3, #4
 2095 00fe 16E0     		b	.L88
 2096              	.L94:
 812:../firmware/gd32f3x0_hal_peripheral/Source/gd32f3x0_hal_i2c.c ****     }
 813:../firmware/gd32f3x0_hal_peripheral/Source/gd32f3x0_hal_i2c.c ****     /* clear the STPDET bit */
 814:../firmware/gd32f3x0_hal_peripheral/Source/gd32f3x0_hal_i2c.c ****     HAL_I2C_ENABLE(i2c_dev->periph);
 2097              		.loc 1 814 5
 2098 0100 FB68     		ldr	r3, [r7, #12]
 2099 0102 1B68     		ldr	r3, [r3]
 2100 0104 1B68     		ldr	r3, [r3]
 2101 0106 FA68     		ldr	r2, [r7, #12]
 2102 0108 1268     		ldr	r2, [r2]
 2103 010a 43F00103 		orr	r3, r3, #1
 2104 010e 1360     		str	r3, [r2]
 815:../firmware/gd32f3x0_hal_peripheral/Source/gd32f3x0_hal_i2c.c **** 
 816:../firmware/gd32f3x0_hal_peripheral/Source/gd32f3x0_hal_i2c.c ****     hals_i2c_ack_config(i2c_dev->periph, I2C_ACK_DISABLE);
 2105              		.loc 1 816 5
 2106 0110 FB68     		ldr	r3, [r7, #12]
 2107 0112 1B68     		ldr	r3, [r3]
 2108 0114 0021     		movs	r1, #0
 2109 0116 1846     		mov	r0, r3
 2110 0118 FFF7FEFF 		bl	hals_i2c_ack_config
 817:../firmware/gd32f3x0_hal_peripheral/Source/gd32f3x0_hal_i2c.c ****     i2c_dev->rx_state = HAL_I2C_STATE_READY;
 2111              		.loc 1 817 23
 2112 011c FB68     		ldr	r3, [r7, #12]
 2113 011e 0022     		movs	r2, #0
 2114 0120 83F84120 		strb	r2, [r3, #65]
 818:../firmware/gd32f3x0_hal_peripheral/Source/gd32f3x0_hal_i2c.c **** 
 819:../firmware/gd32f3x0_hal_peripheral/Source/gd32f3x0_hal_i2c.c ****     HAL_UNLOCK(i2c_dev);
 2115              		.loc 1 819 5
 2116 0124 FB68     		ldr	r3, [r7, #12]
 2117 0126 0022     		movs	r2, #0
 2118 0128 83F85020 		strb	r2, [r3, #80]
 820:../firmware/gd32f3x0_hal_peripheral/Source/gd32f3x0_hal_i2c.c ****     return HAL_ERR_NONE;
 2119              		.loc 1 820 12
 2120 012c 0023     		movs	r3, #0
 2121              	.L88:
 821:../firmware/gd32f3x0_hal_peripheral/Source/gd32f3x0_hal_i2c.c **** }
 2122              		.loc 1 821 1
 2123 012e 1846     		mov	r0, r3
 2124 0130 1C37     		adds	r7, r7, #28
 2125              		.cfi_def_cfa_offset 12
 2126 0132 BD46     		mov	sp, r7
 2127              		.cfi_def_cfa_register 13
 2128              		@ sp needed
 2129 0134 90BD     		pop	{r4, r7, pc}
 2130              		.cfi_endproc
 2131              	.LFE131:
 2133              		.section	.text.hal_i2c_memory_write_poll,"ax",%progbits
 2134              		.align	1
 2135              		.global	hal_i2c_memory_write_poll
 2136              		.syntax unified
 2137              		.thumb
 2138              		.thumb_func
 2139              		.fpu softvfp
 2141              	hal_i2c_memory_write_poll:
 2142              	.LFB132:
 822:../firmware/gd32f3x0_hal_peripheral/Source/gd32f3x0_hal_i2c.c **** 
 823:../firmware/gd32f3x0_hal_peripheral/Source/gd32f3x0_hal_i2c.c **** /*!
 824:../firmware/gd32f3x0_hal_peripheral/Source/gd32f3x0_hal_i2c.c ****     \brief      write amounts of data to memory, poll transmit process and completed status,
 825:../firmware/gd32f3x0_hal_peripheral/Source/gd32f3x0_hal_i2c.c ****                 the function is blocking
 826:../firmware/gd32f3x0_hal_peripheral/Source/gd32f3x0_hal_i2c.c ****     \param[in]  i2c_dev: I2C device information structrue
 827:../firmware/gd32f3x0_hal_peripheral/Source/gd32f3x0_hal_i2c.c ****                   the structure is not necessary to be reconfigured after structrue initialization,
 828:../firmware/gd32f3x0_hal_peripheral/Source/gd32f3x0_hal_i2c.c ****                   the structure parameters altering is automatically configured by core
 829:../firmware/gd32f3x0_hal_peripheral/Source/gd32f3x0_hal_i2c.c ****     \param[in]  p_buffer: pointer to txbuffer
 830:../firmware/gd32f3x0_hal_peripheral/Source/gd32f3x0_hal_i2c.c ****     \param[in]  length: length of data to be sent
 831:../firmware/gd32f3x0_hal_peripheral/Source/gd32f3x0_hal_i2c.c ****     \param[in]  timeout_ms: timeout duration
 832:../firmware/gd32f3x0_hal_peripheral/Source/gd32f3x0_hal_i2c.c ****     \param[out] none
 833:../firmware/gd32f3x0_hal_peripheral/Source/gd32f3x0_hal_i2c.c ****     \retval     error code: HAL_ERR_NONE, HAL_ERR_ADDRESS, HAL_ERR_TIMEOUT, HAL_ERR_VAL,
 834:../firmware/gd32f3x0_hal_peripheral/Source/gd32f3x0_hal_i2c.c ****                 details refer to gd32f3x0_hal.h
 835:../firmware/gd32f3x0_hal_peripheral/Source/gd32f3x0_hal_i2c.c **** */
 836:../firmware/gd32f3x0_hal_peripheral/Source/gd32f3x0_hal_i2c.c **** int32_t hal_i2c_memory_write_poll(hal_i2c_dev_struct *i2c_dev, uint8_t *p_buffer, \
 837:../firmware/gd32f3x0_hal_peripheral/Source/gd32f3x0_hal_i2c.c ****                                   uint32_t length, uint32_t timeout_ms)
 838:../firmware/gd32f3x0_hal_peripheral/Source/gd32f3x0_hal_i2c.c **** {
 2143              		.loc 1 838 1
 2144              		.cfi_startproc
 2145              		@ args = 0, pretend = 0, frame = 24
 2146              		@ frame_needed = 1, uses_anonymous_args = 0
 2147 0000 80B5     		push	{r7, lr}
 2148              		.cfi_def_cfa_offset 8
 2149              		.cfi_offset 7, -8
 2150              		.cfi_offset 14, -4
 2151 0002 86B0     		sub	sp, sp, #24
 2152              		.cfi_def_cfa_offset 32
 2153 0004 00AF     		add	r7, sp, #0
 2154              		.cfi_def_cfa_register 7
 2155 0006 F860     		str	r0, [r7, #12]
 2156 0008 B960     		str	r1, [r7, #8]
 2157 000a 7A60     		str	r2, [r7, #4]
 2158 000c 3B60     		str	r3, [r7]
 839:../firmware/gd32f3x0_hal_peripheral/Source/gd32f3x0_hal_i2c.c ****     uint32_t data_length;
 840:../firmware/gd32f3x0_hal_peripheral/Source/gd32f3x0_hal_i2c.c **** 
 841:../firmware/gd32f3x0_hal_peripheral/Source/gd32f3x0_hal_i2c.c **** #if (1 == HAL_PARAMETER_CHECK)
 842:../firmware/gd32f3x0_hal_peripheral/Source/gd32f3x0_hal_i2c.c ****     /* check the parameters */
 843:../firmware/gd32f3x0_hal_peripheral/Source/gd32f3x0_hal_i2c.c ****     if((NULL == i2c_dev) || (NULL == p_buffer) || (0U == length)) {
 844:../firmware/gd32f3x0_hal_peripheral/Source/gd32f3x0_hal_i2c.c ****         HAL_DEBUGE("parameter [i2c_dev] or [p_buffer] or [length] value is invalid");
 845:../firmware/gd32f3x0_hal_peripheral/Source/gd32f3x0_hal_i2c.c ****         return HAL_ERR_ADDRESS;
 846:../firmware/gd32f3x0_hal_peripheral/Source/gd32f3x0_hal_i2c.c ****     }
 847:../firmware/gd32f3x0_hal_peripheral/Source/gd32f3x0_hal_i2c.c **** 
 848:../firmware/gd32f3x0_hal_peripheral/Source/gd32f3x0_hal_i2c.c ****     HAL_LOCK(i2c_dev);
 849:../firmware/gd32f3x0_hal_peripheral/Source/gd32f3x0_hal_i2c.c ****     /* check whether the address size is legal */
 850:../firmware/gd32f3x0_hal_peripheral/Source/gd32f3x0_hal_i2c.c ****     if((I2C_MEMORY_ADDRESS_8BIT != i2c_dev->slave_address.address_size) && \
 851:../firmware/gd32f3x0_hal_peripheral/Source/gd32f3x0_hal_i2c.c ****             (I2C_MEMORY_ADDRESS_16BIT != i2c_dev->slave_address.address_size)) {
 852:../firmware/gd32f3x0_hal_peripheral/Source/gd32f3x0_hal_i2c.c ****         HAL_DEBUGE("parameter [address_size] value is invalid");
 853:../firmware/gd32f3x0_hal_peripheral/Source/gd32f3x0_hal_i2c.c ****         return HAL_ERR_VAL;
 854:../firmware/gd32f3x0_hal_peripheral/Source/gd32f3x0_hal_i2c.c ****     }
 855:../firmware/gd32f3x0_hal_peripheral/Source/gd32f3x0_hal_i2c.c **** #endif /* 1 == HAL_PARAMETER_CHECK */
 856:../firmware/gd32f3x0_hal_peripheral/Source/gd32f3x0_hal_i2c.c **** 
 857:../firmware/gd32f3x0_hal_peripheral/Source/gd32f3x0_hal_i2c.c ****     /* check the tx_state whether it is busy or not */
 858:../firmware/gd32f3x0_hal_peripheral/Source/gd32f3x0_hal_i2c.c ****     if(HAL_I2C_STATE_MEMORY_BUSY_TX == i2c_dev->tx_state) {
 2159              		.loc 1 858 47
 2160 000e FB68     		ldr	r3, [r7, #12]
 2161 0010 93F84030 		ldrb	r3, [r3, #64]
 2162 0014 DBB2     		uxtb	r3, r3
 2163              		.loc 1 858 7
 2164 0016 022B     		cmp	r3, #2
 2165 0018 02D1     		bne	.L96
 859:../firmware/gd32f3x0_hal_peripheral/Source/gd32f3x0_hal_i2c.c ****         HAL_DEBUGE("i2c tx has already been used, please wait until run_state change to free ");
 860:../firmware/gd32f3x0_hal_peripheral/Source/gd32f3x0_hal_i2c.c ****         return HAL_ERR_BUSY;
 2166              		.loc 1 860 16
 2167 001a 6FF00203 		mvn	r3, #2
 2168 001e 7CE0     		b	.L97
 2169              	.L96:
 861:../firmware/gd32f3x0_hal_peripheral/Source/gd32f3x0_hal_i2c.c ****     }
 862:../firmware/gd32f3x0_hal_peripheral/Source/gd32f3x0_hal_i2c.c **** 
 863:../firmware/gd32f3x0_hal_peripheral/Source/gd32f3x0_hal_i2c.c ****     /* wait until I2C bus is idle */
 864:../firmware/gd32f3x0_hal_peripheral/Source/gd32f3x0_hal_i2c.c ****     if(HAL_ERR_NONE != _i2c_wait_flag_timeout(i2c_dev->periph, I2C_FLAG_I2CBSY, RESET, timeout_ms))
 2170              		.loc 1 864 24
 2171 0020 FB68     		ldr	r3, [r7, #12]
 2172 0022 1868     		ldr	r0, [r3]
 2173 0024 3B68     		ldr	r3, [r7]
 2174 0026 0022     		movs	r2, #0
 2175 0028 40F20161 		movw	r1, #1537
 2176 002c FFF7FEFF 		bl	_i2c_wait_flag_timeout
 2177 0030 0346     		mov	r3, r0
 2178              		.loc 1 864 7
 2179 0032 002B     		cmp	r3, #0
 2180 0034 02D0     		beq	.L98
 865:../firmware/gd32f3x0_hal_peripheral/Source/gd32f3x0_hal_i2c.c ****         HAL_DEBUGW("i2c busy timeout");
 866:../firmware/gd32f3x0_hal_peripheral/Source/gd32f3x0_hal_i2c.c ****         return HAL_ERR_TIMEOUT;
 2181              		.loc 1 866 16
 2182 0036 6FF00403 		mvn	r3, #4
 2183 003a 6EE0     		b	.L97
 2184              	.L98:
 867:../firmware/gd32f3x0_hal_peripheral/Source/gd32f3x0_hal_i2c.c ****     }
 868:../firmware/gd32f3x0_hal_peripheral/Source/gd32f3x0_hal_i2c.c ****     /* initialize transmit parameters */
 869:../firmware/gd32f3x0_hal_peripheral/Source/gd32f3x0_hal_i2c.c ****     i2c_dev->txbuffer.buffer = (uint8_t *)p_buffer;
 2185              		.loc 1 869 30
 2186 003c FB68     		ldr	r3, [r7, #12]
 2187 003e BA68     		ldr	r2, [r7, #8]
 2188 0040 5A61     		str	r2, [r3, #20]
 870:../firmware/gd32f3x0_hal_peripheral/Source/gd32f3x0_hal_i2c.c ****     i2c_dev->txbuffer.length = length;
 2189              		.loc 1 870 30
 2190 0042 FB68     		ldr	r3, [r7, #12]
 2191 0044 7A68     		ldr	r2, [r7, #4]
 2192 0046 9A61     		str	r2, [r3, #24]
 871:../firmware/gd32f3x0_hal_peripheral/Source/gd32f3x0_hal_i2c.c ****     i2c_dev->txbuffer.pos = 0;
 2193              		.loc 1 871 27
 2194 0048 FB68     		ldr	r3, [r7, #12]
 2195 004a 0022     		movs	r2, #0
 2196 004c DA61     		str	r2, [r3, #28]
 872:../firmware/gd32f3x0_hal_peripheral/Source/gd32f3x0_hal_i2c.c ****     data_length = i2c_dev->txbuffer.length;
 2197              		.loc 1 872 17
 2198 004e FB68     		ldr	r3, [r7, #12]
 2199 0050 9B69     		ldr	r3, [r3, #24]
 2200 0052 7B61     		str	r3, [r7, #20]
 873:../firmware/gd32f3x0_hal_peripheral/Source/gd32f3x0_hal_i2c.c **** 
 874:../firmware/gd32f3x0_hal_peripheral/Source/gd32f3x0_hal_i2c.c ****     i2c_dev->tx_state = HAL_I2C_STATE_MEMORY_BUSY_TX;
 2201              		.loc 1 874 23
 2202 0054 FB68     		ldr	r3, [r7, #12]
 2203 0056 0222     		movs	r2, #2
 2204 0058 83F84020 		strb	r2, [r3, #64]
 875:../firmware/gd32f3x0_hal_peripheral/Source/gd32f3x0_hal_i2c.c ****     i2c_dev->last_error = HAL_I2C_ERROR_NONE;
 2205              		.loc 1 875 25
 2206 005c FB68     		ldr	r3, [r7, #12]
 2207 005e 0022     		movs	r2, #0
 2208 0060 5A87     		strh	r2, [r3, #58]	@ movhi
 876:../firmware/gd32f3x0_hal_peripheral/Source/gd32f3x0_hal_i2c.c ****     /* master sends device address for memory write request */
 877:../firmware/gd32f3x0_hal_peripheral/Source/gd32f3x0_hal_i2c.c ****     if(HAL_ERR_NONE != _i2c_memory_write(i2c_dev, timeout_ms)) {
 2209              		.loc 1 877 24
 2210 0062 3968     		ldr	r1, [r7]
 2211 0064 F868     		ldr	r0, [r7, #12]
 2212 0066 FFF7FEFF 		bl	_i2c_memory_write
 2213 006a 0346     		mov	r3, r0
 2214              		.loc 1 877 7
 2215 006c 002B     		cmp	r3, #0
 2216 006e 36D0     		beq	.L100
 878:../firmware/gd32f3x0_hal_peripheral/Source/gd32f3x0_hal_i2c.c ****         return HAL_ERR_TIMEOUT;
 2217              		.loc 1 878 16
 2218 0070 6FF00403 		mvn	r3, #4
 2219 0074 51E0     		b	.L97
 2220              	.L102:
 879:../firmware/gd32f3x0_hal_peripheral/Source/gd32f3x0_hal_i2c.c ****     }
 880:../firmware/gd32f3x0_hal_peripheral/Source/gd32f3x0_hal_i2c.c **** 
 881:../firmware/gd32f3x0_hal_peripheral/Source/gd32f3x0_hal_i2c.c ****     while(i2c_dev->txbuffer.pos < data_length) {
 882:../firmware/gd32f3x0_hal_peripheral/Source/gd32f3x0_hal_i2c.c ****         /* wait until the transmission data register is empty */
 883:../firmware/gd32f3x0_hal_peripheral/Source/gd32f3x0_hal_i2c.c ****         if(HAL_ERR_NONE != _i2c_wait_flag_timeout(i2c_dev->periph, I2C_FLAG_TBE, SET, timeout_ms)) 
 2221              		.loc 1 883 28
 2222 0076 FB68     		ldr	r3, [r7, #12]
 2223 0078 1868     		ldr	r0, [r3]
 2224 007a 3B68     		ldr	r3, [r7]
 2225 007c 0122     		movs	r2, #1
 2226 007e 40F20751 		movw	r1, #1287
 2227 0082 FFF7FEFF 		bl	_i2c_wait_flag_timeout
 2228 0086 0346     		mov	r3, r0
 2229              		.loc 1 883 11
 2230 0088 002B     		cmp	r3, #0
 2231 008a 02D0     		beq	.L101
 884:../firmware/gd32f3x0_hal_peripheral/Source/gd32f3x0_hal_i2c.c ****             HAL_DEBUGW("i2c get TBE timeout");
 885:../firmware/gd32f3x0_hal_peripheral/Source/gd32f3x0_hal_i2c.c ****             return HAL_ERR_TIMEOUT;
 2232              		.loc 1 885 20
 2233 008c 6FF00403 		mvn	r3, #4
 2234 0090 43E0     		b	.L97
 2235              	.L101:
 886:../firmware/gd32f3x0_hal_peripheral/Source/gd32f3x0_hal_i2c.c ****         }
 887:../firmware/gd32f3x0_hal_peripheral/Source/gd32f3x0_hal_i2c.c ****         hals_i2c_data_transmit(i2c_dev->periph, *i2c_dev->txbuffer.buffer);
 2236              		.loc 1 887 9
 2237 0092 FB68     		ldr	r3, [r7, #12]
 2238 0094 1A68     		ldr	r2, [r3]
 2239              		.loc 1 887 67
 2240 0096 FB68     		ldr	r3, [r7, #12]
 2241 0098 5B69     		ldr	r3, [r3, #20]
 2242              		.loc 1 887 9
 2243 009a 1B78     		ldrb	r3, [r3]
 2244 009c DBB2     		uxtb	r3, r3
 2245 009e 1946     		mov	r1, r3
 2246 00a0 1046     		mov	r0, r2
 2247 00a2 FFF7FEFF 		bl	hals_i2c_data_transmit
 888:../firmware/gd32f3x0_hal_peripheral/Source/gd32f3x0_hal_i2c.c ****         i2c_dev->txbuffer.buffer++;
 2248              		.loc 1 888 26
 2249 00a6 FB68     		ldr	r3, [r7, #12]
 2250 00a8 5B69     		ldr	r3, [r3, #20]
 2251              		.loc 1 888 33
 2252 00aa 5A1C     		adds	r2, r3, #1
 2253 00ac FB68     		ldr	r3, [r7, #12]
 2254 00ae 5A61     		str	r2, [r3, #20]
 889:../firmware/gd32f3x0_hal_peripheral/Source/gd32f3x0_hal_i2c.c ****         i2c_dev->txbuffer.pos++;
 2255              		.loc 1 889 26
 2256 00b0 FB68     		ldr	r3, [r7, #12]
 2257 00b2 DB69     		ldr	r3, [r3, #28]
 2258              		.loc 1 889 30
 2259 00b4 5A1C     		adds	r2, r3, #1
 2260 00b6 FB68     		ldr	r3, [r7, #12]
 2261 00b8 DA61     		str	r2, [r3, #28]
 890:../firmware/gd32f3x0_hal_peripheral/Source/gd32f3x0_hal_i2c.c ****         /* wait until BTC bit is set */
 891:../firmware/gd32f3x0_hal_peripheral/Source/gd32f3x0_hal_i2c.c ****         if((SET == hals_i2c_flag_get(i2c_dev->periph, I2C_FLAG_BTC)) && (i2c_dev->txbuffer.pos != d
 2262              		.loc 1 891 20
 2263 00ba FB68     		ldr	r3, [r7, #12]
 2264 00bc 1B68     		ldr	r3, [r3]
 2265 00be 40F20251 		movw	r1, #1282
 2266 00c2 1846     		mov	r0, r3
 2267 00c4 FFF7FEFF 		bl	hals_i2c_flag_get
 2268 00c8 0346     		mov	r3, r0
 2269              		.loc 1 891 11
 2270 00ca 012B     		cmp	r3, #1
 2271 00cc 07D1     		bne	.L100
 2272              		.loc 1 891 91 discriminator 1
 2273 00ce FB68     		ldr	r3, [r7, #12]
 2274 00d0 DB69     		ldr	r3, [r3, #28]
 2275              		.loc 1 891 70 discriminator 1
 2276 00d2 7A69     		ldr	r2, [r7, #20]
 2277 00d4 9A42     		cmp	r2, r3
 2278 00d6 02D0     		beq	.L100
 892:../firmware/gd32f3x0_hal_peripheral/Source/gd32f3x0_hal_i2c.c ****             HAL_DEBUGW("i2c get BTC timeout");
 893:../firmware/gd32f3x0_hal_peripheral/Source/gd32f3x0_hal_i2c.c ****             return HAL_ERR_TIMEOUT;
 2279              		.loc 1 893 20
 2280 00d8 6FF00403 		mvn	r3, #4
 2281 00dc 1DE0     		b	.L97
 2282              	.L100:
 881:../firmware/gd32f3x0_hal_peripheral/Source/gd32f3x0_hal_i2c.c ****         /* wait until the transmission data register is empty */
 2283              		.loc 1 881 28
 2284 00de FB68     		ldr	r3, [r7, #12]
 2285 00e0 DB69     		ldr	r3, [r3, #28]
 881:../firmware/gd32f3x0_hal_peripheral/Source/gd32f3x0_hal_i2c.c ****         /* wait until the transmission data register is empty */
 2286              		.loc 1 881 10
 2287 00e2 7A69     		ldr	r2, [r7, #20]
 2288 00e4 9A42     		cmp	r2, r3
 2289 00e6 C6D8     		bhi	.L102
 894:../firmware/gd32f3x0_hal_peripheral/Source/gd32f3x0_hal_i2c.c ****         }
 895:../firmware/gd32f3x0_hal_peripheral/Source/gd32f3x0_hal_i2c.c ****     }
 896:../firmware/gd32f3x0_hal_peripheral/Source/gd32f3x0_hal_i2c.c ****     /* send a stop condition to I2C bus */
 897:../firmware/gd32f3x0_hal_peripheral/Source/gd32f3x0_hal_i2c.c ****     HAL_I2C_STOP_ON_BUS(i2c_dev->periph);
 2290              		.loc 1 897 5
 2291 00e8 FB68     		ldr	r3, [r7, #12]
 2292 00ea 1B68     		ldr	r3, [r3]
 2293 00ec 1B68     		ldr	r3, [r3]
 2294 00ee FA68     		ldr	r2, [r7, #12]
 2295 00f0 1268     		ldr	r2, [r2]
 2296 00f2 43F40073 		orr	r3, r3, #512
 2297 00f6 1360     		str	r3, [r2]
 898:../firmware/gd32f3x0_hal_peripheral/Source/gd32f3x0_hal_i2c.c ****     while(I2C_CTL0(i2c_dev->periph) & 0x0200);
 2298              		.loc 1 898 10
 2299 00f8 00BF     		nop
 2300              	.L103:
 2301              		.loc 1 898 11 discriminator 1
 2302 00fa FB68     		ldr	r3, [r7, #12]
 2303 00fc 1B68     		ldr	r3, [r3]
 2304 00fe 1B68     		ldr	r3, [r3]
 2305              		.loc 1 898 37 discriminator 1
 2306 0100 03F40073 		and	r3, r3, #512
 2307              		.loc 1 898 10 discriminator 1
 2308 0104 002B     		cmp	r3, #0
 2309 0106 F8D1     		bne	.L103
 899:../firmware/gd32f3x0_hal_peripheral/Source/gd32f3x0_hal_i2c.c ****     i2c_dev->tx_state = HAL_I2C_STATE_READY;
 2310              		.loc 1 899 23
 2311 0108 FB68     		ldr	r3, [r7, #12]
 2312 010a 0022     		movs	r2, #0
 2313 010c 83F84020 		strb	r2, [r3, #64]
 900:../firmware/gd32f3x0_hal_peripheral/Source/gd32f3x0_hal_i2c.c **** 
 901:../firmware/gd32f3x0_hal_peripheral/Source/gd32f3x0_hal_i2c.c ****     HAL_UNLOCK(i2c_dev);
 2314              		.loc 1 901 5
 2315 0110 FB68     		ldr	r3, [r7, #12]
 2316 0112 0022     		movs	r2, #0
 2317 0114 83F85020 		strb	r2, [r3, #80]
 902:../firmware/gd32f3x0_hal_peripheral/Source/gd32f3x0_hal_i2c.c ****     return HAL_ERR_NONE;
 2318              		.loc 1 902 12
 2319 0118 0023     		movs	r3, #0
 2320              	.L97:
 903:../firmware/gd32f3x0_hal_peripheral/Source/gd32f3x0_hal_i2c.c **** }
 2321              		.loc 1 903 1
 2322 011a 1846     		mov	r0, r3
 2323 011c 1837     		adds	r7, r7, #24
 2324              		.cfi_def_cfa_offset 8
 2325 011e BD46     		mov	sp, r7
 2326              		.cfi_def_cfa_register 13
 2327              		@ sp needed
 2328 0120 80BD     		pop	{r7, pc}
 2329              		.cfi_endproc
 2330              	.LFE132:
 2332              		.section	.text.hal_i2c_memory_read_poll,"ax",%progbits
 2333              		.align	1
 2334              		.global	hal_i2c_memory_read_poll
 2335              		.syntax unified
 2336              		.thumb
 2337              		.thumb_func
 2338              		.fpu softvfp
 2340              	hal_i2c_memory_read_poll:
 2341              	.LFB133:
 904:../firmware/gd32f3x0_hal_peripheral/Source/gd32f3x0_hal_i2c.c **** 
 905:../firmware/gd32f3x0_hal_peripheral/Source/gd32f3x0_hal_i2c.c **** /*!
 906:../firmware/gd32f3x0_hal_peripheral/Source/gd32f3x0_hal_i2c.c ****     \brief      read amounts of data from memory, poll receive process and completed status,
 907:../firmware/gd32f3x0_hal_peripheral/Source/gd32f3x0_hal_i2c.c ****                 the function is blocking
 908:../firmware/gd32f3x0_hal_peripheral/Source/gd32f3x0_hal_i2c.c ****     \param[in]  i2c_dev: I2C device information structrue
 909:../firmware/gd32f3x0_hal_peripheral/Source/gd32f3x0_hal_i2c.c ****                   the structure is not necessary to be reconfigured after structrue initialization,
 910:../firmware/gd32f3x0_hal_peripheral/Source/gd32f3x0_hal_i2c.c ****                   the structure parameters altering is automatically configured by core
 911:../firmware/gd32f3x0_hal_peripheral/Source/gd32f3x0_hal_i2c.c ****     \param[in]  p_buffer: pointer to rxbuffer
 912:../firmware/gd32f3x0_hal_peripheral/Source/gd32f3x0_hal_i2c.c ****     \param[in]  length: length of data to be read
 913:../firmware/gd32f3x0_hal_peripheral/Source/gd32f3x0_hal_i2c.c ****     \param[in]  timeout_ms: timeout duration
 914:../firmware/gd32f3x0_hal_peripheral/Source/gd32f3x0_hal_i2c.c ****     \param[out] none
 915:../firmware/gd32f3x0_hal_peripheral/Source/gd32f3x0_hal_i2c.c ****     \retval     error code: HAL_ERR_NONE, HAL_ERR_ADDRESS, HAL_ERR_TIMEOUT, HAL_ERR_VAL,
 916:../firmware/gd32f3x0_hal_peripheral/Source/gd32f3x0_hal_i2c.c ****                 details refer to gd32f3x0_hal.h
 917:../firmware/gd32f3x0_hal_peripheral/Source/gd32f3x0_hal_i2c.c **** */
 918:../firmware/gd32f3x0_hal_peripheral/Source/gd32f3x0_hal_i2c.c **** int32_t hal_i2c_memory_read_poll(hal_i2c_dev_struct *i2c_dev, uint8_t *p_buffer, \
 919:../firmware/gd32f3x0_hal_peripheral/Source/gd32f3x0_hal_i2c.c ****                                  uint32_t length, uint32_t timeout_ms)
 920:../firmware/gd32f3x0_hal_peripheral/Source/gd32f3x0_hal_i2c.c **** {
 2342              		.loc 1 920 1
 2343              		.cfi_startproc
 2344              		@ args = 0, pretend = 0, frame = 16
 2345              		@ frame_needed = 1, uses_anonymous_args = 0
 2346 0000 90B5     		push	{r4, r7, lr}
 2347              		.cfi_def_cfa_offset 12
 2348              		.cfi_offset 4, -12
 2349              		.cfi_offset 7, -8
 2350              		.cfi_offset 14, -4
 2351 0002 85B0     		sub	sp, sp, #20
 2352              		.cfi_def_cfa_offset 32
 2353 0004 00AF     		add	r7, sp, #0
 2354              		.cfi_def_cfa_register 7
 2355 0006 F860     		str	r0, [r7, #12]
 2356 0008 B960     		str	r1, [r7, #8]
 2357 000a 7A60     		str	r2, [r7, #4]
 2358 000c 3B60     		str	r3, [r7]
 921:../firmware/gd32f3x0_hal_peripheral/Source/gd32f3x0_hal_i2c.c **** #if (1 == HAL_PARAMETER_CHECK)
 922:../firmware/gd32f3x0_hal_peripheral/Source/gd32f3x0_hal_i2c.c ****     /* check the parameters */
 923:../firmware/gd32f3x0_hal_peripheral/Source/gd32f3x0_hal_i2c.c ****     if((NULL == i2c_dev) || (NULL == p_buffer) || (0U == length)) {
 924:../firmware/gd32f3x0_hal_peripheral/Source/gd32f3x0_hal_i2c.c ****         HAL_DEBUGE("parameter [i2c_dev] or [p_buffer] or [length] value is invalid");
 925:../firmware/gd32f3x0_hal_peripheral/Source/gd32f3x0_hal_i2c.c ****         return HAL_ERR_ADDRESS;
 926:../firmware/gd32f3x0_hal_peripheral/Source/gd32f3x0_hal_i2c.c ****     }
 927:../firmware/gd32f3x0_hal_peripheral/Source/gd32f3x0_hal_i2c.c **** 
 928:../firmware/gd32f3x0_hal_peripheral/Source/gd32f3x0_hal_i2c.c ****     /* check whether the address size is legal */
 929:../firmware/gd32f3x0_hal_peripheral/Source/gd32f3x0_hal_i2c.c ****     if((I2C_MEMORY_ADDRESS_8BIT != i2c_dev->slave_address.address_size) && \
 930:../firmware/gd32f3x0_hal_peripheral/Source/gd32f3x0_hal_i2c.c ****             (I2C_MEMORY_ADDRESS_16BIT != i2c_dev->slave_address.address_size)) {
 931:../firmware/gd32f3x0_hal_peripheral/Source/gd32f3x0_hal_i2c.c ****         HAL_DEBUGE("parameter [address_size] value is invalid");
 932:../firmware/gd32f3x0_hal_peripheral/Source/gd32f3x0_hal_i2c.c ****         return HAL_ERR_VAL;
 933:../firmware/gd32f3x0_hal_peripheral/Source/gd32f3x0_hal_i2c.c ****     }
 934:../firmware/gd32f3x0_hal_peripheral/Source/gd32f3x0_hal_i2c.c **** #endif /* 1 == HAL_PARAMETER_CHECK */
 935:../firmware/gd32f3x0_hal_peripheral/Source/gd32f3x0_hal_i2c.c **** 
 936:../firmware/gd32f3x0_hal_peripheral/Source/gd32f3x0_hal_i2c.c ****     HAL_LOCK(i2c_dev);
 2359              		.loc 1 936 5
 2360 000e FB68     		ldr	r3, [r7, #12]
 2361 0010 93F85030 		ldrb	r3, [r3, #80]	@ zero_extendqisi2
 2362 0014 012B     		cmp	r3, #1
 2363 0016 02D1     		bne	.L105
 2364              		.loc 1 936 5 is_stmt 0 discriminator 1
 2365 0018 6FF00103 		mvn	r3, #1
 2366 001c 59E1     		b	.L106
 2367              	.L105:
 2368              		.loc 1 936 5 discriminator 2
 2369 001e FB68     		ldr	r3, [r7, #12]
 2370 0020 0122     		movs	r2, #1
 2371 0022 83F85020 		strb	r2, [r3, #80]
 937:../firmware/gd32f3x0_hal_peripheral/Source/gd32f3x0_hal_i2c.c ****     /* check the rx_state whether it is busy or not */
 938:../firmware/gd32f3x0_hal_peripheral/Source/gd32f3x0_hal_i2c.c ****     if(HAL_I2C_STATE_MEMORY_BUSY_RX == i2c_dev->rx_state) {
 2372              		.loc 1 938 47 is_stmt 1 discriminator 2
 2373 0026 FB68     		ldr	r3, [r7, #12]
 2374 0028 93F84130 		ldrb	r3, [r3, #65]
 2375 002c DBB2     		uxtb	r3, r3
 2376              		.loc 1 938 7 discriminator 2
 2377 002e 032B     		cmp	r3, #3
 2378 0030 02D1     		bne	.L107
 939:../firmware/gd32f3x0_hal_peripheral/Source/gd32f3x0_hal_i2c.c ****         HAL_DEBUGE("i2c rx has already been used, please wait until run_state change to free ");
 940:../firmware/gd32f3x0_hal_peripheral/Source/gd32f3x0_hal_i2c.c ****         return HAL_ERR_BUSY;
 2379              		.loc 1 940 16
 2380 0032 6FF00203 		mvn	r3, #2
 2381 0036 4CE1     		b	.L106
 2382              	.L107:
 941:../firmware/gd32f3x0_hal_peripheral/Source/gd32f3x0_hal_i2c.c ****     }
 942:../firmware/gd32f3x0_hal_peripheral/Source/gd32f3x0_hal_i2c.c **** 
 943:../firmware/gd32f3x0_hal_peripheral/Source/gd32f3x0_hal_i2c.c ****     /* wait until I2C bus is idle */
 944:../firmware/gd32f3x0_hal_peripheral/Source/gd32f3x0_hal_i2c.c ****     if(HAL_ERR_NONE != _i2c_wait_flag_timeout(i2c_dev->periph, I2C_FLAG_I2CBSY, RESET, timeout_ms))
 2383              		.loc 1 944 24
 2384 0038 FB68     		ldr	r3, [r7, #12]
 2385 003a 1868     		ldr	r0, [r3]
 2386 003c 3B68     		ldr	r3, [r7]
 2387 003e 0022     		movs	r2, #0
 2388 0040 40F20161 		movw	r1, #1537
 2389 0044 FFF7FEFF 		bl	_i2c_wait_flag_timeout
 2390 0048 0346     		mov	r3, r0
 2391              		.loc 1 944 7
 2392 004a 002B     		cmp	r3, #0
 2393 004c 02D0     		beq	.L108
 945:../firmware/gd32f3x0_hal_peripheral/Source/gd32f3x0_hal_i2c.c ****         HAL_DEBUGW("i2c busy timeout");
 946:../firmware/gd32f3x0_hal_peripheral/Source/gd32f3x0_hal_i2c.c ****         return HAL_ERR_TIMEOUT;
 2394              		.loc 1 946 16
 2395 004e 6FF00403 		mvn	r3, #4
 2396 0052 3EE1     		b	.L106
 2397              	.L108:
 947:../firmware/gd32f3x0_hal_peripheral/Source/gd32f3x0_hal_i2c.c ****     }
 948:../firmware/gd32f3x0_hal_peripheral/Source/gd32f3x0_hal_i2c.c **** 
 949:../firmware/gd32f3x0_hal_peripheral/Source/gd32f3x0_hal_i2c.c ****     i2c_dev->rx_state = HAL_I2C_STATE_MEMORY_BUSY_RX;
 2398              		.loc 1 949 23
 2399 0054 FB68     		ldr	r3, [r7, #12]
 2400 0056 0322     		movs	r2, #3
 2401 0058 83F84120 		strb	r2, [r3, #65]
 950:../firmware/gd32f3x0_hal_peripheral/Source/gd32f3x0_hal_i2c.c ****     i2c_dev->last_error = HAL_I2C_ERROR_NONE;
 2402              		.loc 1 950 25
 2403 005c FB68     		ldr	r3, [r7, #12]
 2404 005e 0022     		movs	r2, #0
 2405 0060 5A87     		strh	r2, [r3, #58]	@ movhi
 951:../firmware/gd32f3x0_hal_peripheral/Source/gd32f3x0_hal_i2c.c ****     if(2 == length) {
 2406              		.loc 1 951 7
 2407 0062 7B68     		ldr	r3, [r7, #4]
 2408 0064 022B     		cmp	r3, #2
 2409 0066 06D1     		bne	.L109
 952:../firmware/gd32f3x0_hal_peripheral/Source/gd32f3x0_hal_i2c.c ****         /* send a NACK for the next data byte which will be received into the shift register */
 953:../firmware/gd32f3x0_hal_peripheral/Source/gd32f3x0_hal_i2c.c ****         hals_i2c_ackpos_config(i2c_dev->periph, I2C_ACKPOS_NEXT);
 2410              		.loc 1 953 9
 2411 0068 FB68     		ldr	r3, [r7, #12]
 2412 006a 1B68     		ldr	r3, [r3]
 2413 006c 4FF40061 		mov	r1, #2048
 2414 0070 1846     		mov	r0, r3
 2415 0072 FFF7FEFF 		bl	hals_i2c_ackpos_config
 2416              	.L109:
 954:../firmware/gd32f3x0_hal_peripheral/Source/gd32f3x0_hal_i2c.c ****     }
 955:../firmware/gd32f3x0_hal_peripheral/Source/gd32f3x0_hal_i2c.c ****     /* master sends device address for memory read request */
 956:../firmware/gd32f3x0_hal_peripheral/Source/gd32f3x0_hal_i2c.c ****     if(HAL_ERR_NONE != _i2c_memory_read(i2c_dev, timeout_ms)) {
 2417              		.loc 1 956 24
 2418 0076 3968     		ldr	r1, [r7]
 2419 0078 F868     		ldr	r0, [r7, #12]
 2420 007a FFF7FEFF 		bl	_i2c_memory_read
 2421 007e 0346     		mov	r3, r0
 2422              		.loc 1 956 7
 2423 0080 002B     		cmp	r3, #0
 2424 0082 02D0     		beq	.L110
 957:../firmware/gd32f3x0_hal_peripheral/Source/gd32f3x0_hal_i2c.c ****         return HAL_ERR_TIMEOUT;
 2425              		.loc 1 957 16
 2426 0084 6FF00403 		mvn	r3, #4
 2427 0088 23E1     		b	.L106
 2428              	.L110:
 958:../firmware/gd32f3x0_hal_peripheral/Source/gd32f3x0_hal_i2c.c ****     }
 959:../firmware/gd32f3x0_hal_peripheral/Source/gd32f3x0_hal_i2c.c **** 
 960:../firmware/gd32f3x0_hal_peripheral/Source/gd32f3x0_hal_i2c.c ****     if(1 == length) {
 2429              		.loc 1 960 7
 2430 008a 7B68     		ldr	r3, [r7, #4]
 2431 008c 012B     		cmp	r3, #1
 2432 008e 15D1     		bne	.L111
 961:../firmware/gd32f3x0_hal_peripheral/Source/gd32f3x0_hal_i2c.c ****         /* disable acknowledge */
 962:../firmware/gd32f3x0_hal_peripheral/Source/gd32f3x0_hal_i2c.c ****         hals_i2c_ack_config(i2c_dev->periph, I2C_ACK_DISABLE);
 2433              		.loc 1 962 9
 2434 0090 FB68     		ldr	r3, [r7, #12]
 2435 0092 1B68     		ldr	r3, [r3]
 2436 0094 0021     		movs	r1, #0
 2437 0096 1846     		mov	r0, r3
 2438 0098 FFF7FEFF 		bl	hals_i2c_ack_config
 963:../firmware/gd32f3x0_hal_peripheral/Source/gd32f3x0_hal_i2c.c ****         /* clear ADDSEND bit */
 964:../firmware/gd32f3x0_hal_peripheral/Source/gd32f3x0_hal_i2c.c ****         hals_i2c_flag_clear(i2c_dev->periph, I2C_FLAG_ADDSEND);
 2439              		.loc 1 964 9
 2440 009c FB68     		ldr	r3, [r7, #12]
 2441 009e 1B68     		ldr	r3, [r3]
 2442 00a0 40F20151 		movw	r1, #1281
 2443 00a4 1846     		mov	r0, r3
 2444 00a6 FFF7FEFF 		bl	hals_i2c_flag_clear
 965:../firmware/gd32f3x0_hal_peripheral/Source/gd32f3x0_hal_i2c.c ****         /* send a stop condition to I2C bus */
 966:../firmware/gd32f3x0_hal_peripheral/Source/gd32f3x0_hal_i2c.c ****         HAL_I2C_STOP_ON_BUS(i2c_dev->periph);
 2445              		.loc 1 966 9
 2446 00aa FB68     		ldr	r3, [r7, #12]
 2447 00ac 1B68     		ldr	r3, [r3]
 2448 00ae 1B68     		ldr	r3, [r3]
 2449 00b0 FA68     		ldr	r2, [r7, #12]
 2450 00b2 1268     		ldr	r2, [r2]
 2451 00b4 43F40073 		orr	r3, r3, #512
 2452 00b8 1360     		str	r3, [r2]
 2453 00ba FDE0     		b	.L114
 2454              	.L111:
 967:../firmware/gd32f3x0_hal_peripheral/Source/gd32f3x0_hal_i2c.c ****     } else if(2 == length) {
 2455              		.loc 1 967 14
 2456 00bc 7B68     		ldr	r3, [r7, #4]
 2457 00be 022B     		cmp	r3, #2
 2458 00c0 0DD1     		bne	.L113
 968:../firmware/gd32f3x0_hal_peripheral/Source/gd32f3x0_hal_i2c.c ****         /* disable acknowledge */
 969:../firmware/gd32f3x0_hal_peripheral/Source/gd32f3x0_hal_i2c.c ****         hals_i2c_ack_config(i2c_dev->periph, I2C_ACK_DISABLE);
 2459              		.loc 1 969 9
 2460 00c2 FB68     		ldr	r3, [r7, #12]
 2461 00c4 1B68     		ldr	r3, [r3]
 2462 00c6 0021     		movs	r1, #0
 2463 00c8 1846     		mov	r0, r3
 2464 00ca FFF7FEFF 		bl	hals_i2c_ack_config
 970:../firmware/gd32f3x0_hal_peripheral/Source/gd32f3x0_hal_i2c.c ****         /* clear ADDSEND bit */
 971:../firmware/gd32f3x0_hal_peripheral/Source/gd32f3x0_hal_i2c.c ****         hals_i2c_flag_clear(i2c_dev->periph, I2C_FLAG_ADDSEND);
 2465              		.loc 1 971 9
 2466 00ce FB68     		ldr	r3, [r7, #12]
 2467 00d0 1B68     		ldr	r3, [r3]
 2468 00d2 40F20151 		movw	r1, #1281
 2469 00d6 1846     		mov	r0, r3
 2470 00d8 FFF7FEFF 		bl	hals_i2c_flag_clear
 2471 00dc ECE0     		b	.L114
 2472              	.L113:
 972:../firmware/gd32f3x0_hal_peripheral/Source/gd32f3x0_hal_i2c.c ****     } else {
 973:../firmware/gd32f3x0_hal_peripheral/Source/gd32f3x0_hal_i2c.c ****         /* clear ADDSEND bit */
 974:../firmware/gd32f3x0_hal_peripheral/Source/gd32f3x0_hal_i2c.c ****         hals_i2c_flag_clear(i2c_dev->periph, I2C_FLAG_ADDSEND);
 2473              		.loc 1 974 9
 2474 00de FB68     		ldr	r3, [r7, #12]
 2475 00e0 1B68     		ldr	r3, [r3]
 2476 00e2 40F20151 		movw	r1, #1281
 2477 00e6 1846     		mov	r0, r3
 2478 00e8 FFF7FEFF 		bl	hals_i2c_flag_clear
 975:../firmware/gd32f3x0_hal_peripheral/Source/gd32f3x0_hal_i2c.c ****     }
 976:../firmware/gd32f3x0_hal_peripheral/Source/gd32f3x0_hal_i2c.c ****     while(length > 0) {
 2479              		.loc 1 976 10
 2480 00ec E4E0     		b	.L114
 2481              	.L124:
 977:../firmware/gd32f3x0_hal_peripheral/Source/gd32f3x0_hal_i2c.c ****         if(length <= 3) {
 2482              		.loc 1 977 11
 2483 00ee 7B68     		ldr	r3, [r7, #4]
 2484 00f0 032B     		cmp	r3, #3
 2485 00f2 00F2AB80 		bhi	.L115
 978:../firmware/gd32f3x0_hal_peripheral/Source/gd32f3x0_hal_i2c.c ****             if(1 == length) {
 2486              		.loc 1 978 15
 2487 00f6 7B68     		ldr	r3, [r7, #4]
 2488 00f8 012B     		cmp	r3, #1
 2489 00fa 1BD1     		bne	.L116
 979:../firmware/gd32f3x0_hal_peripheral/Source/gd32f3x0_hal_i2c.c ****                 /* wait until RBNE bit is set */
 980:../firmware/gd32f3x0_hal_peripheral/Source/gd32f3x0_hal_i2c.c ****                 if(HAL_ERR_NONE != _i2c_wait_flag_timeout(i2c_dev->periph, I2C_FLAG_RBNE, SET, time
 2490              		.loc 1 980 36
 2491 00fc FB68     		ldr	r3, [r7, #12]
 2492 00fe 1868     		ldr	r0, [r3]
 2493 0100 3B68     		ldr	r3, [r7]
 2494 0102 0122     		movs	r2, #1
 2495 0104 40F20651 		movw	r1, #1286
 2496 0108 FFF7FEFF 		bl	_i2c_wait_flag_timeout
 2497 010c 0346     		mov	r3, r0
 2498              		.loc 1 980 19
 2499 010e 002B     		cmp	r3, #0
 2500 0110 02D0     		beq	.L117
 981:../firmware/gd32f3x0_hal_peripheral/Source/gd32f3x0_hal_i2c.c ****                     HAL_DEBUGW("i2c get RBNE timeout");
 982:../firmware/gd32f3x0_hal_peripheral/Source/gd32f3x0_hal_i2c.c ****                     return HAL_ERR_TIMEOUT;
 2501              		.loc 1 982 28
 2502 0112 6FF00403 		mvn	r3, #4
 2503 0116 DCE0     		b	.L106
 2504              	.L117:
 983:../firmware/gd32f3x0_hal_peripheral/Source/gd32f3x0_hal_i2c.c ****                 }
 984:../firmware/gd32f3x0_hal_peripheral/Source/gd32f3x0_hal_i2c.c **** 
 985:../firmware/gd32f3x0_hal_peripheral/Source/gd32f3x0_hal_i2c.c ****                 (*p_buffer++) = hals_i2c_data_receive(i2c_dev->periph);
 2505              		.loc 1 985 33
 2506 0118 FB68     		ldr	r3, [r7, #12]
 2507 011a 1A68     		ldr	r2, [r3]
 2508              		.loc 1 985 27
 2509 011c BC68     		ldr	r4, [r7, #8]
 2510 011e 631C     		adds	r3, r4, #1
 2511 0120 BB60     		str	r3, [r7, #8]
 2512              		.loc 1 985 33
 2513 0122 1046     		mov	r0, r2
 2514 0124 FFF7FEFF 		bl	hals_i2c_data_receive
 2515 0128 0346     		mov	r3, r0
 2516              		.loc 1 985 31
 2517 012a 2370     		strb	r3, [r4]
 986:../firmware/gd32f3x0_hal_peripheral/Source/gd32f3x0_hal_i2c.c ****                 length--;
 2518              		.loc 1 986 23
 2519 012c 7B68     		ldr	r3, [r7, #4]
 2520 012e 013B     		subs	r3, r3, #1
 2521 0130 7B60     		str	r3, [r7, #4]
 2522 0132 C1E0     		b	.L114
 2523              	.L116:
 987:../firmware/gd32f3x0_hal_peripheral/Source/gd32f3x0_hal_i2c.c ****             } else if(2 == length) {
 2524              		.loc 1 987 22
 2525 0134 7B68     		ldr	r3, [r7, #4]
 2526 0136 022B     		cmp	r3, #2
 2527 0138 36D1     		bne	.L118
 988:../firmware/gd32f3x0_hal_peripheral/Source/gd32f3x0_hal_i2c.c ****                 hals_i2c_ack_config(i2c_dev->periph, I2C_ACK_DISABLE);
 2528              		.loc 1 988 17
 2529 013a FB68     		ldr	r3, [r7, #12]
 2530 013c 1B68     		ldr	r3, [r3]
 2531 013e 0021     		movs	r1, #0
 2532 0140 1846     		mov	r0, r3
 2533 0142 FFF7FEFF 		bl	hals_i2c_ack_config
 989:../firmware/gd32f3x0_hal_peripheral/Source/gd32f3x0_hal_i2c.c ****                 /* wait until BTC bit is set */
 990:../firmware/gd32f3x0_hal_peripheral/Source/gd32f3x0_hal_i2c.c ****                 if(HAL_ERR_NONE != _i2c_wait_flag_timeout(i2c_dev->periph, I2C_FLAG_BTC, SET, timeo
 2534              		.loc 1 990 36
 2535 0146 FB68     		ldr	r3, [r7, #12]
 2536 0148 1868     		ldr	r0, [r3]
 2537 014a 3B68     		ldr	r3, [r7]
 2538 014c 0122     		movs	r2, #1
 2539 014e 40F20251 		movw	r1, #1282
 2540 0152 FFF7FEFF 		bl	_i2c_wait_flag_timeout
 2541 0156 0346     		mov	r3, r0
 2542              		.loc 1 990 19
 2543 0158 002B     		cmp	r3, #0
 2544 015a 02D0     		beq	.L119
 991:../firmware/gd32f3x0_hal_peripheral/Source/gd32f3x0_hal_i2c.c ****                     HAL_DEBUGW("i2c get BTC timeout");
 992:../firmware/gd32f3x0_hal_peripheral/Source/gd32f3x0_hal_i2c.c ****                     return HAL_ERR_TIMEOUT;
 2545              		.loc 1 992 28
 2546 015c 6FF00403 		mvn	r3, #4
 2547 0160 B7E0     		b	.L106
 2548              	.L119:
 993:../firmware/gd32f3x0_hal_peripheral/Source/gd32f3x0_hal_i2c.c ****                 }
 994:../firmware/gd32f3x0_hal_peripheral/Source/gd32f3x0_hal_i2c.c ****                 /* send a stop condition to I2C bus */
 995:../firmware/gd32f3x0_hal_peripheral/Source/gd32f3x0_hal_i2c.c ****                 HAL_I2C_STOP_ON_BUS(i2c_dev->periph);
 2549              		.loc 1 995 17
 2550 0162 FB68     		ldr	r3, [r7, #12]
 2551 0164 1B68     		ldr	r3, [r3]
 2552 0166 1B68     		ldr	r3, [r3]
 2553 0168 FA68     		ldr	r2, [r7, #12]
 2554 016a 1268     		ldr	r2, [r2]
 2555 016c 43F40073 		orr	r3, r3, #512
 2556 0170 1360     		str	r3, [r2]
 996:../firmware/gd32f3x0_hal_peripheral/Source/gd32f3x0_hal_i2c.c ****                 (*p_buffer++) = hals_i2c_data_receive(i2c_dev->periph);
 2557              		.loc 1 996 33
 2558 0172 FB68     		ldr	r3, [r7, #12]
 2559 0174 1A68     		ldr	r2, [r3]
 2560              		.loc 1 996 27
 2561 0176 BC68     		ldr	r4, [r7, #8]
 2562 0178 631C     		adds	r3, r4, #1
 2563 017a BB60     		str	r3, [r7, #8]
 2564              		.loc 1 996 33
 2565 017c 1046     		mov	r0, r2
 2566 017e FFF7FEFF 		bl	hals_i2c_data_receive
 2567 0182 0346     		mov	r3, r0
 2568              		.loc 1 996 31
 2569 0184 2370     		strb	r3, [r4]
 997:../firmware/gd32f3x0_hal_peripheral/Source/gd32f3x0_hal_i2c.c ****                 length--;
 2570              		.loc 1 997 23
 2571 0186 7B68     		ldr	r3, [r7, #4]
 2572 0188 013B     		subs	r3, r3, #1
 2573 018a 7B60     		str	r3, [r7, #4]
 998:../firmware/gd32f3x0_hal_peripheral/Source/gd32f3x0_hal_i2c.c ****                 (*p_buffer++) = hals_i2c_data_receive(i2c_dev->periph);
 2574              		.loc 1 998 33
 2575 018c FB68     		ldr	r3, [r7, #12]
 2576 018e 1A68     		ldr	r2, [r3]
 2577              		.loc 1 998 27
 2578 0190 BC68     		ldr	r4, [r7, #8]
 2579 0192 631C     		adds	r3, r4, #1
 2580 0194 BB60     		str	r3, [r7, #8]
 2581              		.loc 1 998 33
 2582 0196 1046     		mov	r0, r2
 2583 0198 FFF7FEFF 		bl	hals_i2c_data_receive
 2584 019c 0346     		mov	r3, r0
 2585              		.loc 1 998 31
 2586 019e 2370     		strb	r3, [r4]
 999:../firmware/gd32f3x0_hal_peripheral/Source/gd32f3x0_hal_i2c.c ****                 length--;
 2587              		.loc 1 999 23
 2588 01a0 7B68     		ldr	r3, [r7, #4]
 2589 01a2 013B     		subs	r3, r3, #1
 2590 01a4 7B60     		str	r3, [r7, #4]
 2591 01a6 87E0     		b	.L114
 2592              	.L118:
1000:../firmware/gd32f3x0_hal_peripheral/Source/gd32f3x0_hal_i2c.c ****             } else {
1001:../firmware/gd32f3x0_hal_peripheral/Source/gd32f3x0_hal_i2c.c ****                 /* wait until BTC bit is set */
1002:../firmware/gd32f3x0_hal_peripheral/Source/gd32f3x0_hal_i2c.c ****                 if(HAL_ERR_NONE != _i2c_wait_flag_timeout(i2c_dev->periph, I2C_FLAG_BTC, SET, timeo
 2593              		.loc 1 1002 36
 2594 01a8 FB68     		ldr	r3, [r7, #12]
 2595 01aa 1868     		ldr	r0, [r3]
 2596 01ac 3B68     		ldr	r3, [r7]
 2597 01ae 0122     		movs	r2, #1
 2598 01b0 40F20251 		movw	r1, #1282
 2599 01b4 FFF7FEFF 		bl	_i2c_wait_flag_timeout
 2600 01b8 0346     		mov	r3, r0
 2601              		.loc 1 1002 19
 2602 01ba 002B     		cmp	r3, #0
 2603 01bc 02D0     		beq	.L120
1003:../firmware/gd32f3x0_hal_peripheral/Source/gd32f3x0_hal_i2c.c ****                     HAL_DEBUGW("i2c get BTC timeout");
1004:../firmware/gd32f3x0_hal_peripheral/Source/gd32f3x0_hal_i2c.c ****                     return HAL_ERR_TIMEOUT;
 2604              		.loc 1 1004 28
 2605 01be 6FF00403 		mvn	r3, #4
 2606 01c2 86E0     		b	.L106
 2607              	.L120:
1005:../firmware/gd32f3x0_hal_peripheral/Source/gd32f3x0_hal_i2c.c ****                 }
1006:../firmware/gd32f3x0_hal_peripheral/Source/gd32f3x0_hal_i2c.c ****                 /* disable acknowledge */
1007:../firmware/gd32f3x0_hal_peripheral/Source/gd32f3x0_hal_i2c.c ****                 hals_i2c_ack_config(i2c_dev->periph, I2C_ACK_DISABLE);
 2608              		.loc 1 1007 17
 2609 01c4 FB68     		ldr	r3, [r7, #12]
 2610 01c6 1B68     		ldr	r3, [r3]
 2611 01c8 0021     		movs	r1, #0
 2612 01ca 1846     		mov	r0, r3
 2613 01cc FFF7FEFF 		bl	hals_i2c_ack_config
1008:../firmware/gd32f3x0_hal_peripheral/Source/gd32f3x0_hal_i2c.c ****                 (*p_buffer++) = hals_i2c_data_receive(i2c_dev->periph);
 2614              		.loc 1 1008 33
 2615 01d0 FB68     		ldr	r3, [r7, #12]
 2616 01d2 1A68     		ldr	r2, [r3]
 2617              		.loc 1 1008 27
 2618 01d4 BC68     		ldr	r4, [r7, #8]
 2619 01d6 631C     		adds	r3, r4, #1
 2620 01d8 BB60     		str	r3, [r7, #8]
 2621              		.loc 1 1008 33
 2622 01da 1046     		mov	r0, r2
 2623 01dc FFF7FEFF 		bl	hals_i2c_data_receive
 2624 01e0 0346     		mov	r3, r0
 2625              		.loc 1 1008 31
 2626 01e2 2370     		strb	r3, [r4]
1009:../firmware/gd32f3x0_hal_peripheral/Source/gd32f3x0_hal_i2c.c ****                 length--;
 2627              		.loc 1 1009 23
 2628 01e4 7B68     		ldr	r3, [r7, #4]
 2629 01e6 013B     		subs	r3, r3, #1
 2630 01e8 7B60     		str	r3, [r7, #4]
1010:../firmware/gd32f3x0_hal_peripheral/Source/gd32f3x0_hal_i2c.c ****                 /* wait until BTC bit is set */
1011:../firmware/gd32f3x0_hal_peripheral/Source/gd32f3x0_hal_i2c.c ****                 if(HAL_ERR_NONE != _i2c_wait_flag_timeout(i2c_dev->periph, I2C_FLAG_BTC, SET, timeo
 2631              		.loc 1 1011 36
 2632 01ea FB68     		ldr	r3, [r7, #12]
 2633 01ec 1868     		ldr	r0, [r3]
 2634 01ee 3B68     		ldr	r3, [r7]
 2635 01f0 0122     		movs	r2, #1
 2636 01f2 40F20251 		movw	r1, #1282
 2637 01f6 FFF7FEFF 		bl	_i2c_wait_flag_timeout
 2638 01fa 0346     		mov	r3, r0
 2639              		.loc 1 1011 19
 2640 01fc 002B     		cmp	r3, #0
 2641 01fe 02D0     		beq	.L121
1012:../firmware/gd32f3x0_hal_peripheral/Source/gd32f3x0_hal_i2c.c ****                     HAL_DEBUGW("i2c get BTC timeout");
1013:../firmware/gd32f3x0_hal_peripheral/Source/gd32f3x0_hal_i2c.c ****                     return HAL_ERR_TIMEOUT;
 2642              		.loc 1 1013 28
 2643 0200 6FF00403 		mvn	r3, #4
 2644 0204 65E0     		b	.L106
 2645              	.L121:
1014:../firmware/gd32f3x0_hal_peripheral/Source/gd32f3x0_hal_i2c.c ****                 }
1015:../firmware/gd32f3x0_hal_peripheral/Source/gd32f3x0_hal_i2c.c ****                 /* send a stop condition to I2C bus */
1016:../firmware/gd32f3x0_hal_peripheral/Source/gd32f3x0_hal_i2c.c ****                 HAL_I2C_STOP_ON_BUS(i2c_dev->periph);
 2646              		.loc 1 1016 17
 2647 0206 FB68     		ldr	r3, [r7, #12]
 2648 0208 1B68     		ldr	r3, [r3]
 2649 020a 1B68     		ldr	r3, [r3]
 2650 020c FA68     		ldr	r2, [r7, #12]
 2651 020e 1268     		ldr	r2, [r2]
 2652 0210 43F40073 		orr	r3, r3, #512
 2653 0214 1360     		str	r3, [r2]
1017:../firmware/gd32f3x0_hal_peripheral/Source/gd32f3x0_hal_i2c.c ****                 (*p_buffer++) = hals_i2c_data_receive(i2c_dev->periph);
 2654              		.loc 1 1017 33
 2655 0216 FB68     		ldr	r3, [r7, #12]
 2656 0218 1A68     		ldr	r2, [r3]
 2657              		.loc 1 1017 27
 2658 021a BC68     		ldr	r4, [r7, #8]
 2659 021c 631C     		adds	r3, r4, #1
 2660 021e BB60     		str	r3, [r7, #8]
 2661              		.loc 1 1017 33
 2662 0220 1046     		mov	r0, r2
 2663 0222 FFF7FEFF 		bl	hals_i2c_data_receive
 2664 0226 0346     		mov	r3, r0
 2665              		.loc 1 1017 31
 2666 0228 2370     		strb	r3, [r4]
1018:../firmware/gd32f3x0_hal_peripheral/Source/gd32f3x0_hal_i2c.c ****                 length--;
 2667              		.loc 1 1018 23
 2668 022a 7B68     		ldr	r3, [r7, #4]
 2669 022c 013B     		subs	r3, r3, #1
 2670 022e 7B60     		str	r3, [r7, #4]
1019:../firmware/gd32f3x0_hal_peripheral/Source/gd32f3x0_hal_i2c.c ****                 (*p_buffer++) = hals_i2c_data_receive(i2c_dev->periph);
 2671              		.loc 1 1019 33
 2672 0230 FB68     		ldr	r3, [r7, #12]
 2673 0232 1A68     		ldr	r2, [r3]
 2674              		.loc 1 1019 27
 2675 0234 BC68     		ldr	r4, [r7, #8]
 2676 0236 631C     		adds	r3, r4, #1
 2677 0238 BB60     		str	r3, [r7, #8]
 2678              		.loc 1 1019 33
 2679 023a 1046     		mov	r0, r2
 2680 023c FFF7FEFF 		bl	hals_i2c_data_receive
 2681 0240 0346     		mov	r3, r0
 2682              		.loc 1 1019 31
 2683 0242 2370     		strb	r3, [r4]
1020:../firmware/gd32f3x0_hal_peripheral/Source/gd32f3x0_hal_i2c.c ****                 length--;
 2684              		.loc 1 1020 23
 2685 0244 7B68     		ldr	r3, [r7, #4]
 2686 0246 013B     		subs	r3, r3, #1
 2687 0248 7B60     		str	r3, [r7, #4]
 2688 024a 35E0     		b	.L114
 2689              	.L115:
1021:../firmware/gd32f3x0_hal_peripheral/Source/gd32f3x0_hal_i2c.c ****             }
1022:../firmware/gd32f3x0_hal_peripheral/Source/gd32f3x0_hal_i2c.c ****         } else {
1023:../firmware/gd32f3x0_hal_peripheral/Source/gd32f3x0_hal_i2c.c ****             /* wait until RBNE bit is set */
1024:../firmware/gd32f3x0_hal_peripheral/Source/gd32f3x0_hal_i2c.c ****             if(HAL_ERR_NONE != _i2c_wait_flag_timeout(i2c_dev->periph, I2C_FLAG_RBNE, SET, timeout_
 2690              		.loc 1 1024 32
 2691 024c FB68     		ldr	r3, [r7, #12]
 2692 024e 1868     		ldr	r0, [r3]
 2693 0250 3B68     		ldr	r3, [r7]
 2694 0252 0122     		movs	r2, #1
 2695 0254 40F20651 		movw	r1, #1286
 2696 0258 FFF7FEFF 		bl	_i2c_wait_flag_timeout
 2697 025c 0346     		mov	r3, r0
 2698              		.loc 1 1024 15
 2699 025e 002B     		cmp	r3, #0
 2700 0260 02D0     		beq	.L122
1025:../firmware/gd32f3x0_hal_peripheral/Source/gd32f3x0_hal_i2c.c ****                 HAL_DEBUGW("i2c get RBNE timeout");
1026:../firmware/gd32f3x0_hal_peripheral/Source/gd32f3x0_hal_i2c.c ****                 return HAL_ERR_TIMEOUT;
 2701              		.loc 1 1026 24
 2702 0262 6FF00403 		mvn	r3, #4
 2703 0266 34E0     		b	.L106
 2704              	.L122:
1027:../firmware/gd32f3x0_hal_peripheral/Source/gd32f3x0_hal_i2c.c ****             }
1028:../firmware/gd32f3x0_hal_peripheral/Source/gd32f3x0_hal_i2c.c ****             (*p_buffer++) = hals_i2c_data_receive(i2c_dev->periph);
 2705              		.loc 1 1028 29
 2706 0268 FB68     		ldr	r3, [r7, #12]
 2707 026a 1A68     		ldr	r2, [r3]
 2708              		.loc 1 1028 23
 2709 026c BC68     		ldr	r4, [r7, #8]
 2710 026e 631C     		adds	r3, r4, #1
 2711 0270 BB60     		str	r3, [r7, #8]
 2712              		.loc 1 1028 29
 2713 0272 1046     		mov	r0, r2
 2714 0274 FFF7FEFF 		bl	hals_i2c_data_receive
 2715 0278 0346     		mov	r3, r0
 2716              		.loc 1 1028 27
 2717 027a 2370     		strb	r3, [r4]
1029:../firmware/gd32f3x0_hal_peripheral/Source/gd32f3x0_hal_i2c.c ****             length--;
 2718              		.loc 1 1029 19
 2719 027c 7B68     		ldr	r3, [r7, #4]
 2720 027e 013B     		subs	r3, r3, #1
 2721 0280 7B60     		str	r3, [r7, #4]
1030:../firmware/gd32f3x0_hal_peripheral/Source/gd32f3x0_hal_i2c.c ****             /* wait until BTC bit is set */
1031:../firmware/gd32f3x0_hal_peripheral/Source/gd32f3x0_hal_i2c.c ****             if(HAL_ERR_NONE != _i2c_wait_flag_timeout(i2c_dev->periph, I2C_FLAG_BTC, SET, timeout_m
 2722              		.loc 1 1031 32
 2723 0282 FB68     		ldr	r3, [r7, #12]
 2724 0284 1868     		ldr	r0, [r3]
 2725 0286 3B68     		ldr	r3, [r7]
 2726 0288 0122     		movs	r2, #1
 2727 028a 40F20251 		movw	r1, #1282
 2728 028e FFF7FEFF 		bl	_i2c_wait_flag_timeout
 2729 0292 0346     		mov	r3, r0
 2730              		.loc 1 1031 15
 2731 0294 002B     		cmp	r3, #0
 2732 0296 02D0     		beq	.L123
1032:../firmware/gd32f3x0_hal_peripheral/Source/gd32f3x0_hal_i2c.c ****                 HAL_DEBUGW("i2c get BTC timeout");
1033:../firmware/gd32f3x0_hal_peripheral/Source/gd32f3x0_hal_i2c.c ****                 return HAL_ERR_TIMEOUT;
 2733              		.loc 1 1033 24
 2734 0298 6FF00403 		mvn	r3, #4
 2735 029c 19E0     		b	.L106
 2736              	.L123:
1034:../firmware/gd32f3x0_hal_peripheral/Source/gd32f3x0_hal_i2c.c ****             }
1035:../firmware/gd32f3x0_hal_peripheral/Source/gd32f3x0_hal_i2c.c ****             (*p_buffer++) = hals_i2c_data_receive(i2c_dev->periph);
 2737              		.loc 1 1035 29
 2738 029e FB68     		ldr	r3, [r7, #12]
 2739 02a0 1A68     		ldr	r2, [r3]
 2740              		.loc 1 1035 23
 2741 02a2 BC68     		ldr	r4, [r7, #8]
 2742 02a4 631C     		adds	r3, r4, #1
 2743 02a6 BB60     		str	r3, [r7, #8]
 2744              		.loc 1 1035 29
 2745 02a8 1046     		mov	r0, r2
 2746 02aa FFF7FEFF 		bl	hals_i2c_data_receive
 2747 02ae 0346     		mov	r3, r0
 2748              		.loc 1 1035 27
 2749 02b0 2370     		strb	r3, [r4]
1036:../firmware/gd32f3x0_hal_peripheral/Source/gd32f3x0_hal_i2c.c ****             length--;
 2750              		.loc 1 1036 19
 2751 02b2 7B68     		ldr	r3, [r7, #4]
 2752 02b4 013B     		subs	r3, r3, #1
 2753 02b6 7B60     		str	r3, [r7, #4]
 2754              	.L114:
 976:../firmware/gd32f3x0_hal_peripheral/Source/gd32f3x0_hal_i2c.c ****         if(length <= 3) {
 2755              		.loc 1 976 10
 2756 02b8 7B68     		ldr	r3, [r7, #4]
 2757 02ba 002B     		cmp	r3, #0
 2758 02bc 7FF417AF 		bne	.L124
1037:../firmware/gd32f3x0_hal_peripheral/Source/gd32f3x0_hal_i2c.c ****         }
1038:../firmware/gd32f3x0_hal_peripheral/Source/gd32f3x0_hal_i2c.c ****     }
1039:../firmware/gd32f3x0_hal_peripheral/Source/gd32f3x0_hal_i2c.c ****     i2c_dev->rx_state = HAL_I2C_STATE_READY;
 2759              		.loc 1 1039 23
 2760 02c0 FB68     		ldr	r3, [r7, #12]
 2761 02c2 0022     		movs	r2, #0
 2762 02c4 83F84120 		strb	r2, [r3, #65]
1040:../firmware/gd32f3x0_hal_peripheral/Source/gd32f3x0_hal_i2c.c **** 
1041:../firmware/gd32f3x0_hal_peripheral/Source/gd32f3x0_hal_i2c.c ****     HAL_UNLOCK(i2c_dev);
 2763              		.loc 1 1041 5
 2764 02c8 FB68     		ldr	r3, [r7, #12]
 2765 02ca 0022     		movs	r2, #0
 2766 02cc 83F85020 		strb	r2, [r3, #80]
1042:../firmware/gd32f3x0_hal_peripheral/Source/gd32f3x0_hal_i2c.c ****     return HAL_ERR_NONE;
 2767              		.loc 1 1042 12
 2768 02d0 0023     		movs	r3, #0
 2769              	.L106:
1043:../firmware/gd32f3x0_hal_peripheral/Source/gd32f3x0_hal_i2c.c **** }
 2770              		.loc 1 1043 1
 2771 02d2 1846     		mov	r0, r3
 2772 02d4 1437     		adds	r7, r7, #20
 2773              		.cfi_def_cfa_offset 12
 2774 02d6 BD46     		mov	sp, r7
 2775              		.cfi_def_cfa_register 13
 2776              		@ sp needed
 2777 02d8 90BD     		pop	{r4, r7, pc}
 2778              		.cfi_endproc
 2779              	.LFE133:
 2781              		.section	.text.hal_i2c_master_transmit_interrupt,"ax",%progbits
 2782              		.align	1
 2783              		.global	hal_i2c_master_transmit_interrupt
 2784              		.syntax unified
 2785              		.thumb
 2786              		.thumb_func
 2787              		.fpu softvfp
 2789              	hal_i2c_master_transmit_interrupt:
 2790              	.LFB134:
1044:../firmware/gd32f3x0_hal_peripheral/Source/gd32f3x0_hal_i2c.c **** 
1045:../firmware/gd32f3x0_hal_peripheral/Source/gd32f3x0_hal_i2c.c **** /*!
1046:../firmware/gd32f3x0_hal_peripheral/Source/gd32f3x0_hal_i2c.c ****     \brief      transmit amounts of data in master mode by interrupt method, the function
1047:../firmware/gd32f3x0_hal_peripheral/Source/gd32f3x0_hal_i2c.c ****                 is non-blocking
1048:../firmware/gd32f3x0_hal_peripheral/Source/gd32f3x0_hal_i2c.c ****     \param[in]  i2c_dev: I2C device information structrue
1049:../firmware/gd32f3x0_hal_peripheral/Source/gd32f3x0_hal_i2c.c ****                   the structure is not necessary to be reconfigured after structrue initialization,
1050:../firmware/gd32f3x0_hal_peripheral/Source/gd32f3x0_hal_i2c.c ****                   the structure parameters altering is automatically configured by core
1051:../firmware/gd32f3x0_hal_peripheral/Source/gd32f3x0_hal_i2c.c ****     \param[in]  p_buffer: pointer to txbuffer
1052:../firmware/gd32f3x0_hal_peripheral/Source/gd32f3x0_hal_i2c.c ****     \param[in]  length: length of data to be sent
1053:../firmware/gd32f3x0_hal_peripheral/Source/gd32f3x0_hal_i2c.c ****     \param[in]  p_user_func: call back function for user
1054:../firmware/gd32f3x0_hal_peripheral/Source/gd32f3x0_hal_i2c.c ****     \param[out] none
1055:../firmware/gd32f3x0_hal_peripheral/Source/gd32f3x0_hal_i2c.c ****     \retval     error code: HAL_ERR_NONE, HAL_ERR_ADDRESS, HAL_ERR_TIMEOUT, HAL_ERR_BUSY,
1056:../firmware/gd32f3x0_hal_peripheral/Source/gd32f3x0_hal_i2c.c ****                 details refer to gd32f3x0_hal.h
1057:../firmware/gd32f3x0_hal_peripheral/Source/gd32f3x0_hal_i2c.c **** */
1058:../firmware/gd32f3x0_hal_peripheral/Source/gd32f3x0_hal_i2c.c **** int32_t hal_i2c_master_transmit_interrupt(hal_i2c_dev_struct *i2c_dev, uint8_t *p_buffer, \
1059:../firmware/gd32f3x0_hal_peripheral/Source/gd32f3x0_hal_i2c.c ****         uint32_t length, hal_i2c_user_cb p_user_func)
1060:../firmware/gd32f3x0_hal_peripheral/Source/gd32f3x0_hal_i2c.c **** {
 2791              		.loc 1 1060 1
 2792              		.cfi_startproc
 2793              		@ args = 0, pretend = 0, frame = 16
 2794              		@ frame_needed = 1, uses_anonymous_args = 0
 2795 0000 80B5     		push	{r7, lr}
 2796              		.cfi_def_cfa_offset 8
 2797              		.cfi_offset 7, -8
 2798              		.cfi_offset 14, -4
 2799 0002 84B0     		sub	sp, sp, #16
 2800              		.cfi_def_cfa_offset 24
 2801 0004 00AF     		add	r7, sp, #0
 2802              		.cfi_def_cfa_register 7
 2803 0006 F860     		str	r0, [r7, #12]
 2804 0008 B960     		str	r1, [r7, #8]
 2805 000a 7A60     		str	r2, [r7, #4]
 2806 000c 3B60     		str	r3, [r7]
1061:../firmware/gd32f3x0_hal_peripheral/Source/gd32f3x0_hal_i2c.c **** #if (1 == HAL_PARAMETER_CHECK)
1062:../firmware/gd32f3x0_hal_peripheral/Source/gd32f3x0_hal_i2c.c ****     /* check the parameters */
1063:../firmware/gd32f3x0_hal_peripheral/Source/gd32f3x0_hal_i2c.c ****     if((NULL == i2c_dev) || (NULL == p_buffer) || (0U == length)) {
1064:../firmware/gd32f3x0_hal_peripheral/Source/gd32f3x0_hal_i2c.c ****         HAL_DEBUGE("parameter [i2c_dev] or [p_buffer] or [length] value is invalid");
1065:../firmware/gd32f3x0_hal_peripheral/Source/gd32f3x0_hal_i2c.c ****         return HAL_ERR_ADDRESS;
1066:../firmware/gd32f3x0_hal_peripheral/Source/gd32f3x0_hal_i2c.c ****     }
1067:../firmware/gd32f3x0_hal_peripheral/Source/gd32f3x0_hal_i2c.c **** #endif /* 1 == HAL_PARAMETER_CHECK */
1068:../firmware/gd32f3x0_hal_peripheral/Source/gd32f3x0_hal_i2c.c **** 
1069:../firmware/gd32f3x0_hal_peripheral/Source/gd32f3x0_hal_i2c.c ****     HAL_LOCK(i2c_dev);
 2807              		.loc 1 1069 5
 2808 000e FB68     		ldr	r3, [r7, #12]
 2809 0010 93F85030 		ldrb	r3, [r3, #80]	@ zero_extendqisi2
 2810 0014 012B     		cmp	r3, #1
 2811 0016 02D1     		bne	.L126
 2812              		.loc 1 1069 5 is_stmt 0 discriminator 1
 2813 0018 6FF00103 		mvn	r3, #1
 2814 001c 53E0     		b	.L127
 2815              	.L126:
 2816              		.loc 1 1069 5 discriminator 2
 2817 001e FB68     		ldr	r3, [r7, #12]
 2818 0020 0122     		movs	r2, #1
 2819 0022 83F85020 		strb	r2, [r3, #80]
1070:../firmware/gd32f3x0_hal_peripheral/Source/gd32f3x0_hal_i2c.c ****     /* check the tx_state whether it is busy or not */
1071:../firmware/gd32f3x0_hal_peripheral/Source/gd32f3x0_hal_i2c.c ****     if(HAL_I2C_STATE_BUSY == i2c_dev->tx_state) {
 2820              		.loc 1 1071 37 is_stmt 1 discriminator 2
 2821 0026 FB68     		ldr	r3, [r7, #12]
 2822 0028 93F84030 		ldrb	r3, [r3, #64]
 2823 002c DBB2     		uxtb	r3, r3
 2824              		.loc 1 1071 7 discriminator 2
 2825 002e 012B     		cmp	r3, #1
 2826 0030 02D1     		bne	.L128
1072:../firmware/gd32f3x0_hal_peripheral/Source/gd32f3x0_hal_i2c.c ****         HAL_DEBUGE("i2c tx has already been used, please wait until run_state change to free ");
1073:../firmware/gd32f3x0_hal_peripheral/Source/gd32f3x0_hal_i2c.c ****         return HAL_ERR_BUSY;
 2827              		.loc 1 1073 16
 2828 0032 6FF00203 		mvn	r3, #2
 2829 0036 46E0     		b	.L127
 2830              	.L128:
1074:../firmware/gd32f3x0_hal_peripheral/Source/gd32f3x0_hal_i2c.c ****     }
1075:../firmware/gd32f3x0_hal_peripheral/Source/gd32f3x0_hal_i2c.c **** 
1076:../firmware/gd32f3x0_hal_peripheral/Source/gd32f3x0_hal_i2c.c ****     /* the master waits until the I2C bus is idle */
1077:../firmware/gd32f3x0_hal_peripheral/Source/gd32f3x0_hal_i2c.c ****     if(HAL_ERR_NONE != _i2c_wait_flag_timeout(i2c_dev->periph, I2C_FLAG_I2CBSY, RESET, I2C_BUSY_TIM
 2831              		.loc 1 1077 24
 2832 0038 FB68     		ldr	r3, [r7, #12]
 2833 003a 1868     		ldr	r0, [r3]
 2834 003c 42F21073 		movw	r3, #10000
 2835 0040 0022     		movs	r2, #0
 2836 0042 40F20161 		movw	r1, #1537
 2837 0046 FFF7FEFF 		bl	_i2c_wait_flag_timeout
 2838 004a 0346     		mov	r3, r0
 2839              		.loc 1 1077 7
 2840 004c 002B     		cmp	r3, #0
 2841 004e 02D0     		beq	.L129
1078:../firmware/gd32f3x0_hal_peripheral/Source/gd32f3x0_hal_i2c.c ****         HAL_DEBUGW("i2c busy timeout");
1079:../firmware/gd32f3x0_hal_peripheral/Source/gd32f3x0_hal_i2c.c ****         return HAL_ERR_TIMEOUT;
 2842              		.loc 1 1079 16
 2843 0050 6FF00403 		mvn	r3, #4
 2844 0054 37E0     		b	.L127
 2845              	.L129:
1080:../firmware/gd32f3x0_hal_peripheral/Source/gd32f3x0_hal_i2c.c ****     }
1081:../firmware/gd32f3x0_hal_peripheral/Source/gd32f3x0_hal_i2c.c ****     /* initialize transmit parameters */
1082:../firmware/gd32f3x0_hal_peripheral/Source/gd32f3x0_hal_i2c.c ****     i2c_dev->tx_state = HAL_I2C_STATE_BUSY;
 2846              		.loc 1 1082 23
 2847 0056 FB68     		ldr	r3, [r7, #12]
 2848 0058 0122     		movs	r2, #1
 2849 005a 83F84020 		strb	r2, [r3, #64]
1083:../firmware/gd32f3x0_hal_peripheral/Source/gd32f3x0_hal_i2c.c ****     i2c_dev->error_state = HAL_I2C_ERROR_NONE;
 2850              		.loc 1 1083 26
 2851 005e FB68     		ldr	r3, [r7, #12]
 2852 0060 0022     		movs	r2, #0
 2853 0062 DA63     		str	r2, [r3, #60]
1084:../firmware/gd32f3x0_hal_peripheral/Source/gd32f3x0_hal_i2c.c ****     i2c_dev->txbuffer.buffer = (uint8_t *)p_buffer;
 2854              		.loc 1 1084 30
 2855 0064 FB68     		ldr	r3, [r7, #12]
 2856 0066 BA68     		ldr	r2, [r7, #8]
 2857 0068 5A61     		str	r2, [r3, #20]
1085:../firmware/gd32f3x0_hal_peripheral/Source/gd32f3x0_hal_i2c.c ****     i2c_dev->txbuffer.length = length;
 2858              		.loc 1 1085 30
 2859 006a FB68     		ldr	r3, [r7, #12]
 2860 006c 7A68     		ldr	r2, [r7, #4]
 2861 006e 9A61     		str	r2, [r3, #24]
1086:../firmware/gd32f3x0_hal_peripheral/Source/gd32f3x0_hal_i2c.c ****     i2c_dev->txbuffer.pos = 0;
 2862              		.loc 1 1086 27
 2863 0070 FB68     		ldr	r3, [r7, #12]
 2864 0072 0022     		movs	r2, #0
 2865 0074 DA61     		str	r2, [r3, #28]
1087:../firmware/gd32f3x0_hal_peripheral/Source/gd32f3x0_hal_i2c.c ****     i2c_dev->tx_callback = (void *)p_user_func;
 2866              		.loc 1 1087 26
 2867 0076 FB68     		ldr	r3, [r7, #12]
 2868 0078 3A68     		ldr	r2, [r7]
 2869 007a DA64     		str	r2, [r3, #76]
1088:../firmware/gd32f3x0_hal_peripheral/Source/gd32f3x0_hal_i2c.c ****     i2c_dev->i2c_irq.event_handle = _i2c_master_transmit_interrupt;
 2870              		.loc 1 1088 35
 2871 007c FB68     		ldr	r3, [r7, #12]
 2872 007e 144A     		ldr	r2, .L130
 2873 0080 5A60     		str	r2, [r3, #4]
1089:../firmware/gd32f3x0_hal_peripheral/Source/gd32f3x0_hal_i2c.c **** 
1090:../firmware/gd32f3x0_hal_peripheral/Source/gd32f3x0_hal_i2c.c ****     /* the master sends a start condition to I2C bus */
1091:../firmware/gd32f3x0_hal_peripheral/Source/gd32f3x0_hal_i2c.c ****     HAL_I2C_START_ON_BUS(i2c_dev->periph);
 2874              		.loc 1 1091 5
 2875 0082 FB68     		ldr	r3, [r7, #12]
 2876 0084 1B68     		ldr	r3, [r3]
 2877 0086 1B68     		ldr	r3, [r3]
 2878 0088 FA68     		ldr	r2, [r7, #12]
 2879 008a 1268     		ldr	r2, [r2]
 2880 008c 43F48073 		orr	r3, r3, #256
 2881 0090 1360     		str	r3, [r2]
1092:../firmware/gd32f3x0_hal_peripheral/Source/gd32f3x0_hal_i2c.c ****     /* enable the I2C interrupt */
1093:../firmware/gd32f3x0_hal_peripheral/Source/gd32f3x0_hal_i2c.c ****     hals_i2c_interrupt_enable(i2c_dev->periph, I2C_INT_ERR);
 2882              		.loc 1 1093 5
 2883 0092 FB68     		ldr	r3, [r7, #12]
 2884 0094 1B68     		ldr	r3, [r3]
 2885 0096 4FF48471 		mov	r1, #264
 2886 009a 1846     		mov	r0, r3
 2887 009c FFF7FEFF 		bl	hals_i2c_interrupt_enable
1094:../firmware/gd32f3x0_hal_peripheral/Source/gd32f3x0_hal_i2c.c ****     hals_i2c_interrupt_enable(i2c_dev->periph, I2C_INT_BUF);
 2888              		.loc 1 1094 5
 2889 00a0 FB68     		ldr	r3, [r7, #12]
 2890 00a2 1B68     		ldr	r3, [r3]
 2891 00a4 4FF48571 		mov	r1, #266
 2892 00a8 1846     		mov	r0, r3
 2893 00aa FFF7FEFF 		bl	hals_i2c_interrupt_enable
1095:../firmware/gd32f3x0_hal_peripheral/Source/gd32f3x0_hal_i2c.c ****     hals_i2c_interrupt_enable(i2c_dev->periph, I2C_INT_EV);
 2894              		.loc 1 1095 5
 2895 00ae FB68     		ldr	r3, [r7, #12]
 2896 00b0 1B68     		ldr	r3, [r3]
 2897 00b2 40F20911 		movw	r1, #265
 2898 00b6 1846     		mov	r0, r3
 2899 00b8 FFF7FEFF 		bl	hals_i2c_interrupt_enable
1096:../firmware/gd32f3x0_hal_peripheral/Source/gd32f3x0_hal_i2c.c **** 
1097:../firmware/gd32f3x0_hal_peripheral/Source/gd32f3x0_hal_i2c.c ****     HAL_UNLOCK(i2c_dev);
 2900              		.loc 1 1097 5
 2901 00bc FB68     		ldr	r3, [r7, #12]
 2902 00be 0022     		movs	r2, #0
 2903 00c0 83F85020 		strb	r2, [r3, #80]
1098:../firmware/gd32f3x0_hal_peripheral/Source/gd32f3x0_hal_i2c.c ****     return HAL_ERR_NONE;
 2904              		.loc 1 1098 12
 2905 00c4 0023     		movs	r3, #0
 2906              	.L127:
1099:../firmware/gd32f3x0_hal_peripheral/Source/gd32f3x0_hal_i2c.c **** }
 2907              		.loc 1 1099 1
 2908 00c6 1846     		mov	r0, r3
 2909 00c8 1037     		adds	r7, r7, #16
 2910              		.cfi_def_cfa_offset 8
 2911 00ca BD46     		mov	sp, r7
 2912              		.cfi_def_cfa_register 13
 2913              		@ sp needed
 2914 00cc 80BD     		pop	{r7, pc}
 2915              	.L131:
 2916 00ce 00BF     		.align	2
 2917              	.L130:
 2918 00d0 00000000 		.word	_i2c_master_transmit_interrupt
 2919              		.cfi_endproc
 2920              	.LFE134:
 2922              		.section	.text.hal_i2c_master_receive_interrupt,"ax",%progbits
 2923              		.align	1
 2924              		.global	hal_i2c_master_receive_interrupt
 2925              		.syntax unified
 2926              		.thumb
 2927              		.thumb_func
 2928              		.fpu softvfp
 2930              	hal_i2c_master_receive_interrupt:
 2931              	.LFB135:
1100:../firmware/gd32f3x0_hal_peripheral/Source/gd32f3x0_hal_i2c.c **** 
1101:../firmware/gd32f3x0_hal_peripheral/Source/gd32f3x0_hal_i2c.c **** /*!
1102:../firmware/gd32f3x0_hal_peripheral/Source/gd32f3x0_hal_i2c.c ****     \brief      receive amounts of data in master mode by interrupt method, the function
1103:../firmware/gd32f3x0_hal_peripheral/Source/gd32f3x0_hal_i2c.c ****                 is non-blocking
1104:../firmware/gd32f3x0_hal_peripheral/Source/gd32f3x0_hal_i2c.c ****     \param[in]  i2c_dev: I2C device information structrue
1105:../firmware/gd32f3x0_hal_peripheral/Source/gd32f3x0_hal_i2c.c ****                   the structure is not necessary to be reconfigured after structrue initialization,
1106:../firmware/gd32f3x0_hal_peripheral/Source/gd32f3x0_hal_i2c.c ****                   the structure parameters altering is automatically configured by core
1107:../firmware/gd32f3x0_hal_peripheral/Source/gd32f3x0_hal_i2c.c ****     \param[in]  p_buffer: pointer to rxbuffer
1108:../firmware/gd32f3x0_hal_peripheral/Source/gd32f3x0_hal_i2c.c ****     \param[in]  length: length of data to be read
1109:../firmware/gd32f3x0_hal_peripheral/Source/gd32f3x0_hal_i2c.c ****     \param[in]  p_user_func: call back function for user
1110:../firmware/gd32f3x0_hal_peripheral/Source/gd32f3x0_hal_i2c.c ****     \param[out] none
1111:../firmware/gd32f3x0_hal_peripheral/Source/gd32f3x0_hal_i2c.c ****     \retval     error code: HAL_ERR_NONE, HAL_ERR_ADDRESS, HAL_ERR_TIMEOUT, HAL_ERR_BUSY,
1112:../firmware/gd32f3x0_hal_peripheral/Source/gd32f3x0_hal_i2c.c ****                 details refer to gd32f3x0_hal.h
1113:../firmware/gd32f3x0_hal_peripheral/Source/gd32f3x0_hal_i2c.c **** */
1114:../firmware/gd32f3x0_hal_peripheral/Source/gd32f3x0_hal_i2c.c **** int32_t hal_i2c_master_receive_interrupt(hal_i2c_dev_struct *i2c_dev, uint8_t *p_buffer, \
1115:../firmware/gd32f3x0_hal_peripheral/Source/gd32f3x0_hal_i2c.c ****         uint32_t length, hal_i2c_user_cb p_user_func)
1116:../firmware/gd32f3x0_hal_peripheral/Source/gd32f3x0_hal_i2c.c **** {
 2932              		.loc 1 1116 1
 2933              		.cfi_startproc
 2934              		@ args = 0, pretend = 0, frame = 16
 2935              		@ frame_needed = 1, uses_anonymous_args = 0
 2936 0000 80B5     		push	{r7, lr}
 2937              		.cfi_def_cfa_offset 8
 2938              		.cfi_offset 7, -8
 2939              		.cfi_offset 14, -4
 2940 0002 84B0     		sub	sp, sp, #16
 2941              		.cfi_def_cfa_offset 24
 2942 0004 00AF     		add	r7, sp, #0
 2943              		.cfi_def_cfa_register 7
 2944 0006 F860     		str	r0, [r7, #12]
 2945 0008 B960     		str	r1, [r7, #8]
 2946 000a 7A60     		str	r2, [r7, #4]
 2947 000c 3B60     		str	r3, [r7]
1117:../firmware/gd32f3x0_hal_peripheral/Source/gd32f3x0_hal_i2c.c **** #if (1 == HAL_PARAMETER_CHECK)
1118:../firmware/gd32f3x0_hal_peripheral/Source/gd32f3x0_hal_i2c.c ****     /* check the parameters */
1119:../firmware/gd32f3x0_hal_peripheral/Source/gd32f3x0_hal_i2c.c ****     if((NULL == i2c_dev) || (NULL == p_buffer) || (0U == length)) {
1120:../firmware/gd32f3x0_hal_peripheral/Source/gd32f3x0_hal_i2c.c ****         HAL_DEBUGE("parameter [i2c_dev] or [p_buffer] or [length] value is invalid");
1121:../firmware/gd32f3x0_hal_peripheral/Source/gd32f3x0_hal_i2c.c ****         return HAL_ERR_ADDRESS;
1122:../firmware/gd32f3x0_hal_peripheral/Source/gd32f3x0_hal_i2c.c ****     }
1123:../firmware/gd32f3x0_hal_peripheral/Source/gd32f3x0_hal_i2c.c **** #endif /* 1 == HAL_PARAMETER_CHECK */
1124:../firmware/gd32f3x0_hal_peripheral/Source/gd32f3x0_hal_i2c.c **** 
1125:../firmware/gd32f3x0_hal_peripheral/Source/gd32f3x0_hal_i2c.c ****     HAL_LOCK(i2c_dev);
 2948              		.loc 1 1125 5
 2949 000e FB68     		ldr	r3, [r7, #12]
 2950 0010 93F85030 		ldrb	r3, [r3, #80]	@ zero_extendqisi2
 2951 0014 012B     		cmp	r3, #1
 2952 0016 02D1     		bne	.L133
 2953              		.loc 1 1125 5 is_stmt 0 discriminator 1
 2954 0018 6FF00103 		mvn	r3, #1
 2955 001c 5EE0     		b	.L134
 2956              	.L133:
 2957              		.loc 1 1125 5 discriminator 2
 2958 001e FB68     		ldr	r3, [r7, #12]
 2959 0020 0122     		movs	r2, #1
 2960 0022 83F85020 		strb	r2, [r3, #80]
1126:../firmware/gd32f3x0_hal_peripheral/Source/gd32f3x0_hal_i2c.c ****     /* check the rx_state whether it is busy or not */
1127:../firmware/gd32f3x0_hal_peripheral/Source/gd32f3x0_hal_i2c.c ****     if(HAL_I2C_STATE_BUSY == i2c_dev->rx_state) {
 2961              		.loc 1 1127 37 is_stmt 1 discriminator 2
 2962 0026 FB68     		ldr	r3, [r7, #12]
 2963 0028 93F84130 		ldrb	r3, [r3, #65]
 2964 002c DBB2     		uxtb	r3, r3
 2965              		.loc 1 1127 7 discriminator 2
 2966 002e 012B     		cmp	r3, #1
 2967 0030 02D1     		bne	.L135
1128:../firmware/gd32f3x0_hal_peripheral/Source/gd32f3x0_hal_i2c.c ****         HAL_DEBUGE("i2c rx has already been used, please wait until run_state change to free ");
1129:../firmware/gd32f3x0_hal_peripheral/Source/gd32f3x0_hal_i2c.c ****         return HAL_ERR_BUSY;
 2968              		.loc 1 1129 16
 2969 0032 6FF00203 		mvn	r3, #2
 2970 0036 51E0     		b	.L134
 2971              	.L135:
1130:../firmware/gd32f3x0_hal_peripheral/Source/gd32f3x0_hal_i2c.c ****     }
1131:../firmware/gd32f3x0_hal_peripheral/Source/gd32f3x0_hal_i2c.c **** 
1132:../firmware/gd32f3x0_hal_peripheral/Source/gd32f3x0_hal_i2c.c ****     /* wait until I2C bus is idle */
1133:../firmware/gd32f3x0_hal_peripheral/Source/gd32f3x0_hal_i2c.c ****     if(HAL_ERR_NONE != _i2c_wait_flag_timeout(i2c_dev->periph, I2C_FLAG_I2CBSY, RESET, I2C_BUSY_TIM
 2972              		.loc 1 1133 24
 2973 0038 FB68     		ldr	r3, [r7, #12]
 2974 003a 1868     		ldr	r0, [r3]
 2975 003c 42F21073 		movw	r3, #10000
 2976 0040 0022     		movs	r2, #0
 2977 0042 40F20161 		movw	r1, #1537
 2978 0046 FFF7FEFF 		bl	_i2c_wait_flag_timeout
 2979 004a 0346     		mov	r3, r0
 2980              		.loc 1 1133 7
 2981 004c 002B     		cmp	r3, #0
 2982 004e 02D0     		beq	.L136
1134:../firmware/gd32f3x0_hal_peripheral/Source/gd32f3x0_hal_i2c.c ****         HAL_DEBUGW("i2c busy timeout");
1135:../firmware/gd32f3x0_hal_peripheral/Source/gd32f3x0_hal_i2c.c ****         return HAL_ERR_TIMEOUT;
 2983              		.loc 1 1135 16
 2984 0050 6FF00403 		mvn	r3, #4
 2985 0054 42E0     		b	.L134
 2986              	.L136:
1136:../firmware/gd32f3x0_hal_peripheral/Source/gd32f3x0_hal_i2c.c ****     }
1137:../firmware/gd32f3x0_hal_peripheral/Source/gd32f3x0_hal_i2c.c ****     /* initialize receive parameters */
1138:../firmware/gd32f3x0_hal_peripheral/Source/gd32f3x0_hal_i2c.c ****     i2c_dev->rx_state = HAL_I2C_STATE_BUSY;
 2987              		.loc 1 1138 23
 2988 0056 FB68     		ldr	r3, [r7, #12]
 2989 0058 0122     		movs	r2, #1
 2990 005a 83F84120 		strb	r2, [r3, #65]
1139:../firmware/gd32f3x0_hal_peripheral/Source/gd32f3x0_hal_i2c.c ****     i2c_dev->last_error = HAL_I2C_ERROR_NONE;
 2991              		.loc 1 1139 25
 2992 005e FB68     		ldr	r3, [r7, #12]
 2993 0060 0022     		movs	r2, #0
 2994 0062 5A87     		strh	r2, [r3, #58]	@ movhi
1140:../firmware/gd32f3x0_hal_peripheral/Source/gd32f3x0_hal_i2c.c ****     i2c_dev->rxbuffer.buffer = (uint8_t *)p_buffer;
 2995              		.loc 1 1140 30
 2996 0064 FB68     		ldr	r3, [r7, #12]
 2997 0066 BA68     		ldr	r2, [r7, #8]
 2998 0068 1A62     		str	r2, [r3, #32]
1141:../firmware/gd32f3x0_hal_peripheral/Source/gd32f3x0_hal_i2c.c ****     i2c_dev->rxbuffer.length = length;
 2999              		.loc 1 1141 30
 3000 006a FB68     		ldr	r3, [r7, #12]
 3001 006c 7A68     		ldr	r2, [r7, #4]
 3002 006e 5A62     		str	r2, [r3, #36]
1142:../firmware/gd32f3x0_hal_peripheral/Source/gd32f3x0_hal_i2c.c ****     i2c_dev->rxbuffer.pos = 0;
 3003              		.loc 1 1142 27
 3004 0070 FB68     		ldr	r3, [r7, #12]
 3005 0072 0022     		movs	r2, #0
 3006 0074 9A62     		str	r2, [r3, #40]
1143:../firmware/gd32f3x0_hal_peripheral/Source/gd32f3x0_hal_i2c.c ****     i2c_dev->rx_callback = (void *)p_user_func;
 3007              		.loc 1 1143 26
 3008 0076 FB68     		ldr	r3, [r7, #12]
 3009 0078 3A68     		ldr	r2, [r7]
 3010 007a 9A64     		str	r2, [r3, #72]
1144:../firmware/gd32f3x0_hal_peripheral/Source/gd32f3x0_hal_i2c.c ****     i2c_dev->i2c_irq.event_handle = _i2c_master_receive_interrupt;
 3011              		.loc 1 1144 35
 3012 007c FB68     		ldr	r3, [r7, #12]
 3013 007e 194A     		ldr	r2, .L138
 3014 0080 5A60     		str	r2, [r3, #4]
1145:../firmware/gd32f3x0_hal_peripheral/Source/gd32f3x0_hal_i2c.c ****     if(2 == i2c_dev->rxbuffer.length) {
 3015              		.loc 1 1145 30
 3016 0082 FB68     		ldr	r3, [r7, #12]
 3017 0084 5B6A     		ldr	r3, [r3, #36]
 3018              		.loc 1 1145 7
 3019 0086 022B     		cmp	r3, #2
 3020 0088 06D1     		bne	.L137
1146:../firmware/gd32f3x0_hal_peripheral/Source/gd32f3x0_hal_i2c.c ****         /* send a NACK for the next data byte which will be received into the shift register */
1147:../firmware/gd32f3x0_hal_peripheral/Source/gd32f3x0_hal_i2c.c ****         hals_i2c_ackpos_config(i2c_dev->periph, I2C_ACKPOS_NEXT);
 3021              		.loc 1 1147 9
 3022 008a FB68     		ldr	r3, [r7, #12]
 3023 008c 1B68     		ldr	r3, [r3]
 3024 008e 4FF40061 		mov	r1, #2048
 3025 0092 1846     		mov	r0, r3
 3026 0094 FFF7FEFF 		bl	hals_i2c_ackpos_config
 3027              	.L137:
1148:../firmware/gd32f3x0_hal_peripheral/Source/gd32f3x0_hal_i2c.c ****     }
1149:../firmware/gd32f3x0_hal_peripheral/Source/gd32f3x0_hal_i2c.c **** 
1150:../firmware/gd32f3x0_hal_peripheral/Source/gd32f3x0_hal_i2c.c ****     /* enable the I2C interrupt */
1151:../firmware/gd32f3x0_hal_peripheral/Source/gd32f3x0_hal_i2c.c ****     hals_i2c_interrupt_enable(i2c_dev->periph, I2C_INT_ERR);
 3028              		.loc 1 1151 5
 3029 0098 FB68     		ldr	r3, [r7, #12]
 3030 009a 1B68     		ldr	r3, [r3]
 3031 009c 4FF48471 		mov	r1, #264
 3032 00a0 1846     		mov	r0, r3
 3033 00a2 FFF7FEFF 		bl	hals_i2c_interrupt_enable
1152:../firmware/gd32f3x0_hal_peripheral/Source/gd32f3x0_hal_i2c.c ****     hals_i2c_interrupt_enable(i2c_dev->periph, I2C_INT_BUF);
 3034              		.loc 1 1152 5
 3035 00a6 FB68     		ldr	r3, [r7, #12]
 3036 00a8 1B68     		ldr	r3, [r3]
 3037 00aa 4FF48571 		mov	r1, #266
 3038 00ae 1846     		mov	r0, r3
 3039 00b0 FFF7FEFF 		bl	hals_i2c_interrupt_enable
1153:../firmware/gd32f3x0_hal_peripheral/Source/gd32f3x0_hal_i2c.c ****     hals_i2c_interrupt_enable(i2c_dev->periph, I2C_INT_EV);
