   1              		.cpu cortex-m4
   2              		.eabi_attribute 20, 1
   3              		.eabi_attribute 21, 1
   4              		.eabi_attribute 23, 3
   5              		.eabi_attribute 24, 1
   6              		.eabi_attribute 25, 1
   7              		.eabi_attribute 26, 1
   8              		.eabi_attribute 30, 6
   9              		.eabi_attribute 34, 1
  10              		.eabi_attribute 18, 4
  11              		.file	"gd32f3x0_hal_usrt.c"
  12              		.text
  13              	.Ltext0:
  14              		.cfi_sections	.debug_frame
  15              		.section	.text.hal_usrt_struct_init,"ax",%progbits
  16              		.align	1
  17              		.global	hal_usrt_struct_init
  18              		.arch armv7e-m
  19              		.syntax unified
  20              		.thumb
  21              		.thumb_func
  22              		.fpu softvfp
  24              	hal_usrt_struct_init:
  25              	.LFB119:
  26              		.file 1 "../firmware/gd32f3x0_hal_peripheral/Source/gd32f3x0_hal_usrt.c"
   1:../firmware/gd32f3x0_hal_peripheral/Source/gd32f3x0_hal_usrt.c **** /*!
   2:../firmware/gd32f3x0_hal_peripheral/Source/gd32f3x0_hal_usrt.c ****     \file    gd32f3x0_hal_usrt.c
   3:../firmware/gd32f3x0_hal_peripheral/Source/gd32f3x0_hal_usrt.c ****     \brief   USRT driver
   4:../firmware/gd32f3x0_hal_peripheral/Source/gd32f3x0_hal_usrt.c **** 
   5:../firmware/gd32f3x0_hal_peripheral/Source/gd32f3x0_hal_usrt.c ****     \version 2023-08-01, V1.0.0, HAL firmware for GD32F3x0
   6:../firmware/gd32f3x0_hal_peripheral/Source/gd32f3x0_hal_usrt.c **** */
   7:../firmware/gd32f3x0_hal_peripheral/Source/gd32f3x0_hal_usrt.c **** 
   8:../firmware/gd32f3x0_hal_peripheral/Source/gd32f3x0_hal_usrt.c **** /*
   9:../firmware/gd32f3x0_hal_peripheral/Source/gd32f3x0_hal_usrt.c ****     Copyright (c) 2023, GigaDevice Semiconductor Inc.
  10:../firmware/gd32f3x0_hal_peripheral/Source/gd32f3x0_hal_usrt.c **** 
  11:../firmware/gd32f3x0_hal_peripheral/Source/gd32f3x0_hal_usrt.c ****     Redistribution and use in source and binary forms, with or without modification,
  12:../firmware/gd32f3x0_hal_peripheral/Source/gd32f3x0_hal_usrt.c **** are permitted provided that the following conditions are met:
  13:../firmware/gd32f3x0_hal_peripheral/Source/gd32f3x0_hal_usrt.c **** 
  14:../firmware/gd32f3x0_hal_peripheral/Source/gd32f3x0_hal_usrt.c ****     1. Redistributions of source code must retain the above copyright notice, this
  15:../firmware/gd32f3x0_hal_peripheral/Source/gd32f3x0_hal_usrt.c ****        list of conditions and the following disclaimer.
  16:../firmware/gd32f3x0_hal_peripheral/Source/gd32f3x0_hal_usrt.c ****     2. Redistributions in binary form must reproduce the above copyright notice,
  17:../firmware/gd32f3x0_hal_peripheral/Source/gd32f3x0_hal_usrt.c ****        this list of conditions and the following disclaimer in the documentation
  18:../firmware/gd32f3x0_hal_peripheral/Source/gd32f3x0_hal_usrt.c ****        and/or other materials provided with the distribution.
  19:../firmware/gd32f3x0_hal_peripheral/Source/gd32f3x0_hal_usrt.c ****     3. Neither the name of the copyright holder nor the names of its contributors
  20:../firmware/gd32f3x0_hal_peripheral/Source/gd32f3x0_hal_usrt.c ****        may be used to endorse or promote products derived from this software without
  21:../firmware/gd32f3x0_hal_peripheral/Source/gd32f3x0_hal_usrt.c ****        specific prior written permission.
  22:../firmware/gd32f3x0_hal_peripheral/Source/gd32f3x0_hal_usrt.c **** 
  23:../firmware/gd32f3x0_hal_peripheral/Source/gd32f3x0_hal_usrt.c ****     THIS SOFTWARE IS PROVIDED BY THE COPYRIGHT HOLDERS AND CONTRIBUTORS "AS IS"
  24:../firmware/gd32f3x0_hal_peripheral/Source/gd32f3x0_hal_usrt.c **** AND ANY EXPRESS OR IMPLIED WARRANTIES, INCLUDING, BUT NOT LIMITED TO, THE IMPLIED
  25:../firmware/gd32f3x0_hal_peripheral/Source/gd32f3x0_hal_usrt.c **** WARRANTIES OF MERCHANTABILITY AND FITNESS FOR A PARTICULAR PURPOSE ARE DISCLAIMED.
  26:../firmware/gd32f3x0_hal_peripheral/Source/gd32f3x0_hal_usrt.c **** IN NO EVENT SHALL THE COPYRIGHT HOLDER OR CONTRIBUTORS BE LIABLE FOR ANY DIRECT,
  27:../firmware/gd32f3x0_hal_peripheral/Source/gd32f3x0_hal_usrt.c **** INDIRECT, INCIDENTAL, SPECIAL, EXEMPLARY, OR CONSEQUENTIAL DAMAGES (INCLUDING, BUT
  28:../firmware/gd32f3x0_hal_peripheral/Source/gd32f3x0_hal_usrt.c **** NOT LIMITED TO, PROCUREMENT OF SUBSTITUTE GOODS OR SERVICES; LOSS OF USE, DATA, OR
  29:../firmware/gd32f3x0_hal_peripheral/Source/gd32f3x0_hal_usrt.c **** PROFITS; OR BUSINESS INTERRUPTION) HOWEVER CAUSED AND ON ANY THEORY OF LIABILITY,
  30:../firmware/gd32f3x0_hal_peripheral/Source/gd32f3x0_hal_usrt.c **** WHETHER IN CONTRACT, STRICT LIABILITY, OR TORT (INCLUDING NEGLIGENCE OR OTHERWISE)
  31:../firmware/gd32f3x0_hal_peripheral/Source/gd32f3x0_hal_usrt.c **** ARISING IN ANY WAY OUT OF THE USE OF THIS SOFTWARE, EVEN IF ADVISED OF THE POSSIBILITY
  32:../firmware/gd32f3x0_hal_peripheral/Source/gd32f3x0_hal_usrt.c **** OF SUCH DAMAGE.
  33:../firmware/gd32f3x0_hal_peripheral/Source/gd32f3x0_hal_usrt.c **** */
  34:../firmware/gd32f3x0_hal_peripheral/Source/gd32f3x0_hal_usrt.c **** 
  35:../firmware/gd32f3x0_hal_peripheral/Source/gd32f3x0_hal_usrt.c **** #include "gd32f3x0_hal.h"
  36:../firmware/gd32f3x0_hal_peripheral/Source/gd32f3x0_hal_usrt.c **** 
  37:../firmware/gd32f3x0_hal_peripheral/Source/gd32f3x0_hal_usrt.c **** #define USRT_DUMMY_DATA            ((uint16_t) 0xFFFFU)
  38:../firmware/gd32f3x0_hal_peripheral/Source/gd32f3x0_hal_usrt.c **** 
  39:../firmware/gd32f3x0_hal_peripheral/Source/gd32f3x0_hal_usrt.c **** static uint16_t _usrt_data_bit_mask_get(hal_usrt_dev_struct *usrt);
  40:../firmware/gd32f3x0_hal_peripheral/Source/gd32f3x0_hal_usrt.c **** static FlagStatus _usrt_error_flag_get(hal_usrt_dev_struct *usrt);
  41:../firmware/gd32f3x0_hal_peripheral/Source/gd32f3x0_hal_usrt.c **** static void _usrt_transmit_complete_interrupt(void *usrt);
  42:../firmware/gd32f3x0_hal_peripheral/Source/gd32f3x0_hal_usrt.c **** static void _usrt_transmit_interrupt(void *usrt);
  43:../firmware/gd32f3x0_hal_peripheral/Source/gd32f3x0_hal_usrt.c **** static void _usrt_receive_interrupt(void *usrt);
  44:../firmware/gd32f3x0_hal_peripheral/Source/gd32f3x0_hal_usrt.c **** static void _usrt_tx_rx_interrupt(void *usrt);
  45:../firmware/gd32f3x0_hal_peripheral/Source/gd32f3x0_hal_usrt.c **** static void _usrt_transmit_dma(void *dma);
  46:../firmware/gd32f3x0_hal_peripheral/Source/gd32f3x0_hal_usrt.c **** static void _usrt_receive_dma(void *dma);
  47:../firmware/gd32f3x0_hal_peripheral/Source/gd32f3x0_hal_usrt.c **** static void _usrt_dma_error(void *dma);
  48:../firmware/gd32f3x0_hal_peripheral/Source/gd32f3x0_hal_usrt.c **** 
  49:../firmware/gd32f3x0_hal_peripheral/Source/gd32f3x0_hal_usrt.c **** /*!
  50:../firmware/gd32f3x0_hal_peripheral/Source/gd32f3x0_hal_usrt.c ****     \brief      initialize the usrt structure with the default values
  51:../firmware/gd32f3x0_hal_peripheral/Source/gd32f3x0_hal_usrt.c ****                 note: this function must be called after the structure is created
  52:../firmware/gd32f3x0_hal_peripheral/Source/gd32f3x0_hal_usrt.c ****     \param[in]  hal_struct_type: type of usrt structure for initialization
  53:../firmware/gd32f3x0_hal_peripheral/Source/gd32f3x0_hal_usrt.c ****       \arg        HAL_USRT_INIT_STRUCT: initialization structure
  54:../firmware/gd32f3x0_hal_peripheral/Source/gd32f3x0_hal_usrt.c ****       \arg        HAL_USRT_DEV_STRUCT: device information structure
  55:../firmware/gd32f3x0_hal_peripheral/Source/gd32f3x0_hal_usrt.c ****       \arg        HAL_USRT_USER_CALLBCAK_STRUCT: user callback structure
  56:../firmware/gd32f3x0_hal_peripheral/Source/gd32f3x0_hal_usrt.c ****     \param[in]  p_struct: structure pointer
  57:../firmware/gd32f3x0_hal_peripheral/Source/gd32f3x0_hal_usrt.c ****     \param[out] none
  58:../firmware/gd32f3x0_hal_peripheral/Source/gd32f3x0_hal_usrt.c ****     \retval     none
  59:../firmware/gd32f3x0_hal_peripheral/Source/gd32f3x0_hal_usrt.c **** */
  60:../firmware/gd32f3x0_hal_peripheral/Source/gd32f3x0_hal_usrt.c **** void hal_usrt_struct_init(hal_usrt_struct_type_enum hal_struct_type, void *p_struct)
  61:../firmware/gd32f3x0_hal_peripheral/Source/gd32f3x0_hal_usrt.c **** {
  27              		.loc 1 61 1
  28              		.cfi_startproc
  29              		@ args = 0, pretend = 0, frame = 8
  30              		@ frame_needed = 1, uses_anonymous_args = 0
  31              		@ link register save eliminated.
  32 0000 80B4     		push	{r7}
  33              		.cfi_def_cfa_offset 4
  34              		.cfi_offset 7, -4
  35 0002 83B0     		sub	sp, sp, #12
  36              		.cfi_def_cfa_offset 16
  37 0004 00AF     		add	r7, sp, #0
  38              		.cfi_def_cfa_register 7
  39 0006 0346     		mov	r3, r0
  40 0008 3960     		str	r1, [r7]
  41 000a FB71     		strb	r3, [r7, #7]
  62:../firmware/gd32f3x0_hal_peripheral/Source/gd32f3x0_hal_usrt.c **** #if (1 == HAL_PARAMETER_CHECK)
  63:../firmware/gd32f3x0_hal_peripheral/Source/gd32f3x0_hal_usrt.c ****     if(NULL == p_struct) {
  64:../firmware/gd32f3x0_hal_peripheral/Source/gd32f3x0_hal_usrt.c ****         HAL_DEBUGE("parameter [*p_struct] value is invalid");
  65:../firmware/gd32f3x0_hal_peripheral/Source/gd32f3x0_hal_usrt.c ****         return;
  66:../firmware/gd32f3x0_hal_peripheral/Source/gd32f3x0_hal_usrt.c ****     }
  67:../firmware/gd32f3x0_hal_peripheral/Source/gd32f3x0_hal_usrt.c **** #endif /* 1 == HAL_PARAMETER_CHECK */
  68:../firmware/gd32f3x0_hal_peripheral/Source/gd32f3x0_hal_usrt.c **** 
  69:../firmware/gd32f3x0_hal_peripheral/Source/gd32f3x0_hal_usrt.c ****     switch(hal_struct_type) {
  42              		.loc 1 69 5
  43 000c FB79     		ldrb	r3, [r7, #7]	@ zero_extendqisi2
  44 000e 022B     		cmp	r3, #2
  45 0010 69D0     		beq	.L2
  46 0012 022B     		cmp	r3, #2
  47 0014 6EDC     		bgt	.L7
  48 0016 002B     		cmp	r3, #0
  49 0018 02D0     		beq	.L4
  50 001a 012B     		cmp	r3, #1
  51 001c 1DD0     		beq	.L5
  70:../firmware/gd32f3x0_hal_peripheral/Source/gd32f3x0_hal_usrt.c ****     case HAL_USRT_INIT_STRUCT:
  71:../firmware/gd32f3x0_hal_peripheral/Source/gd32f3x0_hal_usrt.c ****         /* initialize usrt initialization structure with the default values */
  72:../firmware/gd32f3x0_hal_peripheral/Source/gd32f3x0_hal_usrt.c ****         ((hal_usrt_init_struct *)p_struct)->baudrate             = 115200U;
  73:../firmware/gd32f3x0_hal_peripheral/Source/gd32f3x0_hal_usrt.c ****         ((hal_usrt_init_struct *)p_struct)->parity               = USRT_PARITY_NONE;
  74:../firmware/gd32f3x0_hal_peripheral/Source/gd32f3x0_hal_usrt.c ****         ((hal_usrt_init_struct *)p_struct)->word_length          = USRT_WORD_LENGTH_8BIT;
  75:../firmware/gd32f3x0_hal_peripheral/Source/gd32f3x0_hal_usrt.c ****         ((hal_usrt_init_struct *)p_struct)->stop_bit             = USRT_STOP_BIT_1;
  76:../firmware/gd32f3x0_hal_peripheral/Source/gd32f3x0_hal_usrt.c ****         ((hal_usrt_init_struct *)p_struct)->direction            = USRT_DIRECTION_RX_TX;
  77:../firmware/gd32f3x0_hal_peripheral/Source/gd32f3x0_hal_usrt.c ****         ((hal_usrt_init_struct *)p_struct)->rx_fifo_en           = DISABLE;
  78:../firmware/gd32f3x0_hal_peripheral/Source/gd32f3x0_hal_usrt.c ****         ((hal_usrt_init_struct *)p_struct)->clock_polarity       = USRT_CLOCK_POLARITY_LOW;
  79:../firmware/gd32f3x0_hal_peripheral/Source/gd32f3x0_hal_usrt.c ****         ((hal_usrt_init_struct *)p_struct)->clock_phase          = USRT_CLOCK_PHASE_1CK;
  80:../firmware/gd32f3x0_hal_peripheral/Source/gd32f3x0_hal_usrt.c ****         ((hal_usrt_init_struct *)p_struct)->clock_length_lastbit = USRT_LAST_BIT_NOT_OUTPUT;
  81:../firmware/gd32f3x0_hal_peripheral/Source/gd32f3x0_hal_usrt.c ****         break;
  82:../firmware/gd32f3x0_hal_peripheral/Source/gd32f3x0_hal_usrt.c **** 
  83:../firmware/gd32f3x0_hal_peripheral/Source/gd32f3x0_hal_usrt.c ****     case HAL_USRT_DEV_STRUCT:
  84:../firmware/gd32f3x0_hal_peripheral/Source/gd32f3x0_hal_usrt.c ****         /* initialize usrt device information structure with the default values */
  85:../firmware/gd32f3x0_hal_peripheral/Source/gd32f3x0_hal_usrt.c ****         ((hal_usrt_dev_struct *)p_struct)->periph                            = 0U;
  86:../firmware/gd32f3x0_hal_peripheral/Source/gd32f3x0_hal_usrt.c ****         ((hal_usrt_dev_struct *)p_struct)->usrt_irq.error_handle             = NULL;
  87:../firmware/gd32f3x0_hal_peripheral/Source/gd32f3x0_hal_usrt.c ****         ((hal_usrt_dev_struct *)p_struct)->usrt_irq.receive_complete_handle  = NULL;
  88:../firmware/gd32f3x0_hal_peripheral/Source/gd32f3x0_hal_usrt.c ****         ((hal_usrt_dev_struct *)p_struct)->usrt_irq.transmit_complete_handle = NULL;
  89:../firmware/gd32f3x0_hal_peripheral/Source/gd32f3x0_hal_usrt.c ****         ((hal_usrt_dev_struct *)p_struct)->usrt_irq.transmit_ready_handle    = NULL;
  90:../firmware/gd32f3x0_hal_peripheral/Source/gd32f3x0_hal_usrt.c ****         ((hal_usrt_dev_struct *)p_struct)->p_dma_rx                          = NULL;
  91:../firmware/gd32f3x0_hal_peripheral/Source/gd32f3x0_hal_usrt.c ****         ((hal_usrt_dev_struct *)p_struct)->p_dma_tx                          = NULL;
  92:../firmware/gd32f3x0_hal_peripheral/Source/gd32f3x0_hal_usrt.c ****         ((hal_usrt_dev_struct *)p_struct)->txbuffer.buffer                   = NULL;
  93:../firmware/gd32f3x0_hal_peripheral/Source/gd32f3x0_hal_usrt.c ****         ((hal_usrt_dev_struct *)p_struct)->txbuffer.length                   = 0U;
  94:../firmware/gd32f3x0_hal_peripheral/Source/gd32f3x0_hal_usrt.c ****         ((hal_usrt_dev_struct *)p_struct)->txbuffer.pos                      = 0U;
  95:../firmware/gd32f3x0_hal_peripheral/Source/gd32f3x0_hal_usrt.c ****         ((hal_usrt_dev_struct *)p_struct)->rxbuffer.buffer                   = NULL;
  96:../firmware/gd32f3x0_hal_peripheral/Source/gd32f3x0_hal_usrt.c ****         ((hal_usrt_dev_struct *)p_struct)->rxbuffer.length                   = 0U;
  97:../firmware/gd32f3x0_hal_peripheral/Source/gd32f3x0_hal_usrt.c ****         ((hal_usrt_dev_struct *)p_struct)->rxbuffer.pos                      = 0U;
  98:../firmware/gd32f3x0_hal_peripheral/Source/gd32f3x0_hal_usrt.c ****         ((hal_usrt_dev_struct *)p_struct)->data_bit_mask                     = 0U;
  99:../firmware/gd32f3x0_hal_peripheral/Source/gd32f3x0_hal_usrt.c ****         ((hal_usrt_dev_struct *)p_struct)->last_error                        = HAL_USRT_ERROR_NONE;
 100:../firmware/gd32f3x0_hal_peripheral/Source/gd32f3x0_hal_usrt.c ****         ((hal_usrt_dev_struct *)p_struct)->error_state                       = HAL_USRT_ERROR_NONE;
 101:../firmware/gd32f3x0_hal_peripheral/Source/gd32f3x0_hal_usrt.c ****         ((hal_usrt_dev_struct *)p_struct)->tx_state                          = USRT_STATE_FREE;
 102:../firmware/gd32f3x0_hal_peripheral/Source/gd32f3x0_hal_usrt.c ****         ((hal_usrt_dev_struct *)p_struct)->rx_state                          = USRT_STATE_FREE;
 103:../firmware/gd32f3x0_hal_peripheral/Source/gd32f3x0_hal_usrt.c ****         ((hal_usrt_dev_struct *)p_struct)->rx_callback                       = NULL;
 104:../firmware/gd32f3x0_hal_peripheral/Source/gd32f3x0_hal_usrt.c ****         ((hal_usrt_dev_struct *)p_struct)->tx_callback                       = NULL;
 105:../firmware/gd32f3x0_hal_peripheral/Source/gd32f3x0_hal_usrt.c ****         ((hal_usrt_dev_struct *)p_struct)->mutex                             = HAL_MUTEX_UNLOCKED;
 106:../firmware/gd32f3x0_hal_peripheral/Source/gd32f3x0_hal_usrt.c ****         ((hal_usrt_dev_struct *)p_struct)->priv                              = NULL;
 107:../firmware/gd32f3x0_hal_peripheral/Source/gd32f3x0_hal_usrt.c ****         break;
 108:../firmware/gd32f3x0_hal_peripheral/Source/gd32f3x0_hal_usrt.c **** 
 109:../firmware/gd32f3x0_hal_peripheral/Source/gd32f3x0_hal_usrt.c ****     case HAL_USRT_USER_CALLBCAK_STRUCT:
 110:../firmware/gd32f3x0_hal_peripheral/Source/gd32f3x0_hal_usrt.c ****         /* initialize user callback structure with the default values */
 111:../firmware/gd32f3x0_hal_peripheral/Source/gd32f3x0_hal_usrt.c ****         ((hal_usrt_user_callback_struct *)p_struct)->complete_func = NULL;
 112:../firmware/gd32f3x0_hal_peripheral/Source/gd32f3x0_hal_usrt.c ****         ((hal_usrt_user_callback_struct *)p_struct)->error_func = NULL;
 113:../firmware/gd32f3x0_hal_peripheral/Source/gd32f3x0_hal_usrt.c ****         break;
 114:../firmware/gd32f3x0_hal_peripheral/Source/gd32f3x0_hal_usrt.c **** 
 115:../firmware/gd32f3x0_hal_peripheral/Source/gd32f3x0_hal_usrt.c ****     default:
 116:../firmware/gd32f3x0_hal_peripheral/Source/gd32f3x0_hal_usrt.c ****         HAL_DEBUGW("parameter [hal_struct_type] value is undefine");
 117:../firmware/gd32f3x0_hal_peripheral/Source/gd32f3x0_hal_usrt.c ****         break;
  52              		.loc 1 117 9
  53 001e 69E0     		b	.L7
  54              	.L4:
  72:../firmware/gd32f3x0_hal_peripheral/Source/gd32f3x0_hal_usrt.c ****         ((hal_usrt_init_struct *)p_struct)->parity               = USRT_PARITY_NONE;
  55              		.loc 1 72 66
  56 0020 3B68     		ldr	r3, [r7]
  57 0022 4FF4E132 		mov	r2, #115200
  58 0026 1A60     		str	r2, [r3]
  73:../firmware/gd32f3x0_hal_peripheral/Source/gd32f3x0_hal_usrt.c ****         ((hal_usrt_init_struct *)p_struct)->word_length          = USRT_WORD_LENGTH_8BIT;
  59              		.loc 1 73 66
  60 0028 3B68     		ldr	r3, [r7]
  61 002a 0022     		movs	r2, #0
  62 002c 5A60     		str	r2, [r3, #4]
  74:../firmware/gd32f3x0_hal_peripheral/Source/gd32f3x0_hal_usrt.c ****         ((hal_usrt_init_struct *)p_struct)->stop_bit             = USRT_STOP_BIT_1;
  63              		.loc 1 74 66
  64 002e 3B68     		ldr	r3, [r7]
  65 0030 0022     		movs	r2, #0
  66 0032 9A60     		str	r2, [r3, #8]
  75:../firmware/gd32f3x0_hal_peripheral/Source/gd32f3x0_hal_usrt.c ****         ((hal_usrt_init_struct *)p_struct)->direction            = USRT_DIRECTION_RX_TX;
  67              		.loc 1 75 66
  68 0034 3B68     		ldr	r3, [r7]
  69 0036 0022     		movs	r2, #0
  70 0038 DA60     		str	r2, [r3, #12]
  76:../firmware/gd32f3x0_hal_peripheral/Source/gd32f3x0_hal_usrt.c ****         ((hal_usrt_init_struct *)p_struct)->rx_fifo_en           = DISABLE;
  71              		.loc 1 76 66
  72 003a 3B68     		ldr	r3, [r7]
  73 003c 0C22     		movs	r2, #12
  74 003e 1A61     		str	r2, [r3, #16]
  77:../firmware/gd32f3x0_hal_peripheral/Source/gd32f3x0_hal_usrt.c ****         ((hal_usrt_init_struct *)p_struct)->clock_polarity       = USRT_CLOCK_POLARITY_LOW;
  75              		.loc 1 77 66
  76 0040 3B68     		ldr	r3, [r7]
  77 0042 0022     		movs	r2, #0
  78 0044 1A75     		strb	r2, [r3, #20]
  78:../firmware/gd32f3x0_hal_peripheral/Source/gd32f3x0_hal_usrt.c ****         ((hal_usrt_init_struct *)p_struct)->clock_phase          = USRT_CLOCK_PHASE_1CK;
  79              		.loc 1 78 66
  80 0046 3B68     		ldr	r3, [r7]
  81 0048 0022     		movs	r2, #0
  82 004a 9A61     		str	r2, [r3, #24]
  79:../firmware/gd32f3x0_hal_peripheral/Source/gd32f3x0_hal_usrt.c ****         ((hal_usrt_init_struct *)p_struct)->clock_length_lastbit = USRT_LAST_BIT_NOT_OUTPUT;
  83              		.loc 1 79 66
  84 004c 3B68     		ldr	r3, [r7]
  85 004e 0022     		movs	r2, #0
  86 0050 DA61     		str	r2, [r3, #28]
  80:../firmware/gd32f3x0_hal_peripheral/Source/gd32f3x0_hal_usrt.c ****         break;
  87              		.loc 1 80 66
  88 0052 3B68     		ldr	r3, [r7]
  89 0054 0022     		movs	r2, #0
  90 0056 1A62     		str	r2, [r3, #32]
  81:../firmware/gd32f3x0_hal_peripheral/Source/gd32f3x0_hal_usrt.c **** 
  91              		.loc 1 81 9
  92 0058 4DE0     		b	.L6
  93              	.L5:
  85:../firmware/gd32f3x0_hal_peripheral/Source/gd32f3x0_hal_usrt.c ****         ((hal_usrt_dev_struct *)p_struct)->usrt_irq.error_handle             = NULL;
  94              		.loc 1 85 78
  95 005a 3B68     		ldr	r3, [r7]
  96 005c 0022     		movs	r2, #0
  97 005e 1A60     		str	r2, [r3]
  86:../firmware/gd32f3x0_hal_peripheral/Source/gd32f3x0_hal_usrt.c ****         ((hal_usrt_dev_struct *)p_struct)->usrt_irq.receive_complete_handle  = NULL;
  98              		.loc 1 86 78
  99 0060 3B68     		ldr	r3, [r7]
 100 0062 0022     		movs	r2, #0
 101 0064 1A61     		str	r2, [r3, #16]
  87:../firmware/gd32f3x0_hal_peripheral/Source/gd32f3x0_hal_usrt.c ****         ((hal_usrt_dev_struct *)p_struct)->usrt_irq.transmit_complete_handle = NULL;
 102              		.loc 1 87 78
 103 0066 3B68     		ldr	r3, [r7]
 104 0068 0022     		movs	r2, #0
 105 006a 5A60     		str	r2, [r3, #4]
  88:../firmware/gd32f3x0_hal_peripheral/Source/gd32f3x0_hal_usrt.c ****         ((hal_usrt_dev_struct *)p_struct)->usrt_irq.transmit_ready_handle    = NULL;
 106              		.loc 1 88 78
 107 006c 3B68     		ldr	r3, [r7]
 108 006e 0022     		movs	r2, #0
 109 0070 DA60     		str	r2, [r3, #12]
  89:../firmware/gd32f3x0_hal_peripheral/Source/gd32f3x0_hal_usrt.c ****         ((hal_usrt_dev_struct *)p_struct)->p_dma_rx                          = NULL;
 110              		.loc 1 89 78
 111 0072 3B68     		ldr	r3, [r7]
 112 0074 0022     		movs	r2, #0
 113 0076 9A60     		str	r2, [r3, #8]
  90:../firmware/gd32f3x0_hal_peripheral/Source/gd32f3x0_hal_usrt.c ****         ((hal_usrt_dev_struct *)p_struct)->p_dma_tx                          = NULL;
 114              		.loc 1 90 78
 115 0078 3B68     		ldr	r3, [r7]
 116 007a 0022     		movs	r2, #0
 117 007c 5A61     		str	r2, [r3, #20]
  91:../firmware/gd32f3x0_hal_peripheral/Source/gd32f3x0_hal_usrt.c ****         ((hal_usrt_dev_struct *)p_struct)->txbuffer.buffer                   = NULL;
 118              		.loc 1 91 78
 119 007e 3B68     		ldr	r3, [r7]
 120 0080 0022     		movs	r2, #0
 121 0082 9A61     		str	r2, [r3, #24]
  92:../firmware/gd32f3x0_hal_peripheral/Source/gd32f3x0_hal_usrt.c ****         ((hal_usrt_dev_struct *)p_struct)->txbuffer.length                   = 0U;
 122              		.loc 1 92 78
 123 0084 3B68     		ldr	r3, [r7]
 124 0086 0022     		movs	r2, #0
 125 0088 DA61     		str	r2, [r3, #28]
  93:../firmware/gd32f3x0_hal_peripheral/Source/gd32f3x0_hal_usrt.c ****         ((hal_usrt_dev_struct *)p_struct)->txbuffer.pos                      = 0U;
 126              		.loc 1 93 78
 127 008a 3B68     		ldr	r3, [r7]
 128 008c 0022     		movs	r2, #0
 129 008e 1A62     		str	r2, [r3, #32]
  94:../firmware/gd32f3x0_hal_peripheral/Source/gd32f3x0_hal_usrt.c ****         ((hal_usrt_dev_struct *)p_struct)->rxbuffer.buffer                   = NULL;
 130              		.loc 1 94 78
 131 0090 3B68     		ldr	r3, [r7]
 132 0092 0022     		movs	r2, #0
 133 0094 5A62     		str	r2, [r3, #36]
  95:../firmware/gd32f3x0_hal_peripheral/Source/gd32f3x0_hal_usrt.c ****         ((hal_usrt_dev_struct *)p_struct)->rxbuffer.length                   = 0U;
 134              		.loc 1 95 78
 135 0096 3B68     		ldr	r3, [r7]
 136 0098 0022     		movs	r2, #0
 137 009a 9A62     		str	r2, [r3, #40]
  96:../firmware/gd32f3x0_hal_peripheral/Source/gd32f3x0_hal_usrt.c ****         ((hal_usrt_dev_struct *)p_struct)->rxbuffer.pos                      = 0U;
 138              		.loc 1 96 78
 139 009c 3B68     		ldr	r3, [r7]
 140 009e 0022     		movs	r2, #0
 141 00a0 DA62     		str	r2, [r3, #44]
  97:../firmware/gd32f3x0_hal_peripheral/Source/gd32f3x0_hal_usrt.c ****         ((hal_usrt_dev_struct *)p_struct)->data_bit_mask                     = 0U;
 142              		.loc 1 97 78
 143 00a2 3B68     		ldr	r3, [r7]
 144 00a4 0022     		movs	r2, #0
 145 00a6 1A63     		str	r2, [r3, #48]
  98:../firmware/gd32f3x0_hal_peripheral/Source/gd32f3x0_hal_usrt.c ****         ((hal_usrt_dev_struct *)p_struct)->last_error                        = HAL_USRT_ERROR_NONE;
 146              		.loc 1 98 78
 147 00a8 3B68     		ldr	r3, [r7]
 148 00aa 0022     		movs	r2, #0
 149 00ac 9A86     		strh	r2, [r3, #52]	@ movhi
  99:../firmware/gd32f3x0_hal_peripheral/Source/gd32f3x0_hal_usrt.c ****         ((hal_usrt_dev_struct *)p_struct)->error_state                       = HAL_USRT_ERROR_NONE;
 150              		.loc 1 99 78
 151 00ae 3B68     		ldr	r3, [r7]
 152 00b0 0022     		movs	r2, #0
 153 00b2 DA86     		strh	r2, [r3, #54]	@ movhi
 100:../firmware/gd32f3x0_hal_peripheral/Source/gd32f3x0_hal_usrt.c ****         ((hal_usrt_dev_struct *)p_struct)->tx_state                          = USRT_STATE_FREE;
 154              		.loc 1 100 78
 155 00b4 3B68     		ldr	r3, [r7]
 156 00b6 0022     		movs	r2, #0
 157 00b8 1A87     		strh	r2, [r3, #56]	@ movhi
 101:../firmware/gd32f3x0_hal_peripheral/Source/gd32f3x0_hal_usrt.c ****         ((hal_usrt_dev_struct *)p_struct)->rx_state                          = USRT_STATE_FREE;
 158              		.loc 1 101 78
 159 00ba 3B68     		ldr	r3, [r7]
 160 00bc 0022     		movs	r2, #0
 161 00be 83F83A20 		strb	r2, [r3, #58]
 102:../firmware/gd32f3x0_hal_peripheral/Source/gd32f3x0_hal_usrt.c ****         ((hal_usrt_dev_struct *)p_struct)->rx_callback                       = NULL;
 162              		.loc 1 102 78
 163 00c2 3B68     		ldr	r3, [r7]
 164 00c4 0022     		movs	r2, #0
 165 00c6 83F83B20 		strb	r2, [r3, #59]
 103:../firmware/gd32f3x0_hal_peripheral/Source/gd32f3x0_hal_usrt.c ****         ((hal_usrt_dev_struct *)p_struct)->tx_callback                       = NULL;
 166              		.loc 1 103 78
 167 00ca 3B68     		ldr	r3, [r7]
 168 00cc 0022     		movs	r2, #0
 169 00ce DA63     		str	r2, [r3, #60]
 104:../firmware/gd32f3x0_hal_peripheral/Source/gd32f3x0_hal_usrt.c ****         ((hal_usrt_dev_struct *)p_struct)->mutex                             = HAL_MUTEX_UNLOCKED;
 170              		.loc 1 104 78
 171 00d0 3B68     		ldr	r3, [r7]
 172 00d2 0022     		movs	r2, #0
 173 00d4 1A64     		str	r2, [r3, #64]
 105:../firmware/gd32f3x0_hal_peripheral/Source/gd32f3x0_hal_usrt.c ****         ((hal_usrt_dev_struct *)p_struct)->priv                              = NULL;
 174              		.loc 1 105 78
 175 00d6 3B68     		ldr	r3, [r7]
 176 00d8 0022     		movs	r2, #0
 177 00da 83F84420 		strb	r2, [r3, #68]
 106:../firmware/gd32f3x0_hal_peripheral/Source/gd32f3x0_hal_usrt.c ****         break;
 178              		.loc 1 106 78
 179 00de 3B68     		ldr	r3, [r7]
 180 00e0 0022     		movs	r2, #0
 181 00e2 9A64     		str	r2, [r3, #72]
 107:../firmware/gd32f3x0_hal_peripheral/Source/gd32f3x0_hal_usrt.c **** 
 182              		.loc 1 107 9
 183 00e4 07E0     		b	.L6
 184              	.L2:
 111:../firmware/gd32f3x0_hal_peripheral/Source/gd32f3x0_hal_usrt.c ****         ((hal_usrt_user_callback_struct *)p_struct)->error_func = NULL;
 185              		.loc 1 111 68
 186 00e6 3B68     		ldr	r3, [r7]
 187 00e8 0022     		movs	r2, #0
 188 00ea 1A60     		str	r2, [r3]
 112:../firmware/gd32f3x0_hal_peripheral/Source/gd32f3x0_hal_usrt.c ****         break;
 189              		.loc 1 112 65
 190 00ec 3B68     		ldr	r3, [r7]
 191 00ee 0022     		movs	r2, #0
 192 00f0 5A60     		str	r2, [r3, #4]
 113:../firmware/gd32f3x0_hal_peripheral/Source/gd32f3x0_hal_usrt.c **** 
 193              		.loc 1 113 9
 194 00f2 00E0     		b	.L6
 195              	.L7:
 196              		.loc 1 117 9
 197 00f4 00BF     		nop
 198              	.L6:
 118:../firmware/gd32f3x0_hal_peripheral/Source/gd32f3x0_hal_usrt.c ****     }
 119:../firmware/gd32f3x0_hal_peripheral/Source/gd32f3x0_hal_usrt.c **** }
 199              		.loc 1 119 1
 200 00f6 00BF     		nop
 201 00f8 0C37     		adds	r7, r7, #12
 202              		.cfi_def_cfa_offset 4
 203 00fa BD46     		mov	sp, r7
 204              		.cfi_def_cfa_register 13
 205              		@ sp needed
 206 00fc 80BC     		pop	{r7}
 207              		.cfi_restore 7
 208              		.cfi_def_cfa_offset 0
 209 00fe 7047     		bx	lr
 210              		.cfi_endproc
 211              	.LFE119:
 213              		.section	.text.hal_usrt_deinit,"ax",%progbits
 214              		.align	1
 215              		.global	hal_usrt_deinit
 216              		.syntax unified
 217              		.thumb
 218              		.thumb_func
 219              		.fpu softvfp
 221              	hal_usrt_deinit:
 222              	.LFB120:
 120:../firmware/gd32f3x0_hal_peripheral/Source/gd32f3x0_hal_usrt.c **** 
 121:../firmware/gd32f3x0_hal_peripheral/Source/gd32f3x0_hal_usrt.c **** /*!
 122:../firmware/gd32f3x0_hal_peripheral/Source/gd32f3x0_hal_usrt.c ****     \brief      deinitialize the usrt
 123:../firmware/gd32f3x0_hal_peripheral/Source/gd32f3x0_hal_usrt.c ****     \param[in]  usrt: usrt device information structure
 124:../firmware/gd32f3x0_hal_peripheral/Source/gd32f3x0_hal_usrt.c ****                     the structure is not necessary to be reconfigured after structrue initializatio
 125:../firmware/gd32f3x0_hal_peripheral/Source/gd32f3x0_hal_usrt.c ****                     the structure parameters altering is automatically configured by core
 126:../firmware/gd32f3x0_hal_peripheral/Source/gd32f3x0_hal_usrt.c ****     \param[out] none
 127:../firmware/gd32f3x0_hal_peripheral/Source/gd32f3x0_hal_usrt.c ****     \retval     none
 128:../firmware/gd32f3x0_hal_peripheral/Source/gd32f3x0_hal_usrt.c **** */
 129:../firmware/gd32f3x0_hal_peripheral/Source/gd32f3x0_hal_usrt.c **** void hal_usrt_deinit(hal_usrt_dev_struct *usrt)
 130:../firmware/gd32f3x0_hal_peripheral/Source/gd32f3x0_hal_usrt.c **** {
 223              		.loc 1 130 1
 224              		.cfi_startproc
 225              		@ args = 0, pretend = 0, frame = 16
 226              		@ frame_needed = 1, uses_anonymous_args = 0
 227 0000 80B5     		push	{r7, lr}
 228              		.cfi_def_cfa_offset 8
 229              		.cfi_offset 7, -8
 230              		.cfi_offset 14, -4
 231 0002 84B0     		sub	sp, sp, #16
 232              		.cfi_def_cfa_offset 24
 233 0004 00AF     		add	r7, sp, #0
 234              		.cfi_def_cfa_register 7
 235 0006 7860     		str	r0, [r7, #4]
 131:../firmware/gd32f3x0_hal_peripheral/Source/gd32f3x0_hal_usrt.c ****     uint32_t periph;
 132:../firmware/gd32f3x0_hal_peripheral/Source/gd32f3x0_hal_usrt.c **** 
 133:../firmware/gd32f3x0_hal_peripheral/Source/gd32f3x0_hal_usrt.c ****     periph = usrt->periph;
 236              		.loc 1 133 12
 237 0008 7B68     		ldr	r3, [r7, #4]
 238 000a 1B68     		ldr	r3, [r3]
 239 000c FB60     		str	r3, [r7, #12]
 134:../firmware/gd32f3x0_hal_peripheral/Source/gd32f3x0_hal_usrt.c ****     if((USART0 == periph) || (USART1 == periph)) {
 240              		.loc 1 134 7
 241 000e FB68     		ldr	r3, [r7, #12]
 242 0010 0A4A     		ldr	r2, .L12
 243 0012 9342     		cmp	r3, r2
 244 0014 03D0     		beq	.L9
 245              		.loc 1 134 27 discriminator 1
 246 0016 FB68     		ldr	r3, [r7, #12]
 247 0018 094A     		ldr	r2, .L12+4
 248 001a 9342     		cmp	r3, r2
 249 001c 09D1     		bne	.L11
 250              	.L9:
 135:../firmware/gd32f3x0_hal_peripheral/Source/gd32f3x0_hal_usrt.c ****         /* deinitialize the periph and the device information sturcture */
 136:../firmware/gd32f3x0_hal_peripheral/Source/gd32f3x0_hal_usrt.c ****         hals_usrt_deinit(periph);
 251              		.loc 1 136 9
 252 001e F868     		ldr	r0, [r7, #12]
 253 0020 FFF7FEFF 		bl	hals_usrt_deinit
 137:../firmware/gd32f3x0_hal_peripheral/Source/gd32f3x0_hal_usrt.c ****         hal_usrt_struct_init(HAL_USRT_DEV_STRUCT, usrt);
 254              		.loc 1 137 9
 255 0024 7968     		ldr	r1, [r7, #4]
 256 0026 0120     		movs	r0, #1
 257 0028 FFF7FEFF 		bl	hal_usrt_struct_init
 138:../firmware/gd32f3x0_hal_peripheral/Source/gd32f3x0_hal_usrt.c ****         usrt->periph = periph;
 258              		.loc 1 138 22
 259 002c 7B68     		ldr	r3, [r7, #4]
 260 002e FA68     		ldr	r2, [r7, #12]
 261 0030 1A60     		str	r2, [r3]
 262              	.L11:
 139:../firmware/gd32f3x0_hal_peripheral/Source/gd32f3x0_hal_usrt.c ****     } else {
 140:../firmware/gd32f3x0_hal_peripheral/Source/gd32f3x0_hal_usrt.c ****         HAL_DEBUGE("parameter [usrt->periph] value is invalid");
 141:../firmware/gd32f3x0_hal_peripheral/Source/gd32f3x0_hal_usrt.c ****     }
 142:../firmware/gd32f3x0_hal_peripheral/Source/gd32f3x0_hal_usrt.c **** }
 263              		.loc 1 142 1
 264 0032 00BF     		nop
 265 0034 1037     		adds	r7, r7, #16
 266              		.cfi_def_cfa_offset 8
 267 0036 BD46     		mov	sp, r7
 268              		.cfi_def_cfa_register 13
 269              		@ sp needed
 270 0038 80BD     		pop	{r7, pc}
 271              	.L13:
 272 003a 00BF     		.align	2
 273              	.L12:
 274 003c 00380140 		.word	1073821696
 275 0040 00440040 		.word	1073759232
 276              		.cfi_endproc
 277              	.LFE120:
 279              		.section	.text.hal_usrt_init,"ax",%progbits
 280              		.align	1
 281              		.global	hal_usrt_init
 282              		.syntax unified
 283              		.thumb
 284              		.thumb_func
 285              		.fpu softvfp
 287              	hal_usrt_init:
 288              	.LFB121:
 143:../firmware/gd32f3x0_hal_peripheral/Source/gd32f3x0_hal_usrt.c **** 
 144:../firmware/gd32f3x0_hal_peripheral/Source/gd32f3x0_hal_usrt.c **** /*!
 145:../firmware/gd32f3x0_hal_peripheral/Source/gd32f3x0_hal_usrt.c ****     \brief      initialize the usrt with specified values
 146:../firmware/gd32f3x0_hal_peripheral/Source/gd32f3x0_hal_usrt.c ****     \param[in]  usrt: usrt device information structure
 147:../firmware/gd32f3x0_hal_peripheral/Source/gd32f3x0_hal_usrt.c ****                     the structure is not necessary to be reconfigured after structrue initializatio
 148:../firmware/gd32f3x0_hal_peripheral/Source/gd32f3x0_hal_usrt.c ****                     the structure parameters altering is automatically configured by core
 149:../firmware/gd32f3x0_hal_peripheral/Source/gd32f3x0_hal_usrt.c ****     \param[in]  periph: specify which USRT is initialized
 150:../firmware/gd32f3x0_hal_peripheral/Source/gd32f3x0_hal_usrt.c ****     \param[in]  p_init: the initialization data needed to initialize usrt
 151:../firmware/gd32f3x0_hal_peripheral/Source/gd32f3x0_hal_usrt.c ****                   baudrate: communication baudrate
 152:../firmware/gd32f3x0_hal_peripheral/Source/gd32f3x0_hal_usrt.c ****                   parity: USRT_PARITY_NONE, USRT_PARITY_EVEN, USRT_PARITY_ODD
 153:../firmware/gd32f3x0_hal_peripheral/Source/gd32f3x0_hal_usrt.c ****                   word_length: USRT_WORD_LENGTH_8BIT, USRT_WORD_LENGTH_9BIT
 154:../firmware/gd32f3x0_hal_peripheral/Source/gd32f3x0_hal_usrt.c ****                   stop_bit: USRT_STOP_BIT_1, USRT_STOP_BIT_2, USRT_STOP_BIT_1_5
 155:../firmware/gd32f3x0_hal_peripheral/Source/gd32f3x0_hal_usrt.c ****                   direction: USRT_DIRECTION_RX_TX, USRT_DIRECTION_RX_ONLY, USRT_DIRECTION_TX_ONLY
 156:../firmware/gd32f3x0_hal_peripheral/Source/gd32f3x0_hal_usrt.c ****                   rx_fifo_en：DISABLE, ENABLE
 157:../firmware/gd32f3x0_hal_peripheral/Source/gd32f3x0_hal_usrt.c ****                   clock_polarity: USRT_CLOCK_POLARITY_LOW, USRT_CLOCK_POLARITY_HIGH
 158:../firmware/gd32f3x0_hal_peripheral/Source/gd32f3x0_hal_usrt.c ****                   clock_phase: USRT_CLOCK_PHASE_1CK, USRT_CLOCK_PHASE_2CK
 159:../firmware/gd32f3x0_hal_peripheral/Source/gd32f3x0_hal_usrt.c ****                   clock_length_lastbit: USRT_LAST_BIT_NOT_OUTPUT, USRT_LAST_BIT_OUTPUT
 160:../firmware/gd32f3x0_hal_peripheral/Source/gd32f3x0_hal_usrt.c ****     \param[out] none
 161:../firmware/gd32f3x0_hal_peripheral/Source/gd32f3x0_hal_usrt.c ****     \retval     error code: HAL_ERR_NONE, HAL_ERR_ADDRESS, HAL_ERR_VAL details refer to gd32f3x0_ha
 162:../firmware/gd32f3x0_hal_peripheral/Source/gd32f3x0_hal_usrt.c **** */
 163:../firmware/gd32f3x0_hal_peripheral/Source/gd32f3x0_hal_usrt.c **** int32_t hal_usrt_init(hal_usrt_dev_struct *usrt, uint32_t periph, hal_usrt_init_struct *p_init)
 164:../firmware/gd32f3x0_hal_peripheral/Source/gd32f3x0_hal_usrt.c **** {
 289              		.loc 1 164 1
 290              		.cfi_startproc
 291              		@ args = 0, pretend = 0, frame = 24
 292              		@ frame_needed = 1, uses_anonymous_args = 0
 293 0000 80B5     		push	{r7, lr}
 294              		.cfi_def_cfa_offset 8
 295              		.cfi_offset 7, -8
 296              		.cfi_offset 14, -4
 297 0002 86B0     		sub	sp, sp, #24
 298              		.cfi_def_cfa_offset 32
 299 0004 00AF     		add	r7, sp, #0
 300              		.cfi_def_cfa_register 7
 301 0006 F860     		str	r0, [r7, #12]
 302 0008 B960     		str	r1, [r7, #8]
 303 000a 7A60     		str	r2, [r7, #4]
 165:../firmware/gd32f3x0_hal_peripheral/Source/gd32f3x0_hal_usrt.c ****     uint32_t reg_temp;
 166:../firmware/gd32f3x0_hal_peripheral/Source/gd32f3x0_hal_usrt.c **** 
 167:../firmware/gd32f3x0_hal_peripheral/Source/gd32f3x0_hal_usrt.c **** #if (1 == HAL_PARAMETER_CHECK)
 168:../firmware/gd32f3x0_hal_peripheral/Source/gd32f3x0_hal_usrt.c ****     /* check usrt pointer and p_init address */
 169:../firmware/gd32f3x0_hal_peripheral/Source/gd32f3x0_hal_usrt.c ****     if((NULL == usrt) || (NULL == p_init)) {
 170:../firmware/gd32f3x0_hal_peripheral/Source/gd32f3x0_hal_usrt.c ****         HAL_DEBUGE("pointer [usrt] or [p_init] address is invalid");
 171:../firmware/gd32f3x0_hal_peripheral/Source/gd32f3x0_hal_usrt.c ****         return HAL_ERR_ADDRESS;
 172:../firmware/gd32f3x0_hal_peripheral/Source/gd32f3x0_hal_usrt.c ****     }
 173:../firmware/gd32f3x0_hal_peripheral/Source/gd32f3x0_hal_usrt.c **** 
 174:../firmware/gd32f3x0_hal_peripheral/Source/gd32f3x0_hal_usrt.c ****     /* check periph parameter */
 175:../firmware/gd32f3x0_hal_peripheral/Source/gd32f3x0_hal_usrt.c ****     if((USART0 != periph) && (USART1 != periph)) {
 176:../firmware/gd32f3x0_hal_peripheral/Source/gd32f3x0_hal_usrt.c ****         HAL_DEBUGE("parameter [periph] value is invalid");
 177:../firmware/gd32f3x0_hal_peripheral/Source/gd32f3x0_hal_usrt.c ****         return HAL_ERR_VAL;
 178:../firmware/gd32f3x0_hal_peripheral/Source/gd32f3x0_hal_usrt.c ****     }
 179:../firmware/gd32f3x0_hal_peripheral/Source/gd32f3x0_hal_usrt.c **** 
 180:../firmware/gd32f3x0_hal_peripheral/Source/gd32f3x0_hal_usrt.c ****     /* check periph value from usrt device struct */
 181:../firmware/gd32f3x0_hal_peripheral/Source/gd32f3x0_hal_usrt.c ****     if(0U != usrt->periph) {
 182:../firmware/gd32f3x0_hal_peripheral/Source/gd32f3x0_hal_usrt.c ****         HAL_DEBUGI("periph value from usrt device struct has been rewrite");
 183:../firmware/gd32f3x0_hal_peripheral/Source/gd32f3x0_hal_usrt.c ****     }
 184:../firmware/gd32f3x0_hal_peripheral/Source/gd32f3x0_hal_usrt.c **** #endif /* 1 == HAL_PARAMETER_CHECK */
 185:../firmware/gd32f3x0_hal_peripheral/Source/gd32f3x0_hal_usrt.c **** 
 186:../firmware/gd32f3x0_hal_peripheral/Source/gd32f3x0_hal_usrt.c ****     /* lock uart */
 187:../firmware/gd32f3x0_hal_peripheral/Source/gd32f3x0_hal_usrt.c ****     HAL_LOCK(usrt);
 304              		.loc 1 187 5
 305 000c FB68     		ldr	r3, [r7, #12]
 306 000e 93F84430 		ldrb	r3, [r3, #68]	@ zero_extendqisi2
 307 0012 012B     		cmp	r3, #1
 308 0014 02D1     		bne	.L15
 309              		.loc 1 187 5 is_stmt 0 discriminator 1
 310 0016 6FF00103 		mvn	r3, #1
 311 001a 71E0     		b	.L16
 312              	.L15:
 313              		.loc 1 187 5 discriminator 2
 314 001c FB68     		ldr	r3, [r7, #12]
 315 001e 0122     		movs	r2, #1
 316 0020 83F84420 		strb	r2, [r3, #68]
 188:../firmware/gd32f3x0_hal_peripheral/Source/gd32f3x0_hal_usrt.c **** 
 189:../firmware/gd32f3x0_hal_peripheral/Source/gd32f3x0_hal_usrt.c ****     usrt->periph = periph;
 317              		.loc 1 189 18 is_stmt 1 discriminator 2
 318 0024 FB68     		ldr	r3, [r7, #12]
 319 0026 BA68     		ldr	r2, [r7, #8]
 320 0028 1A60     		str	r2, [r3]
 190:../firmware/gd32f3x0_hal_peripheral/Source/gd32f3x0_hal_usrt.c **** 
 191:../firmware/gd32f3x0_hal_peripheral/Source/gd32f3x0_hal_usrt.c ****     /* disable usrt */
 192:../firmware/gd32f3x0_hal_peripheral/Source/gd32f3x0_hal_usrt.c ****     hals_usrt_disable(periph);
 321              		.loc 1 192 5 discriminator 2
 322 002a B868     		ldr	r0, [r7, #8]
 323 002c FFF7FEFF 		bl	hals_usrt_disable
 193:../firmware/gd32f3x0_hal_peripheral/Source/gd32f3x0_hal_usrt.c **** 
 194:../firmware/gd32f3x0_hal_peripheral/Source/gd32f3x0_hal_usrt.c ****     /* configure CTL0 register */
 195:../firmware/gd32f3x0_hal_peripheral/Source/gd32f3x0_hal_usrt.c ****     reg_temp = USART_CTL0(periph);
 324              		.loc 1 195 16 discriminator 2
 325 0030 BB68     		ldr	r3, [r7, #8]
 326              		.loc 1 195 14 discriminator 2
 327 0032 1B68     		ldr	r3, [r3]
 328 0034 7B61     		str	r3, [r7, #20]
 196:../firmware/gd32f3x0_hal_peripheral/Source/gd32f3x0_hal_usrt.c ****     reg_temp &= ~(USART_CTL0_PM | USART_CTL0_PCEN | USART_CTL0_WL | USART_CTL0_REN | USART_CTL0_TEN
 329              		.loc 1 196 14 discriminator 2
 330 0036 7B69     		ldr	r3, [r7, #20]
 331 0038 23F4B053 		bic	r3, r3, #5632
 332 003c 23F00C03 		bic	r3, r3, #12
 333 0040 7B61     		str	r3, [r7, #20]
 197:../firmware/gd32f3x0_hal_peripheral/Source/gd32f3x0_hal_usrt.c ****     reg_temp |= (p_init->direction | p_init->parity | p_init->word_length);
 334              		.loc 1 197 24 discriminator 2
 335 0042 7B68     		ldr	r3, [r7, #4]
 336 0044 1A69     		ldr	r2, [r3, #16]
 337              		.loc 1 197 44 discriminator 2
 338 0046 7B68     		ldr	r3, [r7, #4]
 339 0048 5B68     		ldr	r3, [r3, #4]
 340              		.loc 1 197 36 discriminator 2
 341 004a 1A43     		orrs	r2, r2, r3
 342              		.loc 1 197 61 discriminator 2
 343 004c 7B68     		ldr	r3, [r7, #4]
 344 004e 9B68     		ldr	r3, [r3, #8]
 345              		.loc 1 197 53 discriminator 2
 346 0050 1343     		orrs	r3, r3, r2
 347              		.loc 1 197 14 discriminator 2
 348 0052 7A69     		ldr	r2, [r7, #20]
 349 0054 1343     		orrs	r3, r3, r2
 350 0056 7B61     		str	r3, [r7, #20]
 198:../firmware/gd32f3x0_hal_peripheral/Source/gd32f3x0_hal_usrt.c ****     USART_CTL0(periph) = reg_temp;
 351              		.loc 1 198 5 discriminator 2
 352 0058 BB68     		ldr	r3, [r7, #8]
 353              		.loc 1 198 24 discriminator 2
 354 005a 7A69     		ldr	r2, [r7, #20]
 355 005c 1A60     		str	r2, [r3]
 199:../firmware/gd32f3x0_hal_peripheral/Source/gd32f3x0_hal_usrt.c **** 
 200:../firmware/gd32f3x0_hal_peripheral/Source/gd32f3x0_hal_usrt.c ****     /* configure CTL1 register */
 201:../firmware/gd32f3x0_hal_peripheral/Source/gd32f3x0_hal_usrt.c ****     reg_temp = USART_CTL1(periph);
 356              		.loc 1 201 16 discriminator 2
 357 005e BB68     		ldr	r3, [r7, #8]
 358 0060 0433     		adds	r3, r3, #4
 359              		.loc 1 201 14 discriminator 2
 360 0062 1B68     		ldr	r3, [r3]
 361 0064 7B61     		str	r3, [r7, #20]
 202:../firmware/gd32f3x0_hal_peripheral/Source/gd32f3x0_hal_usrt.c ****     reg_temp &= ~(USART_CTL1_STB | USART_CTL1_CLEN | USART_CTL1_CPH | USART_CTL1_CPL);
 362              		.loc 1 202 14 discriminator 2
 363 0066 7B69     		ldr	r3, [r7, #20]
 364 0068 23F45C53 		bic	r3, r3, #14080
 365 006c 7B61     		str	r3, [r7, #20]
 203:../firmware/gd32f3x0_hal_peripheral/Source/gd32f3x0_hal_usrt.c ****     reg_temp |= (p_init->stop_bit | p_init->clock_length_lastbit | p_init->clock_phase | p_init->cl
 366              		.loc 1 203 24 discriminator 2
 367 006e 7B68     		ldr	r3, [r7, #4]
 368 0070 DA68     		ldr	r2, [r3, #12]
 369              		.loc 1 203 43 discriminator 2
 370 0072 7B68     		ldr	r3, [r7, #4]
 371 0074 1B6A     		ldr	r3, [r3, #32]
 372              		.loc 1 203 35 discriminator 2
 373 0076 1A43     		orrs	r2, r2, r3
 374              		.loc 1 203 74 discriminator 2
 375 0078 7B68     		ldr	r3, [r7, #4]
 376 007a DB69     		ldr	r3, [r3, #28]
 377              		.loc 1 203 66 discriminator 2
 378 007c 1A43     		orrs	r2, r2, r3
 379              		.loc 1 203 96 discriminator 2
 380 007e 7B68     		ldr	r3, [r7, #4]
 381 0080 9B69     		ldr	r3, [r3, #24]
 382              		.loc 1 203 88 discriminator 2
 383 0082 1A43     		orrs	r2, r2, r3
 384              		.loc 1 203 14 discriminator 2
 385 0084 7B69     		ldr	r3, [r7, #20]
 386 0086 1343     		orrs	r3, r3, r2
 387 0088 43F40063 		orr	r3, r3, #2048
 388 008c 7B61     		str	r3, [r7, #20]
 204:../firmware/gd32f3x0_hal_peripheral/Source/gd32f3x0_hal_usrt.c ****     USART_CTL1(periph) = reg_temp;
 389              		.loc 1 204 5 discriminator 2
 390 008e BB68     		ldr	r3, [r7, #8]
 391 0090 0433     		adds	r3, r3, #4
 392 0092 1A46     		mov	r2, r3
 393              		.loc 1 204 24 discriminator 2
 394 0094 7B69     		ldr	r3, [r7, #20]
 395 0096 1360     		str	r3, [r2]
 205:../firmware/gd32f3x0_hal_peripheral/Source/gd32f3x0_hal_usrt.c **** 
 206:../firmware/gd32f3x0_hal_peripheral/Source/gd32f3x0_hal_usrt.c ****     /* configure RFCS register */
 207:../firmware/gd32f3x0_hal_peripheral/Source/gd32f3x0_hal_usrt.c ****     if(ENABLE == p_init->rx_fifo_en) {
 396              		.loc 1 207 24 discriminator 2
 397 0098 7B68     		ldr	r3, [r7, #4]
 398 009a 1B7D     		ldrb	r3, [r3, #20]	@ zero_extendqisi2
 399              		.loc 1 207 7 discriminator 2
 400 009c 012B     		cmp	r3, #1
 401 009e 08D1     		bne	.L17
 208:../firmware/gd32f3x0_hal_peripheral/Source/gd32f3x0_hal_usrt.c ****         USART_RFCS(periph) |= USART_RFCS_RFEN;
 402              		.loc 1 208 28
 403 00a0 BB68     		ldr	r3, [r7, #8]
 404 00a2 D033     		adds	r3, r3, #208
 405 00a4 1B68     		ldr	r3, [r3]
 406 00a6 BA68     		ldr	r2, [r7, #8]
 407 00a8 D032     		adds	r2, r2, #208
 408 00aa 43F48073 		orr	r3, r3, #256
 409 00ae 1360     		str	r3, [r2]
 410 00b0 07E0     		b	.L18
 411              	.L17:
 209:../firmware/gd32f3x0_hal_peripheral/Source/gd32f3x0_hal_usrt.c ****     } else {
 210:../firmware/gd32f3x0_hal_peripheral/Source/gd32f3x0_hal_usrt.c ****         USART_RFCS(periph) &= ~USART_RFCS_RFEN;
 412              		.loc 1 210 28
 413 00b2 BB68     		ldr	r3, [r7, #8]
 414 00b4 D033     		adds	r3, r3, #208
 415 00b6 1B68     		ldr	r3, [r3]
 416 00b8 BA68     		ldr	r2, [r7, #8]
 417 00ba D032     		adds	r2, r2, #208
 418 00bc 23F48073 		bic	r3, r3, #256
 419 00c0 1360     		str	r3, [r2]
 420              	.L18:
 211:../firmware/gd32f3x0_hal_peripheral/Source/gd32f3x0_hal_usrt.c ****     }
 212:../firmware/gd32f3x0_hal_peripheral/Source/gd32f3x0_hal_usrt.c **** 
 213:../firmware/gd32f3x0_hal_peripheral/Source/gd32f3x0_hal_usrt.c ****     /* configure baudrate */
 214:../firmware/gd32f3x0_hal_peripheral/Source/gd32f3x0_hal_usrt.c ****     hals_usrt_baudrate_set(periph, p_init->baudrate);
 421              		.loc 1 214 5
 422 00c2 7B68     		ldr	r3, [r7, #4]
 423 00c4 1B68     		ldr	r3, [r3]
 424 00c6 1946     		mov	r1, r3
 425 00c8 B868     		ldr	r0, [r7, #8]
 426 00ca FFF7FEFF 		bl	hals_usrt_baudrate_set
 215:../firmware/gd32f3x0_hal_peripheral/Source/gd32f3x0_hal_usrt.c ****     usrt->data_bit_mask = _usrt_data_bit_mask_get(usrt);
 427              		.loc 1 215 27
 428 00ce F868     		ldr	r0, [r7, #12]
 429 00d0 FFF7FEFF 		bl	_usrt_data_bit_mask_get
 430 00d4 0346     		mov	r3, r0
 431 00d6 1A46     		mov	r2, r3
 432              		.loc 1 215 25
 433 00d8 FB68     		ldr	r3, [r7, #12]
 434 00da 9A86     		strh	r2, [r3, #52]	@ movhi
 216:../firmware/gd32f3x0_hal_peripheral/Source/gd32f3x0_hal_usrt.c **** 
 217:../firmware/gd32f3x0_hal_peripheral/Source/gd32f3x0_hal_usrt.c ****     /* reset the Rx and Tx state */
 218:../firmware/gd32f3x0_hal_peripheral/Source/gd32f3x0_hal_usrt.c ****     usrt->tx_state = USRT_STATE_FREE;
 435              		.loc 1 218 20
 436 00dc FB68     		ldr	r3, [r7, #12]
 437 00de 0022     		movs	r2, #0
 438 00e0 83F83A20 		strb	r2, [r3, #58]
 219:../firmware/gd32f3x0_hal_peripheral/Source/gd32f3x0_hal_usrt.c ****     usrt->rx_state = USRT_STATE_FREE;
 439              		.loc 1 219 20
 440 00e4 FB68     		ldr	r3, [r7, #12]
 441 00e6 0022     		movs	r2, #0
 442 00e8 83F83B20 		strb	r2, [r3, #59]
 220:../firmware/gd32f3x0_hal_peripheral/Source/gd32f3x0_hal_usrt.c **** 
 221:../firmware/gd32f3x0_hal_peripheral/Source/gd32f3x0_hal_usrt.c ****     /* enable usart */
 222:../firmware/gd32f3x0_hal_peripheral/Source/gd32f3x0_hal_usrt.c ****     hals_usrt_enable(usrt->periph);
 443              		.loc 1 222 5
 444 00ec FB68     		ldr	r3, [r7, #12]
 445 00ee 1B68     		ldr	r3, [r3]
 446 00f0 1846     		mov	r0, r3
 447 00f2 FFF7FEFF 		bl	hals_usrt_enable
 223:../firmware/gd32f3x0_hal_peripheral/Source/gd32f3x0_hal_usrt.c **** 
 224:../firmware/gd32f3x0_hal_peripheral/Source/gd32f3x0_hal_usrt.c ****     /* unlock usrt */
 225:../firmware/gd32f3x0_hal_peripheral/Source/gd32f3x0_hal_usrt.c ****     HAL_UNLOCK(usrt);
 448              		.loc 1 225 5
 449 00f6 FB68     		ldr	r3, [r7, #12]
 450 00f8 0022     		movs	r2, #0
 451 00fa 83F84420 		strb	r2, [r3, #68]
 226:../firmware/gd32f3x0_hal_peripheral/Source/gd32f3x0_hal_usrt.c **** 
 227:../firmware/gd32f3x0_hal_peripheral/Source/gd32f3x0_hal_usrt.c ****     return HAL_ERR_NONE;
 452              		.loc 1 227 12
 453 00fe 0023     		movs	r3, #0
 454              	.L16:
 228:../firmware/gd32f3x0_hal_peripheral/Source/gd32f3x0_hal_usrt.c **** }
 455              		.loc 1 228 1
 456 0100 1846     		mov	r0, r3
 457 0102 1837     		adds	r7, r7, #24
 458              		.cfi_def_cfa_offset 8
 459 0104 BD46     		mov	sp, r7
 460              		.cfi_def_cfa_register 13
 461              		@ sp needed
 462 0106 80BD     		pop	{r7, pc}
 463              		.cfi_endproc
 464              	.LFE121:
 466              		.section	.text.hal_usrt_irq,"ax",%progbits
 467              		.align	1
 468              		.global	hal_usrt_irq
 469              		.syntax unified
 470              		.thumb
 471              		.thumb_func
 472              		.fpu softvfp
 474              	hal_usrt_irq:
 475              	.LFB122:
 229:../firmware/gd32f3x0_hal_peripheral/Source/gd32f3x0_hal_usrt.c **** 
 230:../firmware/gd32f3x0_hal_peripheral/Source/gd32f3x0_hal_usrt.c **** /*!
 231:../firmware/gd32f3x0_hal_peripheral/Source/gd32f3x0_hal_usrt.c ****     \brief      usrt interrupt handler content function,which is merely used in usrt_handler
 232:../firmware/gd32f3x0_hal_peripheral/Source/gd32f3x0_hal_usrt.c ****     \param[in]  usrt: usrt device information structure
 233:../firmware/gd32f3x0_hal_peripheral/Source/gd32f3x0_hal_usrt.c ****                     the structure is not necessary to be reconfigured after structrue initializatio
 234:../firmware/gd32f3x0_hal_peripheral/Source/gd32f3x0_hal_usrt.c ****                     the structure parameters altering is automatically configured by core
 235:../firmware/gd32f3x0_hal_peripheral/Source/gd32f3x0_hal_usrt.c ****     \param[out] none
 236:../firmware/gd32f3x0_hal_peripheral/Source/gd32f3x0_hal_usrt.c ****     \retval     none
 237:../firmware/gd32f3x0_hal_peripheral/Source/gd32f3x0_hal_usrt.c **** */
 238:../firmware/gd32f3x0_hal_peripheral/Source/gd32f3x0_hal_usrt.c **** void hal_usrt_irq(hal_usrt_dev_struct *usrt)
 239:../firmware/gd32f3x0_hal_peripheral/Source/gd32f3x0_hal_usrt.c **** {
 476              		.loc 1 239 1
 477              		.cfi_startproc
 478              		@ args = 0, pretend = 0, frame = 8
 479              		@ frame_needed = 1, uses_anonymous_args = 0
 480 0000 80B5     		push	{r7, lr}
 481              		.cfi_def_cfa_offset 8
 482              		.cfi_offset 7, -8
 483              		.cfi_offset 14, -4
 484 0002 82B0     		sub	sp, sp, #8
 485              		.cfi_def_cfa_offset 16
 486 0004 00AF     		add	r7, sp, #0
 487              		.cfi_def_cfa_register 7
 488 0006 7860     		str	r0, [r7, #4]
 240:../firmware/gd32f3x0_hal_peripheral/Source/gd32f3x0_hal_usrt.c ****     if(RESET == _usrt_error_flag_get(usrt)) {
 489              		.loc 1 240 17
 490 0008 7868     		ldr	r0, [r7, #4]
 491 000a FFF7FEFF 		bl	_usrt_error_flag_get
 492 000e 0346     		mov	r3, r0
 493              		.loc 1 240 7
 494 0010 002B     		cmp	r3, #0
 495 0012 13D1     		bne	.L20
 241:../firmware/gd32f3x0_hal_peripheral/Source/gd32f3x0_hal_usrt.c ****         /* check whether USRT is in receiver mode or not */
 242:../firmware/gd32f3x0_hal_peripheral/Source/gd32f3x0_hal_usrt.c ****         if(RESET != hals_usrt_interrupt_flag_get(usrt->periph, USART_INT_FLAG_RBNE)) {
 496              		.loc 1 242 21
 497 0014 7B68     		ldr	r3, [r7, #4]
 498 0016 1B68     		ldr	r3, [r3]
 499 0018 6C49     		ldr	r1, .L37
 500 001a 1846     		mov	r0, r3
 501 001c FFF7FEFF 		bl	hals_usrt_interrupt_flag_get
 502 0020 0346     		mov	r3, r0
 503              		.loc 1 242 11
 504 0022 002B     		cmp	r3, #0
 505 0024 00F09D80 		beq	.L21
 243:../firmware/gd32f3x0_hal_peripheral/Source/gd32f3x0_hal_usrt.c ****             if(NULL != usrt->usrt_irq.receive_complete_handle) {
 506              		.loc 1 243 38
 507 0028 7B68     		ldr	r3, [r7, #4]
 508 002a 5B68     		ldr	r3, [r3, #4]
 509              		.loc 1 243 15
 510 002c 002B     		cmp	r3, #0
 511 002e 00F0C280 		beq	.L33
 244:../firmware/gd32f3x0_hal_peripheral/Source/gd32f3x0_hal_usrt.c ****                 usrt->usrt_irq.receive_complete_handle(usrt);
 512              		.loc 1 244 31
 513 0032 7B68     		ldr	r3, [r7, #4]
 514 0034 5B68     		ldr	r3, [r3, #4]
 515              		.loc 1 244 17
 516 0036 7868     		ldr	r0, [r7, #4]
 517 0038 9847     		blx	r3
 518              	.LVL0:
 245:../firmware/gd32f3x0_hal_peripheral/Source/gd32f3x0_hal_usrt.c ****             }
 246:../firmware/gd32f3x0_hal_peripheral/Source/gd32f3x0_hal_usrt.c ****             return;
 519              		.loc 1 246 13
 520 003a BCE0     		b	.L33
 521              	.L20:
 247:../firmware/gd32f3x0_hal_peripheral/Source/gd32f3x0_hal_usrt.c ****         }
 248:../firmware/gd32f3x0_hal_peripheral/Source/gd32f3x0_hal_usrt.c ****     } else {
 249:../firmware/gd32f3x0_hal_peripheral/Source/gd32f3x0_hal_usrt.c ****         /* check whether the PERR flag is set or not */
 250:../firmware/gd32f3x0_hal_peripheral/Source/gd32f3x0_hal_usrt.c ****         if(RESET != hals_usrt_interrupt_flag_get(usrt->periph, USART_INT_FLAG_PERR)) {
 522              		.loc 1 250 21
 523 003c 7B68     		ldr	r3, [r7, #4]
 524 003e 1B68     		ldr	r3, [r3]
 525 0040 6349     		ldr	r1, .L37+4
 526 0042 1846     		mov	r0, r3
 527 0044 FFF7FEFF 		bl	hals_usrt_interrupt_flag_get
 528 0048 0346     		mov	r3, r0
 529              		.loc 1 250 11
 530 004a 002B     		cmp	r3, #0
 531 004c 10D0     		beq	.L24
 251:../firmware/gd32f3x0_hal_peripheral/Source/gd32f3x0_hal_usrt.c ****             hals_usrt_interrupt_flag_clear(usrt->periph, USART_INT_FLAG_PERR);
 532              		.loc 1 251 13
 533 004e 7B68     		ldr	r3, [r7, #4]
 534 0050 1B68     		ldr	r3, [r3]
 535 0052 5F49     		ldr	r1, .L37+4
 536 0054 1846     		mov	r0, r3
 537 0056 FFF7FEFF 		bl	hals_usrt_interrupt_flag_clear
 252:../firmware/gd32f3x0_hal_peripheral/Source/gd32f3x0_hal_usrt.c ****             usrt->error_state |= HAL_USRT_ERROR_PERR;
 538              		.loc 1 252 31
 539 005a 7B68     		ldr	r3, [r7, #4]
 540 005c 1B8F     		ldrh	r3, [r3, #56]	@ movhi
 541 005e 9BB2     		uxth	r3, r3
 542 0060 43F00103 		orr	r3, r3, #1
 543 0064 9AB2     		uxth	r2, r3
 544 0066 7B68     		ldr	r3, [r7, #4]
 545 0068 1A87     		strh	r2, [r3, #56]	@ movhi
 253:../firmware/gd32f3x0_hal_peripheral/Source/gd32f3x0_hal_usrt.c ****             usrt->last_error = HAL_USRT_ERROR_PERR;
 546              		.loc 1 253 30
 547 006a 7B68     		ldr	r3, [r7, #4]
 548 006c 0122     		movs	r2, #1
 549 006e DA86     		strh	r2, [r3, #54]	@ movhi
 550              	.L24:
 254:../firmware/gd32f3x0_hal_peripheral/Source/gd32f3x0_hal_usrt.c ****         }
 255:../firmware/gd32f3x0_hal_peripheral/Source/gd32f3x0_hal_usrt.c **** 
 256:../firmware/gd32f3x0_hal_peripheral/Source/gd32f3x0_hal_usrt.c ****         /* check whether the NERR flag is set or not */
 257:../firmware/gd32f3x0_hal_peripheral/Source/gd32f3x0_hal_usrt.c ****         if(RESET != hals_usrt_interrupt_flag_get(usrt->periph,
 551              		.loc 1 257 21
 552 0070 7B68     		ldr	r3, [r7, #4]
 553 0072 1B68     		ldr	r3, [r3]
 554 0074 5749     		ldr	r1, .L37+8
 555 0076 1846     		mov	r0, r3
 556 0078 FFF7FEFF 		bl	hals_usrt_interrupt_flag_get
 557 007c 0346     		mov	r3, r0
 558              		.loc 1 257 11
 559 007e 002B     		cmp	r3, #0
 560 0080 10D0     		beq	.L25
 258:../firmware/gd32f3x0_hal_peripheral/Source/gd32f3x0_hal_usrt.c ****                 USART_INT_FLAG_ERR_NERR)) {
 259:../firmware/gd32f3x0_hal_peripheral/Source/gd32f3x0_hal_usrt.c ****             hals_usrt_interrupt_flag_clear(usrt->periph, USART_INT_FLAG_ERR_NERR);
 561              		.loc 1 259 13
 562 0082 7B68     		ldr	r3, [r7, #4]
 563 0084 1B68     		ldr	r3, [r3]
 564 0086 5349     		ldr	r1, .L37+8
 565 0088 1846     		mov	r0, r3
 566 008a FFF7FEFF 		bl	hals_usrt_interrupt_flag_clear
 260:../firmware/gd32f3x0_hal_peripheral/Source/gd32f3x0_hal_usrt.c ****             usrt->error_state |= HAL_USRT_ERROR_NERR;
 567              		.loc 1 260 31
 568 008e 7B68     		ldr	r3, [r7, #4]
 569 0090 1B8F     		ldrh	r3, [r3, #56]	@ movhi
 570 0092 9BB2     		uxth	r3, r3
 571 0094 43F00203 		orr	r3, r3, #2
 572 0098 9AB2     		uxth	r2, r3
 573 009a 7B68     		ldr	r3, [r7, #4]
 574 009c 1A87     		strh	r2, [r3, #56]	@ movhi
 261:../firmware/gd32f3x0_hal_peripheral/Source/gd32f3x0_hal_usrt.c ****             usrt->last_error = HAL_USRT_ERROR_NERR;
 575              		.loc 1 261 30
 576 009e 7B68     		ldr	r3, [r7, #4]
 577 00a0 0222     		movs	r2, #2
 578 00a2 DA86     		strh	r2, [r3, #54]	@ movhi
 579              	.L25:
 262:../firmware/gd32f3x0_hal_peripheral/Source/gd32f3x0_hal_usrt.c ****         }
 263:../firmware/gd32f3x0_hal_peripheral/Source/gd32f3x0_hal_usrt.c **** 
 264:../firmware/gd32f3x0_hal_peripheral/Source/gd32f3x0_hal_usrt.c ****         /* check whether the FERR flag is set or not */
 265:../firmware/gd32f3x0_hal_peripheral/Source/gd32f3x0_hal_usrt.c ****         if(RESET != hals_usrt_interrupt_flag_get(usrt->periph,
 580              		.loc 1 265 21
 581 00a4 7B68     		ldr	r3, [r7, #4]
 582 00a6 1B68     		ldr	r3, [r3]
 583 00a8 4B49     		ldr	r1, .L37+12
 584 00aa 1846     		mov	r0, r3
 585 00ac FFF7FEFF 		bl	hals_usrt_interrupt_flag_get
 586 00b0 0346     		mov	r3, r0
 587              		.loc 1 265 11
 588 00b2 002B     		cmp	r3, #0
 589 00b4 10D0     		beq	.L26
 266:../firmware/gd32f3x0_hal_peripheral/Source/gd32f3x0_hal_usrt.c ****                 USART_INT_FLAG_ERR_FERR)) {
 267:../firmware/gd32f3x0_hal_peripheral/Source/gd32f3x0_hal_usrt.c ****             hals_usrt_interrupt_flag_clear(usrt->periph, USART_INT_FLAG_ERR_FERR);
 590              		.loc 1 267 13
 591 00b6 7B68     		ldr	r3, [r7, #4]
 592 00b8 1B68     		ldr	r3, [r3]
 593 00ba 4749     		ldr	r1, .L37+12
 594 00bc 1846     		mov	r0, r3
 595 00be FFF7FEFF 		bl	hals_usrt_interrupt_flag_clear
 268:../firmware/gd32f3x0_hal_peripheral/Source/gd32f3x0_hal_usrt.c ****             usrt->error_state |= HAL_USRT_ERROR_FERR;
 596              		.loc 1 268 31
 597 00c2 7B68     		ldr	r3, [r7, #4]
 598 00c4 1B8F     		ldrh	r3, [r3, #56]	@ movhi
 599 00c6 9BB2     		uxth	r3, r3
 600 00c8 43F00403 		orr	r3, r3, #4
 601 00cc 9AB2     		uxth	r2, r3
 602 00ce 7B68     		ldr	r3, [r7, #4]
 603 00d0 1A87     		strh	r2, [r3, #56]	@ movhi
 269:../firmware/gd32f3x0_hal_peripheral/Source/gd32f3x0_hal_usrt.c ****             usrt->last_error = HAL_USRT_ERROR_FERR;
 604              		.loc 1 269 30
 605 00d2 7B68     		ldr	r3, [r7, #4]
 606 00d4 0422     		movs	r2, #4
 607 00d6 DA86     		strh	r2, [r3, #54]	@ movhi
 608              	.L26:
 270:../firmware/gd32f3x0_hal_peripheral/Source/gd32f3x0_hal_usrt.c ****         }
 271:../firmware/gd32f3x0_hal_peripheral/Source/gd32f3x0_hal_usrt.c **** 
 272:../firmware/gd32f3x0_hal_peripheral/Source/gd32f3x0_hal_usrt.c ****         /* check whether the ERR ORERR is set or not */
 273:../firmware/gd32f3x0_hal_peripheral/Source/gd32f3x0_hal_usrt.c ****         if(RESET != hals_usrt_interrupt_flag_get(usrt->periph,
 609              		.loc 1 273 21
 610 00d8 7B68     		ldr	r3, [r7, #4]
 611 00da 1B68     		ldr	r3, [r3]
 612 00dc 3F49     		ldr	r1, .L37+16
 613 00de 1846     		mov	r0, r3
 614 00e0 FFF7FEFF 		bl	hals_usrt_interrupt_flag_get
 615 00e4 0346     		mov	r3, r0
 616              		.loc 1 273 11
 617 00e6 002B     		cmp	r3, #0
 618 00e8 10D0     		beq	.L27
 274:../firmware/gd32f3x0_hal_peripheral/Source/gd32f3x0_hal_usrt.c ****                 USART_INT_FLAG_ERR_ORERR)) {
 275:../firmware/gd32f3x0_hal_peripheral/Source/gd32f3x0_hal_usrt.c ****             hals_usrt_interrupt_flag_clear(usrt->periph, USART_INT_FLAG_ERR_ORERR);
 619              		.loc 1 275 13
 620 00ea 7B68     		ldr	r3, [r7, #4]
 621 00ec 1B68     		ldr	r3, [r3]
 622 00ee 3B49     		ldr	r1, .L37+16
 623 00f0 1846     		mov	r0, r3
 624 00f2 FFF7FEFF 		bl	hals_usrt_interrupt_flag_clear
 276:../firmware/gd32f3x0_hal_peripheral/Source/gd32f3x0_hal_usrt.c ****             usrt->error_state |= HAL_USRT_ERROR_ORERR;
 625              		.loc 1 276 31
 626 00f6 7B68     		ldr	r3, [r7, #4]
 627 00f8 1B8F     		ldrh	r3, [r3, #56]	@ movhi
 628 00fa 9BB2     		uxth	r3, r3
 629 00fc 43F00803 		orr	r3, r3, #8
 630 0100 9AB2     		uxth	r2, r3
 631 0102 7B68     		ldr	r3, [r7, #4]
 632 0104 1A87     		strh	r2, [r3, #56]	@ movhi
 277:../firmware/gd32f3x0_hal_peripheral/Source/gd32f3x0_hal_usrt.c ****             usrt->last_error = HAL_USRT_ERROR_ORERR;
 633              		.loc 1 277 30
 634 0106 7B68     		ldr	r3, [r7, #4]
 635 0108 0822     		movs	r2, #8
 636 010a DA86     		strh	r2, [r3, #54]	@ movhi
 637              	.L27:
 278:../firmware/gd32f3x0_hal_peripheral/Source/gd32f3x0_hal_usrt.c ****         }
 279:../firmware/gd32f3x0_hal_peripheral/Source/gd32f3x0_hal_usrt.c **** 
 280:../firmware/gd32f3x0_hal_peripheral/Source/gd32f3x0_hal_usrt.c ****         /* check whether RBNE ORERR is set or not */
 281:../firmware/gd32f3x0_hal_peripheral/Source/gd32f3x0_hal_usrt.c ****         if(RESET != hals_usrt_interrupt_flag_get(usrt->periph,
 638              		.loc 1 281 21
 639 010c 7B68     		ldr	r3, [r7, #4]
 640 010e 1B68     		ldr	r3, [r3]
 641 0110 3349     		ldr	r1, .L37+20
 642 0112 1846     		mov	r0, r3
 643 0114 FFF7FEFF 		bl	hals_usrt_interrupt_flag_get
 644 0118 0346     		mov	r3, r0
 645              		.loc 1 281 11
 646 011a 002B     		cmp	r3, #0
 647 011c 10D0     		beq	.L28
 282:../firmware/gd32f3x0_hal_peripheral/Source/gd32f3x0_hal_usrt.c ****                 USART_INT_FLAG_RBNE_ORERR)) {
 283:../firmware/gd32f3x0_hal_peripheral/Source/gd32f3x0_hal_usrt.c ****             hals_usrt_interrupt_flag_clear(usrt->periph, USART_INT_FLAG_RBNE_ORERR);
 648              		.loc 1 283 13
 649 011e 7B68     		ldr	r3, [r7, #4]
 650 0120 1B68     		ldr	r3, [r3]
 651 0122 2F49     		ldr	r1, .L37+20
 652 0124 1846     		mov	r0, r3
 653 0126 FFF7FEFF 		bl	hals_usrt_interrupt_flag_clear
 284:../firmware/gd32f3x0_hal_peripheral/Source/gd32f3x0_hal_usrt.c ****             usrt->error_state |= HAL_USRT_ERROR_ORERR;
 654              		.loc 1 284 31
 655 012a 7B68     		ldr	r3, [r7, #4]
 656 012c 1B8F     		ldrh	r3, [r3, #56]	@ movhi
 657 012e 9BB2     		uxth	r3, r3
 658 0130 43F00803 		orr	r3, r3, #8
 659 0134 9AB2     		uxth	r2, r3
 660 0136 7B68     		ldr	r3, [r7, #4]
 661 0138 1A87     		strh	r2, [r3, #56]	@ movhi
 285:../firmware/gd32f3x0_hal_peripheral/Source/gd32f3x0_hal_usrt.c ****             usrt->last_error = HAL_USRT_ERROR_ORERR;
 662              		.loc 1 285 30
 663 013a 7B68     		ldr	r3, [r7, #4]
 664 013c 0822     		movs	r2, #8
 665 013e DA86     		strh	r2, [r3, #54]	@ movhi
 666              	.L28:
 286:../firmware/gd32f3x0_hal_peripheral/Source/gd32f3x0_hal_usrt.c ****         }
 287:../firmware/gd32f3x0_hal_peripheral/Source/gd32f3x0_hal_usrt.c **** 
 288:../firmware/gd32f3x0_hal_peripheral/Source/gd32f3x0_hal_usrt.c ****         /* check whether error state is none or not */
 289:../firmware/gd32f3x0_hal_peripheral/Source/gd32f3x0_hal_usrt.c ****         if(HAL_USRT_ERROR_NONE != usrt->error_state) {
 667              		.loc 1 289 39
 668 0140 7B68     		ldr	r3, [r7, #4]
 669 0142 1B8F     		ldrh	r3, [r3, #56]	@ movhi
 670 0144 9BB2     		uxth	r3, r3
 671              		.loc 1 289 11
 672 0146 002B     		cmp	r3, #0
 673 0148 0BD0     		beq	.L21
 290:../firmware/gd32f3x0_hal_peripheral/Source/gd32f3x0_hal_usrt.c ****             if(NULL != usrt->usrt_irq.error_handle) {
 674              		.loc 1 290 38
 675 014a 7B68     		ldr	r3, [r7, #4]
 676 014c 1B69     		ldr	r3, [r3, #16]
 677              		.loc 1 290 15
 678 014e 002B     		cmp	r3, #0
 679 0150 33D0     		beq	.L34
 291:../firmware/gd32f3x0_hal_peripheral/Source/gd32f3x0_hal_usrt.c ****                 usrt->usrt_irq.error_handle(usrt);
 680              		.loc 1 291 31
 681 0152 7B68     		ldr	r3, [r7, #4]
 682 0154 1B69     		ldr	r3, [r3, #16]
 683              		.loc 1 291 17
 684 0156 7868     		ldr	r0, [r7, #4]
 685 0158 9847     		blx	r3
 686              	.LVL1:
 292:../firmware/gd32f3x0_hal_peripheral/Source/gd32f3x0_hal_usrt.c ****                 usrt->error_state = HAL_USRT_ERROR_NONE;
 687              		.loc 1 292 35
 688 015a 7B68     		ldr	r3, [r7, #4]
 689 015c 0022     		movs	r2, #0
 690 015e 1A87     		strh	r2, [r3, #56]	@ movhi
 293:../firmware/gd32f3x0_hal_peripheral/Source/gd32f3x0_hal_usrt.c ****             }
 294:../firmware/gd32f3x0_hal_peripheral/Source/gd32f3x0_hal_usrt.c ****             return;
 691              		.loc 1 294 13
 692 0160 2BE0     		b	.L34
 693              	.L21:
 295:../firmware/gd32f3x0_hal_peripheral/Source/gd32f3x0_hal_usrt.c ****         }
 296:../firmware/gd32f3x0_hal_peripheral/Source/gd32f3x0_hal_usrt.c ****     }
 297:../firmware/gd32f3x0_hal_peripheral/Source/gd32f3x0_hal_usrt.c **** 
 298:../firmware/gd32f3x0_hal_peripheral/Source/gd32f3x0_hal_usrt.c ****     /* transmitter buffer empty interrupt handle */
 299:../firmware/gd32f3x0_hal_peripheral/Source/gd32f3x0_hal_usrt.c ****     if(RESET != hals_usrt_interrupt_flag_get(usrt->periph, USART_INT_FLAG_TBE)) {
 694              		.loc 1 299 17
 695 0162 7B68     		ldr	r3, [r7, #4]
 696 0164 1B68     		ldr	r3, [r3]
 697 0166 1F49     		ldr	r1, .L37+24
 698 0168 1846     		mov	r0, r3
 699 016a FFF7FEFF 		bl	hals_usrt_interrupt_flag_get
 700 016e 0346     		mov	r3, r0
 701              		.loc 1 299 7
 702 0170 002B     		cmp	r3, #0
 703 0172 08D0     		beq	.L30
 300:../firmware/gd32f3x0_hal_peripheral/Source/gd32f3x0_hal_usrt.c ****         if(NULL != usrt->usrt_irq.transmit_ready_handle) {
 704              		.loc 1 300 34
 705 0174 7B68     		ldr	r3, [r7, #4]
 706 0176 9B68     		ldr	r3, [r3, #8]
 707              		.loc 1 300 11
 708 0178 002B     		cmp	r3, #0
 709 017a 20D0     		beq	.L35
 301:../firmware/gd32f3x0_hal_peripheral/Source/gd32f3x0_hal_usrt.c ****             usrt->usrt_irq.transmit_ready_handle(usrt);
 710              		.loc 1 301 27
 711 017c 7B68     		ldr	r3, [r7, #4]
 712 017e 9B68     		ldr	r3, [r3, #8]
 713              		.loc 1 301 13
 714 0180 7868     		ldr	r0, [r7, #4]
 715 0182 9847     		blx	r3
 716              	.LVL2:
 302:../firmware/gd32f3x0_hal_peripheral/Source/gd32f3x0_hal_usrt.c ****         }
 303:../firmware/gd32f3x0_hal_peripheral/Source/gd32f3x0_hal_usrt.c ****         return;
 717              		.loc 1 303 9
 718 0184 1BE0     		b	.L35
 719              	.L30:
 304:../firmware/gd32f3x0_hal_peripheral/Source/gd32f3x0_hal_usrt.c ****     }
 305:../firmware/gd32f3x0_hal_peripheral/Source/gd32f3x0_hal_usrt.c **** 
 306:../firmware/gd32f3x0_hal_peripheral/Source/gd32f3x0_hal_usrt.c ****     /* transmission complete interrupt handle */
 307:../firmware/gd32f3x0_hal_peripheral/Source/gd32f3x0_hal_usrt.c ****     if(RESET != hals_usrt_interrupt_flag_get(usrt->periph, USART_INT_FLAG_TC)) {
 720              		.loc 1 307 17
 721 0186 7B68     		ldr	r3, [r7, #4]
 722 0188 1B68     		ldr	r3, [r3]
 723 018a 1749     		ldr	r1, .L37+28
 724 018c 1846     		mov	r0, r3
 725 018e FFF7FEFF 		bl	hals_usrt_interrupt_flag_get
 726 0192 0346     		mov	r3, r0
 727              		.loc 1 307 7
 728 0194 002B     		cmp	r3, #0
 729 0196 15D0     		beq	.L19
 308:../firmware/gd32f3x0_hal_peripheral/Source/gd32f3x0_hal_usrt.c ****         hals_usrt_interrupt_flag_clear(usrt->periph, USART_INT_FLAG_TC);
 730              		.loc 1 308 9
 731 0198 7B68     		ldr	r3, [r7, #4]
 732 019a 1B68     		ldr	r3, [r3]
 733 019c 1249     		ldr	r1, .L37+28
 734 019e 1846     		mov	r0, r3
 735 01a0 FFF7FEFF 		bl	hals_usrt_interrupt_flag_clear
 309:../firmware/gd32f3x0_hal_peripheral/Source/gd32f3x0_hal_usrt.c **** 
 310:../firmware/gd32f3x0_hal_peripheral/Source/gd32f3x0_hal_usrt.c ****         if(NULL != usrt->usrt_irq.transmit_complete_handle) {
 736              		.loc 1 310 34
 737 01a4 7B68     		ldr	r3, [r7, #4]
 738 01a6 DB68     		ldr	r3, [r3, #12]
 739              		.loc 1 310 11
 740 01a8 002B     		cmp	r3, #0
 741 01aa 0AD0     		beq	.L36
 311:../firmware/gd32f3x0_hal_peripheral/Source/gd32f3x0_hal_usrt.c ****             usrt->usrt_irq.transmit_complete_handle(usrt);
 742              		.loc 1 311 27
 743 01ac 7B68     		ldr	r3, [r7, #4]
 744 01ae DB68     		ldr	r3, [r3, #12]
 745              		.loc 1 311 13
 746 01b0 7868     		ldr	r0, [r7, #4]
 747 01b2 9847     		blx	r3
 748              	.LVL3:
 312:../firmware/gd32f3x0_hal_peripheral/Source/gd32f3x0_hal_usrt.c ****         }
 313:../firmware/gd32f3x0_hal_peripheral/Source/gd32f3x0_hal_usrt.c ****         return;
 749              		.loc 1 313 9
 750 01b4 05E0     		b	.L36
 751              	.L33:
 246:../firmware/gd32f3x0_hal_peripheral/Source/gd32f3x0_hal_usrt.c ****         }
 752              		.loc 1 246 13
 753 01b6 00BF     		nop
 754 01b8 04E0     		b	.L19
 755              	.L34:
 294:../firmware/gd32f3x0_hal_peripheral/Source/gd32f3x0_hal_usrt.c ****         }
 756              		.loc 1 294 13
 757 01ba 00BF     		nop
 758 01bc 02E0     		b	.L19
 759              	.L35:
 303:../firmware/gd32f3x0_hal_peripheral/Source/gd32f3x0_hal_usrt.c ****     }
 760              		.loc 1 303 9
 761 01be 00BF     		nop
 762 01c0 00E0     		b	.L19
 763              	.L36:
 764              		.loc 1 313 9
 765 01c2 00BF     		nop
 766              	.L19:
 314:../firmware/gd32f3x0_hal_peripheral/Source/gd32f3x0_hal_usrt.c ****     }
 315:../firmware/gd32f3x0_hal_peripheral/Source/gd32f3x0_hal_usrt.c **** }
 767              		.loc 1 315 1
 768 01c4 0837     		adds	r7, r7, #8
 769              		.cfi_def_cfa_offset 8
 770 01c6 BD46     		mov	sp, r7
 771              		.cfi_def_cfa_register 13
 772              		@ sp needed
 773 01c8 80BD     		pop	{r7, pc}
 774              	.L38:
 775 01ca 00BF     		.align	2
 776              	.L37:
 777 01cc 05000507 		.word	117768197
 778 01d0 08000007 		.word	117440520
 779 01d4 00020207 		.word	117572096
 780 01d8 00020107 		.word	117506560
 781 01dc 00020307 		.word	117637632
 782 01e0 05000307 		.word	117637125
 783 01e4 07000707 		.word	117899271
 784 01e8 06000607 		.word	117833734
 785              		.cfi_endproc
 786              	.LFE122:
 788              		.section	.text.hal_usrt_irq_handle_set,"ax",%progbits
 789              		.align	1
 790              		.global	hal_usrt_irq_handle_set
 791              		.syntax unified
 792              		.thumb
 793              		.thumb_func
 794              		.fpu softvfp
 796              	hal_usrt_irq_handle_set:
 797              	.LFB123:
 316:../firmware/gd32f3x0_hal_peripheral/Source/gd32f3x0_hal_usrt.c **** 
 317:../firmware/gd32f3x0_hal_peripheral/Source/gd32f3x0_hal_usrt.c **** /*!
 318:../firmware/gd32f3x0_hal_peripheral/Source/gd32f3x0_hal_usrt.c ****     \brief      set user-defined interrupt callback function,
 319:../firmware/gd32f3x0_hal_peripheral/Source/gd32f3x0_hal_usrt.c ****                 which will be registered and called when corresponding interrupt be triggered
 320:../firmware/gd32f3x0_hal_peripheral/Source/gd32f3x0_hal_usrt.c ****     \param[in]  usrt: usrt device information structrue
 321:../firmware/gd32f3x0_hal_peripheral/Source/gd32f3x0_hal_usrt.c ****                   the structure is not necessary to be reconfigured after structrue initialization,
 322:../firmware/gd32f3x0_hal_peripheral/Source/gd32f3x0_hal_usrt.c ****                   the structure parameters altering is automatically configured by core
 323:../firmware/gd32f3x0_hal_peripheral/Source/gd32f3x0_hal_usrt.c ****     \param[in]  p_irq: point to usrt interrupt callback functions structure
 324:../firmware/gd32f3x0_hal_peripheral/Source/gd32f3x0_hal_usrt.c ****                   The structure member can be assigned as following parameters:
 325:../firmware/gd32f3x0_hal_peripheral/Source/gd32f3x0_hal_usrt.c ****       \arg        hal_irq_handle_cb function pointer: the function is user-defined,
 326:../firmware/gd32f3x0_hal_peripheral/Source/gd32f3x0_hal_usrt.c ****                     the corresponding callback mechanism is in use, and enable corresponding interr
 327:../firmware/gd32f3x0_hal_peripheral/Source/gd32f3x0_hal_usrt.c ****       \arg        NULL: The corresponding callback mechanism is out of use, and
 328:../firmware/gd32f3x0_hal_peripheral/Source/gd32f3x0_hal_usrt.c ****                     disable corresponding interrupt
 329:../firmware/gd32f3x0_hal_peripheral/Source/gd32f3x0_hal_usrt.c ****     \param[out] none
 330:../firmware/gd32f3x0_hal_peripheral/Source/gd32f3x0_hal_usrt.c ****     \retval     none
 331:../firmware/gd32f3x0_hal_peripheral/Source/gd32f3x0_hal_usrt.c **** */
 332:../firmware/gd32f3x0_hal_peripheral/Source/gd32f3x0_hal_usrt.c **** void hal_usrt_irq_handle_set(hal_usrt_dev_struct *usrt,
 333:../firmware/gd32f3x0_hal_peripheral/Source/gd32f3x0_hal_usrt.c ****                              hal_usrt_irq_struct *p_irq)
 334:../firmware/gd32f3x0_hal_peripheral/Source/gd32f3x0_hal_usrt.c **** {
 798              		.loc 1 334 1
 799              		.cfi_startproc
 800              		@ args = 0, pretend = 0, frame = 8
 801              		@ frame_needed = 1, uses_anonymous_args = 0
 802 0000 80B5     		push	{r7, lr}
 803              		.cfi_def_cfa_offset 8
 804              		.cfi_offset 7, -8
 805              		.cfi_offset 14, -4
 806 0002 82B0     		sub	sp, sp, #8
 807              		.cfi_def_cfa_offset 16
 808 0004 00AF     		add	r7, sp, #0
 809              		.cfi_def_cfa_register 7
 810 0006 7860     		str	r0, [r7, #4]
 811 0008 3960     		str	r1, [r7]
 335:../firmware/gd32f3x0_hal_peripheral/Source/gd32f3x0_hal_usrt.c ****     /* set user-defined error interrupt callback */
 336:../firmware/gd32f3x0_hal_peripheral/Source/gd32f3x0_hal_usrt.c ****     if(NULL != p_irq->error_handle) {
 812              		.loc 1 336 21
 813 000a 3B68     		ldr	r3, [r7]
 814 000c DB68     		ldr	r3, [r3, #12]
 815              		.loc 1 336 7
 816 000e 002B     		cmp	r3, #0
 817 0010 11D0     		beq	.L40
 337:../firmware/gd32f3x0_hal_peripheral/Source/gd32f3x0_hal_usrt.c ****         usrt->usrt_irq.error_handle = p_irq->error_handle;
 818              		.loc 1 337 44
 819 0012 3B68     		ldr	r3, [r7]
 820 0014 DA68     		ldr	r2, [r3, #12]
 821              		.loc 1 337 37
 822 0016 7B68     		ldr	r3, [r7, #4]
 823 0018 1A61     		str	r2, [r3, #16]
 338:../firmware/gd32f3x0_hal_peripheral/Source/gd32f3x0_hal_usrt.c ****         hals_usrt_interrupt_enable(usrt->periph, USART_INT_ERR);
 824              		.loc 1 338 9
 825 001a 7B68     		ldr	r3, [r7, #4]
 826 001c 1B68     		ldr	r3, [r3]
 827 001e 4FF40071 		mov	r1, #512
 828 0022 1846     		mov	r0, r3
 829 0024 FFF7FEFF 		bl	hals_usrt_interrupt_enable
 339:../firmware/gd32f3x0_hal_peripheral/Source/gd32f3x0_hal_usrt.c ****         hals_usrt_interrupt_enable(usrt->periph, USART_INT_PERR);
 830              		.loc 1 339 9
 831 0028 7B68     		ldr	r3, [r7, #4]
 832 002a 1B68     		ldr	r3, [r3]
 833 002c 0821     		movs	r1, #8
 834 002e 1846     		mov	r0, r3
 835 0030 FFF7FEFF 		bl	hals_usrt_interrupt_enable
 836 0034 0FE0     		b	.L41
 837              	.L40:
 340:../firmware/gd32f3x0_hal_peripheral/Source/gd32f3x0_hal_usrt.c ****     } else {
 341:../firmware/gd32f3x0_hal_peripheral/Source/gd32f3x0_hal_usrt.c ****         usrt->usrt_irq.error_handle = NULL;
 838              		.loc 1 341 37
 839 0036 7B68     		ldr	r3, [r7, #4]
 840 0038 0022     		movs	r2, #0
 841 003a 1A61     		str	r2, [r3, #16]
 342:../firmware/gd32f3x0_hal_peripheral/Source/gd32f3x0_hal_usrt.c ****         hals_usrt_interrupt_disable(usrt->periph, USART_INT_ERR);
 842              		.loc 1 342 9
 843 003c 7B68     		ldr	r3, [r7, #4]
 844 003e 1B68     		ldr	r3, [r3]
 845 0040 4FF40071 		mov	r1, #512
 846 0044 1846     		mov	r0, r3
 847 0046 FFF7FEFF 		bl	hals_usrt_interrupt_disable
 343:../firmware/gd32f3x0_hal_peripheral/Source/gd32f3x0_hal_usrt.c ****         hals_usrt_interrupt_disable(usrt->periph, USART_INT_PERR);
 848              		.loc 1 343 9
 849 004a 7B68     		ldr	r3, [r7, #4]
 850 004c 1B68     		ldr	r3, [r3]
 851 004e 0821     		movs	r1, #8
 852 0050 1846     		mov	r0, r3
 853 0052 FFF7FEFF 		bl	hals_usrt_interrupt_disable
 854              	.L41:
 344:../firmware/gd32f3x0_hal_peripheral/Source/gd32f3x0_hal_usrt.c ****     }
 345:../firmware/gd32f3x0_hal_peripheral/Source/gd32f3x0_hal_usrt.c **** 
 346:../firmware/gd32f3x0_hal_peripheral/Source/gd32f3x0_hal_usrt.c ****     /* set user-defined receive complete interrupt callback */
 347:../firmware/gd32f3x0_hal_peripheral/Source/gd32f3x0_hal_usrt.c ****     if(NULL != p_irq->receive_complete_handle) {
 855              		.loc 1 347 21
 856 0056 3B68     		ldr	r3, [r7]
 857 0058 1B68     		ldr	r3, [r3]
 858              		.loc 1 347 7
 859 005a 002B     		cmp	r3, #0
 860 005c 0AD0     		beq	.L42
 348:../firmware/gd32f3x0_hal_peripheral/Source/gd32f3x0_hal_usrt.c ****         usrt->usrt_irq.receive_complete_handle = p_irq->receive_complete_handle;
 861              		.loc 1 348 55
 862 005e 3B68     		ldr	r3, [r7]
 863 0060 1A68     		ldr	r2, [r3]
 864              		.loc 1 348 48
 865 0062 7B68     		ldr	r3, [r7, #4]
 866 0064 5A60     		str	r2, [r3, #4]
 349:../firmware/gd32f3x0_hal_peripheral/Source/gd32f3x0_hal_usrt.c ****         hals_usrt_interrupt_enable(usrt->periph, USART_INT_RBNE);
 867              		.loc 1 349 9
 868 0066 7B68     		ldr	r3, [r7, #4]
 869 0068 1B68     		ldr	r3, [r3]
 870 006a 0521     		movs	r1, #5
 871 006c 1846     		mov	r0, r3
 872 006e FFF7FEFF 		bl	hals_usrt_interrupt_enable
 873 0072 08E0     		b	.L43
 874              	.L42:
 350:../firmware/gd32f3x0_hal_peripheral/Source/gd32f3x0_hal_usrt.c ****     } else {
 351:../firmware/gd32f3x0_hal_peripheral/Source/gd32f3x0_hal_usrt.c ****         usrt->usrt_irq.receive_complete_handle = NULL;
 875              		.loc 1 351 48
 876 0074 7B68     		ldr	r3, [r7, #4]
 877 0076 0022     		movs	r2, #0
 878 0078 5A60     		str	r2, [r3, #4]
 352:../firmware/gd32f3x0_hal_peripheral/Source/gd32f3x0_hal_usrt.c ****         hals_usrt_interrupt_disable(usrt->periph, USART_INT_RBNE);
 879              		.loc 1 352 9
 880 007a 7B68     		ldr	r3, [r7, #4]
 881 007c 1B68     		ldr	r3, [r3]
 882 007e 0521     		movs	r1, #5
 883 0080 1846     		mov	r0, r3
 884 0082 FFF7FEFF 		bl	hals_usrt_interrupt_disable
 885              	.L43:
 353:../firmware/gd32f3x0_hal_peripheral/Source/gd32f3x0_hal_usrt.c ****     }
 354:../firmware/gd32f3x0_hal_peripheral/Source/gd32f3x0_hal_usrt.c **** 
 355:../firmware/gd32f3x0_hal_peripheral/Source/gd32f3x0_hal_usrt.c ****     /* set user-defined transmit complete interrupt callback */
 356:../firmware/gd32f3x0_hal_peripheral/Source/gd32f3x0_hal_usrt.c ****     if(NULL != p_irq->transmit_complete_handle) {
 886              		.loc 1 356 21
 887 0086 3B68     		ldr	r3, [r7]
 888 0088 9B68     		ldr	r3, [r3, #8]
 889              		.loc 1 356 7
 890 008a 002B     		cmp	r3, #0
 891 008c 0AD0     		beq	.L44
 357:../firmware/gd32f3x0_hal_peripheral/Source/gd32f3x0_hal_usrt.c ****         usrt->usrt_irq.transmit_complete_handle = p_irq->transmit_complete_handle;
 892              		.loc 1 357 56
 893 008e 3B68     		ldr	r3, [r7]
 894 0090 9A68     		ldr	r2, [r3, #8]
 895              		.loc 1 357 49
 896 0092 7B68     		ldr	r3, [r7, #4]
 897 0094 DA60     		str	r2, [r3, #12]
 358:../firmware/gd32f3x0_hal_peripheral/Source/gd32f3x0_hal_usrt.c ****         hals_usrt_interrupt_enable(usrt->periph, USART_INT_TC);
 898              		.loc 1 358 9
 899 0096 7B68     		ldr	r3, [r7, #4]
 900 0098 1B68     		ldr	r3, [r3]
 901 009a 0621     		movs	r1, #6
 902 009c 1846     		mov	r0, r3
 903 009e FFF7FEFF 		bl	hals_usrt_interrupt_enable
 904 00a2 08E0     		b	.L45
 905              	.L44:
 359:../firmware/gd32f3x0_hal_peripheral/Source/gd32f3x0_hal_usrt.c ****     } else {
 360:../firmware/gd32f3x0_hal_peripheral/Source/gd32f3x0_hal_usrt.c ****         usrt->usrt_irq.transmit_complete_handle = NULL;
 906              		.loc 1 360 49
 907 00a4 7B68     		ldr	r3, [r7, #4]
 908 00a6 0022     		movs	r2, #0
 909 00a8 DA60     		str	r2, [r3, #12]
 361:../firmware/gd32f3x0_hal_peripheral/Source/gd32f3x0_hal_usrt.c ****         hals_usrt_interrupt_disable(usrt->periph, USART_INT_TC);
 910              		.loc 1 361 9
 911 00aa 7B68     		ldr	r3, [r7, #4]
 912 00ac 1B68     		ldr	r3, [r3]
 913 00ae 0621     		movs	r1, #6
 914 00b0 1846     		mov	r0, r3
 915 00b2 FFF7FEFF 		bl	hals_usrt_interrupt_disable
 916              	.L45:
 362:../firmware/gd32f3x0_hal_peripheral/Source/gd32f3x0_hal_usrt.c ****     }
 363:../firmware/gd32f3x0_hal_peripheral/Source/gd32f3x0_hal_usrt.c **** 
 364:../firmware/gd32f3x0_hal_peripheral/Source/gd32f3x0_hal_usrt.c ****     /* set user-defined transmit ready interrupt callback */
 365:../firmware/gd32f3x0_hal_peripheral/Source/gd32f3x0_hal_usrt.c ****     if(NULL != p_irq->transmit_ready_handle) {
 917              		.loc 1 365 21
 918 00b6 3B68     		ldr	r3, [r7]
 919 00b8 5B68     		ldr	r3, [r3, #4]
 920              		.loc 1 365 7
 921 00ba 002B     		cmp	r3, #0
 922 00bc 0AD0     		beq	.L46
 366:../firmware/gd32f3x0_hal_peripheral/Source/gd32f3x0_hal_usrt.c ****         usrt->usrt_irq.transmit_ready_handle = p_irq->transmit_ready_handle;
 923              		.loc 1 366 53
 924 00be 3B68     		ldr	r3, [r7]
 925 00c0 5A68     		ldr	r2, [r3, #4]
 926              		.loc 1 366 46
 927 00c2 7B68     		ldr	r3, [r7, #4]
 928 00c4 9A60     		str	r2, [r3, #8]
 367:../firmware/gd32f3x0_hal_peripheral/Source/gd32f3x0_hal_usrt.c ****         hals_usrt_interrupt_enable(usrt->periph, USART_INT_TBE);
 929              		.loc 1 367 9
 930 00c6 7B68     		ldr	r3, [r7, #4]
 931 00c8 1B68     		ldr	r3, [r3]
 932 00ca 0721     		movs	r1, #7
 933 00cc 1846     		mov	r0, r3
 934 00ce FFF7FEFF 		bl	hals_usrt_interrupt_enable
 368:../firmware/gd32f3x0_hal_peripheral/Source/gd32f3x0_hal_usrt.c ****     } else {
 369:../firmware/gd32f3x0_hal_peripheral/Source/gd32f3x0_hal_usrt.c ****         usrt->usrt_irq.transmit_ready_handle = NULL;
 370:../firmware/gd32f3x0_hal_peripheral/Source/gd32f3x0_hal_usrt.c ****         hals_usrt_interrupt_disable(usrt->periph, USART_INT_TBE);
 371:../firmware/gd32f3x0_hal_peripheral/Source/gd32f3x0_hal_usrt.c ****     }
 372:../firmware/gd32f3x0_hal_peripheral/Source/gd32f3x0_hal_usrt.c **** }
 935              		.loc 1 372 1
 936 00d2 08E0     		b	.L48
 937              	.L46:
 369:../firmware/gd32f3x0_hal_peripheral/Source/gd32f3x0_hal_usrt.c ****         hals_usrt_interrupt_disable(usrt->periph, USART_INT_TBE);
 938              		.loc 1 369 46
 939 00d4 7B68     		ldr	r3, [r7, #4]
 940 00d6 0022     		movs	r2, #0
 941 00d8 9A60     		str	r2, [r3, #8]
 370:../firmware/gd32f3x0_hal_peripheral/Source/gd32f3x0_hal_usrt.c ****     }
 942              		.loc 1 370 9
 943 00da 7B68     		ldr	r3, [r7, #4]
 944 00dc 1B68     		ldr	r3, [r3]
 945 00de 0721     		movs	r1, #7
 946 00e0 1846     		mov	r0, r3
 947 00e2 FFF7FEFF 		bl	hals_usrt_interrupt_disable
 948              	.L48:
 949              		.loc 1 372 1
 950 00e6 00BF     		nop
 951 00e8 0837     		adds	r7, r7, #8
 952              		.cfi_def_cfa_offset 8
 953 00ea BD46     		mov	sp, r7
 954              		.cfi_def_cfa_register 13
 955              		@ sp needed
 956 00ec 80BD     		pop	{r7, pc}
 957              		.cfi_endproc
 958              	.LFE123:
 960              		.section	.text.hal_usrt_irq_handle_all_reset,"ax",%progbits
 961              		.align	1
 962              		.global	hal_usrt_irq_handle_all_reset
 963              		.syntax unified
 964              		.thumb
 965              		.thumb_func
 966              		.fpu softvfp
 968              	hal_usrt_irq_handle_all_reset:
 969              	.LFB124:
 373:../firmware/gd32f3x0_hal_peripheral/Source/gd32f3x0_hal_usrt.c **** 
 374:../firmware/gd32f3x0_hal_peripheral/Source/gd32f3x0_hal_usrt.c **** /*!
 375:../firmware/gd32f3x0_hal_peripheral/Source/gd32f3x0_hal_usrt.c ****     \brief      reset all user-defined interrupt callback function,
 376:../firmware/gd32f3x0_hal_peripheral/Source/gd32f3x0_hal_usrt.c ****                 which will be registered and called when corresponding interrupt be triggered
 377:../firmware/gd32f3x0_hal_peripheral/Source/gd32f3x0_hal_usrt.c ****     \param[in]  usrt: usrt device information structure
 378:../firmware/gd32f3x0_hal_peripheral/Source/gd32f3x0_hal_usrt.c ****                     the structure is not necessary to be reconfigured after structrue initializatio
 379:../firmware/gd32f3x0_hal_peripheral/Source/gd32f3x0_hal_usrt.c ****                     the structure parameters altering is automatically configured by core
 380:../firmware/gd32f3x0_hal_peripheral/Source/gd32f3x0_hal_usrt.c ****     \param[out] none
 381:../firmware/gd32f3x0_hal_peripheral/Source/gd32f3x0_hal_usrt.c ****     \retval     none
 382:../firmware/gd32f3x0_hal_peripheral/Source/gd32f3x0_hal_usrt.c **** */
 383:../firmware/gd32f3x0_hal_peripheral/Source/gd32f3x0_hal_usrt.c **** void hal_usrt_irq_handle_all_reset(hal_usrt_dev_struct *usrt)
 384:../firmware/gd32f3x0_hal_peripheral/Source/gd32f3x0_hal_usrt.c **** {
 970              		.loc 1 384 1
 971              		.cfi_startproc
 972              		@ args = 0, pretend = 0, frame = 8
 973              		@ frame_needed = 1, uses_anonymous_args = 0
 974              		@ link register save eliminated.
 975 0000 80B4     		push	{r7}
 976              		.cfi_def_cfa_offset 4
 977              		.cfi_offset 7, -4
 978 0002 83B0     		sub	sp, sp, #12
 979              		.cfi_def_cfa_offset 16
 980 0004 00AF     		add	r7, sp, #0
 981              		.cfi_def_cfa_register 7
 982 0006 7860     		str	r0, [r7, #4]
 385:../firmware/gd32f3x0_hal_peripheral/Source/gd32f3x0_hal_usrt.c ****     usrt->usrt_irq.error_handle             = NULL;
 983              		.loc 1 385 45
 984 0008 7B68     		ldr	r3, [r7, #4]
 985 000a 0022     		movs	r2, #0
 986 000c 1A61     		str	r2, [r3, #16]
 386:../firmware/gd32f3x0_hal_peripheral/Source/gd32f3x0_hal_usrt.c ****     usrt->usrt_irq.receive_complete_handle  = NULL;
 987              		.loc 1 386 45
 988 000e 7B68     		ldr	r3, [r7, #4]
 989 0010 0022     		movs	r2, #0
 990 0012 5A60     		str	r2, [r3, #4]
 387:../firmware/gd32f3x0_hal_peripheral/Source/gd32f3x0_hal_usrt.c ****     usrt->usrt_irq.transmit_complete_handle = NULL;
 991              		.loc 1 387 45
 992 0014 7B68     		ldr	r3, [r7, #4]
 993 0016 0022     		movs	r2, #0
 994 0018 DA60     		str	r2, [r3, #12]
 388:../firmware/gd32f3x0_hal_peripheral/Source/gd32f3x0_hal_usrt.c ****     usrt->usrt_irq.transmit_ready_handle    = NULL;
 995              		.loc 1 388 45
 996 001a 7B68     		ldr	r3, [r7, #4]
 997 001c 0022     		movs	r2, #0
 998 001e 9A60     		str	r2, [r3, #8]
 389:../firmware/gd32f3x0_hal_peripheral/Source/gd32f3x0_hal_usrt.c **** }
 999              		.loc 1 389 1
 1000 0020 00BF     		nop
 1001 0022 0C37     		adds	r7, r7, #12
 1002              		.cfi_def_cfa_offset 4
 1003 0024 BD46     		mov	sp, r7
 1004              		.cfi_def_cfa_register 13
 1005              		@ sp needed
 1006 0026 80BC     		pop	{r7}
 1007              		.cfi_restore 7
 1008              		.cfi_def_cfa_offset 0
 1009 0028 7047     		bx	lr
 1010              		.cfi_endproc
 1011              	.LFE124:
 1013              		.section	.text.hal_usrt_transmit_poll,"ax",%progbits
 1014              		.align	1
 1015              		.global	hal_usrt_transmit_poll
 1016              		.syntax unified
 1017              		.thumb
 1018              		.thumb_func
 1019              		.fpu softvfp
 1021              	hal_usrt_transmit_poll:
 1022              	.LFB125:
 390:../firmware/gd32f3x0_hal_peripheral/Source/gd32f3x0_hal_usrt.c **** 
 391:../firmware/gd32f3x0_hal_peripheral/Source/gd32f3x0_hal_usrt.c **** /*!
 392:../firmware/gd32f3x0_hal_peripheral/Source/gd32f3x0_hal_usrt.c ****     \brief      transmit amounts of data, poll transmit process and completed status
 393:../firmware/gd32f3x0_hal_peripheral/Source/gd32f3x0_hal_usrt.c ****                 the function is blocking
 394:../firmware/gd32f3x0_hal_peripheral/Source/gd32f3x0_hal_usrt.c ****     \param[in]  usrt: usrt device information structure
 395:../firmware/gd32f3x0_hal_peripheral/Source/gd32f3x0_hal_usrt.c ****                     the structure is not necessary to be reconfigured after structrue initializatio
 396:../firmware/gd32f3x0_hal_peripheral/Source/gd32f3x0_hal_usrt.c ****                     the structure parameters altering is automatically configured by core
 397:../firmware/gd32f3x0_hal_peripheral/Source/gd32f3x0_hal_usrt.c ****     \param[in]  p_buffer: pointer to data buffer
 398:../firmware/gd32f3x0_hal_peripheral/Source/gd32f3x0_hal_usrt.c ****     \param[in]  length: number of data to be transmitted
 399:../firmware/gd32f3x0_hal_peripheral/Source/gd32f3x0_hal_usrt.c ****     \param[in]  timeout_ms: timeout duration
 400:../firmware/gd32f3x0_hal_peripheral/Source/gd32f3x0_hal_usrt.c ****     \param[out] none
 401:../firmware/gd32f3x0_hal_peripheral/Source/gd32f3x0_hal_usrt.c ****     \retval     error code: HAL_ERR_NONE, HAL_ERR_ADDRESS, HAL_ERR_VAL, HAL_ERR_BUSY, HAL_ERR_TIMEO
 402:../firmware/gd32f3x0_hal_peripheral/Source/gd32f3x0_hal_usrt.c **** */
 403:../firmware/gd32f3x0_hal_peripheral/Source/gd32f3x0_hal_usrt.c **** int32_t hal_usrt_transmit_poll(hal_usrt_dev_struct *usrt, uint8_t *p_buffer, uint32_t length, uint3
 404:../firmware/gd32f3x0_hal_peripheral/Source/gd32f3x0_hal_usrt.c **** {
 1023              		.loc 1 404 1
 1024              		.cfi_startproc
 1025              		@ args = 0, pretend = 0, frame = 24
 1026              		@ frame_needed = 1, uses_anonymous_args = 0
 1027 0000 80B5     		push	{r7, lr}
 1028              		.cfi_def_cfa_offset 8
 1029              		.cfi_offset 7, -8
 1030              		.cfi_offset 14, -4
 1031 0002 86B0     		sub	sp, sp, #24
 1032              		.cfi_def_cfa_offset 32
 1033 0004 00AF     		add	r7, sp, #0
 1034              		.cfi_def_cfa_register 7
 1035 0006 F860     		str	r0, [r7, #12]
 1036 0008 B960     		str	r1, [r7, #8]
 1037 000a 7A60     		str	r2, [r7, #4]
 1038 000c 3B60     		str	r3, [r7]
 405:../firmware/gd32f3x0_hal_peripheral/Source/gd32f3x0_hal_usrt.c ****     uint8_t data_length;
 406:../firmware/gd32f3x0_hal_peripheral/Source/gd32f3x0_hal_usrt.c ****     uint32_t tick_start;
 407:../firmware/gd32f3x0_hal_peripheral/Source/gd32f3x0_hal_usrt.c **** 
 408:../firmware/gd32f3x0_hal_peripheral/Source/gd32f3x0_hal_usrt.c **** #if (1 == HAL_PARAMETER_CHECK)
 409:../firmware/gd32f3x0_hal_peripheral/Source/gd32f3x0_hal_usrt.c ****     /* check the parameters */
 410:../firmware/gd32f3x0_hal_peripheral/Source/gd32f3x0_hal_usrt.c ****     if((NULL == usrt) || (NULL == p_buffer) || (0U == length)) {
 411:../firmware/gd32f3x0_hal_peripheral/Source/gd32f3x0_hal_usrt.c ****         HAL_DEBUGE("parameter [usrt] or [p_buffer] or [length] value is invalid");
 412:../firmware/gd32f3x0_hal_peripheral/Source/gd32f3x0_hal_usrt.c ****         return HAL_ERR_ADDRESS;
 413:../firmware/gd32f3x0_hal_peripheral/Source/gd32f3x0_hal_usrt.c ****     }
 414:../firmware/gd32f3x0_hal_peripheral/Source/gd32f3x0_hal_usrt.c **** #endif /* 1 == HAL_PARAMETER_CHECK */
 415:../firmware/gd32f3x0_hal_peripheral/Source/gd32f3x0_hal_usrt.c **** 
 416:../firmware/gd32f3x0_hal_peripheral/Source/gd32f3x0_hal_usrt.c ****     /* check the tx_state wheher is busy or not */
 417:../firmware/gd32f3x0_hal_peripheral/Source/gd32f3x0_hal_usrt.c ****     if(USRT_STATE_BUSY == usrt->tx_state) {
 1039              		.loc 1 417 31
 1040 000e FB68     		ldr	r3, [r7, #12]
 1041 0010 93F83A30 		ldrb	r3, [r3, #58]
 1042 0014 DBB2     		uxtb	r3, r3
 1043              		.loc 1 417 7
 1044 0016 012B     		cmp	r3, #1
 1045 0018 02D1     		bne	.L51
 418:../firmware/gd32f3x0_hal_peripheral/Source/gd32f3x0_hal_usrt.c ****         HAL_DEBUGE("usrt tx has already been used, please wait until run_state change to free ");
 419:../firmware/gd32f3x0_hal_peripheral/Source/gd32f3x0_hal_usrt.c ****         return HAL_ERR_BUSY;
 1046              		.loc 1 419 16
 1047 001a 6FF00203 		mvn	r3, #2
 1048 001e ABE0     		b	.L52
 1049              	.L51:
 420:../firmware/gd32f3x0_hal_peripheral/Source/gd32f3x0_hal_usrt.c ****     }
 421:../firmware/gd32f3x0_hal_peripheral/Source/gd32f3x0_hal_usrt.c **** 
 422:../firmware/gd32f3x0_hal_peripheral/Source/gd32f3x0_hal_usrt.c ****     /* lock usrt */
 423:../firmware/gd32f3x0_hal_peripheral/Source/gd32f3x0_hal_usrt.c ****     HAL_LOCK(usrt);
 1050              		.loc 1 423 5
 1051 0020 FB68     		ldr	r3, [r7, #12]
 1052 0022 93F84430 		ldrb	r3, [r3, #68]	@ zero_extendqisi2
 1053 0026 012B     		cmp	r3, #1
 1054 0028 02D1     		bne	.L53
 1055              		.loc 1 423 5 is_stmt 0 discriminator 1
 1056 002a 6FF00103 		mvn	r3, #1
 1057 002e A3E0     		b	.L52
 1058              	.L53:
 1059              		.loc 1 423 5 discriminator 2
 1060 0030 FB68     		ldr	r3, [r7, #12]
 1061 0032 0122     		movs	r2, #1
 1062 0034 83F84420 		strb	r2, [r3, #68]
 424:../firmware/gd32f3x0_hal_peripheral/Source/gd32f3x0_hal_usrt.c **** 
 425:../firmware/gd32f3x0_hal_peripheral/Source/gd32f3x0_hal_usrt.c ****     usrt->error_state       = HAL_USRT_ERROR_NONE;
 1063              		.loc 1 425 29 is_stmt 1 discriminator 2
 1064 0038 FB68     		ldr	r3, [r7, #12]
 1065 003a 0022     		movs	r2, #0
 1066 003c 1A87     		strh	r2, [r3, #56]	@ movhi
 426:../firmware/gd32f3x0_hal_peripheral/Source/gd32f3x0_hal_usrt.c ****     usrt->tx_state          = USRT_STATE_BUSY;
 1067              		.loc 1 426 29 discriminator 2
 1068 003e FB68     		ldr	r3, [r7, #12]
 1069 0040 0122     		movs	r2, #1
 1070 0042 83F83A20 		strb	r2, [r3, #58]
 427:../firmware/gd32f3x0_hal_peripheral/Source/gd32f3x0_hal_usrt.c **** 
 428:../firmware/gd32f3x0_hal_peripheral/Source/gd32f3x0_hal_usrt.c ****     /* initialize transmit parameters */
 429:../firmware/gd32f3x0_hal_peripheral/Source/gd32f3x0_hal_usrt.c ****     usrt->txbuffer.buffer   = (uint8_t *)p_buffer;
 1071              		.loc 1 429 29 discriminator 2
 1072 0046 FB68     		ldr	r3, [r7, #12]
 1073 0048 BA68     		ldr	r2, [r7, #8]
 1074 004a DA61     		str	r2, [r3, #28]
 430:../firmware/gd32f3x0_hal_peripheral/Source/gd32f3x0_hal_usrt.c ****     usrt->txbuffer.length   = length;
 1075              		.loc 1 430 29 discriminator 2
 1076 004c FB68     		ldr	r3, [r7, #12]
 1077 004e 7A68     		ldr	r2, [r7, #4]
 1078 0050 1A62     		str	r2, [r3, #32]
 431:../firmware/gd32f3x0_hal_peripheral/Source/gd32f3x0_hal_usrt.c ****     usrt->txbuffer.pos      = 0U;
 1079              		.loc 1 431 29 discriminator 2
 1080 0052 FB68     		ldr	r3, [r7, #12]
 1081 0054 0022     		movs	r2, #0
 1082 0056 5A62     		str	r2, [r3, #36]
 432:../firmware/gd32f3x0_hal_peripheral/Source/gd32f3x0_hal_usrt.c **** 
 433:../firmware/gd32f3x0_hal_peripheral/Source/gd32f3x0_hal_usrt.c ****     /* calculate the data length */
 434:../firmware/gd32f3x0_hal_peripheral/Source/gd32f3x0_hal_usrt.c ****     data_length = 1U;
 1083              		.loc 1 434 17 discriminator 2
 1084 0058 0123     		movs	r3, #1
 1085 005a FB75     		strb	r3, [r7, #23]
 435:../firmware/gd32f3x0_hal_peripheral/Source/gd32f3x0_hal_usrt.c ****     if(RESET != (USART_CTL0(usrt->periph) & USART_CTL0_WL)) {
 1086              		.loc 1 435 18 discriminator 2
 1087 005c FB68     		ldr	r3, [r7, #12]
 1088 005e 1B68     		ldr	r3, [r3]
 1089 0060 1B68     		ldr	r3, [r3]
 1090              		.loc 1 435 43 discriminator 2
 1091 0062 03F48053 		and	r3, r3, #4096
 1092              		.loc 1 435 7 discriminator 2
 1093 0066 002B     		cmp	r3, #0
 1094 0068 08D0     		beq	.L54
 436:../firmware/gd32f3x0_hal_peripheral/Source/gd32f3x0_hal_usrt.c ****         if(RESET == (USART_CTL0(usrt->periph) & USART_CTL0_PCEN)) {
 1095              		.loc 1 436 22
 1096 006a FB68     		ldr	r3, [r7, #12]
 1097 006c 1B68     		ldr	r3, [r3]
 1098 006e 1B68     		ldr	r3, [r3]
 1099              		.loc 1 436 47
 1100 0070 03F48063 		and	r3, r3, #1024
 1101              		.loc 1 436 11
 1102 0074 002B     		cmp	r3, #0
 1103 0076 01D1     		bne	.L54
 437:../firmware/gd32f3x0_hal_peripheral/Source/gd32f3x0_hal_usrt.c ****             data_length = 2U;
 1104              		.loc 1 437 25
 1105 0078 0223     		movs	r3, #2
 1106 007a FB75     		strb	r3, [r7, #23]
 1107              	.L54:
 438:../firmware/gd32f3x0_hal_peripheral/Source/gd32f3x0_hal_usrt.c ****         }
 439:../firmware/gd32f3x0_hal_peripheral/Source/gd32f3x0_hal_usrt.c ****     }
 440:../firmware/gd32f3x0_hal_peripheral/Source/gd32f3x0_hal_usrt.c **** 
 441:../firmware/gd32f3x0_hal_peripheral/Source/gd32f3x0_hal_usrt.c ****     /* configure timeout */
 442:../firmware/gd32f3x0_hal_peripheral/Source/gd32f3x0_hal_usrt.c ****     tick_start = hal_sys_basetick_count_get();
 1108              		.loc 1 442 18
 1109 007c FFF7FEFF 		bl	hal_sys_basetick_count_get
 1110 0080 3861     		str	r0, [r7, #16]
 443:../firmware/gd32f3x0_hal_peripheral/Source/gd32f3x0_hal_usrt.c **** 
 444:../firmware/gd32f3x0_hal_peripheral/Source/gd32f3x0_hal_usrt.c ****     while(usrt->txbuffer.pos < usrt->txbuffer.length) {
 1111              		.loc 1 444 10
 1112 0082 49E0     		b	.L55
 1113              	.L57:
 445:../firmware/gd32f3x0_hal_peripheral/Source/gd32f3x0_hal_usrt.c ****         /* wait for transmit buffer empty */
 446:../firmware/gd32f3x0_hal_peripheral/Source/gd32f3x0_hal_usrt.c ****         while(RESET == hals_usrt_flag_get(usrt->periph, USART_FLAG_TBE)) {
 447:../firmware/gd32f3x0_hal_peripheral/Source/gd32f3x0_hal_usrt.c ****             if(HAL_TIMEOUT_FOREVER != timeout_ms) {
 1114              		.loc 1 447 15
 1115 0084 3B68     		ldr	r3, [r7]
 1116 0086 B3F1FF3F 		cmp	r3, #-1
 1117 008a 11D0     		beq	.L56
 448:../firmware/gd32f3x0_hal_peripheral/Source/gd32f3x0_hal_usrt.c ****                 if(SET == hal_sys_basetick_timeout_check(tick_start, timeout_ms)) {
 1118              		.loc 1 448 27
 1119 008c 3968     		ldr	r1, [r7]
 1120 008e 3869     		ldr	r0, [r7, #16]
 1121 0090 FFF7FEFF 		bl	hal_sys_basetick_timeout_check
 1122 0094 0346     		mov	r3, r0
 1123              		.loc 1 448 19
 1124 0096 012B     		cmp	r3, #1
 1125 0098 0AD1     		bne	.L56
 449:../firmware/gd32f3x0_hal_peripheral/Source/gd32f3x0_hal_usrt.c ****                     HAL_DEBUGW("usrt transmit timeout");
 450:../firmware/gd32f3x0_hal_peripheral/Source/gd32f3x0_hal_usrt.c ****                     /* reset the state */
 451:../firmware/gd32f3x0_hal_peripheral/Source/gd32f3x0_hal_usrt.c ****                     usrt->rx_state = USRT_STATE_FREE;
 1126              		.loc 1 451 36
 1127 009a FB68     		ldr	r3, [r7, #12]
 1128 009c 0022     		movs	r2, #0
 1129 009e 83F83B20 		strb	r2, [r3, #59]
 452:../firmware/gd32f3x0_hal_peripheral/Source/gd32f3x0_hal_usrt.c ****                     /* unlock usrt */
 453:../firmware/gd32f3x0_hal_peripheral/Source/gd32f3x0_hal_usrt.c ****                     HAL_UNLOCK(usrt);
 1130              		.loc 1 453 21
 1131 00a2 FB68     		ldr	r3, [r7, #12]
 1132 00a4 0022     		movs	r2, #0
 1133 00a6 83F84420 		strb	r2, [r3, #68]
 454:../firmware/gd32f3x0_hal_peripheral/Source/gd32f3x0_hal_usrt.c ****                     return HAL_ERR_TIMEOUT;
 1134              		.loc 1 454 28
 1135 00aa 6FF00403 		mvn	r3, #4
 1136 00ae 63E0     		b	.L52
 1137              	.L56:
 446:../firmware/gd32f3x0_hal_peripheral/Source/gd32f3x0_hal_usrt.c ****             if(HAL_TIMEOUT_FOREVER != timeout_ms) {
 1138              		.loc 1 446 24
 1139 00b0 FB68     		ldr	r3, [r7, #12]
 1140 00b2 1B68     		ldr	r3, [r3]
 1141 00b4 40F20771 		movw	r1, #1799
 1142 00b8 1846     		mov	r0, r3
 1143 00ba FFF7FEFF 		bl	hals_usrt_flag_get
 1144 00be 0346     		mov	r3, r0
 446:../firmware/gd32f3x0_hal_peripheral/Source/gd32f3x0_hal_usrt.c ****             if(HAL_TIMEOUT_FOREVER != timeout_ms) {
 1145              		.loc 1 446 14
 1146 00c0 002B     		cmp	r3, #0
 1147 00c2 DFD0     		beq	.L57
 455:../firmware/gd32f3x0_hal_peripheral/Source/gd32f3x0_hal_usrt.c ****                 }
 456:../firmware/gd32f3x0_hal_peripheral/Source/gd32f3x0_hal_usrt.c ****             }
 457:../firmware/gd32f3x0_hal_peripheral/Source/gd32f3x0_hal_usrt.c ****         }
 458:../firmware/gd32f3x0_hal_peripheral/Source/gd32f3x0_hal_usrt.c **** 
 459:../firmware/gd32f3x0_hal_peripheral/Source/gd32f3x0_hal_usrt.c ****         /* send the data to be transmitted */
 460:../firmware/gd32f3x0_hal_peripheral/Source/gd32f3x0_hal_usrt.c ****         if(2U == data_length) {
 1148              		.loc 1 460 11
 1149 00c4 FB7D     		ldrb	r3, [r7, #23]	@ zero_extendqisi2
 1150 00c6 022B     		cmp	r3, #2
 1151 00c8 11D1     		bne	.L58
 461:../firmware/gd32f3x0_hal_peripheral/Source/gd32f3x0_hal_usrt.c ****             hals_usrt_data_transmit(usrt->periph, (*(uint16_t *)usrt->txbuffer.buffer & (uint16_t)0
 1152              		.loc 1 461 13
 1153 00ca FB68     		ldr	r3, [r7, #12]
 1154 00cc 1A68     		ldr	r2, [r3]
 1155              		.loc 1 461 79
 1156 00ce FB68     		ldr	r3, [r7, #12]
 1157 00d0 DB69     		ldr	r3, [r3, #28]
 1158              		.loc 1 461 52
 1159 00d2 1B88     		ldrh	r3, [r3]
 1160              		.loc 1 461 13
 1161 00d4 C3F30803 		ubfx	r3, r3, #0, #9
 1162 00d8 9BB2     		uxth	r3, r3
 1163 00da 1946     		mov	r1, r3
 1164 00dc 1046     		mov	r0, r2
 1165 00de FFF7FEFF 		bl	hals_usrt_data_transmit
 462:../firmware/gd32f3x0_hal_peripheral/Source/gd32f3x0_hal_usrt.c ****             usrt->txbuffer.buffer += 2;
 1166              		.loc 1 462 35
 1167 00e2 FB68     		ldr	r3, [r7, #12]
 1168 00e4 DB69     		ldr	r3, [r3, #28]
 1169 00e6 9A1C     		adds	r2, r3, #2
 1170 00e8 FB68     		ldr	r3, [r7, #12]
 1171 00ea DA61     		str	r2, [r3, #28]
 1172 00ec 0FE0     		b	.L59
 1173              	.L58:
 463:../firmware/gd32f3x0_hal_peripheral/Source/gd32f3x0_hal_usrt.c ****         } else {
 464:../firmware/gd32f3x0_hal_peripheral/Source/gd32f3x0_hal_usrt.c ****             hals_usrt_data_transmit(usrt->periph, (*usrt->txbuffer.buffer & (uint8_t)0xFFU));
 1174              		.loc 1 464 13
 1175 00ee FB68     		ldr	r3, [r7, #12]
 1176 00f0 1A68     		ldr	r2, [r3]
 1177              		.loc 1 464 67
 1178 00f2 FB68     		ldr	r3, [r7, #12]
 1179 00f4 DB69     		ldr	r3, [r3, #28]
 1180              		.loc 1 464 52
 1181 00f6 1B78     		ldrb	r3, [r3]
 1182 00f8 DBB2     		uxtb	r3, r3
 1183              		.loc 1 464 13
 1184 00fa 9BB2     		uxth	r3, r3
 1185 00fc 1946     		mov	r1, r3
 1186 00fe 1046     		mov	r0, r2
 1187 0100 FFF7FEFF 		bl	hals_usrt_data_transmit
 465:../firmware/gd32f3x0_hal_peripheral/Source/gd32f3x0_hal_usrt.c ****             usrt->txbuffer.buffer++;
 1188              		.loc 1 465 27
 1189 0104 FB68     		ldr	r3, [r7, #12]
 1190 0106 DB69     		ldr	r3, [r3, #28]
 1191              		.loc 1 465 34
 1192 0108 5A1C     		adds	r2, r3, #1
 1193 010a FB68     		ldr	r3, [r7, #12]
 1194 010c DA61     		str	r2, [r3, #28]
 1195              	.L59:
 466:../firmware/gd32f3x0_hal_peripheral/Source/gd32f3x0_hal_usrt.c ****         }
 467:../firmware/gd32f3x0_hal_peripheral/Source/gd32f3x0_hal_usrt.c **** 
 468:../firmware/gd32f3x0_hal_peripheral/Source/gd32f3x0_hal_usrt.c ****         /* change the transmit pointer */
 469:../firmware/gd32f3x0_hal_peripheral/Source/gd32f3x0_hal_usrt.c ****         usrt->txbuffer.pos++;
 1196              		.loc 1 469 23
 1197 010e FB68     		ldr	r3, [r7, #12]
 1198 0110 5B6A     		ldr	r3, [r3, #36]
 1199              		.loc 1 469 27
 1200 0112 5A1C     		adds	r2, r3, #1
 1201 0114 FB68     		ldr	r3, [r7, #12]
 1202 0116 5A62     		str	r2, [r3, #36]
 1203              	.L55:
 444:../firmware/gd32f3x0_hal_peripheral/Source/gd32f3x0_hal_usrt.c ****         /* wait for transmit buffer empty */
 1204              		.loc 1 444 25
 1205 0118 FB68     		ldr	r3, [r7, #12]
 1206 011a 5A6A     		ldr	r2, [r3, #36]
 444:../firmware/gd32f3x0_hal_peripheral/Source/gd32f3x0_hal_usrt.c ****         /* wait for transmit buffer empty */
 1207              		.loc 1 444 46
 1208 011c FB68     		ldr	r3, [r7, #12]
 1209 011e 1B6A     		ldr	r3, [r3, #32]
 444:../firmware/gd32f3x0_hal_peripheral/Source/gd32f3x0_hal_usrt.c ****         /* wait for transmit buffer empty */
 1210              		.loc 1 444 10
 1211 0120 9A42     		cmp	r2, r3
 1212 0122 C5D3     		bcc	.L56
 470:../firmware/gd32f3x0_hal_peripheral/Source/gd32f3x0_hal_usrt.c ****     }
 471:../firmware/gd32f3x0_hal_peripheral/Source/gd32f3x0_hal_usrt.c **** 
 472:../firmware/gd32f3x0_hal_peripheral/Source/gd32f3x0_hal_usrt.c ****     /* wait for transmit complete */
 473:../firmware/gd32f3x0_hal_peripheral/Source/gd32f3x0_hal_usrt.c ****     while(RESET == hals_usrt_flag_get(usrt->periph, USART_FLAG_TC)) {
 1213              		.loc 1 473 10
 1214 0124 15E0     		b	.L61
 1215              	.L62:
 474:../firmware/gd32f3x0_hal_peripheral/Source/gd32f3x0_hal_usrt.c ****         if(HAL_TIMEOUT_FOREVER != timeout_ms) {
 1216              		.loc 1 474 11
 1217 0126 3B68     		ldr	r3, [r7]
 1218 0128 B3F1FF3F 		cmp	r3, #-1
 1219 012c 11D0     		beq	.L61
 475:../firmware/gd32f3x0_hal_peripheral/Source/gd32f3x0_hal_usrt.c ****             if(SET == hal_sys_basetick_timeout_check(tick_start, timeout_ms)) {
 1220              		.loc 1 475 23
 1221 012e 3968     		ldr	r1, [r7]
 1222 0130 3869     		ldr	r0, [r7, #16]
 1223 0132 FFF7FEFF 		bl	hal_sys_basetick_timeout_check
 1224 0136 0346     		mov	r3, r0
 1225              		.loc 1 475 15
 1226 0138 012B     		cmp	r3, #1
 1227 013a 0AD1     		bne	.L61
 476:../firmware/gd32f3x0_hal_peripheral/Source/gd32f3x0_hal_usrt.c ****                 HAL_DEBUGW("usrt transmit timeout");
 477:../firmware/gd32f3x0_hal_peripheral/Source/gd32f3x0_hal_usrt.c ****                 /* reset the state */
 478:../firmware/gd32f3x0_hal_peripheral/Source/gd32f3x0_hal_usrt.c ****                 usrt->rx_state = USRT_STATE_FREE;
 1228              		.loc 1 478 32
 1229 013c FB68     		ldr	r3, [r7, #12]
 1230 013e 0022     		movs	r2, #0
 1231 0140 83F83B20 		strb	r2, [r3, #59]
 479:../firmware/gd32f3x0_hal_peripheral/Source/gd32f3x0_hal_usrt.c ****                 /* unlock usrt */
 480:../firmware/gd32f3x0_hal_peripheral/Source/gd32f3x0_hal_usrt.c ****                 HAL_UNLOCK(usrt);
 1232              		.loc 1 480 17
 1233 0144 FB68     		ldr	r3, [r7, #12]
 1234 0146 0022     		movs	r2, #0
 1235 0148 83F84420 		strb	r2, [r3, #68]
 481:../firmware/gd32f3x0_hal_peripheral/Source/gd32f3x0_hal_usrt.c ****                 return HAL_ERR_TIMEOUT;
 1236              		.loc 1 481 24
 1237 014c 6FF00403 		mvn	r3, #4
 1238 0150 12E0     		b	.L52
 1239              	.L61:
 473:../firmware/gd32f3x0_hal_peripheral/Source/gd32f3x0_hal_usrt.c ****         if(HAL_TIMEOUT_FOREVER != timeout_ms) {
 1240              		.loc 1 473 20
 1241 0152 FB68     		ldr	r3, [r7, #12]
 1242 0154 1B68     		ldr	r3, [r3]
 1243 0156 40F20671 		movw	r1, #1798
 1244 015a 1846     		mov	r0, r3
 1245 015c FFF7FEFF 		bl	hals_usrt_flag_get
 1246 0160 0346     		mov	r3, r0
 473:../firmware/gd32f3x0_hal_peripheral/Source/gd32f3x0_hal_usrt.c ****         if(HAL_TIMEOUT_FOREVER != timeout_ms) {
 1247              		.loc 1 473 10
 1248 0162 002B     		cmp	r3, #0
 1249 0164 DFD0     		beq	.L62
 482:../firmware/gd32f3x0_hal_peripheral/Source/gd32f3x0_hal_usrt.c ****             }
 483:../firmware/gd32f3x0_hal_peripheral/Source/gd32f3x0_hal_usrt.c ****         }
 484:../firmware/gd32f3x0_hal_peripheral/Source/gd32f3x0_hal_usrt.c ****     }
 485:../firmware/gd32f3x0_hal_peripheral/Source/gd32f3x0_hal_usrt.c **** 
 486:../firmware/gd32f3x0_hal_peripheral/Source/gd32f3x0_hal_usrt.c ****     /* change the Tx state to free */
 487:../firmware/gd32f3x0_hal_peripheral/Source/gd32f3x0_hal_usrt.c ****     usrt->tx_state = USRT_STATE_FREE;
 1250              		.loc 1 487 20
 1251 0166 FB68     		ldr	r3, [r7, #12]
 1252 0168 0022     		movs	r2, #0
 1253 016a 83F83A20 		strb	r2, [r3, #58]
 488:../firmware/gd32f3x0_hal_peripheral/Source/gd32f3x0_hal_usrt.c **** 
 489:../firmware/gd32f3x0_hal_peripheral/Source/gd32f3x0_hal_usrt.c ****     /* unlock usrt */
 490:../firmware/gd32f3x0_hal_peripheral/Source/gd32f3x0_hal_usrt.c ****     HAL_UNLOCK(usrt);
 1254              		.loc 1 490 5
 1255 016e FB68     		ldr	r3, [r7, #12]
 1256 0170 0022     		movs	r2, #0
 1257 0172 83F84420 		strb	r2, [r3, #68]
 491:../firmware/gd32f3x0_hal_peripheral/Source/gd32f3x0_hal_usrt.c **** 
 492:../firmware/gd32f3x0_hal_peripheral/Source/gd32f3x0_hal_usrt.c ****     return HAL_ERR_NONE;
 1258              		.loc 1 492 12
 1259 0176 0023     		movs	r3, #0
 1260              	.L52:
 493:../firmware/gd32f3x0_hal_peripheral/Source/gd32f3x0_hal_usrt.c **** }
 1261              		.loc 1 493 1
 1262 0178 1846     		mov	r0, r3
 1263 017a 1837     		adds	r7, r7, #24
 1264              		.cfi_def_cfa_offset 8
 1265 017c BD46     		mov	sp, r7
 1266              		.cfi_def_cfa_register 13
 1267              		@ sp needed
 1268 017e 80BD     		pop	{r7, pc}
 1269              		.cfi_endproc
 1270              	.LFE125:
 1272              		.section	.text.hal_usrt_receive_poll,"ax",%progbits
 1273              		.align	1
 1274              		.global	hal_usrt_receive_poll
 1275              		.syntax unified
 1276              		.thumb
 1277              		.thumb_func
 1278              		.fpu softvfp
 1280              	hal_usrt_receive_poll:
 1281              	.LFB126:
 494:../firmware/gd32f3x0_hal_peripheral/Source/gd32f3x0_hal_usrt.c **** 
 495:../firmware/gd32f3x0_hal_peripheral/Source/gd32f3x0_hal_usrt.c **** /*!
 496:../firmware/gd32f3x0_hal_peripheral/Source/gd32f3x0_hal_usrt.c ****     \brief      receive amounts of data, poll receive process and completed status
 497:../firmware/gd32f3x0_hal_peripheral/Source/gd32f3x0_hal_usrt.c ****                 the function is blocking
 498:../firmware/gd32f3x0_hal_peripheral/Source/gd32f3x0_hal_usrt.c ****     \param[in]  usrt: usrt device information structure
 499:../firmware/gd32f3x0_hal_peripheral/Source/gd32f3x0_hal_usrt.c ****                     the structure is not necessary to be reconfigured after structrue initializatio
 500:../firmware/gd32f3x0_hal_peripheral/Source/gd32f3x0_hal_usrt.c ****                     the structure parameters altering is automatically configured by core
 501:../firmware/gd32f3x0_hal_peripheral/Source/gd32f3x0_hal_usrt.c ****     \param[in]  p_buffer: pointer to data buffer
 502:../firmware/gd32f3x0_hal_peripheral/Source/gd32f3x0_hal_usrt.c ****     \param[in]  length: number of data to be received
 503:../firmware/gd32f3x0_hal_peripheral/Source/gd32f3x0_hal_usrt.c ****     \param[in]  timeout_ms: timeout duration
 504:../firmware/gd32f3x0_hal_peripheral/Source/gd32f3x0_hal_usrt.c ****     \param[out] none
 505:../firmware/gd32f3x0_hal_peripheral/Source/gd32f3x0_hal_usrt.c ****     \retval     error code: HAL_ERR_NONE, HAL_ERR_ADDRESS, HAL_ERR_VAL, HAL_ERR_BUSY, HAL_ERR_TIMEO
 506:../firmware/gd32f3x0_hal_peripheral/Source/gd32f3x0_hal_usrt.c **** */
 507:../firmware/gd32f3x0_hal_peripheral/Source/gd32f3x0_hal_usrt.c **** int32_t hal_usrt_receive_poll(hal_usrt_dev_struct *usrt, uint8_t *p_buffer, uint32_t length, uint32
 508:../firmware/gd32f3x0_hal_peripheral/Source/gd32f3x0_hal_usrt.c **** {
 1282              		.loc 1 508 1
 1283              		.cfi_startproc
 1284              		@ args = 0, pretend = 0, frame = 24
 1285              		@ frame_needed = 1, uses_anonymous_args = 0
 1286 0000 80B5     		push	{r7, lr}
 1287              		.cfi_def_cfa_offset 8
 1288              		.cfi_offset 7, -8
 1289              		.cfi_offset 14, -4
 1290 0002 86B0     		sub	sp, sp, #24
 1291              		.cfi_def_cfa_offset 32
 1292 0004 00AF     		add	r7, sp, #0
 1293              		.cfi_def_cfa_register 7
 1294 0006 F860     		str	r0, [r7, #12]
 1295 0008 B960     		str	r1, [r7, #8]
 1296 000a 7A60     		str	r2, [r7, #4]
 1297 000c 3B60     		str	r3, [r7]
 509:../firmware/gd32f3x0_hal_peripheral/Source/gd32f3x0_hal_usrt.c ****     uint8_t data_length;
 510:../firmware/gd32f3x0_hal_peripheral/Source/gd32f3x0_hal_usrt.c ****     uint32_t tick_start;
 511:../firmware/gd32f3x0_hal_peripheral/Source/gd32f3x0_hal_usrt.c **** 
 512:../firmware/gd32f3x0_hal_peripheral/Source/gd32f3x0_hal_usrt.c **** #if (1 == HAL_PARAMETER_CHECK)
 513:../firmware/gd32f3x0_hal_peripheral/Source/gd32f3x0_hal_usrt.c ****     /* check the parameters */
 514:../firmware/gd32f3x0_hal_peripheral/Source/gd32f3x0_hal_usrt.c ****     if((NULL == usrt) || (NULL == p_buffer) || (0U == length)) {
 515:../firmware/gd32f3x0_hal_peripheral/Source/gd32f3x0_hal_usrt.c ****         HAL_DEBUGE("parameter [usrt] or [p_buffer] or [length] value is invalid");
 516:../firmware/gd32f3x0_hal_peripheral/Source/gd32f3x0_hal_usrt.c ****         return HAL_ERR_ADDRESS;
 517:../firmware/gd32f3x0_hal_peripheral/Source/gd32f3x0_hal_usrt.c ****     }
 518:../firmware/gd32f3x0_hal_peripheral/Source/gd32f3x0_hal_usrt.c **** #endif /* 1 == HAL_PARAMETER_CHECK */
 519:../firmware/gd32f3x0_hal_peripheral/Source/gd32f3x0_hal_usrt.c **** 
 520:../firmware/gd32f3x0_hal_peripheral/Source/gd32f3x0_hal_usrt.c ****     /* check the rx_state wheher is busy or not */
 521:../firmware/gd32f3x0_hal_peripheral/Source/gd32f3x0_hal_usrt.c ****     if(USRT_STATE_BUSY == usrt->rx_state) {
 1298              		.loc 1 521 31
 1299 000e FB68     		ldr	r3, [r7, #12]
 1300 0010 93F83B30 		ldrb	r3, [r3, #59]
 1301 0014 DBB2     		uxtb	r3, r3
 1302              		.loc 1 521 7
 1303 0016 012B     		cmp	r3, #1
 1304 0018 02D1     		bne	.L64
 522:../firmware/gd32f3x0_hal_peripheral/Source/gd32f3x0_hal_usrt.c ****         HAL_DEBUGE("usrt rx has already been used, please wait until run_state change to free ");
 523:../firmware/gd32f3x0_hal_peripheral/Source/gd32f3x0_hal_usrt.c ****         return HAL_ERR_BUSY;
 1305              		.loc 1 523 16
 1306 001a 6FF00203 		mvn	r3, #2
 1307 001e C2E0     		b	.L65
 1308              	.L64:
 524:../firmware/gd32f3x0_hal_peripheral/Source/gd32f3x0_hal_usrt.c ****     }
 525:../firmware/gd32f3x0_hal_peripheral/Source/gd32f3x0_hal_usrt.c **** 
 526:../firmware/gd32f3x0_hal_peripheral/Source/gd32f3x0_hal_usrt.c ****     /* lock usrt */
 527:../firmware/gd32f3x0_hal_peripheral/Source/gd32f3x0_hal_usrt.c ****     HAL_LOCK(usrt);
 1309              		.loc 1 527 5
 1310 0020 FB68     		ldr	r3, [r7, #12]
 1311 0022 93F84430 		ldrb	r3, [r3, #68]	@ zero_extendqisi2
 1312 0026 012B     		cmp	r3, #1
 1313 0028 02D1     		bne	.L66
 1314              		.loc 1 527 5 is_stmt 0 discriminator 1
 1315 002a 6FF00103 		mvn	r3, #1
 1316 002e BAE0     		b	.L65
 1317              	.L66:
 1318              		.loc 1 527 5 discriminator 2
 1319 0030 FB68     		ldr	r3, [r7, #12]
 1320 0032 0122     		movs	r2, #1
 1321 0034 83F84420 		strb	r2, [r3, #68]
 528:../firmware/gd32f3x0_hal_peripheral/Source/gd32f3x0_hal_usrt.c **** 
 529:../firmware/gd32f3x0_hal_peripheral/Source/gd32f3x0_hal_usrt.c ****     usrt->rx_state = USRT_STATE_BUSY;
 1322              		.loc 1 529 20 is_stmt 1 discriminator 2
 1323 0038 FB68     		ldr	r3, [r7, #12]
 1324 003a 0122     		movs	r2, #1
 1325 003c 83F83B20 		strb	r2, [r3, #59]
 530:../firmware/gd32f3x0_hal_peripheral/Source/gd32f3x0_hal_usrt.c ****     usrt->error_state = HAL_USRT_ERROR_NONE;
 1326              		.loc 1 530 23 discriminator 2
 1327 0040 FB68     		ldr	r3, [r7, #12]
 1328 0042 0022     		movs	r2, #0
 1329 0044 1A87     		strh	r2, [r3, #56]	@ movhi
 531:../firmware/gd32f3x0_hal_peripheral/Source/gd32f3x0_hal_usrt.c **** 
 532:../firmware/gd32f3x0_hal_peripheral/Source/gd32f3x0_hal_usrt.c ****     /* initialize receive parameters */
 533:../firmware/gd32f3x0_hal_peripheral/Source/gd32f3x0_hal_usrt.c ****     usrt->rxbuffer.buffer   = (uint8_t *)p_buffer;
 1330              		.loc 1 533 29 discriminator 2
 1331 0046 FB68     		ldr	r3, [r7, #12]
 1332 0048 BA68     		ldr	r2, [r7, #8]
 1333 004a 9A62     		str	r2, [r3, #40]
 534:../firmware/gd32f3x0_hal_peripheral/Source/gd32f3x0_hal_usrt.c ****     usrt->rxbuffer.length   = length;
 1334              		.loc 1 534 29 discriminator 2
 1335 004c FB68     		ldr	r3, [r7, #12]
 1336 004e 7A68     		ldr	r2, [r7, #4]
 1337 0050 DA62     		str	r2, [r3, #44]
 535:../firmware/gd32f3x0_hal_peripheral/Source/gd32f3x0_hal_usrt.c ****     usrt->rxbuffer.pos      = 0U;
 1338              		.loc 1 535 29 discriminator 2
 1339 0052 FB68     		ldr	r3, [r7, #12]
 1340 0054 0022     		movs	r2, #0
 1341 0056 1A63     		str	r2, [r3, #48]
 536:../firmware/gd32f3x0_hal_peripheral/Source/gd32f3x0_hal_usrt.c ****     usrt->data_bit_mask     = _usrt_data_bit_mask_get(usrt);
 1342              		.loc 1 536 31 discriminator 2
 1343 0058 F868     		ldr	r0, [r7, #12]
 1344 005a FFF7FEFF 		bl	_usrt_data_bit_mask_get
 1345 005e 0346     		mov	r3, r0
 1346 0060 1A46     		mov	r2, r3
 1347              		.loc 1 536 29 discriminator 2
 1348 0062 FB68     		ldr	r3, [r7, #12]
 1349 0064 9A86     		strh	r2, [r3, #52]	@ movhi
 537:../firmware/gd32f3x0_hal_peripheral/Source/gd32f3x0_hal_usrt.c **** 
 538:../firmware/gd32f3x0_hal_peripheral/Source/gd32f3x0_hal_usrt.c ****     /* calculate the data length */
 539:../firmware/gd32f3x0_hal_peripheral/Source/gd32f3x0_hal_usrt.c ****     data_length = 1U;
 1350              		.loc 1 539 17 discriminator 2
 1351 0066 0123     		movs	r3, #1
 1352 0068 FB75     		strb	r3, [r7, #23]
 540:../firmware/gd32f3x0_hal_peripheral/Source/gd32f3x0_hal_usrt.c ****     if(RESET != (USART_CTL0(usrt->periph) & USART_CTL0_WL)) {
 1353              		.loc 1 540 18 discriminator 2
 1354 006a FB68     		ldr	r3, [r7, #12]
 1355 006c 1B68     		ldr	r3, [r3]
 1356 006e 1B68     		ldr	r3, [r3]
 1357              		.loc 1 540 43 discriminator 2
 1358 0070 03F48053 		and	r3, r3, #4096
 1359              		.loc 1 540 7 discriminator 2
 1360 0074 002B     		cmp	r3, #0
 1361 0076 08D0     		beq	.L67
 541:../firmware/gd32f3x0_hal_peripheral/Source/gd32f3x0_hal_usrt.c ****         if(RESET == (USART_CTL0(usrt->periph) & USART_CTL0_PCEN)) {
 1362              		.loc 1 541 22
 1363 0078 FB68     		ldr	r3, [r7, #12]
 1364 007a 1B68     		ldr	r3, [r3]
 1365 007c 1B68     		ldr	r3, [r3]
 1366              		.loc 1 541 47
 1367 007e 03F48063 		and	r3, r3, #1024
 1368              		.loc 1 541 11
 1369 0082 002B     		cmp	r3, #0
 1370 0084 01D1     		bne	.L67
 542:../firmware/gd32f3x0_hal_peripheral/Source/gd32f3x0_hal_usrt.c ****             data_length = 2U;
 1371              		.loc 1 542 25
 1372 0086 0223     		movs	r3, #2
 1373 0088 FB75     		strb	r3, [r7, #23]
 1374              	.L67:
 543:../firmware/gd32f3x0_hal_peripheral/Source/gd32f3x0_hal_usrt.c ****         }
 544:../firmware/gd32f3x0_hal_peripheral/Source/gd32f3x0_hal_usrt.c ****     }
 545:../firmware/gd32f3x0_hal_peripheral/Source/gd32f3x0_hal_usrt.c **** 
 546:../firmware/gd32f3x0_hal_peripheral/Source/gd32f3x0_hal_usrt.c ****     /* configure timeout */
 547:../firmware/gd32f3x0_hal_peripheral/Source/gd32f3x0_hal_usrt.c ****     tick_start = hal_sys_basetick_count_get();
 1375              		.loc 1 547 18
 1376 008a FFF7FEFF 		bl	hal_sys_basetick_count_get
 1377 008e 3861     		str	r0, [r7, #16]
 548:../firmware/gd32f3x0_hal_peripheral/Source/gd32f3x0_hal_usrt.c **** 
 549:../firmware/gd32f3x0_hal_peripheral/Source/gd32f3x0_hal_usrt.c ****     while(usrt->rxbuffer.pos < usrt->rxbuffer.length) {
 1378              		.loc 1 549 10
 1379 0090 7AE0     		b	.L68
 1380              	.L71:
 550:../firmware/gd32f3x0_hal_peripheral/Source/gd32f3x0_hal_usrt.c ****         /* send dummy byte to generate clock for the slave to send data */
 551:../firmware/gd32f3x0_hal_peripheral/Source/gd32f3x0_hal_usrt.c ****         while(RESET == hals_usrt_flag_get(usrt->periph, USART_FLAG_TC)) {
 552:../firmware/gd32f3x0_hal_peripheral/Source/gd32f3x0_hal_usrt.c ****             if(HAL_TIMEOUT_FOREVER != timeout_ms) {
 1381              		.loc 1 552 15
 1382 0092 3B68     		ldr	r3, [r7]
 1383 0094 B3F1FF3F 		cmp	r3, #-1
 1384 0098 18D0     		beq	.L69
 553:../firmware/gd32f3x0_hal_peripheral/Source/gd32f3x0_hal_usrt.c ****                 if(SET == hal_sys_basetick_timeout_check(tick_start, timeout_ms)) {
 1385              		.loc 1 553 27
 1386 009a 3968     		ldr	r1, [r7]
 1387 009c 3869     		ldr	r0, [r7, #16]
 1388 009e FFF7FEFF 		bl	hal_sys_basetick_timeout_check
 1389 00a2 0346     		mov	r3, r0
 1390              		.loc 1 553 19
 1391 00a4 012B     		cmp	r3, #1
 1392 00a6 0AD1     		bne	.L70
 554:../firmware/gd32f3x0_hal_peripheral/Source/gd32f3x0_hal_usrt.c ****                     HAL_DEBUGW("usrt transmit timeout");
 555:../firmware/gd32f3x0_hal_peripheral/Source/gd32f3x0_hal_usrt.c ****                     /* reset the state */
 556:../firmware/gd32f3x0_hal_peripheral/Source/gd32f3x0_hal_usrt.c ****                     usrt->rx_state = USRT_STATE_FREE;
 1393              		.loc 1 556 36
 1394 00a8 FB68     		ldr	r3, [r7, #12]
 1395 00aa 0022     		movs	r2, #0
 1396 00ac 83F83B20 		strb	r2, [r3, #59]
 557:../firmware/gd32f3x0_hal_peripheral/Source/gd32f3x0_hal_usrt.c ****                     /* unlock usrt */
 558:../firmware/gd32f3x0_hal_peripheral/Source/gd32f3x0_hal_usrt.c ****                     HAL_UNLOCK(usrt);
 1397              		.loc 1 558 21
 1398 00b0 FB68     		ldr	r3, [r7, #12]
 1399 00b2 0022     		movs	r2, #0
 1400 00b4 83F84420 		strb	r2, [r3, #68]
 559:../firmware/gd32f3x0_hal_peripheral/Source/gd32f3x0_hal_usrt.c ****                     return HAL_ERR_TIMEOUT;
 1401              		.loc 1 559 28
 1402 00b8 6FF00403 		mvn	r3, #4
 1403 00bc 73E0     		b	.L65
 1404              	.L70:
 560:../firmware/gd32f3x0_hal_peripheral/Source/gd32f3x0_hal_usrt.c ****                 }
 561:../firmware/gd32f3x0_hal_peripheral/Source/gd32f3x0_hal_usrt.c ****                 hals_usrt_data_transmit(usrt->periph, USRT_DUMMY_DATA);
 1405              		.loc 1 561 17
 1406 00be FB68     		ldr	r3, [r7, #12]
 1407 00c0 1B68     		ldr	r3, [r3]
 1408 00c2 4FF6FF71 		movw	r1, #65535
 1409 00c6 1846     		mov	r0, r3
 1410 00c8 FFF7FEFF 		bl	hals_usrt_data_transmit
 1411              	.L69:
 551:../firmware/gd32f3x0_hal_peripheral/Source/gd32f3x0_hal_usrt.c ****             if(HAL_TIMEOUT_FOREVER != timeout_ms) {
 1412              		.loc 1 551 24
 1413 00cc FB68     		ldr	r3, [r7, #12]
 1414 00ce 1B68     		ldr	r3, [r3]
 1415 00d0 40F20671 		movw	r1, #1798
 1416 00d4 1846     		mov	r0, r3
 1417 00d6 FFF7FEFF 		bl	hals_usrt_flag_get
 1418 00da 0346     		mov	r3, r0
 551:../firmware/gd32f3x0_hal_peripheral/Source/gd32f3x0_hal_usrt.c ****             if(HAL_TIMEOUT_FOREVER != timeout_ms) {
 1419              		.loc 1 551 14
 1420 00dc 002B     		cmp	r3, #0
 1421 00de D8D0     		beq	.L71
 562:../firmware/gd32f3x0_hal_peripheral/Source/gd32f3x0_hal_usrt.c ****             }
 563:../firmware/gd32f3x0_hal_peripheral/Source/gd32f3x0_hal_usrt.c ****         }
 564:../firmware/gd32f3x0_hal_peripheral/Source/gd32f3x0_hal_usrt.c **** 
 565:../firmware/gd32f3x0_hal_peripheral/Source/gd32f3x0_hal_usrt.c ****         /* reconfigure the timeout */
 566:../firmware/gd32f3x0_hal_peripheral/Source/gd32f3x0_hal_usrt.c ****         tick_start = hal_sys_basetick_count_get();
 1422              		.loc 1 566 22
 1423 00e0 FFF7FEFF 		bl	hal_sys_basetick_count_get
 1424 00e4 3861     		str	r0, [r7, #16]
 567:../firmware/gd32f3x0_hal_peripheral/Source/gd32f3x0_hal_usrt.c ****         /* wait for read data buffer not empty */
 568:../firmware/gd32f3x0_hal_peripheral/Source/gd32f3x0_hal_usrt.c ****         while(RESET == hals_usrt_flag_get(usrt->periph, USART_FLAG_RBNE)) {
 1425              		.loc 1 568 14
 1426 00e6 15E0     		b	.L72
 1427              	.L73:
 569:../firmware/gd32f3x0_hal_peripheral/Source/gd32f3x0_hal_usrt.c ****             if(HAL_TIMEOUT_FOREVER != timeout_ms) {
 1428              		.loc 1 569 15
 1429 00e8 3B68     		ldr	r3, [r7]
 1430 00ea B3F1FF3F 		cmp	r3, #-1
 1431 00ee 11D0     		beq	.L72
 570:../firmware/gd32f3x0_hal_peripheral/Source/gd32f3x0_hal_usrt.c ****                 if(SET == hal_sys_basetick_timeout_check(tick_start, timeout_ms)) {
 1432              		.loc 1 570 27
 1433 00f0 3968     		ldr	r1, [r7]
 1434 00f2 3869     		ldr	r0, [r7, #16]
 1435 00f4 FFF7FEFF 		bl	hal_sys_basetick_timeout_check
 1436 00f8 0346     		mov	r3, r0
 1437              		.loc 1 570 19
 1438 00fa 012B     		cmp	r3, #1
 1439 00fc 0AD1     		bne	.L72
 571:../firmware/gd32f3x0_hal_peripheral/Source/gd32f3x0_hal_usrt.c ****                     HAL_DEBUGW("usrt receive timeout");
 572:../firmware/gd32f3x0_hal_peripheral/Source/gd32f3x0_hal_usrt.c ****                     /* reset the state */
 573:../firmware/gd32f3x0_hal_peripheral/Source/gd32f3x0_hal_usrt.c ****                     usrt->rx_state = USRT_STATE_FREE;
 1440              		.loc 1 573 36
 1441 00fe FB68     		ldr	r3, [r7, #12]
 1442 0100 0022     		movs	r2, #0
 1443 0102 83F83B20 		strb	r2, [r3, #59]
 574:../firmware/gd32f3x0_hal_peripheral/Source/gd32f3x0_hal_usrt.c ****                     /* unlock usrt */
 575:../firmware/gd32f3x0_hal_peripheral/Source/gd32f3x0_hal_usrt.c ****                     HAL_UNLOCK(usrt);
 1444              		.loc 1 575 21
 1445 0106 FB68     		ldr	r3, [r7, #12]
 1446 0108 0022     		movs	r2, #0
 1447 010a 83F84420 		strb	r2, [r3, #68]
 576:../firmware/gd32f3x0_hal_peripheral/Source/gd32f3x0_hal_usrt.c ****                     return HAL_ERR_TIMEOUT;
 1448              		.loc 1 576 28
 1449 010e 6FF00403 		mvn	r3, #4
 1450 0112 48E0     		b	.L65
 1451              	.L72:
 568:../firmware/gd32f3x0_hal_peripheral/Source/gd32f3x0_hal_usrt.c ****             if(HAL_TIMEOUT_FOREVER != timeout_ms) {
 1452              		.loc 1 568 24
 1453 0114 FB68     		ldr	r3, [r7, #12]
 1454 0116 1B68     		ldr	r3, [r3]
 1455 0118 40F20571 		movw	r1, #1797
 1456 011c 1846     		mov	r0, r3
 1457 011e FFF7FEFF 		bl	hals_usrt_flag_get
 1458 0122 0346     		mov	r3, r0
 568:../firmware/gd32f3x0_hal_peripheral/Source/gd32f3x0_hal_usrt.c ****             if(HAL_TIMEOUT_FOREVER != timeout_ms) {
 1459              		.loc 1 568 14
 1460 0124 002B     		cmp	r3, #0
 1461 0126 DFD0     		beq	.L73
 577:../firmware/gd32f3x0_hal_peripheral/Source/gd32f3x0_hal_usrt.c ****                 }
 578:../firmware/gd32f3x0_hal_peripheral/Source/gd32f3x0_hal_usrt.c ****             }
 579:../firmware/gd32f3x0_hal_peripheral/Source/gd32f3x0_hal_usrt.c ****         }
 580:../firmware/gd32f3x0_hal_peripheral/Source/gd32f3x0_hal_usrt.c **** 
 581:../firmware/gd32f3x0_hal_peripheral/Source/gd32f3x0_hal_usrt.c ****         /* read data from data register */
 582:../firmware/gd32f3x0_hal_peripheral/Source/gd32f3x0_hal_usrt.c ****         if(2U == data_length) {
 1462              		.loc 1 582 11
 1463 0128 FB7D     		ldrb	r3, [r7, #23]	@ zero_extendqisi2
 1464 012a 022B     		cmp	r3, #2
 1465 012c 14D1     		bne	.L74
 583:../firmware/gd32f3x0_hal_peripheral/Source/gd32f3x0_hal_usrt.c ****             *usrt->rxbuffer.buffer = (uint8_t)(hals_usrt_data_receive(usrt->periph) & usrt->data_bi
 1466              		.loc 1 583 48
 1467 012e FB68     		ldr	r3, [r7, #12]
 1468 0130 1B68     		ldr	r3, [r3]
 1469 0132 1846     		mov	r0, r3
 1470 0134 FFF7FEFF 		bl	hals_usrt_data_receive
 1471 0138 0346     		mov	r3, r0
 1472              		.loc 1 583 38
 1473 013a D9B2     		uxtb	r1, r3
 1474              		.loc 1 583 91
 1475 013c FB68     		ldr	r3, [r7, #12]
 1476 013e 9B8E     		ldrh	r3, [r3, #52]
 1477              		.loc 1 583 38
 1478 0140 DAB2     		uxtb	r2, r3
 1479              		.loc 1 583 28
 1480 0142 FB68     		ldr	r3, [r7, #12]
 1481 0144 9B6A     		ldr	r3, [r3, #40]
 1482              		.loc 1 583 38
 1483 0146 0A40     		ands	r2, r2, r1
 1484 0148 D2B2     		uxtb	r2, r2
 1485              		.loc 1 583 36
 1486 014a 1A70     		strb	r2, [r3]
 584:../firmware/gd32f3x0_hal_peripheral/Source/gd32f3x0_hal_usrt.c ****             usrt->rxbuffer.buffer++;
 1487              		.loc 1 584 27
 1488 014c FB68     		ldr	r3, [r7, #12]
 1489 014e 9B6A     		ldr	r3, [r3, #40]
 1490              		.loc 1 584 34
 1491 0150 5A1C     		adds	r2, r3, #1
 1492 0152 FB68     		ldr	r3, [r7, #12]
 1493 0154 9A62     		str	r2, [r3, #40]
 1494 0156 12E0     		b	.L75
 1495              	.L74:
 585:../firmware/gd32f3x0_hal_peripheral/Source/gd32f3x0_hal_usrt.c ****         } else {
 586:../firmware/gd32f3x0_hal_peripheral/Source/gd32f3x0_hal_usrt.c ****             *(uint16_t *)usrt->rxbuffer.buffer = (hals_usrt_data_receive(usrt->periph) & usrt->data
 1496              		.loc 1 586 51
 1497 0158 FB68     		ldr	r3, [r7, #12]
 1498 015a 1B68     		ldr	r3, [r3]
 1499 015c 1846     		mov	r0, r3
 1500 015e FFF7FEFF 		bl	hals_usrt_data_receive
 1501 0162 0346     		mov	r3, r0
 1502 0164 1946     		mov	r1, r3
 1503              		.loc 1 586 94
 1504 0166 FB68     		ldr	r3, [r7, #12]
 1505 0168 9A8E     		ldrh	r2, [r3, #52]
 1506              		.loc 1 586 40
 1507 016a FB68     		ldr	r3, [r7, #12]
 1508 016c 9B6A     		ldr	r3, [r3, #40]
 1509              		.loc 1 586 48
 1510 016e 0A40     		ands	r2, r2, r1
 1511 0170 92B2     		uxth	r2, r2
 1512 0172 1A80     		strh	r2, [r3]	@ movhi
 587:../firmware/gd32f3x0_hal_peripheral/Source/gd32f3x0_hal_usrt.c ****             usrt->rxbuffer.buffer += 2;
 1513              		.loc 1 587 35
 1514 0174 FB68     		ldr	r3, [r7, #12]
 1515 0176 9B6A     		ldr	r3, [r3, #40]
 1516 0178 9A1C     		adds	r2, r3, #2
 1517 017a FB68     		ldr	r3, [r7, #12]
 1518 017c 9A62     		str	r2, [r3, #40]
 1519              	.L75:
 588:../firmware/gd32f3x0_hal_peripheral/Source/gd32f3x0_hal_usrt.c ****         }
 589:../firmware/gd32f3x0_hal_peripheral/Source/gd32f3x0_hal_usrt.c ****         /* change the receive pointer */
 590:../firmware/gd32f3x0_hal_peripheral/Source/gd32f3x0_hal_usrt.c ****         usrt->rxbuffer.pos++;
 1520              		.loc 1 590 23
 1521 017e FB68     		ldr	r3, [r7, #12]
 1522 0180 1B6B     		ldr	r3, [r3, #48]
 1523              		.loc 1 590 27
 1524 0182 5A1C     		adds	r2, r3, #1
 1525 0184 FB68     		ldr	r3, [r7, #12]
 1526 0186 1A63     		str	r2, [r3, #48]
 1527              	.L68:
 549:../firmware/gd32f3x0_hal_peripheral/Source/gd32f3x0_hal_usrt.c ****         /* send dummy byte to generate clock for the slave to send data */
 1528              		.loc 1 549 25
 1529 0188 FB68     		ldr	r3, [r7, #12]
 1530 018a 1A6B     		ldr	r2, [r3, #48]
 549:../firmware/gd32f3x0_hal_peripheral/Source/gd32f3x0_hal_usrt.c ****         /* send dummy byte to generate clock for the slave to send data */
 1531              		.loc 1 549 46
 1532 018c FB68     		ldr	r3, [r7, #12]
 1533 018e DB6A     		ldr	r3, [r3, #44]
 549:../firmware/gd32f3x0_hal_peripheral/Source/gd32f3x0_hal_usrt.c ****         /* send dummy byte to generate clock for the slave to send data */
 1534              		.loc 1 549 10
 1535 0190 9A42     		cmp	r2, r3
 1536 0192 9BD3     		bcc	.L69
 591:../firmware/gd32f3x0_hal_peripheral/Source/gd32f3x0_hal_usrt.c ****     }
 592:../firmware/gd32f3x0_hal_peripheral/Source/gd32f3x0_hal_usrt.c **** 
 593:../firmware/gd32f3x0_hal_peripheral/Source/gd32f3x0_hal_usrt.c ****     /* change the Rx state to free */
 594:../firmware/gd32f3x0_hal_peripheral/Source/gd32f3x0_hal_usrt.c ****     usrt->rx_state = USRT_STATE_FREE;
 1537              		.loc 1 594 20
 1538 0194 FB68     		ldr	r3, [r7, #12]
 1539 0196 0022     		movs	r2, #0
 1540 0198 83F83B20 		strb	r2, [r3, #59]
 595:../firmware/gd32f3x0_hal_peripheral/Source/gd32f3x0_hal_usrt.c **** 
 596:../firmware/gd32f3x0_hal_peripheral/Source/gd32f3x0_hal_usrt.c ****     /* unlock usrt */
 597:../firmware/gd32f3x0_hal_peripheral/Source/gd32f3x0_hal_usrt.c ****     HAL_UNLOCK(usrt);
 1541              		.loc 1 597 5
 1542 019c FB68     		ldr	r3, [r7, #12]
 1543 019e 0022     		movs	r2, #0
 1544 01a0 83F84420 		strb	r2, [r3, #68]
 598:../firmware/gd32f3x0_hal_peripheral/Source/gd32f3x0_hal_usrt.c **** 
 599:../firmware/gd32f3x0_hal_peripheral/Source/gd32f3x0_hal_usrt.c ****     return HAL_ERR_NONE;
 1545              		.loc 1 599 12
 1546 01a4 0023     		movs	r3, #0
 1547              	.L65:
 600:../firmware/gd32f3x0_hal_peripheral/Source/gd32f3x0_hal_usrt.c **** }
 1548              		.loc 1 600 1
 1549 01a6 1846     		mov	r0, r3
 1550 01a8 1837     		adds	r7, r7, #24
 1551              		.cfi_def_cfa_offset 8
 1552 01aa BD46     		mov	sp, r7
 1553              		.cfi_def_cfa_register 13
 1554              		@ sp needed
 1555 01ac 80BD     		pop	{r7, pc}
 1556              		.cfi_endproc
 1557              	.LFE126:
 1559              		.section	.text.hal_usrt_transmit_receive_poll,"ax",%progbits
 1560              		.align	1
 1561              		.global	hal_usrt_transmit_receive_poll
 1562              		.syntax unified
 1563              		.thumb
 1564              		.thumb_func
 1565              		.fpu softvfp
 1567              	hal_usrt_transmit_receive_poll:
 1568              	.LFB127:
 601:../firmware/gd32f3x0_hal_peripheral/Source/gd32f3x0_hal_usrt.c **** 
 602:../firmware/gd32f3x0_hal_peripheral/Source/gd32f3x0_hal_usrt.c **** /*!
 603:../firmware/gd32f3x0_hal_peripheral/Source/gd32f3x0_hal_usrt.c ****     \brief      transmit & receive amounts of data, poll transfer process and completed status
 604:../firmware/gd32f3x0_hal_peripheral/Source/gd32f3x0_hal_usrt.c ****                 the function is blocking
 605:../firmware/gd32f3x0_hal_peripheral/Source/gd32f3x0_hal_usrt.c ****     \param[in]  usrt: usrt device information structure
 606:../firmware/gd32f3x0_hal_peripheral/Source/gd32f3x0_hal_usrt.c ****                     the structure is not necessary to be reconfigured after structrue initializatio
 607:../firmware/gd32f3x0_hal_peripheral/Source/gd32f3x0_hal_usrt.c ****                     the structure parameters altering is automatically configured by core
 608:../firmware/gd32f3x0_hal_peripheral/Source/gd32f3x0_hal_usrt.c ****     \param[in]  p_tx_buffer: pointer to Tx data buffer
 609:../firmware/gd32f3x0_hal_peripheral/Source/gd32f3x0_hal_usrt.c ****     \param[in]  p_rx_buffer: pointer to Rx data buffer
 610:../firmware/gd32f3x0_hal_peripheral/Source/gd32f3x0_hal_usrt.c ****     \param[in]  length: number of data to be received
 611:../firmware/gd32f3x0_hal_peripheral/Source/gd32f3x0_hal_usrt.c ****     \param[in]  timeout_ms: timeout duration
 612:../firmware/gd32f3x0_hal_peripheral/Source/gd32f3x0_hal_usrt.c ****     \param[out] none
 613:../firmware/gd32f3x0_hal_peripheral/Source/gd32f3x0_hal_usrt.c ****     \retval     error code: HAL_ERR_NONE, HAL_ERR_ADDRESS, HAL_ERR_VAL, HAL_ERR_BUSY details refer 
 614:../firmware/gd32f3x0_hal_peripheral/Source/gd32f3x0_hal_usrt.c **** */
 615:../firmware/gd32f3x0_hal_peripheral/Source/gd32f3x0_hal_usrt.c **** int32_t hal_usrt_transmit_receive_poll(hal_usrt_dev_struct *usrt, uint8_t *p_tx_buffer, uint8_t *p_
 616:../firmware/gd32f3x0_hal_peripheral/Source/gd32f3x0_hal_usrt.c **** {
 1569              		.loc 1 616 1
 1570              		.cfi_startproc
 1571              		@ args = 4, pretend = 0, frame = 24
 1572              		@ frame_needed = 1, uses_anonymous_args = 0
 1573 0000 80B5     		push	{r7, lr}
 1574              		.cfi_def_cfa_offset 8
 1575              		.cfi_offset 7, -8
 1576              		.cfi_offset 14, -4
 1577 0002 86B0     		sub	sp, sp, #24
 1578              		.cfi_def_cfa_offset 32
 1579 0004 00AF     		add	r7, sp, #0
 1580              		.cfi_def_cfa_register 7
 1581 0006 F860     		str	r0, [r7, #12]
 1582 0008 B960     		str	r1, [r7, #8]
 1583 000a 7A60     		str	r2, [r7, #4]
 1584 000c 3B60     		str	r3, [r7]
 617:../firmware/gd32f3x0_hal_peripheral/Source/gd32f3x0_hal_usrt.c ****     uint8_t data_length;
 618:../firmware/gd32f3x0_hal_peripheral/Source/gd32f3x0_hal_usrt.c ****     uint32_t tick_start;
 619:../firmware/gd32f3x0_hal_peripheral/Source/gd32f3x0_hal_usrt.c **** 
 620:../firmware/gd32f3x0_hal_peripheral/Source/gd32f3x0_hal_usrt.c **** #if (1 == HAL_PARAMETER_CHECK)
 621:../firmware/gd32f3x0_hal_peripheral/Source/gd32f3x0_hal_usrt.c ****     /* check the parameters */
 622:../firmware/gd32f3x0_hal_peripheral/Source/gd32f3x0_hal_usrt.c ****     if((NULL == usrt) || (NULL == p_tx_buffer) || (NULL == p_rx_buffer) ||
 623:../firmware/gd32f3x0_hal_peripheral/Source/gd32f3x0_hal_usrt.c ****             (0U == length)) {
 624:../firmware/gd32f3x0_hal_peripheral/Source/gd32f3x0_hal_usrt.c ****         HAL_DEBUGE("parameter [usrt] or [p_tx_buffer] or [p_rx_buffer] or [length] value is invalid
 625:../firmware/gd32f3x0_hal_peripheral/Source/gd32f3x0_hal_usrt.c ****         return HAL_ERR_ADDRESS;
 626:../firmware/gd32f3x0_hal_peripheral/Source/gd32f3x0_hal_usrt.c ****     }
 627:../firmware/gd32f3x0_hal_peripheral/Source/gd32f3x0_hal_usrt.c **** #endif /* 1 == HAL_PARAMETER_CHECK */
 628:../firmware/gd32f3x0_hal_peripheral/Source/gd32f3x0_hal_usrt.c **** 
 629:../firmware/gd32f3x0_hal_peripheral/Source/gd32f3x0_hal_usrt.c ****     /* 9-bit transfer with no parity, if tx or rx buffer address is not aligned on uint16_t, return
 630:../firmware/gd32f3x0_hal_peripheral/Source/gd32f3x0_hal_usrt.c ****     if((RESET != (USART_CTL0(usrt->periph) & USART_CTL0_WL)) && \
 1585              		.loc 1 630 19
 1586 000e FB68     		ldr	r3, [r7, #12]
 1587 0010 1B68     		ldr	r3, [r3]
 1588 0012 1B68     		ldr	r3, [r3]
 1589              		.loc 1 630 44
 1590 0014 03F48053 		and	r3, r3, #4096
 1591              		.loc 1 630 7
 1592 0018 002B     		cmp	r3, #0
 1593 001a 16D0     		beq	.L78
 631:../firmware/gd32f3x0_hal_peripheral/Source/gd32f3x0_hal_usrt.c ****             (RESET == (USART_CTL0(usrt->periph) & USART_CTL0_PCEN))) {
 1594              		.loc 1 631 24 discriminator 1
 1595 001c FB68     		ldr	r3, [r7, #12]
 1596 001e 1B68     		ldr	r3, [r3]
 1597 0020 1B68     		ldr	r3, [r3]
 1598              		.loc 1 631 49 discriminator 1
 1599 0022 03F48063 		and	r3, r3, #1024
 630:../firmware/gd32f3x0_hal_peripheral/Source/gd32f3x0_hal_usrt.c ****             (RESET == (USART_CTL0(usrt->periph) & USART_CTL0_PCEN))) {
 1600              		.loc 1 630 62 discriminator 1
 1601 0026 002B     		cmp	r3, #0
 1602 0028 0FD1     		bne	.L78
 632:../firmware/gd32f3x0_hal_peripheral/Source/gd32f3x0_hal_usrt.c ****         if(RESET != (((uint32_t)p_tx_buffer || (uint32_t)p_rx_buffer) & 1U)) {
 1603              		.loc 1 632 45
 1604 002a BB68     		ldr	r3, [r7, #8]
 1605 002c 002B     		cmp	r3, #0
 1606 002e 02D1     		bne	.L79
 1607              		.loc 1 632 45 is_stmt 0 discriminator 2
 1608 0030 7B68     		ldr	r3, [r7, #4]
 1609 0032 002B     		cmp	r3, #0
 1610 0034 01D0     		beq	.L80
 1611              	.L79:
 1612              		.loc 1 632 45 discriminator 3
 1613 0036 0123     		movs	r3, #1
 1614 0038 00E0     		b	.L81
 1615              	.L80:
 1616              		.loc 1 632 45 discriminator 4
 1617 003a 0023     		movs	r3, #0
 1618              	.L81:
 1619              		.loc 1 632 71 is_stmt 1 discriminator 6
 1620 003c 03F00103 		and	r3, r3, #1
 1621              		.loc 1 632 11 discriminator 6
 1622 0040 002B     		cmp	r3, #0
 1623 0042 02D0     		beq	.L78
 633:../firmware/gd32f3x0_hal_peripheral/Source/gd32f3x0_hal_usrt.c ****             return HAL_ERR_ADDRESS;
 1624              		.loc 1 633 20
 1625 0044 6FF00603 		mvn	r3, #6
 1626 0048 12E1     		b	.L82
 1627              	.L78:
 634:../firmware/gd32f3x0_hal_peripheral/Source/gd32f3x0_hal_usrt.c ****         }
 635:../firmware/gd32f3x0_hal_peripheral/Source/gd32f3x0_hal_usrt.c ****     }
 636:../firmware/gd32f3x0_hal_peripheral/Source/gd32f3x0_hal_usrt.c **** 
 637:../firmware/gd32f3x0_hal_peripheral/Source/gd32f3x0_hal_usrt.c ****     /* check the rx_state wheher is busy or not */
 638:../firmware/gd32f3x0_hal_peripheral/Source/gd32f3x0_hal_usrt.c ****     if(USRT_STATE_BUSY == usrt->rx_state) {
 1628              		.loc 1 638 31
 1629 004a FB68     		ldr	r3, [r7, #12]
 1630 004c 93F83B30 		ldrb	r3, [r3, #59]
 1631 0050 DBB2     		uxtb	r3, r3
 1632              		.loc 1 638 7
 1633 0052 012B     		cmp	r3, #1
 1634 0054 02D1     		bne	.L83
 639:../firmware/gd32f3x0_hal_peripheral/Source/gd32f3x0_hal_usrt.c ****         HAL_DEBUGE("usrt rx has already been used, please wait until run_state change to free ");
 640:../firmware/gd32f3x0_hal_peripheral/Source/gd32f3x0_hal_usrt.c ****         return HAL_ERR_BUSY;
 1635              		.loc 1 640 16
 1636 0056 6FF00203 		mvn	r3, #2
 1637 005a 09E1     		b	.L82
 1638              	.L83:
 641:../firmware/gd32f3x0_hal_peripheral/Source/gd32f3x0_hal_usrt.c ****     }
 642:../firmware/gd32f3x0_hal_peripheral/Source/gd32f3x0_hal_usrt.c **** 
 643:../firmware/gd32f3x0_hal_peripheral/Source/gd32f3x0_hal_usrt.c ****     /* lock usrt */
 644:../firmware/gd32f3x0_hal_peripheral/Source/gd32f3x0_hal_usrt.c ****     HAL_LOCK(usrt);
 1639              		.loc 1 644 5
 1640 005c FB68     		ldr	r3, [r7, #12]
 1641 005e 93F84430 		ldrb	r3, [r3, #68]	@ zero_extendqisi2
 1642 0062 012B     		cmp	r3, #1
 1643 0064 02D1     		bne	.L84
 1644              		.loc 1 644 5 is_stmt 0 discriminator 1
 1645 0066 6FF00103 		mvn	r3, #1
 1646 006a 01E1     		b	.L82
 1647              	.L84:
 1648              		.loc 1 644 5 discriminator 2
 1649 006c FB68     		ldr	r3, [r7, #12]
 1650 006e 0122     		movs	r2, #1
 1651 0070 83F84420 		strb	r2, [r3, #68]
 645:../firmware/gd32f3x0_hal_peripheral/Source/gd32f3x0_hal_usrt.c **** 
 646:../firmware/gd32f3x0_hal_peripheral/Source/gd32f3x0_hal_usrt.c ****     /* initialize receive parameters */
 647:../firmware/gd32f3x0_hal_peripheral/Source/gd32f3x0_hal_usrt.c ****     usrt->error_state = HAL_USRT_ERROR_NONE;
 1652              		.loc 1 647 23 is_stmt 1 discriminator 2
 1653 0074 FB68     		ldr	r3, [r7, #12]
 1654 0076 0022     		movs	r2, #0
 1655 0078 1A87     		strh	r2, [r3, #56]	@ movhi
 648:../firmware/gd32f3x0_hal_peripheral/Source/gd32f3x0_hal_usrt.c ****     usrt->rx_state = USRT_STATE_BUSY;
 1656              		.loc 1 648 20 discriminator 2
 1657 007a FB68     		ldr	r3, [r7, #12]
 1658 007c 0122     		movs	r2, #1
 1659 007e 83F83B20 		strb	r2, [r3, #59]
 649:../firmware/gd32f3x0_hal_peripheral/Source/gd32f3x0_hal_usrt.c ****     usrt->rxbuffer.buffer   = (uint8_t *)p_rx_buffer;
 1660              		.loc 1 649 29 discriminator 2
 1661 0082 FB68     		ldr	r3, [r7, #12]
 1662 0084 7A68     		ldr	r2, [r7, #4]
 1663 0086 9A62     		str	r2, [r3, #40]
 650:../firmware/gd32f3x0_hal_peripheral/Source/gd32f3x0_hal_usrt.c ****     usrt->rxbuffer.length   = length;
 1664              		.loc 1 650 29 discriminator 2
 1665 0088 FB68     		ldr	r3, [r7, #12]
 1666 008a 3A68     		ldr	r2, [r7]
 1667 008c DA62     		str	r2, [r3, #44]
 651:../firmware/gd32f3x0_hal_peripheral/Source/gd32f3x0_hal_usrt.c ****     usrt->rxbuffer.pos      = 0U;
 1668              		.loc 1 651 29 discriminator 2
 1669 008e FB68     		ldr	r3, [r7, #12]
 1670 0090 0022     		movs	r2, #0
 1671 0092 1A63     		str	r2, [r3, #48]
 652:../firmware/gd32f3x0_hal_peripheral/Source/gd32f3x0_hal_usrt.c ****     usrt->data_bit_mask     = _usrt_data_bit_mask_get(usrt);
 1672              		.loc 1 652 31 discriminator 2
 1673 0094 F868     		ldr	r0, [r7, #12]
 1674 0096 FFF7FEFF 		bl	_usrt_data_bit_mask_get
 1675 009a 0346     		mov	r3, r0
 1676 009c 1A46     		mov	r2, r3
 1677              		.loc 1 652 29 discriminator 2
 1678 009e FB68     		ldr	r3, [r7, #12]
 1679 00a0 9A86     		strh	r2, [r3, #52]	@ movhi
 653:../firmware/gd32f3x0_hal_peripheral/Source/gd32f3x0_hal_usrt.c **** 
 654:../firmware/gd32f3x0_hal_peripheral/Source/gd32f3x0_hal_usrt.c ****     /* initialize transmit parameters */
 655:../firmware/gd32f3x0_hal_peripheral/Source/gd32f3x0_hal_usrt.c ****     usrt->tx_state = USRT_STATE_BUSY;
 1680              		.loc 1 655 20 discriminator 2
 1681 00a2 FB68     		ldr	r3, [r7, #12]
 1682 00a4 0122     		movs	r2, #1
 1683 00a6 83F83A20 		strb	r2, [r3, #58]
 656:../firmware/gd32f3x0_hal_peripheral/Source/gd32f3x0_hal_usrt.c ****     usrt->txbuffer.buffer = (uint8_t *)p_tx_buffer;
 1684              		.loc 1 656 27 discriminator 2
 1685 00aa FB68     		ldr	r3, [r7, #12]
 1686 00ac BA68     		ldr	r2, [r7, #8]
 1687 00ae DA61     		str	r2, [r3, #28]
 657:../firmware/gd32f3x0_hal_peripheral/Source/gd32f3x0_hal_usrt.c ****     usrt->txbuffer.length = length;
 1688              		.loc 1 657 27 discriminator 2
 1689 00b0 FB68     		ldr	r3, [r7, #12]
 1690 00b2 3A68     		ldr	r2, [r7]
 1691 00b4 1A62     		str	r2, [r3, #32]
 658:../firmware/gd32f3x0_hal_peripheral/Source/gd32f3x0_hal_usrt.c **** 
 659:../firmware/gd32f3x0_hal_peripheral/Source/gd32f3x0_hal_usrt.c ****     /* calculate the data length */
 660:../firmware/gd32f3x0_hal_peripheral/Source/gd32f3x0_hal_usrt.c ****     data_length = 1;
 1692              		.loc 1 660 17 discriminator 2
 1693 00b6 0123     		movs	r3, #1
 1694 00b8 FB75     		strb	r3, [r7, #23]
 661:../firmware/gd32f3x0_hal_peripheral/Source/gd32f3x0_hal_usrt.c ****     if(RESET != (USART_CTL0(usrt->periph) & USART_CTL0_WL)) {
 1695              		.loc 1 661 18 discriminator 2
 1696 00ba FB68     		ldr	r3, [r7, #12]
 1697 00bc 1B68     		ldr	r3, [r3]
 1698 00be 1B68     		ldr	r3, [r3]
 1699              		.loc 1 661 43 discriminator 2
 1700 00c0 03F48053 		and	r3, r3, #4096
 1701              		.loc 1 661 7 discriminator 2
 1702 00c4 002B     		cmp	r3, #0
 1703 00c6 08D0     		beq	.L85
 662:../firmware/gd32f3x0_hal_peripheral/Source/gd32f3x0_hal_usrt.c ****         if(RESET == (USART_CTL0(usrt->periph) & USART_CTL0_PCEN)) {
 1704              		.loc 1 662 22
 1705 00c8 FB68     		ldr	r3, [r7, #12]
 1706 00ca 1B68     		ldr	r3, [r3]
 1707 00cc 1B68     		ldr	r3, [r3]
 1708              		.loc 1 662 47
 1709 00ce 03F48063 		and	r3, r3, #1024
 1710              		.loc 1 662 11
 1711 00d2 002B     		cmp	r3, #0
 1712 00d4 01D1     		bne	.L85
 663:../firmware/gd32f3x0_hal_peripheral/Source/gd32f3x0_hal_usrt.c ****             data_length = 2U;
 1713              		.loc 1 663 25
 1714 00d6 0223     		movs	r3, #2
 1715 00d8 FB75     		strb	r3, [r7, #23]
 1716              	.L85:
 664:../firmware/gd32f3x0_hal_peripheral/Source/gd32f3x0_hal_usrt.c ****         }
 665:../firmware/gd32f3x0_hal_peripheral/Source/gd32f3x0_hal_usrt.c ****     }
 666:../firmware/gd32f3x0_hal_peripheral/Source/gd32f3x0_hal_usrt.c **** 
 667:../firmware/gd32f3x0_hal_peripheral/Source/gd32f3x0_hal_usrt.c ****     /* configure timeout */
 668:../firmware/gd32f3x0_hal_peripheral/Source/gd32f3x0_hal_usrt.c ****     tick_start = hal_sys_basetick_count_get();
 1717              		.loc 1 668 18
 1718 00da FFF7FEFF 		bl	hal_sys_basetick_count_get
 1719 00de 3861     		str	r0, [r7, #16]
 669:../firmware/gd32f3x0_hal_peripheral/Source/gd32f3x0_hal_usrt.c **** 
 670:../firmware/gd32f3x0_hal_peripheral/Source/gd32f3x0_hal_usrt.c ****     while(usrt->rxbuffer.pos < usrt->rxbuffer.length) {
 1720              		.loc 1 670 10
 1721 00e0 B2E0     		b	.L86
 1722              	.L88:
 671:../firmware/gd32f3x0_hal_peripheral/Source/gd32f3x0_hal_usrt.c ****         /* wait the TBE flag is set */
 672:../firmware/gd32f3x0_hal_peripheral/Source/gd32f3x0_hal_usrt.c ****         while(RESET == hals_usrt_flag_get(usrt->periph, USART_FLAG_TBE)) {
 673:../firmware/gd32f3x0_hal_peripheral/Source/gd32f3x0_hal_usrt.c ****             if(HAL_TIMEOUT_FOREVER != timeout_ms) {
 1723              		.loc 1 673 15
 1724 00e2 3B6A     		ldr	r3, [r7, #32]
 1725 00e4 B3F1FF3F 		cmp	r3, #-1
 1726 00e8 11D0     		beq	.L87
 674:../firmware/gd32f3x0_hal_peripheral/Source/gd32f3x0_hal_usrt.c ****                 if(SET == hal_sys_basetick_timeout_check(tick_start, timeout_ms)) {
 1727              		.loc 1 674 27
 1728 00ea 396A     		ldr	r1, [r7, #32]
 1729 00ec 3869     		ldr	r0, [r7, #16]
 1730 00ee FFF7FEFF 		bl	hal_sys_basetick_timeout_check
 1731 00f2 0346     		mov	r3, r0
 1732              		.loc 1 674 19
 1733 00f4 012B     		cmp	r3, #1
 1734 00f6 0AD1     		bne	.L87
 675:../firmware/gd32f3x0_hal_peripheral/Source/gd32f3x0_hal_usrt.c ****                     HAL_DEBUGW("usrt TBE flag set timeout");
 676:../firmware/gd32f3x0_hal_peripheral/Source/gd32f3x0_hal_usrt.c ****                     /* reset the state */
 677:../firmware/gd32f3x0_hal_peripheral/Source/gd32f3x0_hal_usrt.c ****                     usrt->tx_state = USRT_STATE_FREE;
 1735              		.loc 1 677 36
 1736 00f8 FB68     		ldr	r3, [r7, #12]
 1737 00fa 0022     		movs	r2, #0
 1738 00fc 83F83A20 		strb	r2, [r3, #58]
 678:../firmware/gd32f3x0_hal_peripheral/Source/gd32f3x0_hal_usrt.c ****                     /* unlock usrt */
 679:../firmware/gd32f3x0_hal_peripheral/Source/gd32f3x0_hal_usrt.c ****                     HAL_UNLOCK(usrt);
 1739              		.loc 1 679 21
 1740 0100 FB68     		ldr	r3, [r7, #12]
 1741 0102 0022     		movs	r2, #0
 1742 0104 83F84420 		strb	r2, [r3, #68]
 680:../firmware/gd32f3x0_hal_peripheral/Source/gd32f3x0_hal_usrt.c ****                     return HAL_ERR_TIMEOUT;
 1743              		.loc 1 680 28
 1744 0108 6FF00403 		mvn	r3, #4
 1745 010c B0E0     		b	.L82
 1746              	.L87:
 672:../firmware/gd32f3x0_hal_peripheral/Source/gd32f3x0_hal_usrt.c ****             if(HAL_TIMEOUT_FOREVER != timeout_ms) {
 1747              		.loc 1 672 24
 1748 010e FB68     		ldr	r3, [r7, #12]
 1749 0110 1B68     		ldr	r3, [r3]
 1750 0112 40F20771 		movw	r1, #1799
 1751 0116 1846     		mov	r0, r3
 1752 0118 FFF7FEFF 		bl	hals_usrt_flag_get
 1753 011c 0346     		mov	r3, r0
 672:../firmware/gd32f3x0_hal_peripheral/Source/gd32f3x0_hal_usrt.c ****             if(HAL_TIMEOUT_FOREVER != timeout_ms) {
 1754              		.loc 1 672 14
 1755 011e 002B     		cmp	r3, #0
 1756 0120 DFD0     		beq	.L88
 681:../firmware/gd32f3x0_hal_peripheral/Source/gd32f3x0_hal_usrt.c ****                 }
 682:../firmware/gd32f3x0_hal_peripheral/Source/gd32f3x0_hal_usrt.c ****             }
 683:../firmware/gd32f3x0_hal_peripheral/Source/gd32f3x0_hal_usrt.c ****         }
 684:../firmware/gd32f3x0_hal_peripheral/Source/gd32f3x0_hal_usrt.c **** 
 685:../firmware/gd32f3x0_hal_peripheral/Source/gd32f3x0_hal_usrt.c ****         /* send the data to be transmitted */
 686:../firmware/gd32f3x0_hal_peripheral/Source/gd32f3x0_hal_usrt.c ****         if(2U == data_length) {
 1757              		.loc 1 686 11
 1758 0122 FB7D     		ldrb	r3, [r7, #23]	@ zero_extendqisi2
 1759 0124 022B     		cmp	r3, #2
 1760 0126 11D1     		bne	.L89
 687:../firmware/gd32f3x0_hal_peripheral/Source/gd32f3x0_hal_usrt.c ****             hals_usrt_data_transmit(usrt->periph, (*(uint16_t *)usrt->txbuffer.buffer & usrt->data_
 1761              		.loc 1 687 13
 1762 0128 FB68     		ldr	r3, [r7, #12]
 1763 012a 1868     		ldr	r0, [r3]
 1764              		.loc 1 687 79
 1765 012c FB68     		ldr	r3, [r7, #12]
 1766 012e DB69     		ldr	r3, [r3, #28]
 1767              		.loc 1 687 52
 1768 0130 1A88     		ldrh	r2, [r3]
 1769              		.loc 1 687 93
 1770 0132 FB68     		ldr	r3, [r7, #12]
 1771 0134 9B8E     		ldrh	r3, [r3, #52]
 1772              		.loc 1 687 13
 1773 0136 1340     		ands	r3, r3, r2
 1774 0138 9BB2     		uxth	r3, r3
 1775 013a 1946     		mov	r1, r3
 1776 013c FFF7FEFF 		bl	hals_usrt_data_transmit
 688:../firmware/gd32f3x0_hal_peripheral/Source/gd32f3x0_hal_usrt.c ****             usrt->txbuffer.buffer += 2;
 1777              		.loc 1 688 35
 1778 0140 FB68     		ldr	r3, [r7, #12]
 1779 0142 DB69     		ldr	r3, [r3, #28]
 1780 0144 9A1C     		adds	r2, r3, #2
 1781 0146 FB68     		ldr	r3, [r7, #12]
 1782 0148 DA61     		str	r2, [r3, #28]
 1783 014a 22E0     		b	.L91
 1784              	.L89:
 689:../firmware/gd32f3x0_hal_peripheral/Source/gd32f3x0_hal_usrt.c ****         } else {
 690:../firmware/gd32f3x0_hal_peripheral/Source/gd32f3x0_hal_usrt.c ****             hals_usrt_data_transmit(usrt->periph, (*usrt->txbuffer.buffer & (uint8_t)usrt->data_bit
 1785              		.loc 1 690 13
 1786 014c FB68     		ldr	r3, [r7, #12]
 1787 014e 1868     		ldr	r0, [r3]
 1788              		.loc 1 690 67
 1789 0150 FB68     		ldr	r3, [r7, #12]
 1790 0152 DB69     		ldr	r3, [r3, #28]
 1791              		.loc 1 690 52
 1792 0154 1B78     		ldrb	r3, [r3]
 1793 0156 DAB2     		uxtb	r2, r3
 1794              		.loc 1 690 90
 1795 0158 FB68     		ldr	r3, [r7, #12]
 1796 015a 9B8E     		ldrh	r3, [r3, #52]
 1797              		.loc 1 690 77
 1798 015c DBB2     		uxtb	r3, r3
 1799              		.loc 1 690 13
 1800 015e 1340     		ands	r3, r3, r2
 1801 0160 DBB2     		uxtb	r3, r3
 1802 0162 9BB2     		uxth	r3, r3
 1803 0164 1946     		mov	r1, r3
 1804 0166 FFF7FEFF 		bl	hals_usrt_data_transmit
 691:../firmware/gd32f3x0_hal_peripheral/Source/gd32f3x0_hal_usrt.c ****             usrt->txbuffer.buffer++;
 1805              		.loc 1 691 27
 1806 016a FB68     		ldr	r3, [r7, #12]
 1807 016c DB69     		ldr	r3, [r3, #28]
 1808              		.loc 1 691 34
 1809 016e 5A1C     		adds	r2, r3, #1
 1810 0170 FB68     		ldr	r3, [r7, #12]
 1811 0172 DA61     		str	r2, [r3, #28]
 692:../firmware/gd32f3x0_hal_peripheral/Source/gd32f3x0_hal_usrt.c ****         }
 693:../firmware/gd32f3x0_hal_peripheral/Source/gd32f3x0_hal_usrt.c **** 
 694:../firmware/gd32f3x0_hal_peripheral/Source/gd32f3x0_hal_usrt.c ****         /* wait for transmit complete */
 695:../firmware/gd32f3x0_hal_peripheral/Source/gd32f3x0_hal_usrt.c ****         while(RESET == hals_usrt_flag_get(usrt->periph, USART_FLAG_TC)) {
 1812              		.loc 1 695 14
 1813 0174 0DE0     		b	.L91
 1814              	.L92:
 696:../firmware/gd32f3x0_hal_peripheral/Source/gd32f3x0_hal_usrt.c ****             if(HAL_TIMEOUT_FOREVER != timeout_ms) {
 1815              		.loc 1 696 15
 1816 0176 3B6A     		ldr	r3, [r7, #32]
 1817 0178 B3F1FF3F 		cmp	r3, #-1
 1818 017c 09D0     		beq	.L91
 697:../firmware/gd32f3x0_hal_peripheral/Source/gd32f3x0_hal_usrt.c ****                 if(SET == hal_sys_basetick_timeout_check(tick_start, timeout_ms)) {
 1819              		.loc 1 697 27
 1820 017e 396A     		ldr	r1, [r7, #32]
 1821 0180 3869     		ldr	r0, [r7, #16]
 1822 0182 FFF7FEFF 		bl	hal_sys_basetick_timeout_check
 1823 0186 0346     		mov	r3, r0
 1824              		.loc 1 697 19
 1825 0188 012B     		cmp	r3, #1
 1826 018a 02D1     		bne	.L91
 698:../firmware/gd32f3x0_hal_peripheral/Source/gd32f3x0_hal_usrt.c ****                     HAL_DEBUGW("usrt transmit timeout");
 699:../firmware/gd32f3x0_hal_peripheral/Source/gd32f3x0_hal_usrt.c ****                     return HAL_ERR_TIMEOUT;
 1827              		.loc 1 699 28
 1828 018c 6FF00403 		mvn	r3, #4
 1829 0190 6EE0     		b	.L82
 1830              	.L91:
 695:../firmware/gd32f3x0_hal_peripheral/Source/gd32f3x0_hal_usrt.c ****             if(HAL_TIMEOUT_FOREVER != timeout_ms) {
 1831              		.loc 1 695 24
 1832 0192 FB68     		ldr	r3, [r7, #12]
 1833 0194 1B68     		ldr	r3, [r3]
 1834 0196 40F20671 		movw	r1, #1798
 1835 019a 1846     		mov	r0, r3
 1836 019c FFF7FEFF 		bl	hals_usrt_flag_get
 1837 01a0 0346     		mov	r3, r0
 695:../firmware/gd32f3x0_hal_peripheral/Source/gd32f3x0_hal_usrt.c ****             if(HAL_TIMEOUT_FOREVER != timeout_ms) {
 1838              		.loc 1 695 14
 1839 01a2 002B     		cmp	r3, #0
 1840 01a4 E7D0     		beq	.L92
 700:../firmware/gd32f3x0_hal_peripheral/Source/gd32f3x0_hal_usrt.c ****                 }
 701:../firmware/gd32f3x0_hal_peripheral/Source/gd32f3x0_hal_usrt.c ****             }
 702:../firmware/gd32f3x0_hal_peripheral/Source/gd32f3x0_hal_usrt.c ****         }
 703:../firmware/gd32f3x0_hal_peripheral/Source/gd32f3x0_hal_usrt.c **** 
 704:../firmware/gd32f3x0_hal_peripheral/Source/gd32f3x0_hal_usrt.c ****         /* wait the RBNE flag is set */
 705:../firmware/gd32f3x0_hal_peripheral/Source/gd32f3x0_hal_usrt.c ****         while(RESET == hals_usrt_flag_get(usrt->periph, USART_FLAG_RBNE)) {
 1841              		.loc 1 705 14
 1842 01a6 15E0     		b	.L93
 1843              	.L94:
 706:../firmware/gd32f3x0_hal_peripheral/Source/gd32f3x0_hal_usrt.c ****             if(HAL_TIMEOUT_FOREVER != timeout_ms) {
 1844              		.loc 1 706 15
 1845 01a8 3B6A     		ldr	r3, [r7, #32]
 1846 01aa B3F1FF3F 		cmp	r3, #-1
 1847 01ae 11D0     		beq	.L93
 707:../firmware/gd32f3x0_hal_peripheral/Source/gd32f3x0_hal_usrt.c ****                 if(SET == hal_sys_basetick_timeout_check(tick_start, timeout_ms)) {
 1848              		.loc 1 707 27
 1849 01b0 396A     		ldr	r1, [r7, #32]
 1850 01b2 3869     		ldr	r0, [r7, #16]
 1851 01b4 FFF7FEFF 		bl	hal_sys_basetick_timeout_check
 1852 01b8 0346     		mov	r3, r0
 1853              		.loc 1 707 19
 1854 01ba 012B     		cmp	r3, #1
 1855 01bc 0AD1     		bne	.L93
 708:../firmware/gd32f3x0_hal_peripheral/Source/gd32f3x0_hal_usrt.c ****                     HAL_DEBUGW("usrt RBNE flag set timeout");
 709:../firmware/gd32f3x0_hal_peripheral/Source/gd32f3x0_hal_usrt.c ****                     /* reset the state */
 710:../firmware/gd32f3x0_hal_peripheral/Source/gd32f3x0_hal_usrt.c ****                     usrt->rx_state = USRT_STATE_FREE;
 1856              		.loc 1 710 36
 1857 01be FB68     		ldr	r3, [r7, #12]
 1858 01c0 0022     		movs	r2, #0
 1859 01c2 83F83B20 		strb	r2, [r3, #59]
 711:../firmware/gd32f3x0_hal_peripheral/Source/gd32f3x0_hal_usrt.c ****                     /* unlock usrt */
 712:../firmware/gd32f3x0_hal_peripheral/Source/gd32f3x0_hal_usrt.c ****                     HAL_UNLOCK(usrt);
 1860              		.loc 1 712 21
 1861 01c6 FB68     		ldr	r3, [r7, #12]
 1862 01c8 0022     		movs	r2, #0
 1863 01ca 83F84420 		strb	r2, [r3, #68]
 713:../firmware/gd32f3x0_hal_peripheral/Source/gd32f3x0_hal_usrt.c ****                     return HAL_ERR_TIMEOUT;
 1864              		.loc 1 713 28
 1865 01ce 6FF00403 		mvn	r3, #4
 1866 01d2 4DE0     		b	.L82
 1867              	.L93:
 705:../firmware/gd32f3x0_hal_peripheral/Source/gd32f3x0_hal_usrt.c ****             if(HAL_TIMEOUT_FOREVER != timeout_ms) {
 1868              		.loc 1 705 24
 1869 01d4 FB68     		ldr	r3, [r7, #12]
 1870 01d6 1B68     		ldr	r3, [r3]
 1871 01d8 40F20571 		movw	r1, #1797
 1872 01dc 1846     		mov	r0, r3
 1873 01de FFF7FEFF 		bl	hals_usrt_flag_get
 1874 01e2 0346     		mov	r3, r0
 705:../firmware/gd32f3x0_hal_peripheral/Source/gd32f3x0_hal_usrt.c ****             if(HAL_TIMEOUT_FOREVER != timeout_ms) {
 1875              		.loc 1 705 14
 1876 01e4 002B     		cmp	r3, #0
 1877 01e6 DFD0     		beq	.L94
 714:../firmware/gd32f3x0_hal_peripheral/Source/gd32f3x0_hal_usrt.c ****                 }
 715:../firmware/gd32f3x0_hal_peripheral/Source/gd32f3x0_hal_usrt.c ****             }
 716:../firmware/gd32f3x0_hal_peripheral/Source/gd32f3x0_hal_usrt.c ****         }
 717:../firmware/gd32f3x0_hal_peripheral/Source/gd32f3x0_hal_usrt.c **** 
 718:../firmware/gd32f3x0_hal_peripheral/Source/gd32f3x0_hal_usrt.c ****         /* read data from data register */
 719:../firmware/gd32f3x0_hal_peripheral/Source/gd32f3x0_hal_usrt.c ****         if(2U == data_length) {
 1878              		.loc 1 719 11
 1879 01e8 FB7D     		ldrb	r3, [r7, #23]	@ zero_extendqisi2
 1880 01ea 022B     		cmp	r3, #2
 1881 01ec 13D1     		bne	.L95
 720:../firmware/gd32f3x0_hal_peripheral/Source/gd32f3x0_hal_usrt.c ****             *(uint16_t *)usrt->rxbuffer.buffer = (hals_usrt_data_receive(usrt->periph) & usrt->data
 1882              		.loc 1 720 51
 1883 01ee FB68     		ldr	r3, [r7, #12]
 1884 01f0 1B68     		ldr	r3, [r3]
 1885 01f2 1846     		mov	r0, r3
 1886 01f4 FFF7FEFF 		bl	hals_usrt_data_receive
 1887 01f8 0346     		mov	r3, r0
 1888 01fa 1946     		mov	r1, r3
 1889              		.loc 1 720 94
 1890 01fc FB68     		ldr	r3, [r7, #12]
 1891 01fe 9A8E     		ldrh	r2, [r3, #52]
 1892              		.loc 1 720 40
 1893 0200 FB68     		ldr	r3, [r7, #12]
 1894 0202 9B6A     		ldr	r3, [r3, #40]
 1895              		.loc 1 720 48
 1896 0204 0A40     		ands	r2, r2, r1
 1897 0206 92B2     		uxth	r2, r2
 1898 0208 1A80     		strh	r2, [r3]	@ movhi
 721:../firmware/gd32f3x0_hal_peripheral/Source/gd32f3x0_hal_usrt.c ****             usrt->rxbuffer.buffer += 2;
 1899              		.loc 1 721 35
 1900 020a FB68     		ldr	r3, [r7, #12]
 1901 020c 9B6A     		ldr	r3, [r3, #40]
 1902 020e 9A1C     		adds	r2, r3, #2
 1903 0210 FB68     		ldr	r3, [r7, #12]
 1904 0212 9A62     		str	r2, [r3, #40]
 1905 0214 13E0     		b	.L96
 1906              	.L95:
 722:../firmware/gd32f3x0_hal_peripheral/Source/gd32f3x0_hal_usrt.c ****         } else {
 723:../firmware/gd32f3x0_hal_peripheral/Source/gd32f3x0_hal_usrt.c ****             *usrt->rxbuffer.buffer = (uint8_t)(hals_usrt_data_receive(usrt->periph) & usrt->data_bi
 1907              		.loc 1 723 48
 1908 0216 FB68     		ldr	r3, [r7, #12]
 1909 0218 1B68     		ldr	r3, [r3]
 1910 021a 1846     		mov	r0, r3
 1911 021c FFF7FEFF 		bl	hals_usrt_data_receive
 1912 0220 0346     		mov	r3, r0
 1913              		.loc 1 723 38
 1914 0222 D9B2     		uxtb	r1, r3
 1915              		.loc 1 723 91
 1916 0224 FB68     		ldr	r3, [r7, #12]
 1917 0226 9B8E     		ldrh	r3, [r3, #52]
 1918              		.loc 1 723 38
 1919 0228 DAB2     		uxtb	r2, r3
 1920              		.loc 1 723 28
 1921 022a FB68     		ldr	r3, [r7, #12]
 1922 022c 9B6A     		ldr	r3, [r3, #40]
 1923              		.loc 1 723 38
 1924 022e 0A40     		ands	r2, r2, r1
 1925 0230 D2B2     		uxtb	r2, r2
 1926              		.loc 1 723 36
 1927 0232 1A70     		strb	r2, [r3]
 724:../firmware/gd32f3x0_hal_peripheral/Source/gd32f3x0_hal_usrt.c ****             usrt->rxbuffer.buffer++;
 1928              		.loc 1 724 27
 1929 0234 FB68     		ldr	r3, [r7, #12]
 1930 0236 9B6A     		ldr	r3, [r3, #40]
 1931              		.loc 1 724 34
 1932 0238 5A1C     		adds	r2, r3, #1
 1933 023a FB68     		ldr	r3, [r7, #12]
 1934 023c 9A62     		str	r2, [r3, #40]
 1935              	.L96:
 725:../firmware/gd32f3x0_hal_peripheral/Source/gd32f3x0_hal_usrt.c ****         }
 726:../firmware/gd32f3x0_hal_peripheral/Source/gd32f3x0_hal_usrt.c **** 
 727:../firmware/gd32f3x0_hal_peripheral/Source/gd32f3x0_hal_usrt.c ****         /* change the receive pointer */
 728:../firmware/gd32f3x0_hal_peripheral/Source/gd32f3x0_hal_usrt.c ****         usrt->rxbuffer.pos++;
 1936              		.loc 1 728 23
 1937 023e FB68     		ldr	r3, [r7, #12]
 1938 0240 1B6B     		ldr	r3, [r3, #48]
 1939              		.loc 1 728 27
 1940 0242 5A1C     		adds	r2, r3, #1
 1941 0244 FB68     		ldr	r3, [r7, #12]
 1942 0246 1A63     		str	r2, [r3, #48]
 1943              	.L86:
 670:../firmware/gd32f3x0_hal_peripheral/Source/gd32f3x0_hal_usrt.c ****         /* wait the TBE flag is set */
 1944              		.loc 1 670 25
 1945 0248 FB68     		ldr	r3, [r7, #12]
 1946 024a 1A6B     		ldr	r2, [r3, #48]
 670:../firmware/gd32f3x0_hal_peripheral/Source/gd32f3x0_hal_usrt.c ****         /* wait the TBE flag is set */
 1947              		.loc 1 670 46
 1948 024c FB68     		ldr	r3, [r7, #12]
 1949 024e DB6A     		ldr	r3, [r3, #44]
 670:../firmware/gd32f3x0_hal_peripheral/Source/gd32f3x0_hal_usrt.c ****         /* wait the TBE flag is set */
 1950              		.loc 1 670 10
 1951 0250 9A42     		cmp	r2, r3
 1952 0252 FFF45CAF 		bcc	.L87
 729:../firmware/gd32f3x0_hal_peripheral/Source/gd32f3x0_hal_usrt.c ****     }
 730:../firmware/gd32f3x0_hal_peripheral/Source/gd32f3x0_hal_usrt.c **** 
 731:../firmware/gd32f3x0_hal_peripheral/Source/gd32f3x0_hal_usrt.c ****     /* change the Tx and Rx state to free */
 732:../firmware/gd32f3x0_hal_peripheral/Source/gd32f3x0_hal_usrt.c ****     usrt->tx_state = USRT_STATE_FREE;
 1953              		.loc 1 732 20
 1954 0256 FB68     		ldr	r3, [r7, #12]
 1955 0258 0022     		movs	r2, #0
 1956 025a 83F83A20 		strb	r2, [r3, #58]
 733:../firmware/gd32f3x0_hal_peripheral/Source/gd32f3x0_hal_usrt.c ****     usrt->rx_state = USRT_STATE_FREE;
 1957              		.loc 1 733 20
 1958 025e FB68     		ldr	r3, [r7, #12]
 1959 0260 0022     		movs	r2, #0
 1960 0262 83F83B20 		strb	r2, [r3, #59]
 734:../firmware/gd32f3x0_hal_peripheral/Source/gd32f3x0_hal_usrt.c **** 
 735:../firmware/gd32f3x0_hal_peripheral/Source/gd32f3x0_hal_usrt.c ****     /* unlock usrt */
 736:../firmware/gd32f3x0_hal_peripheral/Source/gd32f3x0_hal_usrt.c ****     HAL_UNLOCK(usrt);
 1961              		.loc 1 736 5
 1962 0266 FB68     		ldr	r3, [r7, #12]
 1963 0268 0022     		movs	r2, #0
 1964 026a 83F84420 		strb	r2, [r3, #68]
 737:../firmware/gd32f3x0_hal_peripheral/Source/gd32f3x0_hal_usrt.c **** 
 738:../firmware/gd32f3x0_hal_peripheral/Source/gd32f3x0_hal_usrt.c ****     return HAL_ERR_NONE;
 1965              		.loc 1 738 12
 1966 026e 0023     		movs	r3, #0
 1967              	.L82:
 739:../firmware/gd32f3x0_hal_peripheral/Source/gd32f3x0_hal_usrt.c **** }
 1968              		.loc 1 739 1
 1969 0270 1846     		mov	r0, r3
 1970 0272 1837     		adds	r7, r7, #24
 1971              		.cfi_def_cfa_offset 8
 1972 0274 BD46     		mov	sp, r7
 1973              		.cfi_def_cfa_register 13
 1974              		@ sp needed
 1975 0276 80BD     		pop	{r7, pc}
 1976              		.cfi_endproc
 1977              	.LFE127:
 1979              		.section	.text.hal_usrt_transmit_interrupt,"ax",%progbits
 1980              		.align	1
 1981              		.global	hal_usrt_transmit_interrupt
 1982              		.syntax unified
 1983              		.thumb
 1984              		.thumb_func
 1985              		.fpu softvfp
 1987              	hal_usrt_transmit_interrupt:
 1988              	.LFB128:
 740:../firmware/gd32f3x0_hal_peripheral/Source/gd32f3x0_hal_usrt.c **** 
 741:../firmware/gd32f3x0_hal_peripheral/Source/gd32f3x0_hal_usrt.c **** /*!
 742:../firmware/gd32f3x0_hal_peripheral/Source/gd32f3x0_hal_usrt.c ****     \brief      transmit amounts of data by interrupt method
 743:../firmware/gd32f3x0_hal_peripheral/Source/gd32f3x0_hal_usrt.c ****                 the function is non-blocking
 744:../firmware/gd32f3x0_hal_peripheral/Source/gd32f3x0_hal_usrt.c ****     \param[in]  usrt: usrt device information structure
 745:../firmware/gd32f3x0_hal_peripheral/Source/gd32f3x0_hal_usrt.c ****                     the structure is not necessary to be reconfigured after structrue initializatio
 746:../firmware/gd32f3x0_hal_peripheral/Source/gd32f3x0_hal_usrt.c ****                     the structure parameters altering is automatically configured by core
 747:../firmware/gd32f3x0_hal_peripheral/Source/gd32f3x0_hal_usrt.c ****     \param[in]  p_buffer: pointer to data buffer
 748:../firmware/gd32f3x0_hal_peripheral/Source/gd32f3x0_hal_usrt.c ****     \param[in]  length: number of data to be transmitted
 749:../firmware/gd32f3x0_hal_peripheral/Source/gd32f3x0_hal_usrt.c ****     \param[in]  p_user_func: user callback function
 750:../firmware/gd32f3x0_hal_peripheral/Source/gd32f3x0_hal_usrt.c ****     \param[out] none
 751:../firmware/gd32f3x0_hal_peripheral/Source/gd32f3x0_hal_usrt.c ****     \retval     error code: HAL_ERR_NONE, HAL_ERR_ADDRESS, HAL_ERR_VAL, HAL_ERR_BUSY details refer 
 752:../firmware/gd32f3x0_hal_peripheral/Source/gd32f3x0_hal_usrt.c **** */
 753:../firmware/gd32f3x0_hal_peripheral/Source/gd32f3x0_hal_usrt.c **** int32_t hal_usrt_transmit_interrupt(hal_usrt_dev_struct *usrt, uint8_t *p_buffer, uint32_t length, 
 754:../firmware/gd32f3x0_hal_peripheral/Source/gd32f3x0_hal_usrt.c **** {
 1989              		.loc 1 754 1
 1990              		.cfi_startproc
 1991              		@ args = 0, pretend = 0, frame = 16
 1992              		@ frame_needed = 1, uses_anonymous_args = 0
 1993 0000 80B5     		push	{r7, lr}
 1994              		.cfi_def_cfa_offset 8
 1995              		.cfi_offset 7, -8
 1996              		.cfi_offset 14, -4
 1997 0002 84B0     		sub	sp, sp, #16
 1998              		.cfi_def_cfa_offset 24
 1999 0004 00AF     		add	r7, sp, #0
 2000              		.cfi_def_cfa_register 7
 2001 0006 F860     		str	r0, [r7, #12]
 2002 0008 B960     		str	r1, [r7, #8]
 2003 000a 7A60     		str	r2, [r7, #4]
 2004 000c 3B60     		str	r3, [r7]
 755:../firmware/gd32f3x0_hal_peripheral/Source/gd32f3x0_hal_usrt.c **** #if (1 == HAL_PARAMETER_CHECK)
 756:../firmware/gd32f3x0_hal_peripheral/Source/gd32f3x0_hal_usrt.c ****     /* check the parameters */
 757:../firmware/gd32f3x0_hal_peripheral/Source/gd32f3x0_hal_usrt.c ****     if((NULL == usrt) || (NULL == p_buffer) || (0U == length)) {
 758:../firmware/gd32f3x0_hal_peripheral/Source/gd32f3x0_hal_usrt.c ****         HAL_DEBUGE("parameter [usrt] or [p_buffer] or [length] value is invalid");
 759:../firmware/gd32f3x0_hal_peripheral/Source/gd32f3x0_hal_usrt.c ****         return HAL_ERR_ADDRESS;
 760:../firmware/gd32f3x0_hal_peripheral/Source/gd32f3x0_hal_usrt.c ****     }
 761:../firmware/gd32f3x0_hal_peripheral/Source/gd32f3x0_hal_usrt.c **** #endif /* 1 == HAL_PARAMETER_CHECK */
 762:../firmware/gd32f3x0_hal_peripheral/Source/gd32f3x0_hal_usrt.c **** 
 763:../firmware/gd32f3x0_hal_peripheral/Source/gd32f3x0_hal_usrt.c ****     /* check the tx_state wheher is busy or not */
 764:../firmware/gd32f3x0_hal_peripheral/Source/gd32f3x0_hal_usrt.c ****     if(USRT_STATE_BUSY == usrt->tx_state) {
 2005              		.loc 1 764 31
 2006 000e FB68     		ldr	r3, [r7, #12]
 2007 0010 93F83A30 		ldrb	r3, [r3, #58]
 2008 0014 DBB2     		uxtb	r3, r3
 2009              		.loc 1 764 7
 2010 0016 012B     		cmp	r3, #1
 2011 0018 02D1     		bne	.L99
 765:../firmware/gd32f3x0_hal_peripheral/Source/gd32f3x0_hal_usrt.c ****         HAL_DEBUGE("usrt tx has already been used, please wait until run_state change to free ");
 766:../firmware/gd32f3x0_hal_peripheral/Source/gd32f3x0_hal_usrt.c ****         return HAL_ERR_BUSY;
 2012              		.loc 1 766 16
 2013 001a 6FF00203 		mvn	r3, #2
 2014 001e 3AE0     		b	.L100
 2015              	.L99:
 767:../firmware/gd32f3x0_hal_peripheral/Source/gd32f3x0_hal_usrt.c ****     }
 768:../firmware/gd32f3x0_hal_peripheral/Source/gd32f3x0_hal_usrt.c **** 
 769:../firmware/gd32f3x0_hal_peripheral/Source/gd32f3x0_hal_usrt.c ****     /* lock usrt */
 770:../firmware/gd32f3x0_hal_peripheral/Source/gd32f3x0_hal_usrt.c ****     HAL_LOCK(usrt);
 2016              		.loc 1 770 5
 2017 0020 FB68     		ldr	r3, [r7, #12]
 2018 0022 93F84430 		ldrb	r3, [r3, #68]	@ zero_extendqisi2
 2019 0026 012B     		cmp	r3, #1
 2020 0028 02D1     		bne	.L101
 2021              		.loc 1 770 5 is_stmt 0 discriminator 1
 2022 002a 6FF00103 		mvn	r3, #1
 2023 002e 32E0     		b	.L100
 2024              	.L101:
 2025              		.loc 1 770 5 discriminator 2
 2026 0030 FB68     		ldr	r3, [r7, #12]
 2027 0032 0122     		movs	r2, #1
 2028 0034 83F84420 		strb	r2, [r3, #68]
 771:../firmware/gd32f3x0_hal_peripheral/Source/gd32f3x0_hal_usrt.c **** 
 772:../firmware/gd32f3x0_hal_peripheral/Source/gd32f3x0_hal_usrt.c ****     usrt->tx_state = USRT_STATE_BUSY;
 2029              		.loc 1 772 20 is_stmt 1 discriminator 2
 2030 0038 FB68     		ldr	r3, [r7, #12]
 2031 003a 0122     		movs	r2, #1
 2032 003c 83F83A20 		strb	r2, [r3, #58]
 773:../firmware/gd32f3x0_hal_peripheral/Source/gd32f3x0_hal_usrt.c ****     usrt->error_state = HAL_USRT_ERROR_NONE;
 2033              		.loc 1 773 23 discriminator 2
 2034 0040 FB68     		ldr	r3, [r7, #12]
 2035 0042 0022     		movs	r2, #0
 2036 0044 1A87     		strh	r2, [r3, #56]	@ movhi
 774:../firmware/gd32f3x0_hal_peripheral/Source/gd32f3x0_hal_usrt.c **** 
 775:../firmware/gd32f3x0_hal_peripheral/Source/gd32f3x0_hal_usrt.c ****     /* initialize transmit parameters */
 776:../firmware/gd32f3x0_hal_peripheral/Source/gd32f3x0_hal_usrt.c ****     usrt->txbuffer.buffer   = (uint8_t *)p_buffer;
 2037              		.loc 1 776 29 discriminator 2
 2038 0046 FB68     		ldr	r3, [r7, #12]
 2039 0048 BA68     		ldr	r2, [r7, #8]
 2040 004a DA61     		str	r2, [r3, #28]
 777:../firmware/gd32f3x0_hal_peripheral/Source/gd32f3x0_hal_usrt.c ****     usrt->txbuffer.length   = length;
 2041              		.loc 1 777 29 discriminator 2
 2042 004c FB68     		ldr	r3, [r7, #12]
 2043 004e 7A68     		ldr	r2, [r7, #4]
 2044 0050 1A62     		str	r2, [r3, #32]
 778:../firmware/gd32f3x0_hal_peripheral/Source/gd32f3x0_hal_usrt.c ****     usrt->txbuffer.pos      = 0U;
 2045              		.loc 1 778 29 discriminator 2
 2046 0052 FB68     		ldr	r3, [r7, #12]
 2047 0054 0022     		movs	r2, #0
 2048 0056 5A62     		str	r2, [r3, #36]
 779:../firmware/gd32f3x0_hal_peripheral/Source/gd32f3x0_hal_usrt.c ****     usrt->tx_callback       = (void *)p_user_func;
 2049              		.loc 1 779 29 discriminator 2
 2050 0058 FB68     		ldr	r3, [r7, #12]
 2051 005a 3A68     		ldr	r2, [r7]
 2052 005c 1A64     		str	r2, [r3, #64]
 780:../firmware/gd32f3x0_hal_peripheral/Source/gd32f3x0_hal_usrt.c **** 
 781:../firmware/gd32f3x0_hal_peripheral/Source/gd32f3x0_hal_usrt.c ****     /* configure the transmit ready and complete callback as the function implemented */
 782:../firmware/gd32f3x0_hal_peripheral/Source/gd32f3x0_hal_usrt.c ****     usrt->usrt_irq.transmit_ready_handle = _usrt_transmit_interrupt;
 2053              		.loc 1 782 42 discriminator 2
 2054 005e FB68     		ldr	r3, [r7, #12]
 2055 0060 0F4A     		ldr	r2, .L102
 2056 0062 9A60     		str	r2, [r3, #8]
 783:../firmware/gd32f3x0_hal_peripheral/Source/gd32f3x0_hal_usrt.c ****     usrt->usrt_irq.transmit_complete_handle = _usrt_transmit_complete_interrupt;
 2057              		.loc 1 783 45 discriminator 2
 2058 0064 FB68     		ldr	r3, [r7, #12]
 2059 0066 0F4A     		ldr	r2, .L102+4
 2060 0068 DA60     		str	r2, [r3, #12]
 784:../firmware/gd32f3x0_hal_peripheral/Source/gd32f3x0_hal_usrt.c **** 
 785:../firmware/gd32f3x0_hal_peripheral/Source/gd32f3x0_hal_usrt.c ****     /* clear USRT TC interrupt flag */
 786:../firmware/gd32f3x0_hal_peripheral/Source/gd32f3x0_hal_usrt.c ****     hals_usrt_interrupt_flag_clear(usrt->periph, USART_INT_FLAG_TC);
 2061              		.loc 1 786 5 discriminator 2
 2062 006a FB68     		ldr	r3, [r7, #12]
 2063 006c 1B68     		ldr	r3, [r3]
 2064 006e 0E49     		ldr	r1, .L102+8
 2065 0070 1846     		mov	r0, r3
 2066 0072 FFF7FEFF 		bl	hals_usrt_interrupt_flag_clear
 787:../firmware/gd32f3x0_hal_peripheral/Source/gd32f3x0_hal_usrt.c **** 
 788:../firmware/gd32f3x0_hal_peripheral/Source/gd32f3x0_hal_usrt.c ****     /* enable the TBE interrupt */
 789:../firmware/gd32f3x0_hal_peripheral/Source/gd32f3x0_hal_usrt.c ****     hals_usrt_interrupt_enable(usrt->periph, USART_INT_TBE);
 2067              		.loc 1 789 5 discriminator 2
 2068 0076 FB68     		ldr	r3, [r7, #12]
 2069 0078 1B68     		ldr	r3, [r3]
 2070 007a 0721     		movs	r1, #7
 2071 007c 1846     		mov	r0, r3
 2072 007e FFF7FEFF 		bl	hals_usrt_interrupt_enable
 790:../firmware/gd32f3x0_hal_peripheral/Source/gd32f3x0_hal_usrt.c **** 
 791:../firmware/gd32f3x0_hal_peripheral/Source/gd32f3x0_hal_usrt.c ****     /* unlock uart */
 792:../firmware/gd32f3x0_hal_peripheral/Source/gd32f3x0_hal_usrt.c ****     HAL_UNLOCK(usrt);
 2073              		.loc 1 792 5 discriminator 2
 2074 0082 FB68     		ldr	r3, [r7, #12]
 2075 0084 0022     		movs	r2, #0
 2076 0086 83F84420 		strb	r2, [r3, #68]
 793:../firmware/gd32f3x0_hal_peripheral/Source/gd32f3x0_hal_usrt.c **** 
 794:../firmware/gd32f3x0_hal_peripheral/Source/gd32f3x0_hal_usrt.c ****     hals_uart_enable(usrt->periph);
 2077              		.loc 1 794 5 discriminator 2
 2078 008a FB68     		ldr	r3, [r7, #12]
 2079 008c 1B68     		ldr	r3, [r3]
 2080 008e 1846     		mov	r0, r3
 2081 0090 FFF7FEFF 		bl	hals_uart_enable
 795:../firmware/gd32f3x0_hal_peripheral/Source/gd32f3x0_hal_usrt.c **** 
 796:../firmware/gd32f3x0_hal_peripheral/Source/gd32f3x0_hal_usrt.c ****     return HAL_ERR_NONE;
 2082              		.loc 1 796 12 discriminator 2
 2083 0094 0023     		movs	r3, #0
 2084              	.L100:
 797:../firmware/gd32f3x0_hal_peripheral/Source/gd32f3x0_hal_usrt.c **** }
 2085              		.loc 1 797 1
 2086 0096 1846     		mov	r0, r3
 2087 0098 1037     		adds	r7, r7, #16
 2088              		.cfi_def_cfa_offset 8
 2089 009a BD46     		mov	sp, r7
 2090              		.cfi_def_cfa_register 13
 2091              		@ sp needed
 2092 009c 80BD     		pop	{r7, pc}
 2093              	.L103:
 2094 009e 00BF     		.align	2
 2095              	.L102:
 2096 00a0 00000000 		.word	_usrt_transmit_interrupt
 2097 00a4 00000000 		.word	_usrt_transmit_complete_interrupt
 2098 00a8 06000607 		.word	117833734
 2099              		.cfi_endproc
 2100              	.LFE128:
 2102              		.section	.text.hal_usrt_receive_interrupt,"ax",%progbits
 2103              		.align	1
 2104              		.global	hal_usrt_receive_interrupt
 2105              		.syntax unified
 2106              		.thumb
 2107              		.thumb_func
 2108              		.fpu softvfp
 2110              	hal_usrt_receive_interrupt:
 2111              	.LFB129:
 798:../firmware/gd32f3x0_hal_peripheral/Source/gd32f3x0_hal_usrt.c **** 
 799:../firmware/gd32f3x0_hal_peripheral/Source/gd32f3x0_hal_usrt.c **** /*!
 800:../firmware/gd32f3x0_hal_peripheral/Source/gd32f3x0_hal_usrt.c ****     \brief      receive amounts of data by interrupt method
 801:../firmware/gd32f3x0_hal_peripheral/Source/gd32f3x0_hal_usrt.c ****                 the function is non-blocking
 802:../firmware/gd32f3x0_hal_peripheral/Source/gd32f3x0_hal_usrt.c ****     \param[in]  usrt: usrt device information structure
 803:../firmware/gd32f3x0_hal_peripheral/Source/gd32f3x0_hal_usrt.c ****                     the structure is not necessary to be reconfigured after structrue initializatio
 804:../firmware/gd32f3x0_hal_peripheral/Source/gd32f3x0_hal_usrt.c ****                     the structure parameters altering is automatically configured by core
 805:../firmware/gd32f3x0_hal_peripheral/Source/gd32f3x0_hal_usrt.c ****     \param[in]  p_buffer: pointer to data buffer
 806:../firmware/gd32f3x0_hal_peripheral/Source/gd32f3x0_hal_usrt.c ****     \param[in]  length: number of data to be received
 807:../firmware/gd32f3x0_hal_peripheral/Source/gd32f3x0_hal_usrt.c ****     \param[in]  p_user_func: user callback function
 808:../firmware/gd32f3x0_hal_peripheral/Source/gd32f3x0_hal_usrt.c ****     \param[out] none
 809:../firmware/gd32f3x0_hal_peripheral/Source/gd32f3x0_hal_usrt.c ****     \retval     error code: HAL_ERR_NONE, HAL_ERR_ADDRESS, HAL_ERR_VAL, HAL_ERR_BUSY details refer 
 810:../firmware/gd32f3x0_hal_peripheral/Source/gd32f3x0_hal_usrt.c **** */
 811:../firmware/gd32f3x0_hal_peripheral/Source/gd32f3x0_hal_usrt.c **** int32_t hal_usrt_receive_interrupt(hal_usrt_dev_struct *usrt, uint8_t *p_buffer, uint32_t length, h
 812:../firmware/gd32f3x0_hal_peripheral/Source/gd32f3x0_hal_usrt.c **** {
 2112              		.loc 1 812 1
 2113              		.cfi_startproc
 2114              		@ args = 0, pretend = 0, frame = 16
 2115              		@ frame_needed = 1, uses_anonymous_args = 0
 2116 0000 90B5     		push	{r4, r7, lr}
 2117              		.cfi_def_cfa_offset 12
 2118              		.cfi_offset 4, -12
 2119              		.cfi_offset 7, -8
 2120              		.cfi_offset 14, -4
 2121 0002 85B0     		sub	sp, sp, #20
 2122              		.cfi_def_cfa_offset 32
 2123 0004 00AF     		add	r7, sp, #0
 2124              		.cfi_def_cfa_register 7
 2125 0006 F860     		str	r0, [r7, #12]
 2126 0008 B960     		str	r1, [r7, #8]
 2127 000a 7A60     		str	r2, [r7, #4]
 2128 000c 3B60     		str	r3, [r7]
 813:../firmware/gd32f3x0_hal_peripheral/Source/gd32f3x0_hal_usrt.c **** #if (1 == HAL_PARAMETER_CHECK)
 814:../firmware/gd32f3x0_hal_peripheral/Source/gd32f3x0_hal_usrt.c ****     /* check the parameters */
 815:../firmware/gd32f3x0_hal_peripheral/Source/gd32f3x0_hal_usrt.c ****     if((NULL == usrt) || (NULL == p_buffer) || (0U == length)) {
 816:../firmware/gd32f3x0_hal_peripheral/Source/gd32f3x0_hal_usrt.c ****         HAL_DEBUGE("parameter [usrt] or [p_buffer] or [length] value is invalid");
 817:../firmware/gd32f3x0_hal_peripheral/Source/gd32f3x0_hal_usrt.c ****         return HAL_ERR_ADDRESS;
 818:../firmware/gd32f3x0_hal_peripheral/Source/gd32f3x0_hal_usrt.c ****     }
 819:../firmware/gd32f3x0_hal_peripheral/Source/gd32f3x0_hal_usrt.c **** #endif /* 1 == HAL_PARAMETER_CHECK */
 820:../firmware/gd32f3x0_hal_peripheral/Source/gd32f3x0_hal_usrt.c **** 
 821:../firmware/gd32f3x0_hal_peripheral/Source/gd32f3x0_hal_usrt.c ****     /* check the rx_state wheher is busy or not */
 822:../firmware/gd32f3x0_hal_peripheral/Source/gd32f3x0_hal_usrt.c ****     if(USRT_STATE_BUSY == usrt->rx_state) {
 2129              		.loc 1 822 31
 2130 000e FB68     		ldr	r3, [r7, #12]
 2131 0010 93F83B30 		ldrb	r3, [r3, #59]
 2132 0014 DBB2     		uxtb	r3, r3
 2133              		.loc 1 822 7
 2134 0016 012B     		cmp	r3, #1
 2135 0018 02D1     		bne	.L105
 823:../firmware/gd32f3x0_hal_peripheral/Source/gd32f3x0_hal_usrt.c ****         HAL_DEBUGE("usrt rx has already been used, please wait until run_state change to free ");
 824:../firmware/gd32f3x0_hal_peripheral/Source/gd32f3x0_hal_usrt.c ****         return HAL_ERR_BUSY;
 2136              		.loc 1 824 16
 2137 001a 6FF00203 		mvn	r3, #2
 2138 001e 4AE0     		b	.L106
 2139              	.L105:
 825:../firmware/gd32f3x0_hal_peripheral/Source/gd32f3x0_hal_usrt.c ****     }
 826:../firmware/gd32f3x0_hal_peripheral/Source/gd32f3x0_hal_usrt.c **** 
 827:../firmware/gd32f3x0_hal_peripheral/Source/gd32f3x0_hal_usrt.c ****     /* lock usrt */
 828:../firmware/gd32f3x0_hal_peripheral/Source/gd32f3x0_hal_usrt.c ****     HAL_LOCK(usrt);
 2140              		.loc 1 828 5
 2141 0020 FB68     		ldr	r3, [r7, #12]
 2142 0022 93F84430 		ldrb	r3, [r3, #68]	@ zero_extendqisi2
 2143 0026 012B     		cmp	r3, #1
 2144 0028 02D1     		bne	.L107
 2145              		.loc 1 828 5 is_stmt 0 discriminator 1
 2146 002a 6FF00103 		mvn	r3, #1
 2147 002e 42E0     		b	.L106
 2148              	.L107:
 2149              		.loc 1 828 5 discriminator 2
 2150 0030 FB68     		ldr	r3, [r7, #12]
 2151 0032 0122     		movs	r2, #1
 2152 0034 83F84420 		strb	r2, [r3, #68]
 829:../firmware/gd32f3x0_hal_peripheral/Source/gd32f3x0_hal_usrt.c **** 
 830:../firmware/gd32f3x0_hal_peripheral/Source/gd32f3x0_hal_usrt.c ****     usrt->rx_state = USRT_STATE_BUSY;
 2153              		.loc 1 830 20 is_stmt 1 discriminator 2
 2154 0038 FB68     		ldr	r3, [r7, #12]
 2155 003a 0122     		movs	r2, #1
 2156 003c 83F83B20 		strb	r2, [r3, #59]
 831:../firmware/gd32f3x0_hal_peripheral/Source/gd32f3x0_hal_usrt.c ****     usrt->error_state = HAL_USRT_ERROR_NONE;
 2157              		.loc 1 831 23 discriminator 2
 2158 0040 FB68     		ldr	r3, [r7, #12]
 2159 0042 0022     		movs	r2, #0
 2160 0044 1A87     		strh	r2, [r3, #56]	@ movhi
 832:../firmware/gd32f3x0_hal_peripheral/Source/gd32f3x0_hal_usrt.c **** 
 833:../firmware/gd32f3x0_hal_peripheral/Source/gd32f3x0_hal_usrt.c ****     /* initialize receive parameters */
 834:../firmware/gd32f3x0_hal_peripheral/Source/gd32f3x0_hal_usrt.c ****     usrt->rxbuffer.buffer   = (uint8_t *)p_buffer;
 2161              		.loc 1 834 29 discriminator 2
 2162 0046 FB68     		ldr	r3, [r7, #12]
 2163 0048 BA68     		ldr	r2, [r7, #8]
 2164 004a 9A62     		str	r2, [r3, #40]
 835:../firmware/gd32f3x0_hal_peripheral/Source/gd32f3x0_hal_usrt.c ****     usrt->rxbuffer.length   = length;
 2165              		.loc 1 835 29 discriminator 2
 2166 004c FB68     		ldr	r3, [r7, #12]
 2167 004e 7A68     		ldr	r2, [r7, #4]
 2168 0050 DA62     		str	r2, [r3, #44]
 836:../firmware/gd32f3x0_hal_peripheral/Source/gd32f3x0_hal_usrt.c ****     usrt->rxbuffer.pos      = 0U;
 2169              		.loc 1 836 29 discriminator 2
 2170 0052 FB68     		ldr	r3, [r7, #12]
 2171 0054 0022     		movs	r2, #0
 2172 0056 1A63     		str	r2, [r3, #48]
 837:../firmware/gd32f3x0_hal_peripheral/Source/gd32f3x0_hal_usrt.c ****     usrt->data_bit_mask     = _usrt_data_bit_mask_get(usrt);
 2173              		.loc 1 837 31 discriminator 2
 2174 0058 F868     		ldr	r0, [r7, #12]
 2175 005a FFF7FEFF 		bl	_usrt_data_bit_mask_get
 2176 005e 0346     		mov	r3, r0
 2177 0060 1A46     		mov	r2, r3
 2178              		.loc 1 837 29 discriminator 2
 2179 0062 FB68     		ldr	r3, [r7, #12]
 2180 0064 9A86     		strh	r2, [r3, #52]	@ movhi
 838:../firmware/gd32f3x0_hal_peripheral/Source/gd32f3x0_hal_usrt.c ****     usrt->rx_callback       = (void *)p_user_func;
 2181              		.loc 1 838 29 discriminator 2
 2182 0066 FB68     		ldr	r3, [r7, #12]
 2183 0068 3A68     		ldr	r2, [r7]
 2184 006a DA63     		str	r2, [r3, #60]
 839:../firmware/gd32f3x0_hal_peripheral/Source/gd32f3x0_hal_usrt.c ****     usrt->usrt_irq.receive_complete_handle = _usrt_receive_interrupt;
 2185              		.loc 1 839 44 discriminator 2
 2186 006c FB68     		ldr	r3, [r7, #12]
 2187 006e 144A     		ldr	r2, .L108
 2188 0070 5A60     		str	r2, [r3, #4]
 840:../firmware/gd32f3x0_hal_peripheral/Source/gd32f3x0_hal_usrt.c **** 
 841:../firmware/gd32f3x0_hal_peripheral/Source/gd32f3x0_hal_usrt.c ****     /* enable PERR, ERR, RBNE interrupt */
 842:../firmware/gd32f3x0_hal_peripheral/Source/gd32f3x0_hal_usrt.c ****     hals_usrt_interrupt_enable(usrt->periph, USART_INT_PERR);
 2189              		.loc 1 842 5 discriminator 2
 2190 0072 FB68     		ldr	r3, [r7, #12]
 2191 0074 1B68     		ldr	r3, [r3]
 2192 0076 0821     		movs	r1, #8
 2193 0078 1846     		mov	r0, r3
 2194 007a FFF7FEFF 		bl	hals_usrt_interrupt_enable
 843:../firmware/gd32f3x0_hal_peripheral/Source/gd32f3x0_hal_usrt.c ****     hals_usrt_interrupt_enable(usrt->periph, USART_INT_ERR);
 2195              		.loc 1 843 5 discriminator 2
 2196 007e FB68     		ldr	r3, [r7, #12]
 2197 0080 1B68     		ldr	r3, [r3]
 2198 0082 4FF40071 		mov	r1, #512
 2199 0086 1846     		mov	r0, r3
 2200 0088 FFF7FEFF 		bl	hals_usrt_interrupt_enable
 844:../firmware/gd32f3x0_hal_peripheral/Source/gd32f3x0_hal_usrt.c ****     hals_usrt_interrupt_enable(usrt->periph, USART_INT_RBNE);
 2201              		.loc 1 844 5 discriminator 2
 2202 008c FB68     		ldr	r3, [r7, #12]
 2203 008e 1B68     		ldr	r3, [r3]
 2204 0090 0521     		movs	r1, #5
 2205 0092 1846     		mov	r0, r3
 2206 0094 FFF7FEFF 		bl	hals_usrt_interrupt_enable
 845:../firmware/gd32f3x0_hal_peripheral/Source/gd32f3x0_hal_usrt.c **** 
 846:../firmware/gd32f3x0_hal_peripheral/Source/gd32f3x0_hal_usrt.c ****     /* unlock usrt */
 847:../firmware/gd32f3x0_hal_peripheral/Source/gd32f3x0_hal_usrt.c ****     HAL_UNLOCK(usrt);
 2207              		.loc 1 847 5 discriminator 2
 2208 0098 FB68     		ldr	r3, [r7, #12]
 2209 009a 0022     		movs	r2, #0
 2210 009c 83F84420 		strb	r2, [r3, #68]
 848:../firmware/gd32f3x0_hal_peripheral/Source/gd32f3x0_hal_usrt.c **** 
 849:../firmware/gd32f3x0_hal_peripheral/Source/gd32f3x0_hal_usrt.c ****     /* send dummy byte to generate clock for the slave to send data */
 850:../firmware/gd32f3x0_hal_peripheral/Source/gd32f3x0_hal_usrt.c ****     hals_usrt_data_transmit(usrt->periph, USRT_DUMMY_DATA & _usrt_data_bit_mask_get(usrt));
 2211              		.loc 1 850 5 discriminator 2
 2212 00a0 FB68     		ldr	r3, [r7, #12]
 2213 00a2 1C68     		ldr	r4, [r3]
 2214 00a4 F868     		ldr	r0, [r7, #12]
 2215 00a6 FFF7FEFF 		bl	_usrt_data_bit_mask_get
 2216 00aa 0346     		mov	r3, r0
 2217 00ac 1946     		mov	r1, r3
 2218 00ae 2046     		mov	r0, r4
 2219 00b0 FFF7FEFF 		bl	hals_usrt_data_transmit
 851:../firmware/gd32f3x0_hal_peripheral/Source/gd32f3x0_hal_usrt.c **** 
 852:../firmware/gd32f3x0_hal_peripheral/Source/gd32f3x0_hal_usrt.c ****     return HAL_ERR_NONE;
 2220              		.loc 1 852 12 discriminator 2
 2221 00b4 0023     		movs	r3, #0
 2222              	.L106:
 853:../firmware/gd32f3x0_hal_peripheral/Source/gd32f3x0_hal_usrt.c **** }
 2223              		.loc 1 853 1
 2224 00b6 1846     		mov	r0, r3
 2225 00b8 1437     		adds	r7, r7, #20
 2226              		.cfi_def_cfa_offset 12
 2227 00ba BD46     		mov	sp, r7
 2228              		.cfi_def_cfa_register 13
 2229              		@ sp needed
 2230 00bc 90BD     		pop	{r4, r7, pc}
 2231              	.L109:
 2232 00be 00BF     		.align	2
 2233              	.L108:
 2234 00c0 00000000 		.word	_usrt_receive_interrupt
 2235              		.cfi_endproc
 2236              	.LFE129:
 2238              		.section	.text.hal_usrt_transmit_receive_interrupt,"ax",%progbits
 2239              		.align	1
 2240              		.global	hal_usrt_transmit_receive_interrupt
 2241              		.syntax unified
 2242              		.thumb
 2243              		.thumb_func
 2244              		.fpu softvfp
 2246              	hal_usrt_transmit_receive_interrupt:
 2247              	.LFB130:
 854:../firmware/gd32f3x0_hal_peripheral/Source/gd32f3x0_hal_usrt.c **** 
 855:../firmware/gd32f3x0_hal_peripheral/Source/gd32f3x0_hal_usrt.c **** /*!
 856:../firmware/gd32f3x0_hal_peripheral/Source/gd32f3x0_hal_usrt.c ****     \brief      transmit & receive amounts of data by interrupt method
 857:../firmware/gd32f3x0_hal_peripheral/Source/gd32f3x0_hal_usrt.c ****                 the function is non-blocking
 858:../firmware/gd32f3x0_hal_peripheral/Source/gd32f3x0_hal_usrt.c ****     \param[in]  usrt: usrt device information structure
 859:../firmware/gd32f3x0_hal_peripheral/Source/gd32f3x0_hal_usrt.c ****                     the structure is not necessary to be reconfigured after structrue initializatio
 860:../firmware/gd32f3x0_hal_peripheral/Source/gd32f3x0_hal_usrt.c ****                     the structure parameters altering is automatically configured by core
 861:../firmware/gd32f3x0_hal_peripheral/Source/gd32f3x0_hal_usrt.c ****     \param[in]  p_tx_buffer: pointer to Tx data buffer
 862:../firmware/gd32f3x0_hal_peripheral/Source/gd32f3x0_hal_usrt.c ****     \param[in]  p_rx_buffer: pointer to Rx data buffer
 863:../firmware/gd32f3x0_hal_peripheral/Source/gd32f3x0_hal_usrt.c ****     \param[in]  length: number of data to be received
 864:../firmware/gd32f3x0_hal_peripheral/Source/gd32f3x0_hal_usrt.c ****     \param[in]  p_user_func: user callback function
 865:../firmware/gd32f3x0_hal_peripheral/Source/gd32f3x0_hal_usrt.c ****     \param[out] none
 866:../firmware/gd32f3x0_hal_peripheral/Source/gd32f3x0_hal_usrt.c ****     \retval     error code: HAL_ERR_NONE, HAL_ERR_ADDRESS, HAL_ERR_VAL, HAL_ERR_BUSY details refer 
 867:../firmware/gd32f3x0_hal_peripheral/Source/gd32f3x0_hal_usrt.c **** */
 868:../firmware/gd32f3x0_hal_peripheral/Source/gd32f3x0_hal_usrt.c **** int32_t hal_usrt_transmit_receive_interrupt(hal_usrt_dev_struct *usrt, uint8_t *p_tx_buffer, uint8_
 869:../firmware/gd32f3x0_hal_peripheral/Source/gd32f3x0_hal_usrt.c **** {
 2248              		.loc 1 869 1
 2249              		.cfi_startproc
 2250              		@ args = 4, pretend = 0, frame = 16
 2251              		@ frame_needed = 1, uses_anonymous_args = 0
 2252 0000 80B5     		push	{r7, lr}
 2253              		.cfi_def_cfa_offset 8
 2254              		.cfi_offset 7, -8
 2255              		.cfi_offset 14, -4
 2256 0002 84B0     		sub	sp, sp, #16
 2257              		.cfi_def_cfa_offset 24
 2258 0004 00AF     		add	r7, sp, #0
 2259              		.cfi_def_cfa_register 7
 2260 0006 F860     		str	r0, [r7, #12]
 2261 0008 B960     		str	r1, [r7, #8]
 2262 000a 7A60     		str	r2, [r7, #4]
 2263 000c 3B60     		str	r3, [r7]
 870:../firmware/gd32f3x0_hal_peripheral/Source/gd32f3x0_hal_usrt.c **** #if (1 == HAL_PARAMETER_CHECK)
 871:../firmware/gd32f3x0_hal_peripheral/Source/gd32f3x0_hal_usrt.c ****     /* check the parameters */
 872:../firmware/gd32f3x0_hal_peripheral/Source/gd32f3x0_hal_usrt.c ****     if((NULL == usrt) || (NULL == p_tx_buffer) || (NULL == p_rx_buffer) ||
 873:../firmware/gd32f3x0_hal_peripheral/Source/gd32f3x0_hal_usrt.c ****             (0U == length)) {
 874:../firmware/gd32f3x0_hal_peripheral/Source/gd32f3x0_hal_usrt.c ****         HAL_DEBUGE("parameter [usrt] or [p_tx_buffer] or [p_rx_buffer] or [length] value is invalid
 875:../firmware/gd32f3x0_hal_peripheral/Source/gd32f3x0_hal_usrt.c ****         return HAL_ERR_ADDRESS;
 876:../firmware/gd32f3x0_hal_peripheral/Source/gd32f3x0_hal_usrt.c ****     }
 877:../firmware/gd32f3x0_hal_peripheral/Source/gd32f3x0_hal_usrt.c **** #endif /* 1 == HAL_PARAMETER_CHECK */
 878:../firmware/gd32f3x0_hal_peripheral/Source/gd32f3x0_hal_usrt.c **** 
 879:../firmware/gd32f3x0_hal_peripheral/Source/gd32f3x0_hal_usrt.c ****     /* 9-bit transfer with no parity, if tx or rx buffer address is not aligned on uint16_t, return
 880:../firmware/gd32f3x0_hal_peripheral/Source/gd32f3x0_hal_usrt.c ****     if((RESET != (USART_CTL0(usrt->periph) & USART_CTL0_WL)) && \
 2264              		.loc 1 880 19
 2265 000e FB68     		ldr	r3, [r7, #12]
 2266 0010 1B68     		ldr	r3, [r3]
 2267 0012 1B68     		ldr	r3, [r3]
 2268              		.loc 1 880 44
 2269 0014 03F48053 		and	r3, r3, #4096
 2270              		.loc 1 880 7
 2271 0018 002B     		cmp	r3, #0
 2272 001a 16D0     		beq	.L111
 881:../firmware/gd32f3x0_hal_peripheral/Source/gd32f3x0_hal_usrt.c ****             (RESET == (USART_CTL0(usrt->periph) & USART_CTL0_PCEN))) {
 2273              		.loc 1 881 24 discriminator 1
 2274 001c FB68     		ldr	r3, [r7, #12]
 2275 001e 1B68     		ldr	r3, [r3]
 2276 0020 1B68     		ldr	r3, [r3]
 2277              		.loc 1 881 49 discriminator 1
 2278 0022 03F48063 		and	r3, r3, #1024
 880:../firmware/gd32f3x0_hal_peripheral/Source/gd32f3x0_hal_usrt.c ****             (RESET == (USART_CTL0(usrt->periph) & USART_CTL0_PCEN))) {
 2279              		.loc 1 880 62 discriminator 1
 2280 0026 002B     		cmp	r3, #0
 2281 0028 0FD1     		bne	.L111
 882:../firmware/gd32f3x0_hal_peripheral/Source/gd32f3x0_hal_usrt.c ****         if(RESET != (((uint32_t)p_tx_buffer || (uint32_t)p_rx_buffer) & 1U)) {
 2282              		.loc 1 882 45
 2283 002a BB68     		ldr	r3, [r7, #8]
 2284 002c 002B     		cmp	r3, #0
 2285 002e 02D1     		bne	.L112
 2286              		.loc 1 882 45 is_stmt 0 discriminator 2
 2287 0030 7B68     		ldr	r3, [r7, #4]
 2288 0032 002B     		cmp	r3, #0
 2289 0034 01D0     		beq	.L113
 2290              	.L112:
 2291              		.loc 1 882 45 discriminator 3
 2292 0036 0123     		movs	r3, #1
 2293 0038 00E0     		b	.L114
 2294              	.L113:
 2295              		.loc 1 882 45 discriminator 4
 2296 003a 0023     		movs	r3, #0
 2297              	.L114:
 2298              		.loc 1 882 71 is_stmt 1 discriminator 6
 2299 003c 03F00103 		and	r3, r3, #1
 2300              		.loc 1 882 11 discriminator 6
 2301 0040 002B     		cmp	r3, #0
 2302 0042 02D0     		beq	.L111
 883:../firmware/gd32f3x0_hal_peripheral/Source/gd32f3x0_hal_usrt.c ****             return HAL_ERR_ADDRESS;
 2303              		.loc 1 883 20
 2304 0044 6FF00603 		mvn	r3, #6
 2305 0048 6DE0     		b	.L115
 2306              	.L111:
 884:../firmware/gd32f3x0_hal_peripheral/Source/gd32f3x0_hal_usrt.c ****         }
 885:../firmware/gd32f3x0_hal_peripheral/Source/gd32f3x0_hal_usrt.c ****     }
 886:../firmware/gd32f3x0_hal_peripheral/Source/gd32f3x0_hal_usrt.c **** 
 887:../firmware/gd32f3x0_hal_peripheral/Source/gd32f3x0_hal_usrt.c ****     /* check the rx_state wheher is in busy Tx Rx or not */
 888:../firmware/gd32f3x0_hal_peripheral/Source/gd32f3x0_hal_usrt.c ****     if(USRT_STATE_BUSY_TX_RX == usrt->rx_state) {
 2307              		.loc 1 888 37
 2308 004a FB68     		ldr	r3, [r7, #12]
 2309 004c 93F83B30 		ldrb	r3, [r3, #59]
 2310 0050 DBB2     		uxtb	r3, r3
 2311              		.loc 1 888 7
 2312 0052 022B     		cmp	r3, #2
 2313 0054 02D1     		bne	.L116
 889:../firmware/gd32f3x0_hal_peripheral/Source/gd32f3x0_hal_usrt.c ****         HAL_DEBUGE("usrt tx or rx has already been used, please wait until run_state change to free
 890:../firmware/gd32f3x0_hal_peripheral/Source/gd32f3x0_hal_usrt.c ****         return HAL_ERR_BUSY;
 2314              		.loc 1 890 16
 2315 0056 6FF00203 		mvn	r3, #2
 2316 005a 64E0     		b	.L115
 2317              	.L116:
 891:../firmware/gd32f3x0_hal_peripheral/Source/gd32f3x0_hal_usrt.c ****     }
 892:../firmware/gd32f3x0_hal_peripheral/Source/gd32f3x0_hal_usrt.c **** 
 893:../firmware/gd32f3x0_hal_peripheral/Source/gd32f3x0_hal_usrt.c ****     /* lock usrt */
 894:../firmware/gd32f3x0_hal_peripheral/Source/gd32f3x0_hal_usrt.c ****     HAL_LOCK(usrt);
 2318              		.loc 1 894 5
 2319 005c FB68     		ldr	r3, [r7, #12]
 2320 005e 93F84430 		ldrb	r3, [r3, #68]	@ zero_extendqisi2
 2321 0062 012B     		cmp	r3, #1
 2322 0064 02D1     		bne	.L117
 2323              		.loc 1 894 5 is_stmt 0 discriminator 1
 2324 0066 6FF00103 		mvn	r3, #1
 2325 006a 5CE0     		b	.L115
 2326              	.L117:
 2327              		.loc 1 894 5 discriminator 2
 2328 006c FB68     		ldr	r3, [r7, #12]
 2329 006e 0122     		movs	r2, #1
 2330 0070 83F84420 		strb	r2, [r3, #68]
 895:../firmware/gd32f3x0_hal_peripheral/Source/gd32f3x0_hal_usrt.c **** 
 896:../firmware/gd32f3x0_hal_peripheral/Source/gd32f3x0_hal_usrt.c ****     usrt->error_state = HAL_USRT_ERROR_NONE;
 2331              		.loc 1 896 23 is_stmt 1 discriminator 2
 2332 0074 FB68     		ldr	r3, [r7, #12]
 2333 0076 0022     		movs	r2, #0
 2334 0078 1A87     		strh	r2, [r3, #56]	@ movhi
 897:../firmware/gd32f3x0_hal_peripheral/Source/gd32f3x0_hal_usrt.c ****     usrt->tx_state = USRT_STATE_BUSY_TX_RX;
 2335              		.loc 1 897 20 discriminator 2
 2336 007a FB68     		ldr	r3, [r7, #12]
 2337 007c 0222     		movs	r2, #2
 2338 007e 83F83A20 		strb	r2, [r3, #58]
 898:../firmware/gd32f3x0_hal_peripheral/Source/gd32f3x0_hal_usrt.c ****     usrt->rx_state = USRT_STATE_BUSY_TX_RX;
 2339              		.loc 1 898 20 discriminator 2
 2340 0082 FB68     		ldr	r3, [r7, #12]
 2341 0084 0222     		movs	r2, #2
 2342 0086 83F83B20 		strb	r2, [r3, #59]
 899:../firmware/gd32f3x0_hal_peripheral/Source/gd32f3x0_hal_usrt.c **** 
 900:../firmware/gd32f3x0_hal_peripheral/Source/gd32f3x0_hal_usrt.c ****     /* initialize transmit parameters */
 901:../firmware/gd32f3x0_hal_peripheral/Source/gd32f3x0_hal_usrt.c ****     usrt->txbuffer.buffer   = (uint8_t *)p_tx_buffer;
 2343              		.loc 1 901 29 discriminator 2
 2344 008a FB68     		ldr	r3, [r7, #12]
 2345 008c BA68     		ldr	r2, [r7, #8]
 2346 008e DA61     		str	r2, [r3, #28]
 902:../firmware/gd32f3x0_hal_peripheral/Source/gd32f3x0_hal_usrt.c ****     usrt->txbuffer.length   = length;
 2347              		.loc 1 902 29 discriminator 2
 2348 0090 FB68     		ldr	r3, [r7, #12]
 2349 0092 3A68     		ldr	r2, [r7]
 2350 0094 1A62     		str	r2, [r3, #32]
 903:../firmware/gd32f3x0_hal_peripheral/Source/gd32f3x0_hal_usrt.c ****     usrt->txbuffer.pos      = 0U;
 2351              		.loc 1 903 29 discriminator 2
 2352 0096 FB68     		ldr	r3, [r7, #12]
 2353 0098 0022     		movs	r2, #0
 2354 009a 5A62     		str	r2, [r3, #36]
 904:../firmware/gd32f3x0_hal_peripheral/Source/gd32f3x0_hal_usrt.c ****     usrt->usrt_irq.transmit_ready_handle = _usrt_tx_rx_interrupt;
 2355              		.loc 1 904 42 discriminator 2
 2356 009c FB68     		ldr	r3, [r7, #12]
 2357 009e 244A     		ldr	r2, .L118
 2358 00a0 9A60     		str	r2, [r3, #8]
 905:../firmware/gd32f3x0_hal_peripheral/Source/gd32f3x0_hal_usrt.c ****     usrt->usrt_irq.transmit_complete_handle = _usrt_transmit_complete_interrupt;
 2359              		.loc 1 905 45 discriminator 2
 2360 00a2 FB68     		ldr	r3, [r7, #12]
 2361 00a4 234A     		ldr	r2, .L118+4
 2362 00a6 DA60     		str	r2, [r3, #12]
 906:../firmware/gd32f3x0_hal_peripheral/Source/gd32f3x0_hal_usrt.c **** 
 907:../firmware/gd32f3x0_hal_peripheral/Source/gd32f3x0_hal_usrt.c ****     /* initialize receive parameters */
 908:../firmware/gd32f3x0_hal_peripheral/Source/gd32f3x0_hal_usrt.c ****     usrt->rxbuffer.buffer   = (uint8_t *)p_rx_buffer;
 2363              		.loc 1 908 29 discriminator 2
 2364 00a8 FB68     		ldr	r3, [r7, #12]
 2365 00aa 7A68     		ldr	r2, [r7, #4]
 2366 00ac 9A62     		str	r2, [r3, #40]
 909:../firmware/gd32f3x0_hal_peripheral/Source/gd32f3x0_hal_usrt.c ****     usrt->rxbuffer.length   = length;
 2367              		.loc 1 909 29 discriminator 2
 2368 00ae FB68     		ldr	r3, [r7, #12]
 2369 00b0 3A68     		ldr	r2, [r7]
 2370 00b2 DA62     		str	r2, [r3, #44]
 910:../firmware/gd32f3x0_hal_peripheral/Source/gd32f3x0_hal_usrt.c ****     usrt->rxbuffer.pos      = 0U;
 2371              		.loc 1 910 29 discriminator 2
 2372 00b4 FB68     		ldr	r3, [r7, #12]
 2373 00b6 0022     		movs	r2, #0
 2374 00b8 1A63     		str	r2, [r3, #48]
 911:../firmware/gd32f3x0_hal_peripheral/Source/gd32f3x0_hal_usrt.c ****     usrt->data_bit_mask     = _usrt_data_bit_mask_get(usrt);
 2375              		.loc 1 911 31 discriminator 2
 2376 00ba F868     		ldr	r0, [r7, #12]
 2377 00bc FFF7FEFF 		bl	_usrt_data_bit_mask_get
 2378 00c0 0346     		mov	r3, r0
 2379 00c2 1A46     		mov	r2, r3
 2380              		.loc 1 911 29 discriminator 2
 2381 00c4 FB68     		ldr	r3, [r7, #12]
 2382 00c6 9A86     		strh	r2, [r3, #52]	@ movhi
 912:../firmware/gd32f3x0_hal_peripheral/Source/gd32f3x0_hal_usrt.c ****     usrt->rx_callback       = (void *)p_user_func;
 2383              		.loc 1 912 29 discriminator 2
 2384 00c8 FB68     		ldr	r3, [r7, #12]
 2385 00ca BA69     		ldr	r2, [r7, #24]
 2386 00cc DA63     		str	r2, [r3, #60]
 913:../firmware/gd32f3x0_hal_peripheral/Source/gd32f3x0_hal_usrt.c ****     usrt->usrt_irq.receive_complete_handle = _usrt_tx_rx_interrupt;
 2387              		.loc 1 913 44 discriminator 2
 2388 00ce FB68     		ldr	r3, [r7, #12]
 2389 00d0 174A     		ldr	r2, .L118
 2390 00d2 5A60     		str	r2, [r3, #4]
 914:../firmware/gd32f3x0_hal_peripheral/Source/gd32f3x0_hal_usrt.c **** 
 915:../firmware/gd32f3x0_hal_peripheral/Source/gd32f3x0_hal_usrt.c ****     /* clear USRT TC interrupt flag */
 916:../firmware/gd32f3x0_hal_peripheral/Source/gd32f3x0_hal_usrt.c ****     hals_usrt_interrupt_flag_clear(usrt->periph, USART_INT_FLAG_TC);
 2391              		.loc 1 916 5 discriminator 2
 2392 00d4 FB68     		ldr	r3, [r7, #12]
 2393 00d6 1B68     		ldr	r3, [r3]
 2394 00d8 1749     		ldr	r1, .L118+8
 2395 00da 1846     		mov	r0, r3
 2396 00dc FFF7FEFF 		bl	hals_usrt_interrupt_flag_clear
 917:../firmware/gd32f3x0_hal_peripheral/Source/gd32f3x0_hal_usrt.c **** 
 918:../firmware/gd32f3x0_hal_peripheral/Source/gd32f3x0_hal_usrt.c ****     /* enable PERR, ERR, RBNE, TBE interrupt */
 919:../firmware/gd32f3x0_hal_peripheral/Source/gd32f3x0_hal_usrt.c ****     hals_usrt_interrupt_enable(usrt->periph, USART_INT_PERR);
 2397              		.loc 1 919 5 discriminator 2
 2398 00e0 FB68     		ldr	r3, [r7, #12]
 2399 00e2 1B68     		ldr	r3, [r3]
 2400 00e4 0821     		movs	r1, #8
 2401 00e6 1846     		mov	r0, r3
 2402 00e8 FFF7FEFF 		bl	hals_usrt_interrupt_enable
 920:../firmware/gd32f3x0_hal_peripheral/Source/gd32f3x0_hal_usrt.c ****     hals_usrt_interrupt_enable(usrt->periph, USART_INT_ERR);
 2403              		.loc 1 920 5 discriminator 2
 2404 00ec FB68     		ldr	r3, [r7, #12]
 2405 00ee 1B68     		ldr	r3, [r3]
 2406 00f0 4FF40071 		mov	r1, #512
 2407 00f4 1846     		mov	r0, r3
 2408 00f6 FFF7FEFF 		bl	hals_usrt_interrupt_enable
 921:../firmware/gd32f3x0_hal_peripheral/Source/gd32f3x0_hal_usrt.c ****     hals_usrt_interrupt_enable(usrt->periph, USART_INT_RBNE);
 2409              		.loc 1 921 5 discriminator 2
 2410 00fa FB68     		ldr	r3, [r7, #12]
 2411 00fc 1B68     		ldr	r3, [r3]
 2412 00fe 0521     		movs	r1, #5
 2413 0100 1846     		mov	r0, r3
 2414 0102 FFF7FEFF 		bl	hals_usrt_interrupt_enable
 922:../firmware/gd32f3x0_hal_peripheral/Source/gd32f3x0_hal_usrt.c ****     hals_usrt_interrupt_enable(usrt->periph, USART_INT_TBE);
 2415              		.loc 1 922 5 discriminator 2
 2416 0106 FB68     		ldr	r3, [r7, #12]
 2417 0108 1B68     		ldr	r3, [r3]
 2418 010a 0721     		movs	r1, #7
 2419 010c 1846     		mov	r0, r3
 2420 010e FFF7FEFF 		bl	hals_usrt_interrupt_enable
 923:../firmware/gd32f3x0_hal_peripheral/Source/gd32f3x0_hal_usrt.c **** 
 924:../firmware/gd32f3x0_hal_peripheral/Source/gd32f3x0_hal_usrt.c ****     /* unlock uart */
 925:../firmware/gd32f3x0_hal_peripheral/Source/gd32f3x0_hal_usrt.c ****     HAL_UNLOCK(usrt);
 2421              		.loc 1 925 5 discriminator 2
 2422 0112 FB68     		ldr	r3, [r7, #12]
 2423 0114 0022     		movs	r2, #0
 2424 0116 83F84420 		strb	r2, [r3, #68]
 926:../firmware/gd32f3x0_hal_peripheral/Source/gd32f3x0_hal_usrt.c **** 
 927:../firmware/gd32f3x0_hal_peripheral/Source/gd32f3x0_hal_usrt.c ****     hals_uart_enable(usrt->periph);
 2425              		.loc 1 927 5 discriminator 2
 2426 011a FB68     		ldr	r3, [r7, #12]
 2427 011c 1B68     		ldr	r3, [r3]
 2428 011e 1846     		mov	r0, r3
 2429 0120 FFF7FEFF 		bl	hals_uart_enable
 928:../firmware/gd32f3x0_hal_peripheral/Source/gd32f3x0_hal_usrt.c **** 
 929:../firmware/gd32f3x0_hal_peripheral/Source/gd32f3x0_hal_usrt.c ****     return HAL_ERR_NONE;
 2430              		.loc 1 929 12 discriminator 2
 2431 0124 0023     		movs	r3, #0
 2432              	.L115:
 930:../firmware/gd32f3x0_hal_peripheral/Source/gd32f3x0_hal_usrt.c **** }
 2433              		.loc 1 930 1
 2434 0126 1846     		mov	r0, r3
 2435 0128 1037     		adds	r7, r7, #16
 2436              		.cfi_def_cfa_offset 8
 2437 012a BD46     		mov	sp, r7
 2438              		.cfi_def_cfa_register 13
 2439              		@ sp needed
 2440 012c 80BD     		pop	{r7, pc}
 2441              	.L119:
 2442 012e 00BF     		.align	2
 2443              	.L118:
 2444 0130 00000000 		.word	_usrt_tx_rx_interrupt
 2445 0134 00000000 		.word	_usrt_transmit_complete_interrupt
 2446 0138 06000607 		.word	117833734
 2447              		.cfi_endproc
 2448              	.LFE130:
 2450              		.section	.text.hal_usrt_transmit_dma,"ax",%progbits
 2451              		.align	1
 2452              		.global	hal_usrt_transmit_dma
 2453              		.syntax unified
 2454              		.thumb
 2455              		.thumb_func
 2456              		.fpu softvfp
 2458              	hal_usrt_transmit_dma:
 2459              	.LFB131:
 931:../firmware/gd32f3x0_hal_peripheral/Source/gd32f3x0_hal_usrt.c **** 
 932:../firmware/gd32f3x0_hal_peripheral/Source/gd32f3x0_hal_usrt.c **** /*!
 933:../firmware/gd32f3x0_hal_peripheral/Source/gd32f3x0_hal_usrt.c ****     \brief      transmit amounts of data by dma method
 934:../firmware/gd32f3x0_hal_peripheral/Source/gd32f3x0_hal_usrt.c ****                 the function is non-blocking
 935:../firmware/gd32f3x0_hal_peripheral/Source/gd32f3x0_hal_usrt.c ****     \param[in]  usrt: usrt device information structure
 936:../firmware/gd32f3x0_hal_peripheral/Source/gd32f3x0_hal_usrt.c ****                     the structure is not necessary to be reconfigured after structrue initializatio
 937:../firmware/gd32f3x0_hal_peripheral/Source/gd32f3x0_hal_usrt.c ****                     the structure parameters altering is automatically configured by core
 938:../firmware/gd32f3x0_hal_peripheral/Source/gd32f3x0_hal_usrt.c ****     \param[in]  p_buffer: pointer to data buffer
 939:../firmware/gd32f3x0_hal_peripheral/Source/gd32f3x0_hal_usrt.c ****     \param[in]  length: number of data to be transmitted
 940:../firmware/gd32f3x0_hal_peripheral/Source/gd32f3x0_hal_usrt.c ****     \param[in]  p_func: pointer to callback function
 941:../firmware/gd32f3x0_hal_peripheral/Source/gd32f3x0_hal_usrt.c ****     \param[out] none
 942:../firmware/gd32f3x0_hal_peripheral/Source/gd32f3x0_hal_usrt.c ****     \retval     error code: HAL_ERR_NONE, HAL_ERR_ADDRESS, HAL_ERR_VAL, HAL_ERR_BUSY details refer 
 943:../firmware/gd32f3x0_hal_peripheral/Source/gd32f3x0_hal_usrt.c **** */
 944:../firmware/gd32f3x0_hal_peripheral/Source/gd32f3x0_hal_usrt.c **** int32_t hal_usrt_transmit_dma(hal_usrt_dev_struct *usrt, uint8_t *p_buffer, uint16_t length, hal_us
 945:../firmware/gd32f3x0_hal_peripheral/Source/gd32f3x0_hal_usrt.c **** {
 2460              		.loc 1 945 1
 2461              		.cfi_startproc
 2462              		@ args = 0, pretend = 0, frame = 32
 2463              		@ frame_needed = 1, uses_anonymous_args = 0
 2464 0000 90B5     		push	{r4, r7, lr}
 2465              		.cfi_def_cfa_offset 12
 2466              		.cfi_offset 4, -12
 2467              		.cfi_offset 7, -8
 2468              		.cfi_offset 14, -4
 2469 0002 8BB0     		sub	sp, sp, #44
 2470              		.cfi_def_cfa_offset 56
 2471 0004 02AF     		add	r7, sp, #8
 2472              		.cfi_def_cfa 7, 48
 2473 0006 F860     		str	r0, [r7, #12]
 2474 0008 B960     		str	r1, [r7, #8]
 2475 000a 3B60     		str	r3, [r7]
 2476 000c 1346     		mov	r3, r2	@ movhi
 2477 000e FB80     		strh	r3, [r7, #6]	@ movhi
 946:../firmware/gd32f3x0_hal_peripheral/Source/gd32f3x0_hal_usrt.c ****     hal_dma_irq_struct dma_irq;
 947:../firmware/gd32f3x0_hal_peripheral/Source/gd32f3x0_hal_usrt.c **** 
 948:../firmware/gd32f3x0_hal_peripheral/Source/gd32f3x0_hal_usrt.c **** #if (1 == HAL_PARAMETER_CHECK)
 949:../firmware/gd32f3x0_hal_peripheral/Source/gd32f3x0_hal_usrt.c ****     /* check the parameters */
 950:../firmware/gd32f3x0_hal_peripheral/Source/gd32f3x0_hal_usrt.c ****     if((NULL == usrt) || (NULL == p_buffer) || (0U == length)) {
 951:../firmware/gd32f3x0_hal_peripheral/Source/gd32f3x0_hal_usrt.c ****         HAL_DEBUGE("parameter [usrt] or [p_buffer] or [length] value is invalid");
 952:../firmware/gd32f3x0_hal_peripheral/Source/gd32f3x0_hal_usrt.c ****         return HAL_ERR_ADDRESS;
 953:../firmware/gd32f3x0_hal_peripheral/Source/gd32f3x0_hal_usrt.c ****     }
 954:../firmware/gd32f3x0_hal_peripheral/Source/gd32f3x0_hal_usrt.c **** 
 955:../firmware/gd32f3x0_hal_peripheral/Source/gd32f3x0_hal_usrt.c ****     /* check the parameter */
 956:../firmware/gd32f3x0_hal_peripheral/Source/gd32f3x0_hal_usrt.c ****     if(NULL == usrt->p_dma_tx) {
 957:../firmware/gd32f3x0_hal_peripheral/Source/gd32f3x0_hal_usrt.c ****         HAL_DEBUGE("parameter [usrt->p_dma_tx] value is invalid");
 958:../firmware/gd32f3x0_hal_peripheral/Source/gd32f3x0_hal_usrt.c ****         return HAL_ERR_ADDRESS;
 959:../firmware/gd32f3x0_hal_peripheral/Source/gd32f3x0_hal_usrt.c ****     }
 960:../firmware/gd32f3x0_hal_peripheral/Source/gd32f3x0_hal_usrt.c **** #endif /* 1 == HAL_PARAMETER_CHECK */
 961:../firmware/gd32f3x0_hal_peripheral/Source/gd32f3x0_hal_usrt.c **** 
 962:../firmware/gd32f3x0_hal_peripheral/Source/gd32f3x0_hal_usrt.c ****     /* check the tx_state wheher is busy or not */
 963:../firmware/gd32f3x0_hal_peripheral/Source/gd32f3x0_hal_usrt.c ****     if(USRT_STATE_BUSY == usrt->tx_state) {
 2478              		.loc 1 963 31
 2479 0010 FB68     		ldr	r3, [r7, #12]
 2480 0012 93F83A30 		ldrb	r3, [r3, #58]
 2481 0016 DBB2     		uxtb	r3, r3
 2482              		.loc 1 963 7
 2483 0018 012B     		cmp	r3, #1
 2484 001a 02D1     		bne	.L121
 964:../firmware/gd32f3x0_hal_peripheral/Source/gd32f3x0_hal_usrt.c ****         HAL_DEBUGE("usrt tx has already been used, please wait until run_state change to free ");
 965:../firmware/gd32f3x0_hal_peripheral/Source/gd32f3x0_hal_usrt.c ****         return HAL_ERR_BUSY;
 2485              		.loc 1 965 16
 2486 001c 6FF00203 		mvn	r3, #2
 2487 0020 77E0     		b	.L129
 2488              	.L121:
 966:../firmware/gd32f3x0_hal_peripheral/Source/gd32f3x0_hal_usrt.c ****     }
 967:../firmware/gd32f3x0_hal_peripheral/Source/gd32f3x0_hal_usrt.c **** 
 968:../firmware/gd32f3x0_hal_peripheral/Source/gd32f3x0_hal_usrt.c ****     /* lock usrt */
 969:../firmware/gd32f3x0_hal_peripheral/Source/gd32f3x0_hal_usrt.c ****     HAL_LOCK(usrt);
 2489              		.loc 1 969 5
 2490 0022 FB68     		ldr	r3, [r7, #12]
 2491 0024 93F84430 		ldrb	r3, [r3, #68]	@ zero_extendqisi2
 2492 0028 012B     		cmp	r3, #1
 2493 002a 02D1     		bne	.L123
 2494              		.loc 1 969 5 is_stmt 0 discriminator 1
 2495 002c 6FF00103 		mvn	r3, #1
 2496 0030 6FE0     		b	.L129
 2497              	.L123:
 2498              		.loc 1 969 5 discriminator 2
 2499 0032 FB68     		ldr	r3, [r7, #12]
 2500 0034 0122     		movs	r2, #1
 2501 0036 83F84420 		strb	r2, [r3, #68]
 970:../firmware/gd32f3x0_hal_peripheral/Source/gd32f3x0_hal_usrt.c **** 
 971:../firmware/gd32f3x0_hal_peripheral/Source/gd32f3x0_hal_usrt.c ****     usrt->tx_state = USRT_STATE_BUSY;
 2502              		.loc 1 971 20 is_stmt 1 discriminator 2
 2503 003a FB68     		ldr	r3, [r7, #12]
 2504 003c 0122     		movs	r2, #1
 2505 003e 83F83A20 		strb	r2, [r3, #58]
 972:../firmware/gd32f3x0_hal_peripheral/Source/gd32f3x0_hal_usrt.c ****     usrt->error_state = HAL_USRT_ERROR_NONE;
 2506              		.loc 1 972 23 discriminator 2
 2507 0042 FB68     		ldr	r3, [r7, #12]
 2508 0044 0022     		movs	r2, #0
 2509 0046 1A87     		strh	r2, [r3, #56]	@ movhi
 973:../firmware/gd32f3x0_hal_peripheral/Source/gd32f3x0_hal_usrt.c **** 
 974:../firmware/gd32f3x0_hal_peripheral/Source/gd32f3x0_hal_usrt.c ****     /* initialize transmit parameters */
 975:../firmware/gd32f3x0_hal_peripheral/Source/gd32f3x0_hal_usrt.c ****     usrt->txbuffer.buffer   = (uint8_t *)p_buffer;
 2510              		.loc 1 975 29 discriminator 2
 2511 0048 FB68     		ldr	r3, [r7, #12]
 2512 004a BA68     		ldr	r2, [r7, #8]
 2513 004c DA61     		str	r2, [r3, #28]
 976:../firmware/gd32f3x0_hal_peripheral/Source/gd32f3x0_hal_usrt.c ****     usrt->txbuffer.length   = length;
 2514              		.loc 1 976 29 discriminator 2
 2515 004e FA88     		ldrh	r2, [r7, #6]
 2516 0050 FB68     		ldr	r3, [r7, #12]
 2517 0052 1A62     		str	r2, [r3, #32]
 977:../firmware/gd32f3x0_hal_peripheral/Source/gd32f3x0_hal_usrt.c ****     usrt->txbuffer.pos      = 0U;
 2518              		.loc 1 977 29 discriminator 2
 2519 0054 FB68     		ldr	r3, [r7, #12]
 2520 0056 0022     		movs	r2, #0
 2521 0058 5A62     		str	r2, [r3, #36]
 978:../firmware/gd32f3x0_hal_peripheral/Source/gd32f3x0_hal_usrt.c **** 
 979:../firmware/gd32f3x0_hal_peripheral/Source/gd32f3x0_hal_usrt.c ****     if(NULL != p_func) {
 2522              		.loc 1 979 7 discriminator 2
 2523 005a 3B68     		ldr	r3, [r7]
 2524 005c 002B     		cmp	r3, #0
 2525 005e 08D0     		beq	.L124
 980:../firmware/gd32f3x0_hal_peripheral/Source/gd32f3x0_hal_usrt.c ****         usrt->tx_callback = (void *)p_func->complete_func;
 2526              		.loc 1 980 43
 2527 0060 3B68     		ldr	r3, [r7]
 2528 0062 1A68     		ldr	r2, [r3]
 2529              		.loc 1 980 27
 2530 0064 FB68     		ldr	r3, [r7, #12]
 2531 0066 1A64     		str	r2, [r3, #64]
 981:../firmware/gd32f3x0_hal_peripheral/Source/gd32f3x0_hal_usrt.c ****         usrt->usrt_irq.error_handle = (hal_irq_handle_cb)p_func->error_func;
 2532              		.loc 1 981 64
 2533 0068 3B68     		ldr	r3, [r7]
 2534 006a 5A68     		ldr	r2, [r3, #4]
 2535              		.loc 1 981 37
 2536 006c FB68     		ldr	r3, [r7, #12]
 2537 006e 1A61     		str	r2, [r3, #16]
 2538 0070 05E0     		b	.L125
 2539              	.L124:
 982:../firmware/gd32f3x0_hal_peripheral/Source/gd32f3x0_hal_usrt.c ****     } else {
 983:../firmware/gd32f3x0_hal_peripheral/Source/gd32f3x0_hal_usrt.c ****         usrt->tx_callback = NULL;
 2540              		.loc 1 983 27
 2541 0072 FB68     		ldr	r3, [r7, #12]
 2542 0074 0022     		movs	r2, #0
 2543 0076 1A64     		str	r2, [r3, #64]
 984:../firmware/gd32f3x0_hal_peripheral/Source/gd32f3x0_hal_usrt.c ****         usrt->usrt_irq.error_handle = NULL;
 2544              		.loc 1 984 37
 2545 0078 FB68     		ldr	r3, [r7, #12]
 2546 007a 0022     		movs	r2, #0
 2547 007c 1A61     		str	r2, [r3, #16]
 2548              	.L125:
 985:../firmware/gd32f3x0_hal_peripheral/Source/gd32f3x0_hal_usrt.c ****     }
 986:../firmware/gd32f3x0_hal_peripheral/Source/gd32f3x0_hal_usrt.c ****     usrt->usrt_irq.transmit_complete_handle = _usrt_transmit_complete_interrupt;
 2549              		.loc 1 986 45
 2550 007e FB68     		ldr	r3, [r7, #12]
 2551 0080 264A     		ldr	r2, .L130
 2552 0082 DA60     		str	r2, [r3, #12]
 987:../firmware/gd32f3x0_hal_peripheral/Source/gd32f3x0_hal_usrt.c **** 
 988:../firmware/gd32f3x0_hal_peripheral/Source/gd32f3x0_hal_usrt.c ****     /* configure DMA interrupt callback function */
 989:../firmware/gd32f3x0_hal_peripheral/Source/gd32f3x0_hal_usrt.c ****     dma_irq.full_finish_handle = _usrt_transmit_dma;
 2553              		.loc 1 989 32
 2554 0084 264B     		ldr	r3, .L130+4
 2555 0086 FB61     		str	r3, [r7, #28]
 990:../firmware/gd32f3x0_hal_peripheral/Source/gd32f3x0_hal_usrt.c ****     dma_irq.error_handle = _usrt_dma_error;
 2556              		.loc 1 990 26
 2557 0088 264B     		ldr	r3, .L130+8
 2558 008a 7B61     		str	r3, [r7, #20]
 991:../firmware/gd32f3x0_hal_peripheral/Source/gd32f3x0_hal_usrt.c ****     if(NULL != usrt->p_dma_tx->dma_irq.half_finish_handle) {
 2559              		.loc 1 991 20
 2560 008c FB68     		ldr	r3, [r7, #12]
 2561 008e 9B69     		ldr	r3, [r3, #24]
 2562              		.loc 1 991 39
 2563 0090 9B68     		ldr	r3, [r3, #8]
 2564              		.loc 1 991 7
 2565 0092 002B     		cmp	r3, #0
 2566 0094 04D0     		beq	.L126
 992:../firmware/gd32f3x0_hal_peripheral/Source/gd32f3x0_hal_usrt.c ****         dma_irq.half_finish_handle = usrt->p_dma_tx->dma_irq.half_finish_handle;
 2567              		.loc 1 992 42
 2568 0096 FB68     		ldr	r3, [r7, #12]
 2569 0098 9B69     		ldr	r3, [r3, #24]
 2570              		.loc 1 992 61
 2571 009a 9B68     		ldr	r3, [r3, #8]
 2572              		.loc 1 992 36
 2573 009c BB61     		str	r3, [r7, #24]
 2574 009e 01E0     		b	.L127
 2575              	.L126:
 993:../firmware/gd32f3x0_hal_peripheral/Source/gd32f3x0_hal_usrt.c ****     } else {
 994:../firmware/gd32f3x0_hal_peripheral/Source/gd32f3x0_hal_usrt.c ****         dma_irq.half_finish_handle = NULL;
 2576              		.loc 1 994 36
 2577 00a0 0023     		movs	r3, #0
 2578 00a2 BB61     		str	r3, [r7, #24]
 2579              	.L127:
 995:../firmware/gd32f3x0_hal_peripheral/Source/gd32f3x0_hal_usrt.c ****     }
 996:../firmware/gd32f3x0_hal_peripheral/Source/gd32f3x0_hal_usrt.c **** 
 997:../firmware/gd32f3x0_hal_peripheral/Source/gd32f3x0_hal_usrt.c ****     /* start DMA interrupt mode transfer */
 998:../firmware/gd32f3x0_hal_peripheral/Source/gd32f3x0_hal_usrt.c ****     if(HAL_ERR_NONE != hal_dma_start_interrupt(usrt->p_dma_tx,
 2580              		.loc 1 998 24
 2581 00a4 FB68     		ldr	r3, [r7, #12]
 2582 00a6 9869     		ldr	r0, [r3, #24]
 999:../firmware/gd32f3x0_hal_peripheral/Source/gd32f3x0_hal_usrt.c ****             (uint32_t)usrt->txbuffer.buffer,
 2583              		.loc 1 999 37
 2584 00a8 FB68     		ldr	r3, [r7, #12]
 2585 00aa DB69     		ldr	r3, [r3, #28]
 998:../firmware/gd32f3x0_hal_peripheral/Source/gd32f3x0_hal_usrt.c ****             (uint32_t)usrt->txbuffer.buffer,
 2586              		.loc 1 998 24
 2587 00ac 1C46     		mov	r4, r3
1000:../firmware/gd32f3x0_hal_peripheral/Source/gd32f3x0_hal_usrt.c ****             (uint32_t)&USART_TDATA(usrt->periph), usrt->txbuffer.length, &dma_irq)) {
 2588              		.loc 1 1000 24
 2589 00ae FB68     		ldr	r3, [r7, #12]
 2590 00b0 1B68     		ldr	r3, [r3]
 998:../firmware/gd32f3x0_hal_peripheral/Source/gd32f3x0_hal_usrt.c ****             (uint32_t)usrt->txbuffer.buffer,
 2591              		.loc 1 998 24
 2592 00b2 03F12802 		add	r2, r3, #40
 2593              		.loc 1 1000 65
 2594 00b6 FB68     		ldr	r3, [r7, #12]
 2595 00b8 1B6A     		ldr	r3, [r3, #32]
 998:../firmware/gd32f3x0_hal_peripheral/Source/gd32f3x0_hal_usrt.c ****             (uint32_t)usrt->txbuffer.buffer,
 2596              		.loc 1 998 24
 2597 00ba 99B2     		uxth	r1, r3
 2598 00bc 07F11403 		add	r3, r7, #20
 2599 00c0 0093     		str	r3, [sp]
 2600 00c2 0B46     		mov	r3, r1
 2601 00c4 2146     		mov	r1, r4
 2602 00c6 FFF7FEFF 		bl	hal_dma_start_interrupt
 2603 00ca 0346     		mov	r3, r0
 998:../firmware/gd32f3x0_hal_peripheral/Source/gd32f3x0_hal_usrt.c ****             (uint32_t)usrt->txbuffer.buffer,
 2604              		.loc 1 998 7
 2605 00cc 002B     		cmp	r3, #0
 2606 00ce 0AD0     		beq	.L128
1001:../firmware/gd32f3x0_hal_peripheral/Source/gd32f3x0_hal_usrt.c ****         usrt->tx_state = USRT_STATE_FREE;
 2607              		.loc 1 1001 24
 2608 00d0 FB68     		ldr	r3, [r7, #12]
 2609 00d2 0022     		movs	r2, #0
 2610 00d4 83F83A20 		strb	r2, [r3, #58]
1002:../firmware/gd32f3x0_hal_peripheral/Source/gd32f3x0_hal_usrt.c ****         usrt->error_state = HAL_USRT_ERROR_DMATX;
 2611              		.loc 1 1002 27
 2612 00d8 FB68     		ldr	r3, [r7, #12]
 2613 00da 1022     		movs	r2, #16
 2614 00dc 1A87     		strh	r2, [r3, #56]	@ movhi
1003:../firmware/gd32f3x0_hal_peripheral/Source/gd32f3x0_hal_usrt.c ****         /* unlock uart */
1004:../firmware/gd32f3x0_hal_peripheral/Source/gd32f3x0_hal_usrt.c ****         HAL_UNLOCK(usrt);
 2615              		.loc 1 1004 9
 2616 00de FB68     		ldr	r3, [r7, #12]
 2617 00e0 0022     		movs	r2, #0
 2618 00e2 83F84420 		strb	r2, [r3, #68]
 2619              	.L128:
1005:../firmware/gd32f3x0_hal_peripheral/Source/gd32f3x0_hal_usrt.c ****     }
1006:../firmware/gd32f3x0_hal_peripheral/Source/gd32f3x0_hal_usrt.c **** 
1007:../firmware/gd32f3x0_hal_peripheral/Source/gd32f3x0_hal_usrt.c ****     /* clear USRT TC interrupt flag */
1008:../firmware/gd32f3x0_hal_peripheral/Source/gd32f3x0_hal_usrt.c ****     hals_usrt_interrupt_flag_clear(usrt->periph, USART_INT_FLAG_TC);
 2620              		.loc 1 1008 5
 2621 00e6 FB68     		ldr	r3, [r7, #12]
 2622 00e8 1B68     		ldr	r3, [r3]
 2623 00ea 0F49     		ldr	r1, .L130+12
 2624 00ec 1846     		mov	r0, r3
 2625 00ee FFF7FEFF 		bl	hals_usrt_interrupt_flag_clear
1009:../firmware/gd32f3x0_hal_peripheral/Source/gd32f3x0_hal_usrt.c **** 
1010:../firmware/gd32f3x0_hal_peripheral/Source/gd32f3x0_hal_usrt.c ****     /* DMA enable for transmission */
1011:../firmware/gd32f3x0_hal_peripheral/Source/gd32f3x0_hal_usrt.c ****     hals_usrt_dma_transmit_config(usrt->periph, USART_TRANSMIT_DMA_ENABLE);
 2626              		.loc 1 1011 5
 2627 00f2 FB68     		ldr	r3, [r7, #12]
 2628 00f4 1B68     		ldr	r3, [r3]
 2629 00f6 8021     		movs	r1, #128
 2630 00f8 1846     		mov	r0, r3
 2631 00fa FFF7FEFF 		bl	hals_usrt_dma_transmit_config
1012:../firmware/gd32f3x0_hal_peripheral/Source/gd32f3x0_hal_usrt.c **** 
1013:../firmware/gd32f3x0_hal_peripheral/Source/gd32f3x0_hal_usrt.c ****     /* unlock uart */
1014:../firmware/gd32f3x0_hal_peripheral/Source/gd32f3x0_hal_usrt.c ****     HAL_UNLOCK(usrt);
 2632              		.loc 1 1014 5
 2633 00fe FB68     		ldr	r3, [r7, #12]
 2634 0100 0022     		movs	r2, #0
 2635 0102 83F84420 		strb	r2, [r3, #68]
1015:../firmware/gd32f3x0_hal_peripheral/Source/gd32f3x0_hal_usrt.c **** 
1016:../firmware/gd32f3x0_hal_peripheral/Source/gd32f3x0_hal_usrt.c ****     hals_uart_enable(usrt->periph);
 2636              		.loc 1 1016 5
 2637 0106 FB68     		ldr	r3, [r7, #12]
 2638 0108 1B68     		ldr	r3, [r3]
 2639 010a 1846     		mov	r0, r3
 2640 010c FFF7FEFF 		bl	hals_uart_enable
1017:../firmware/gd32f3x0_hal_peripheral/Source/gd32f3x0_hal_usrt.c **** 
1018:../firmware/gd32f3x0_hal_peripheral/Source/gd32f3x0_hal_usrt.c ****     return HAL_ERR_NONE;
 2641              		.loc 1 1018 12
 2642 0110 0023     		movs	r3, #0
 2643              	.L129:
1019:../firmware/gd32f3x0_hal_peripheral/Source/gd32f3x0_hal_usrt.c **** }
 2644              		.loc 1 1019 1 discriminator 1
 2645 0112 1846     		mov	r0, r3
 2646 0114 2437     		adds	r7, r7, #36
 2647              		.cfi_def_cfa_offset 12
 2648 0116 BD46     		mov	sp, r7
 2649              		.cfi_def_cfa_register 13
 2650              		@ sp needed
 2651 0118 90BD     		pop	{r4, r7, pc}
 2652              	.L131:
 2653 011a 00BF     		.align	2
 2654              	.L130:
 2655 011c 00000000 		.word	_usrt_transmit_complete_interrupt
 2656 0120 00000000 		.word	_usrt_transmit_dma
 2657 0124 00000000 		.word	_usrt_dma_error
 2658 0128 06000607 		.word	117833734
 2659              		.cfi_endproc
 2660              	.LFE131:
 2662              		.section	.text.hal_usrt_receive_dma,"ax",%progbits
 2663              		.align	1
 2664              		.global	hal_usrt_receive_dma
 2665              		.syntax unified
 2666              		.thumb
 2667              		.thumb_func
 2668              		.fpu softvfp
 2670              	hal_usrt_receive_dma:
 2671              	.LFB132:
1020:../firmware/gd32f3x0_hal_peripheral/Source/gd32f3x0_hal_usrt.c **** 
1021:../firmware/gd32f3x0_hal_peripheral/Source/gd32f3x0_hal_usrt.c **** /*!
1022:../firmware/gd32f3x0_hal_peripheral/Source/gd32f3x0_hal_usrt.c ****     \brief      transmit amounts of data by dma method
1023:../firmware/gd32f3x0_hal_peripheral/Source/gd32f3x0_hal_usrt.c ****                 the function is non-blocking
1024:../firmware/gd32f3x0_hal_peripheral/Source/gd32f3x0_hal_usrt.c ****     \param[in]  usrt: usrt device information structure
1025:../firmware/gd32f3x0_hal_peripheral/Source/gd32f3x0_hal_usrt.c ****                     the structure is not necessary to be reconfigured after structrue initializatio
1026:../firmware/gd32f3x0_hal_peripheral/Source/gd32f3x0_hal_usrt.c ****                     the structure parameters altering is automatically configured by core
1027:../firmware/gd32f3x0_hal_peripheral/Source/gd32f3x0_hal_usrt.c ****     \param[in]  p_buffer: pointer to data buffer
1028:../firmware/gd32f3x0_hal_peripheral/Source/gd32f3x0_hal_usrt.c ****     \param[in]  length: number of data to be received
1029:../firmware/gd32f3x0_hal_peripheral/Source/gd32f3x0_hal_usrt.c ****     \param[in]  p_func: pointer to callback function
1030:../firmware/gd32f3x0_hal_peripheral/Source/gd32f3x0_hal_usrt.c ****     \param[out] none
1031:../firmware/gd32f3x0_hal_peripheral/Source/gd32f3x0_hal_usrt.c ****     \retval     error code: HAL_ERR_NONE, HAL_ERR_ADDRESS, HAL_ERR_VAL, HAL_ERR_BUSY details refer 
1032:../firmware/gd32f3x0_hal_peripheral/Source/gd32f3x0_hal_usrt.c **** */
1033:../firmware/gd32f3x0_hal_peripheral/Source/gd32f3x0_hal_usrt.c **** int32_t hal_usrt_receive_dma(hal_usrt_dev_struct *usrt, uint8_t *p_buffer, uint16_t length, hal_usr
1034:../firmware/gd32f3x0_hal_peripheral/Source/gd32f3x0_hal_usrt.c **** {
 2672              		.loc 1 1034 1
 2673              		.cfi_startproc
 2674              		@ args = 0, pretend = 0, frame = 32
 2675              		@ frame_needed = 1, uses_anonymous_args = 0
 2676 0000 90B5     		push	{r4, r7, lr}
 2677              		.cfi_def_cfa_offset 12
 2678              		.cfi_offset 4, -12
 2679              		.cfi_offset 7, -8
 2680              		.cfi_offset 14, -4
 2681 0002 8BB0     		sub	sp, sp, #44
 2682              		.cfi_def_cfa_offset 56
 2683 0004 02AF     		add	r7, sp, #8
 2684              		.cfi_def_cfa 7, 48
 2685 0006 F860     		str	r0, [r7, #12]
 2686 0008 B960     		str	r1, [r7, #8]
 2687 000a 3B60     		str	r3, [r7]
 2688 000c 1346     		mov	r3, r2	@ movhi
 2689 000e FB80     		strh	r3, [r7, #6]	@ movhi
1035:../firmware/gd32f3x0_hal_peripheral/Source/gd32f3x0_hal_usrt.c ****     hal_dma_irq_struct dma_irq;
1036:../firmware/gd32f3x0_hal_peripheral/Source/gd32f3x0_hal_usrt.c **** 
1037:../firmware/gd32f3x0_hal_peripheral/Source/gd32f3x0_hal_usrt.c **** #if (1 == HAL_PARAMETER_CHECK)
1038:../firmware/gd32f3x0_hal_peripheral/Source/gd32f3x0_hal_usrt.c ****     /* check the parameters */
1039:../firmware/gd32f3x0_hal_peripheral/Source/gd32f3x0_hal_usrt.c ****     if((NULL == usrt) || (NULL == p_buffer) || (0U == length)) {
1040:../firmware/gd32f3x0_hal_peripheral/Source/gd32f3x0_hal_usrt.c ****         HAL_DEBUGE("parameter [usrt] or [p_buffer] or [length] value is invalid");
1041:../firmware/gd32f3x0_hal_peripheral/Source/gd32f3x0_hal_usrt.c ****         return HAL_ERR_ADDRESS;
1042:../firmware/gd32f3x0_hal_peripheral/Source/gd32f3x0_hal_usrt.c ****     }
1043:../firmware/gd32f3x0_hal_peripheral/Source/gd32f3x0_hal_usrt.c **** 
1044:../firmware/gd32f3x0_hal_peripheral/Source/gd32f3x0_hal_usrt.c ****     /* check the parameter */
1045:../firmware/gd32f3x0_hal_peripheral/Source/gd32f3x0_hal_usrt.c ****     if(NULL == usrt->p_dma_rx) {
1046:../firmware/gd32f3x0_hal_peripheral/Source/gd32f3x0_hal_usrt.c ****         HAL_DEBUGE("parameter [usrt->p_dma_rx] value is invalid");
1047:../firmware/gd32f3x0_hal_peripheral/Source/gd32f3x0_hal_usrt.c ****         return HAL_ERR_ADDRESS;
1048:../firmware/gd32f3x0_hal_peripheral/Source/gd32f3x0_hal_usrt.c ****     }
1049:../firmware/gd32f3x0_hal_peripheral/Source/gd32f3x0_hal_usrt.c **** #endif /* 1 == HAL_PARAMETER_CHECK */
1050:../firmware/gd32f3x0_hal_peripheral/Source/gd32f3x0_hal_usrt.c **** 
1051:../firmware/gd32f3x0_hal_peripheral/Source/gd32f3x0_hal_usrt.c ****     /* check the rx_state wheher is busy or not */
1052:../firmware/gd32f3x0_hal_peripheral/Source/gd32f3x0_hal_usrt.c ****     if(USRT_STATE_BUSY == usrt->rx_state) {
 2690              		.loc 1 1052 31
 2691 0010 FB68     		ldr	r3, [r7, #12]
 2692 0012 93F83B30 		ldrb	r3, [r3, #59]
 2693 0016 DBB2     		uxtb	r3, r3
 2694              		.loc 1 1052 7
 2695 0018 012B     		cmp	r3, #1
 2696 001a 02D1     		bne	.L133
1053:../firmware/gd32f3x0_hal_peripheral/Source/gd32f3x0_hal_usrt.c ****         HAL_DEBUGE("usrt rx has already been used, please wait until run_state change to free ");
1054:../firmware/gd32f3x0_hal_peripheral/Source/gd32f3x0_hal_usrt.c ****         return HAL_ERR_BUSY;
 2697              		.loc 1 1054 16
 2698 001c 6FF00203 		mvn	r3, #2
 2699 0020 B2E0     		b	.L142
 2700              	.L133:
1055:../firmware/gd32f3x0_hal_peripheral/Source/gd32f3x0_hal_usrt.c ****     }
1056:../firmware/gd32f3x0_hal_peripheral/Source/gd32f3x0_hal_usrt.c **** 
1057:../firmware/gd32f3x0_hal_peripheral/Source/gd32f3x0_hal_usrt.c ****     /* lock usrt */
1058:../firmware/gd32f3x0_hal_peripheral/Source/gd32f3x0_hal_usrt.c ****     HAL_LOCK(usrt);
 2701              		.loc 1 1058 5
 2702 0022 FB68     		ldr	r3, [r7, #12]
 2703 0024 93F84430 		ldrb	r3, [r3, #68]	@ zero_extendqisi2
 2704 0028 012B     		cmp	r3, #1
 2705 002a 02D1     		bne	.L135
 2706              		.loc 1 1058 5 is_stmt 0 discriminator 1
 2707 002c 6FF00103 		mvn	r3, #1
 2708 0030 AAE0     		b	.L142
 2709              	.L135:
 2710              		.loc 1 1058 5 discriminator 2
 2711 0032 FB68     		ldr	r3, [r7, #12]
 2712 0034 0122     		movs	r2, #1
 2713 0036 83F84420 		strb	r2, [r3, #68]
1059:../firmware/gd32f3x0_hal_peripheral/Source/gd32f3x0_hal_usrt.c **** 
1060:../firmware/gd32f3x0_hal_peripheral/Source/gd32f3x0_hal_usrt.c ****     usrt->rx_state = USRT_STATE_BUSY;
 2714              		.loc 1 1060 20 is_stmt 1 discriminator 2
 2715 003a FB68     		ldr	r3, [r7, #12]
 2716 003c 0122     		movs	r2, #1
 2717 003e 83F83B20 		strb	r2, [r3, #59]
1061:../firmware/gd32f3x0_hal_peripheral/Source/gd32f3x0_hal_usrt.c ****     usrt->error_state = HAL_USRT_ERROR_NONE;
 2718              		.loc 1 1061 23 discriminator 2
 2719 0042 FB68     		ldr	r3, [r7, #12]
 2720 0044 0022     		movs	r2, #0
 2721 0046 1A87     		strh	r2, [r3, #56]	@ movhi
1062:../firmware/gd32f3x0_hal_peripheral/Source/gd32f3x0_hal_usrt.c **** 
1063:../firmware/gd32f3x0_hal_peripheral/Source/gd32f3x0_hal_usrt.c ****     /* initialize receive parameters */
1064:../firmware/gd32f3x0_hal_peripheral/Source/gd32f3x0_hal_usrt.c ****     usrt->rxbuffer.buffer   = (uint8_t *)p_buffer;
 2722              		.loc 1 1064 29 discriminator 2
 2723 0048 FB68     		ldr	r3, [r7, #12]
 2724 004a BA68     		ldr	r2, [r7, #8]
 2725 004c 9A62     		str	r2, [r3, #40]
1065:../firmware/gd32f3x0_hal_peripheral/Source/gd32f3x0_hal_usrt.c ****     usrt->rxbuffer.length   = length;
 2726              		.loc 1 1065 29 discriminator 2
 2727 004e FA88     		ldrh	r2, [r7, #6]
 2728 0050 FB68     		ldr	r3, [r7, #12]
 2729 0052 DA62     		str	r2, [r3, #44]
1066:../firmware/gd32f3x0_hal_peripheral/Source/gd32f3x0_hal_usrt.c ****     usrt->rxbuffer.pos      = 0U;
 2730              		.loc 1 1066 29 discriminator 2
 2731 0054 FB68     		ldr	r3, [r7, #12]
 2732 0056 0022     		movs	r2, #0
 2733 0058 1A63     		str	r2, [r3, #48]
1067:../firmware/gd32f3x0_hal_peripheral/Source/gd32f3x0_hal_usrt.c ****     usrt->data_bit_mask     = _usrt_data_bit_mask_get(usrt);
 2734              		.loc 1 1067 31 discriminator 2
 2735 005a F868     		ldr	r0, [r7, #12]
 2736 005c FFF7FEFF 		bl	_usrt_data_bit_mask_get
 2737 0060 0346     		mov	r3, r0
 2738 0062 1A46     		mov	r2, r3
 2739              		.loc 1 1067 29 discriminator 2
 2740 0064 FB68     		ldr	r3, [r7, #12]
 2741 0066 9A86     		strh	r2, [r3, #52]	@ movhi
1068:../firmware/gd32f3x0_hal_peripheral/Source/gd32f3x0_hal_usrt.c **** 
1069:../firmware/gd32f3x0_hal_peripheral/Source/gd32f3x0_hal_usrt.c ****     if(NULL != p_func) {
 2742              		.loc 1 1069 7 discriminator 2
 2743 0068 3B68     		ldr	r3, [r7]
 2744 006a 002B     		cmp	r3, #0
 2745 006c 08D0     		beq	.L136
1070:../firmware/gd32f3x0_hal_peripheral/Source/gd32f3x0_hal_usrt.c ****         usrt->rx_callback = (void *)p_func->complete_func;
 2746              		.loc 1 1070 43
 2747 006e 3B68     		ldr	r3, [r7]
 2748 0070 1A68     		ldr	r2, [r3]
 2749              		.loc 1 1070 27
 2750 0072 FB68     		ldr	r3, [r7, #12]
 2751 0074 DA63     		str	r2, [r3, #60]
1071:../firmware/gd32f3x0_hal_peripheral/Source/gd32f3x0_hal_usrt.c ****         usrt->usrt_irq.error_handle = (hal_irq_handle_cb)p_func->error_func;
 2752              		.loc 1 1071 64
 2753 0076 3B68     		ldr	r3, [r7]
 2754 0078 5A68     		ldr	r2, [r3, #4]
 2755              		.loc 1 1071 37
 2756 007a FB68     		ldr	r3, [r7, #12]
 2757 007c 1A61     		str	r2, [r3, #16]
 2758 007e 05E0     		b	.L137
 2759              	.L136:
1072:../firmware/gd32f3x0_hal_peripheral/Source/gd32f3x0_hal_usrt.c ****     } else {
1073:../firmware/gd32f3x0_hal_peripheral/Source/gd32f3x0_hal_usrt.c ****         usrt->rx_callback = NULL;
 2760              		.loc 1 1073 27
 2761 0080 FB68     		ldr	r3, [r7, #12]
 2762 0082 0022     		movs	r2, #0
 2763 0084 DA63     		str	r2, [r3, #60]
1074:../firmware/gd32f3x0_hal_peripheral/Source/gd32f3x0_hal_usrt.c ****         usrt->usrt_irq.error_handle = NULL;
 2764              		.loc 1 1074 37
 2765 0086 FB68     		ldr	r3, [r7, #12]
 2766 0088 0022     		movs	r2, #0
 2767 008a 1A61     		str	r2, [r3, #16]
 2768              	.L137:
1075:../firmware/gd32f3x0_hal_peripheral/Source/gd32f3x0_hal_usrt.c ****     }
1076:../firmware/gd32f3x0_hal_peripheral/Source/gd32f3x0_hal_usrt.c **** 
1077:../firmware/gd32f3x0_hal_peripheral/Source/gd32f3x0_hal_usrt.c ****     /* configure DMA interrupt interrupt callback function */
1078:../firmware/gd32f3x0_hal_peripheral/Source/gd32f3x0_hal_usrt.c ****     dma_irq.full_finish_handle = _usrt_receive_dma;
 2769              		.loc 1 1078 32
 2770 008c 404B     		ldr	r3, .L143
 2771 008e FB61     		str	r3, [r7, #28]
1079:../firmware/gd32f3x0_hal_peripheral/Source/gd32f3x0_hal_usrt.c ****     dma_irq.error_handle = _usrt_dma_error;
 2772              		.loc 1 1079 26
 2773 0090 404B     		ldr	r3, .L143+4
 2774 0092 7B61     		str	r3, [r7, #20]
1080:../firmware/gd32f3x0_hal_peripheral/Source/gd32f3x0_hal_usrt.c ****     if(NULL != usrt->p_dma_rx->dma_irq.half_finish_handle) {
 2775              		.loc 1 1080 20
 2776 0094 FB68     		ldr	r3, [r7, #12]
 2777 0096 5B69     		ldr	r3, [r3, #20]
 2778              		.loc 1 1080 39
 2779 0098 9B68     		ldr	r3, [r3, #8]
 2780              		.loc 1 1080 7
 2781 009a 002B     		cmp	r3, #0
 2782 009c 03D0     		beq	.L138
1081:../firmware/gd32f3x0_hal_peripheral/Source/gd32f3x0_hal_usrt.c ****         dma_irq.half_finish_handle = usrt->p_dma_rx->dma_irq.half_finish_handle;
 2783              		.loc 1 1081 42
 2784 009e FB68     		ldr	r3, [r7, #12]
 2785 00a0 5B69     		ldr	r3, [r3, #20]
 2786              		.loc 1 1081 61
 2787 00a2 9B68     		ldr	r3, [r3, #8]
 2788              		.loc 1 1081 36
 2789 00a4 BB61     		str	r3, [r7, #24]
 2790              	.L138:
1082:../firmware/gd32f3x0_hal_peripheral/Source/gd32f3x0_hal_usrt.c ****     }
1083:../firmware/gd32f3x0_hal_peripheral/Source/gd32f3x0_hal_usrt.c **** 
1084:../firmware/gd32f3x0_hal_peripheral/Source/gd32f3x0_hal_usrt.c ****     /* start DMA interrupt mode transfer */
1085:../firmware/gd32f3x0_hal_peripheral/Source/gd32f3x0_hal_usrt.c ****     if(HAL_ERR_NONE != hal_dma_start_interrupt(usrt->p_dma_rx,
 2791              		.loc 1 1085 24
 2792 00a6 FB68     		ldr	r3, [r7, #12]
 2793 00a8 5869     		ldr	r0, [r3, #20]
1086:../firmware/gd32f3x0_hal_peripheral/Source/gd32f3x0_hal_usrt.c ****             (uint32_t)&USART_RDATA(usrt->periph),
 2794              		.loc 1 1086 24
 2795 00aa FB68     		ldr	r3, [r7, #12]
 2796 00ac 1B68     		ldr	r3, [r3]
1085:../firmware/gd32f3x0_hal_peripheral/Source/gd32f3x0_hal_usrt.c ****             (uint32_t)&USART_RDATA(usrt->periph),
 2797              		.loc 1 1085 24
 2798 00ae 03F12401 		add	r1, r3, #36
1087:../firmware/gd32f3x0_hal_peripheral/Source/gd32f3x0_hal_usrt.c ****             (uint32_t)usrt->rxbuffer.buffer, length, &dma_irq)) {
 2799              		.loc 1 1087 37
 2800 00b2 FB68     		ldr	r3, [r7, #12]
 2801 00b4 9B6A     		ldr	r3, [r3, #40]
1085:../firmware/gd32f3x0_hal_peripheral/Source/gd32f3x0_hal_usrt.c ****             (uint32_t)&USART_RDATA(usrt->periph),
 2802              		.loc 1 1085 24
 2803 00b6 1C46     		mov	r4, r3
 2804 00b8 FA88     		ldrh	r2, [r7, #6]
 2805 00ba 07F11403 		add	r3, r7, #20
 2806 00be 0093     		str	r3, [sp]
 2807 00c0 1346     		mov	r3, r2
 2808 00c2 2246     		mov	r2, r4
 2809 00c4 FFF7FEFF 		bl	hal_dma_start_interrupt
 2810 00c8 0346     		mov	r3, r0
1085:../firmware/gd32f3x0_hal_peripheral/Source/gd32f3x0_hal_usrt.c ****             (uint32_t)&USART_RDATA(usrt->periph),
 2811              		.loc 1 1085 7
 2812 00ca 002B     		cmp	r3, #0
 2813 00cc 12D0     		beq	.L139
1088:../firmware/gd32f3x0_hal_peripheral/Source/gd32f3x0_hal_usrt.c ****         usrt->rx_state = USRT_STATE_FREE;
 2814              		.loc 1 1088 24
 2815 00ce FB68     		ldr	r3, [r7, #12]
 2816 00d0 0022     		movs	r2, #0
 2817 00d2 83F83B20 		strb	r2, [r3, #59]
1089:../firmware/gd32f3x0_hal_peripheral/Source/gd32f3x0_hal_usrt.c ****         usrt->error_state = HAL_USRT_ERROR_DMARX;
 2818              		.loc 1 1089 27
 2819 00d6 FB68     		ldr	r3, [r7, #12]
 2820 00d8 2022     		movs	r2, #32
 2821 00da 1A87     		strh	r2, [r3, #56]	@ movhi
1090:../firmware/gd32f3x0_hal_peripheral/Source/gd32f3x0_hal_usrt.c ****         /* lock uart */
1091:../firmware/gd32f3x0_hal_peripheral/Source/gd32f3x0_hal_usrt.c ****         HAL_LOCK(usrt);
 2822              		.loc 1 1091 9
 2823 00dc FB68     		ldr	r3, [r7, #12]
 2824 00de 93F84430 		ldrb	r3, [r3, #68]	@ zero_extendqisi2
 2825 00e2 012B     		cmp	r3, #1
 2826 00e4 02D1     		bne	.L140
 2827              		.loc 1 1091 9 is_stmt 0 discriminator 1
 2828 00e6 6FF00103 		mvn	r3, #1
 2829 00ea 4DE0     		b	.L142
 2830              	.L140:
 2831              		.loc 1 1091 9 discriminator 2
 2832 00ec FB68     		ldr	r3, [r7, #12]
 2833 00ee 0122     		movs	r2, #1
 2834 00f0 83F84420 		strb	r2, [r3, #68]
 2835              	.L139:
1092:../firmware/gd32f3x0_hal_peripheral/Source/gd32f3x0_hal_usrt.c ****     }
1093:../firmware/gd32f3x0_hal_peripheral/Source/gd32f3x0_hal_usrt.c **** 
1094:../firmware/gd32f3x0_hal_peripheral/Source/gd32f3x0_hal_usrt.c ****     /* enable the usart parity error and error interrupt: (frame error, noise error, overrun error)
1095:../firmware/gd32f3x0_hal_peripheral/Source/gd32f3x0_hal_usrt.c ****     hals_usrt_interrupt_enable(usrt->periph, USART_INT_PERR);
 2836              		.loc 1 1095 5 is_stmt 1
 2837 00f4 FB68     		ldr	r3, [r7, #12]
 2838 00f6 1B68     		ldr	r3, [r3]
 2839 00f8 0821     		movs	r1, #8
 2840 00fa 1846     		mov	r0, r3
 2841 00fc FFF7FEFF 		bl	hals_usrt_interrupt_enable
1096:../firmware/gd32f3x0_hal_peripheral/Source/gd32f3x0_hal_usrt.c ****     hals_usrt_interrupt_enable(usrt->periph, USART_INT_ERR);
 2842              		.loc 1 1096 5
 2843 0100 FB68     		ldr	r3, [r7, #12]
 2844 0102 1B68     		ldr	r3, [r3]
 2845 0104 4FF40071 		mov	r1, #512
 2846 0108 1846     		mov	r0, r3
 2847 010a FFF7FEFF 		bl	hals_usrt_interrupt_enable
1097:../firmware/gd32f3x0_hal_peripheral/Source/gd32f3x0_hal_usrt.c **** 
1098:../firmware/gd32f3x0_hal_peripheral/Source/gd32f3x0_hal_usrt.c ****     /* usrt transmit data by DMA to generate clock */
1099:../firmware/gd32f3x0_hal_peripheral/Source/gd32f3x0_hal_usrt.c ****     dma_irq.full_finish_handle = NULL;
 2848              		.loc 1 1099 32
 2849 010e 0023     		movs	r3, #0
 2850 0110 FB61     		str	r3, [r7, #28]
1100:../firmware/gd32f3x0_hal_peripheral/Source/gd32f3x0_hal_usrt.c ****     dma_irq.half_finish_handle = NULL;
 2851              		.loc 1 1100 32
 2852 0112 0023     		movs	r3, #0
 2853 0114 BB61     		str	r3, [r7, #24]
1101:../firmware/gd32f3x0_hal_peripheral/Source/gd32f3x0_hal_usrt.c ****     dma_irq.error_handle = NULL;
 2854              		.loc 1 1101 26
 2855 0116 0023     		movs	r3, #0
 2856 0118 7B61     		str	r3, [r7, #20]
1102:../firmware/gd32f3x0_hal_peripheral/Source/gd32f3x0_hal_usrt.c **** 
1103:../firmware/gd32f3x0_hal_peripheral/Source/gd32f3x0_hal_usrt.c ****     /* start transmit DMA interrupt mode transfer */
1104:../firmware/gd32f3x0_hal_peripheral/Source/gd32f3x0_hal_usrt.c ****     if(HAL_ERR_NONE != hal_dma_start_interrupt(usrt->p_dma_tx, (uint32_t)usrt->txbuffer.buffer, (ui
 2857              		.loc 1 1104 24
 2858 011a FB68     		ldr	r3, [r7, #12]
 2859 011c 9869     		ldr	r0, [r3, #24]
 2860              		.loc 1 1104 88
 2861 011e FB68     		ldr	r3, [r7, #12]
 2862 0120 DB69     		ldr	r3, [r3, #28]
 2863              		.loc 1 1104 24
 2864 0122 1C46     		mov	r4, r3
 2865              		.loc 1 1104 108
 2866 0124 FB68     		ldr	r3, [r7, #12]
 2867 0126 1B68     		ldr	r3, [r3]
 2868              		.loc 1 1104 24
 2869 0128 03F12802 		add	r2, r3, #40
 2870              		.loc 1 1104 149
 2871 012c FB68     		ldr	r3, [r7, #12]
 2872 012e 1B6A     		ldr	r3, [r3, #32]
 2873              		.loc 1 1104 24
 2874 0130 99B2     		uxth	r1, r3
 2875 0132 07F11403 		add	r3, r7, #20
 2876 0136 0093     		str	r3, [sp]
 2877 0138 0B46     		mov	r3, r1
 2878 013a 2146     		mov	r1, r4
 2879 013c FFF7FEFF 		bl	hal_dma_start_interrupt
 2880 0140 0346     		mov	r3, r0
 2881              		.loc 1 1104 7
 2882 0142 002B     		cmp	r3, #0
 2883 0144 0AD0     		beq	.L141
1105:../firmware/gd32f3x0_hal_peripheral/Source/gd32f3x0_hal_usrt.c ****         usrt->rx_state = USRT_STATE_FREE;
 2884              		.loc 1 1105 24
 2885 0146 FB68     		ldr	r3, [r7, #12]
 2886 0148 0022     		movs	r2, #0
 2887 014a 83F83B20 		strb	r2, [r3, #59]
1106:../firmware/gd32f3x0_hal_peripheral/Source/gd32f3x0_hal_usrt.c ****         usrt->error_state = HAL_USRT_ERROR_DMATX;
 2888              		.loc 1 1106 27
 2889 014e FB68     		ldr	r3, [r7, #12]
 2890 0150 1022     		movs	r2, #16
 2891 0152 1A87     		strh	r2, [r3, #56]	@ movhi
1107:../firmware/gd32f3x0_hal_peripheral/Source/gd32f3x0_hal_usrt.c ****         /* unlock uart */
1108:../firmware/gd32f3x0_hal_peripheral/Source/gd32f3x0_hal_usrt.c ****         HAL_UNLOCK(usrt);
 2892              		.loc 1 1108 9
 2893 0154 FB68     		ldr	r3, [r7, #12]
 2894 0156 0022     		movs	r2, #0
 2895 0158 83F84420 		strb	r2, [r3, #68]
 2896              	.L141:
1109:../firmware/gd32f3x0_hal_peripheral/Source/gd32f3x0_hal_usrt.c ****     }
1110:../firmware/gd32f3x0_hal_peripheral/Source/gd32f3x0_hal_usrt.c **** 
1111:../firmware/gd32f3x0_hal_peripheral/Source/gd32f3x0_hal_usrt.c ****     /* DMA enable for reception and transmission */
1112:../firmware/gd32f3x0_hal_peripheral/Source/gd32f3x0_hal_usrt.c ****     hals_usrt_dma_receive_config(usrt->periph, USART_RECEIVE_DMA_ENABLE);
 2897              		.loc 1 1112 5
 2898 015c FB68     		ldr	r3, [r7, #12]
 2899 015e 1B68     		ldr	r3, [r3]
 2900 0160 4021     		movs	r1, #64
 2901 0162 1846     		mov	r0, r3
 2902 0164 FFF7FEFF 		bl	hals_usrt_dma_receive_config
1113:../firmware/gd32f3x0_hal_peripheral/Source/gd32f3x0_hal_usrt.c ****     hals_usrt_dma_transmit_config(usrt->periph, USART_TRANSMIT_DMA_ENABLE);
 2903              		.loc 1 1113 5
 2904 0168 FB68     		ldr	r3, [r7, #12]
 2905 016a 1B68     		ldr	r3, [r3]
 2906 016c 8021     		movs	r1, #128
 2907 016e 1846     		mov	r0, r3
 2908 0170 FFF7FEFF 		bl	hals_usrt_dma_transmit_config
1114:../firmware/gd32f3x0_hal_peripheral/Source/gd32f3x0_hal_usrt.c **** 
1115:../firmware/gd32f3x0_hal_peripheral/Source/gd32f3x0_hal_usrt.c ****     /* unlock uart */
1116:../firmware/gd32f3x0_hal_peripheral/Source/gd32f3x0_hal_usrt.c ****     HAL_UNLOCK(usrt);
 2909              		.loc 1 1116 5
 2910 0174 FB68     		ldr	r3, [r7, #12]
 2911 0176 0022     		movs	r2, #0
 2912 0178 83F84420 		strb	r2, [r3, #68]
1117:../firmware/gd32f3x0_hal_peripheral/Source/gd32f3x0_hal_usrt.c **** 
1118:../firmware/gd32f3x0_hal_peripheral/Source/gd32f3x0_hal_usrt.c ****     hals_uart_enable(usrt->periph);
 2913              		.loc 1 1118 5
 2914 017c FB68     		ldr	r3, [r7, #12]
 2915 017e 1B68     		ldr	r3, [r3]
 2916 0180 1846     		mov	r0, r3
 2917 0182 FFF7FEFF 		bl	hals_uart_enable
1119:../firmware/gd32f3x0_hal_peripheral/Source/gd32f3x0_hal_usrt.c **** 
1120:../firmware/gd32f3x0_hal_peripheral/Source/gd32f3x0_hal_usrt.c ****     return HAL_ERR_NONE;
 2918              		.loc 1 1120 12
 2919 0186 0023     		movs	r3, #0
 2920              	.L142:
1121:../firmware/gd32f3x0_hal_peripheral/Source/gd32f3x0_hal_usrt.c **** }
 2921              		.loc 1 1121 1 discriminator 1
 2922 0188 1846     		mov	r0, r3
 2923 018a 2437     		adds	r7, r7, #36
 2924              		.cfi_def_cfa_offset 12
 2925 018c BD46     		mov	sp, r7
 2926              		.cfi_def_cfa_register 13
 2927              		@ sp needed
 2928 018e 90BD     		pop	{r4, r7, pc}
 2929              	.L144:
 2930              		.align	2
 2931              	.L143:
 2932 0190 00000000 		.word	_usrt_receive_dma
 2933 0194 00000000 		.word	_usrt_dma_error
 2934              		.cfi_endproc
 2935              	.LFE132:
 2937              		.section	.text.hal_usrt_transmit_receive_dma,"ax",%progbits
 2938              		.align	1
 2939              		.global	hal_usrt_transmit_receive_dma
 2940              		.syntax unified
 2941              		.thumb
 2942              		.thumb_func
 2943              		.fpu softvfp
 2945              	hal_usrt_transmit_receive_dma:
 2946              	.LFB133:
1122:../firmware/gd32f3x0_hal_peripheral/Source/gd32f3x0_hal_usrt.c **** 
1123:../firmware/gd32f3x0_hal_peripheral/Source/gd32f3x0_hal_usrt.c **** /*!
1124:../firmware/gd32f3x0_hal_peripheral/Source/gd32f3x0_hal_usrt.c ****     \brief      transmit & receive amounts of data by dma method
1125:../firmware/gd32f3x0_hal_peripheral/Source/gd32f3x0_hal_usrt.c ****                 the function is non-blocking
1126:../firmware/gd32f3x0_hal_peripheral/Source/gd32f3x0_hal_usrt.c ****     \param[in]  usrt: usrt device information structure
1127:../firmware/gd32f3x0_hal_peripheral/Source/gd32f3x0_hal_usrt.c ****                     the structure is not necessary to be reconfigured after structrue initializatio
1128:../firmware/gd32f3x0_hal_peripheral/Source/gd32f3x0_hal_usrt.c ****                     the structure parameters altering is automatically configured by core
1129:../firmware/gd32f3x0_hal_peripheral/Source/gd32f3x0_hal_usrt.c ****     \param[in]  p_tx_buffer: pointer to Tx data buffer
1130:../firmware/gd32f3x0_hal_peripheral/Source/gd32f3x0_hal_usrt.c ****     \param[in]  p_rx_buffer: pointer to Rx data buffer
1131:../firmware/gd32f3x0_hal_peripheral/Source/gd32f3x0_hal_usrt.c ****     \param[in]  length: number of data to be received
1132:../firmware/gd32f3x0_hal_peripheral/Source/gd32f3x0_hal_usrt.c ****     \param[in]  p_func: pointer to callback function
1133:../firmware/gd32f3x0_hal_peripheral/Source/gd32f3x0_hal_usrt.c ****     \param[out] none
1134:../firmware/gd32f3x0_hal_peripheral/Source/gd32f3x0_hal_usrt.c ****     \retval     error code: HAL_ERR_NONE, HAL_ERR_ADDRESS, HAL_ERR_VAL, HAL_ERR_BUSY details refer 
1135:../firmware/gd32f3x0_hal_peripheral/Source/gd32f3x0_hal_usrt.c **** */
1136:../firmware/gd32f3x0_hal_peripheral/Source/gd32f3x0_hal_usrt.c **** int32_t hal_usrt_transmit_receive_dma(hal_usrt_dev_struct *usrt, uint8_t *p_tx_buffer, uint8_t *p_r
1137:../firmware/gd32f3x0_hal_peripheral/Source/gd32f3x0_hal_usrt.c **** {
 2947              		.loc 1 1137 1
 2948              		.cfi_startproc
 2949              		@ args = 4, pretend = 0, frame = 32
 2950              		@ frame_needed = 1, uses_anonymous_args = 0
 2951 0000 90B5     		push	{r4, r7, lr}
 2952              		.cfi_def_cfa_offset 12
 2953              		.cfi_offset 4, -12
 2954              		.cfi_offset 7, -8
 2955              		.cfi_offset 14, -4
 2956 0002 8BB0     		sub	sp, sp, #44
 2957              		.cfi_def_cfa_offset 56
 2958 0004 02AF     		add	r7, sp, #8
 2959              		.cfi_def_cfa 7, 48
 2960 0006 F860     		str	r0, [r7, #12]
 2961 0008 B960     		str	r1, [r7, #8]
 2962 000a 7A60     		str	r2, [r7, #4]
 2963 000c 7B80     		strh	r3, [r7, #2]	@ movhi
1138:../firmware/gd32f3x0_hal_peripheral/Source/gd32f3x0_hal_usrt.c ****     hal_dma_irq_struct dma_irq;
1139:../firmware/gd32f3x0_hal_peripheral/Source/gd32f3x0_hal_usrt.c **** 
1140:../firmware/gd32f3x0_hal_peripheral/Source/gd32f3x0_hal_usrt.c **** #if (1 == HAL_PARAMETER_CHECK)
1141:../firmware/gd32f3x0_hal_peripheral/Source/gd32f3x0_hal_usrt.c ****     /* check the parameters */
1142:../firmware/gd32f3x0_hal_peripheral/Source/gd32f3x0_hal_usrt.c ****     if((NULL == usrt) || (NULL == p_tx_buffer) || (NULL == p_rx_buffer) ||
1143:../firmware/gd32f3x0_hal_peripheral/Source/gd32f3x0_hal_usrt.c ****             (0U == length)) {
1144:../firmware/gd32f3x0_hal_peripheral/Source/gd32f3x0_hal_usrt.c ****         HAL_DEBUGE("parameter [usrt] or [p_tx_buffer] or [p_rx_buffer] or [length] value is invalid
1145:../firmware/gd32f3x0_hal_peripheral/Source/gd32f3x0_hal_usrt.c ****         return HAL_ERR_ADDRESS;
1146:../firmware/gd32f3x0_hal_peripheral/Source/gd32f3x0_hal_usrt.c ****     }
1147:../firmware/gd32f3x0_hal_peripheral/Source/gd32f3x0_hal_usrt.c **** 
