   1              		.cpu cortex-m4
   2              		.eabi_attribute 20, 1
   3              		.eabi_attribute 21, 1
   4              		.eabi_attribute 23, 3
   5              		.eabi_attribute 24, 1
   6              		.eabi_attribute 25, 1
   7              		.eabi_attribute 26, 1
   8              		.eabi_attribute 30, 6
   9              		.eabi_attribute 34, 1
  10              		.eabi_attribute 18, 4
  11              		.file	"gd32f3x0_hal_smartcard.c"
  12              		.text
  13              	.Ltext0:
  14              		.cfi_sections	.debug_frame
  15              		.section	.text.hal_smartcard_struct_init,"ax",%progbits
  16              		.align	1
  17              		.global	hal_smartcard_struct_init
  18              		.arch armv7e-m
  19              		.syntax unified
  20              		.thumb
  21              		.thumb_func
  22              		.fpu softvfp
  24              	hal_smartcard_struct_init:
  25              	.LFB119:
  26              		.file 1 "../firmware/gd32f3x0_hal_peripheral/Source/gd32f3x0_hal_smartcard.c"
   1:../firmware/gd32f3x0_hal_peripheral/Source/gd32f3x0_hal_smartcard.c **** /*!
   2:../firmware/gd32f3x0_hal_peripheral/Source/gd32f3x0_hal_smartcard.c ****     \file    gd32f3x0_hal_smartcard.c
   3:../firmware/gd32f3x0_hal_peripheral/Source/gd32f3x0_hal_smartcard.c ****     \brief   SMARTCARD driver
   4:../firmware/gd32f3x0_hal_peripheral/Source/gd32f3x0_hal_smartcard.c **** 
   5:../firmware/gd32f3x0_hal_peripheral/Source/gd32f3x0_hal_smartcard.c ****     \version 2023-08-01, V1.0.0, HAL firmware for GD32F3x0
   6:../firmware/gd32f3x0_hal_peripheral/Source/gd32f3x0_hal_smartcard.c **** */
   7:../firmware/gd32f3x0_hal_peripheral/Source/gd32f3x0_hal_smartcard.c **** 
   8:../firmware/gd32f3x0_hal_peripheral/Source/gd32f3x0_hal_smartcard.c **** /*
   9:../firmware/gd32f3x0_hal_peripheral/Source/gd32f3x0_hal_smartcard.c ****     Copyright (c) 2023, GigaDevice Semiconductor Inc.
  10:../firmware/gd32f3x0_hal_peripheral/Source/gd32f3x0_hal_smartcard.c **** 
  11:../firmware/gd32f3x0_hal_peripheral/Source/gd32f3x0_hal_smartcard.c ****     Redistribution and use in source and binary forms, with or without modification,
  12:../firmware/gd32f3x0_hal_peripheral/Source/gd32f3x0_hal_smartcard.c **** are permitted provided that the following conditions are met:
  13:../firmware/gd32f3x0_hal_peripheral/Source/gd32f3x0_hal_smartcard.c **** 
  14:../firmware/gd32f3x0_hal_peripheral/Source/gd32f3x0_hal_smartcard.c ****     1. Redistributions of source code must retain the above copyright notice, this
  15:../firmware/gd32f3x0_hal_peripheral/Source/gd32f3x0_hal_smartcard.c ****        list of conditions and the following disclaimer.
  16:../firmware/gd32f3x0_hal_peripheral/Source/gd32f3x0_hal_smartcard.c ****     2. Redistributions in binary form must reproduce the above copyright notice,
  17:../firmware/gd32f3x0_hal_peripheral/Source/gd32f3x0_hal_smartcard.c ****        this list of conditions and the following disclaimer in the documentation
  18:../firmware/gd32f3x0_hal_peripheral/Source/gd32f3x0_hal_smartcard.c ****        and/or other materials provided with the distribution.
  19:../firmware/gd32f3x0_hal_peripheral/Source/gd32f3x0_hal_smartcard.c ****     3. Neither the name of the copyright holder nor the names of its contributors
  20:../firmware/gd32f3x0_hal_peripheral/Source/gd32f3x0_hal_smartcard.c ****        may be used to endorse or promote products derived from this software without
  21:../firmware/gd32f3x0_hal_peripheral/Source/gd32f3x0_hal_smartcard.c ****        specific prior written permission.
  22:../firmware/gd32f3x0_hal_peripheral/Source/gd32f3x0_hal_smartcard.c **** 
  23:../firmware/gd32f3x0_hal_peripheral/Source/gd32f3x0_hal_smartcard.c ****     THIS SOFTWARE IS PROVIDED BY THE COPYRIGHT HOLDERS AND CONTRIBUTORS "AS IS"
  24:../firmware/gd32f3x0_hal_peripheral/Source/gd32f3x0_hal_smartcard.c **** AND ANY EXPRESS OR IMPLIED WARRANTIES, INCLUDING, BUT NOT LIMITED TO, THE IMPLIED
  25:../firmware/gd32f3x0_hal_peripheral/Source/gd32f3x0_hal_smartcard.c **** WARRANTIES OF MERCHANTABILITY AND FITNESS FOR A PARTICULAR PURPOSE ARE DISCLAIMED.
  26:../firmware/gd32f3x0_hal_peripheral/Source/gd32f3x0_hal_smartcard.c **** IN NO EVENT SHALL THE COPYRIGHT HOLDER OR CONTRIBUTORS BE LIABLE FOR ANY DIRECT,
  27:../firmware/gd32f3x0_hal_peripheral/Source/gd32f3x0_hal_smartcard.c **** INDIRECT, INCIDENTAL, SPECIAL, EXEMPLARY, OR CONSEQUENTIAL DAMAGES (INCLUDING, BUT
  28:../firmware/gd32f3x0_hal_peripheral/Source/gd32f3x0_hal_smartcard.c **** NOT LIMITED TO, PROCUREMENT OF SUBSTITUTE GOODS OR SERVICES; LOSS OF USE, DATA, OR
  29:../firmware/gd32f3x0_hal_peripheral/Source/gd32f3x0_hal_smartcard.c **** PROFITS; OR BUSINESS INTERRUPTION) HOWEVER CAUSED AND ON ANY THEORY OF LIABILITY,
  30:../firmware/gd32f3x0_hal_peripheral/Source/gd32f3x0_hal_smartcard.c **** WHETHER IN CONTRACT, STRICT LIABILITY, OR TORT (INCLUDING NEGLIGENCE OR OTHERWISE)
  31:../firmware/gd32f3x0_hal_peripheral/Source/gd32f3x0_hal_smartcard.c **** ARISING IN ANY WAY OUT OF THE USE OF THIS SOFTWARE, EVEN IF ADVISED OF THE POSSIBILITY
  32:../firmware/gd32f3x0_hal_peripheral/Source/gd32f3x0_hal_smartcard.c **** OF SUCH DAMAGE.
  33:../firmware/gd32f3x0_hal_peripheral/Source/gd32f3x0_hal_smartcard.c **** */
  34:../firmware/gd32f3x0_hal_peripheral/Source/gd32f3x0_hal_smartcard.c **** 
  35:../firmware/gd32f3x0_hal_peripheral/Source/gd32f3x0_hal_smartcard.c **** #include "gd32f3x0_hal.h"
  36:../firmware/gd32f3x0_hal_peripheral/Source/gd32f3x0_hal_smartcard.c **** 
  37:../firmware/gd32f3x0_hal_peripheral/Source/gd32f3x0_hal_smartcard.c **** /* smartcard private function */
  38:../firmware/gd32f3x0_hal_peripheral/Source/gd32f3x0_hal_smartcard.c **** static FlagStatus _smartcard_error_flag_get(hal_smartcard_dev_struct *smartcard);
  39:../firmware/gd32f3x0_hal_peripheral/Source/gd32f3x0_hal_smartcard.c **** static void _smartcard_transmit_complete_interrupt(void *smartcard);
  40:../firmware/gd32f3x0_hal_peripheral/Source/gd32f3x0_hal_smartcard.c **** static void _smartcard_transmit_interrupt(void *smartcard);
  41:../firmware/gd32f3x0_hal_peripheral/Source/gd32f3x0_hal_smartcard.c **** static void _smartcard_receive_interrupt(void *smartcard);
  42:../firmware/gd32f3x0_hal_peripheral/Source/gd32f3x0_hal_smartcard.c **** static void _smartcard_transmit_dma(void *dma);
  43:../firmware/gd32f3x0_hal_peripheral/Source/gd32f3x0_hal_smartcard.c **** static void _smartcard_receive_dma(void *dma);
  44:../firmware/gd32f3x0_hal_peripheral/Source/gd32f3x0_hal_smartcard.c **** static void _smartcard_dma_error(void *dma);
  45:../firmware/gd32f3x0_hal_peripheral/Source/gd32f3x0_hal_smartcard.c **** 
  46:../firmware/gd32f3x0_hal_peripheral/Source/gd32f3x0_hal_smartcard.c **** /*!
  47:../firmware/gd32f3x0_hal_peripheral/Source/gd32f3x0_hal_smartcard.c ****     \brief      initialize the smartcard structure with the default values
  48:../firmware/gd32f3x0_hal_peripheral/Source/gd32f3x0_hal_smartcard.c ****                 note: this function must be called after the structure is created
  49:../firmware/gd32f3x0_hal_peripheral/Source/gd32f3x0_hal_smartcard.c ****     \param[in]  hal_struct_type: smartcard structure type
  50:../firmware/gd32f3x0_hal_peripheral/Source/gd32f3x0_hal_smartcard.c ****       \arg        HAL_SMARTCARD_INIT_STRUCT: initialization structure
  51:../firmware/gd32f3x0_hal_peripheral/Source/gd32f3x0_hal_smartcard.c ****       \arg        HAL_SMARTCARD_INIT_EX_STRUCT: initialization extend structure
  52:../firmware/gd32f3x0_hal_peripheral/Source/gd32f3x0_hal_smartcard.c ****       \arg        HAL_SMARTCARD_DEV_STRUCT: device information structure
  53:../firmware/gd32f3x0_hal_peripheral/Source/gd32f3x0_hal_smartcard.c ****       \arg        HAL_SMARTCARD_USER_CALLBCAK_STRUCT: user callback structure
  54:../firmware/gd32f3x0_hal_peripheral/Source/gd32f3x0_hal_smartcard.c ****       \arg        HAL_SMARTCARD_IRQ_INIT_STRUCT: interrupt callback initialization structure
  55:../firmware/gd32f3x0_hal_peripheral/Source/gd32f3x0_hal_smartcard.c ****     \param[in]  p_struct: init structure pointer
  56:../firmware/gd32f3x0_hal_peripheral/Source/gd32f3x0_hal_smartcard.c ****     \param[out] none
  57:../firmware/gd32f3x0_hal_peripheral/Source/gd32f3x0_hal_smartcard.c ****     \retval     none
  58:../firmware/gd32f3x0_hal_peripheral/Source/gd32f3x0_hal_smartcard.c **** */
  59:../firmware/gd32f3x0_hal_peripheral/Source/gd32f3x0_hal_smartcard.c **** void hal_smartcard_struct_init(hal_smartcard_struct_type_enum hal_struct_type, void *p_struct)
  60:../firmware/gd32f3x0_hal_peripheral/Source/gd32f3x0_hal_smartcard.c **** {
  27              		.loc 1 60 1
  28              		.cfi_startproc
  29              		@ args = 0, pretend = 0, frame = 8
  30              		@ frame_needed = 1, uses_anonymous_args = 0
  31              		@ link register save eliminated.
  32 0000 80B4     		push	{r7}
  33              		.cfi_def_cfa_offset 4
  34              		.cfi_offset 7, -4
  35 0002 83B0     		sub	sp, sp, #12
  36              		.cfi_def_cfa_offset 16
  37 0004 00AF     		add	r7, sp, #0
  38              		.cfi_def_cfa_register 7
  39 0006 0346     		mov	r3, r0
  40 0008 3960     		str	r1, [r7]
  41 000a FB71     		strb	r3, [r7, #7]
  61:../firmware/gd32f3x0_hal_peripheral/Source/gd32f3x0_hal_smartcard.c **** #if (1U == HAL_PARAMETER_CHECK)
  62:../firmware/gd32f3x0_hal_peripheral/Source/gd32f3x0_hal_smartcard.c ****     if(NULL == p_struct) {
  63:../firmware/gd32f3x0_hal_peripheral/Source/gd32f3x0_hal_smartcard.c ****         HAL_DEBUGE("parameter [*p_struct] value is invalid");
  64:../firmware/gd32f3x0_hal_peripheral/Source/gd32f3x0_hal_smartcard.c ****     }
  65:../firmware/gd32f3x0_hal_peripheral/Source/gd32f3x0_hal_smartcard.c **** #endif /* 1U == HAL_PARAMETER_CHECK */
  66:../firmware/gd32f3x0_hal_peripheral/Source/gd32f3x0_hal_smartcard.c **** 
  67:../firmware/gd32f3x0_hal_peripheral/Source/gd32f3x0_hal_smartcard.c ****     switch(hal_struct_type) {
  42              		.loc 1 67 5
  43 000c FB79     		ldrb	r3, [r7, #7]	@ zero_extendqisi2
  44 000e 032B     		cmp	r3, #3
  45 0010 00F2BD80 		bhi	.L9
  46 0014 01A2     		adr	r2, .L4
  47 0016 52F823F0 		ldr	pc, [r2, r3, lsl #2]
  48 001a 00BF     		.p2align 2
  49              	.L4:
  50 001c 2D000000 		.word	.L7+1
  51 0020 E1000000 		.word	.L6+1
  52 0024 67010000 		.word	.L5+1
  53 0028 75010000 		.word	.L3+1
  54              		.p2align 1
  55              	.L7:
  68:../firmware/gd32f3x0_hal_peripheral/Source/gd32f3x0_hal_smartcard.c ****     case HAL_SMARTCARD_INIT_STRUCT:
  69:../firmware/gd32f3x0_hal_peripheral/Source/gd32f3x0_hal_smartcard.c ****         /* initialize smartcard initialization structure with the default values */
  70:../firmware/gd32f3x0_hal_peripheral/Source/gd32f3x0_hal_smartcard.c ****         ((hal_smartcard_init_struct *)p_struct)->baudrate                = 115200U;
  56              		.loc 1 70 74
  57 002c 3B68     		ldr	r3, [r7]
  58 002e 4FF4E132 		mov	r2, #115200
  59 0032 1A60     		str	r2, [r3]
  71:../firmware/gd32f3x0_hal_peripheral/Source/gd32f3x0_hal_smartcard.c ****         ((hal_smartcard_init_struct *)p_struct)->parity                  = SMARTCARD_PARITY_EVEN;
  60              		.loc 1 71 74
  61 0034 3B68     		ldr	r3, [r7]
  62 0036 4FF48062 		mov	r2, #1024
  63 003a 5A60     		str	r2, [r3, #4]
  72:../firmware/gd32f3x0_hal_peripheral/Source/gd32f3x0_hal_smartcard.c ****         ((hal_smartcard_init_struct *)p_struct)->word_length             = SMARTCARD_WORD_LENGTH_9B
  64              		.loc 1 72 74
  65 003c 3B68     		ldr	r3, [r7]
  66 003e 4FF48052 		mov	r2, #4096
  67 0042 9A60     		str	r2, [r3, #8]
  73:../firmware/gd32f3x0_hal_peripheral/Source/gd32f3x0_hal_smartcard.c ****         ((hal_smartcard_init_struct *)p_struct)->stop_bit                = SMARTCARD_STOP_BIT_1_5;
  68              		.loc 1 73 74
  69 0044 3B68     		ldr	r3, [r7]
  70 0046 4FF44052 		mov	r2, #12288
  71 004a DA60     		str	r2, [r3, #12]
  74:../firmware/gd32f3x0_hal_peripheral/Source/gd32f3x0_hal_smartcard.c ****         ((hal_smartcard_init_struct *)p_struct)->direction               = SMARTCARD_DIRECTION_RX_T
  72              		.loc 1 74 74
  73 004c 3B68     		ldr	r3, [r7]
  74 004e 0C22     		movs	r2, #12
  75 0050 1A61     		str	r2, [r3, #16]
  75:../firmware/gd32f3x0_hal_peripheral/Source/gd32f3x0_hal_smartcard.c ****         ((hal_smartcard_init_struct *)p_struct)->clock_polarity          = SMARTCARD_CLOCK_POLARITY
  76              		.loc 1 75 74
  77 0052 3B68     		ldr	r3, [r7]
  78 0054 0022     		movs	r2, #0
  79 0056 5A61     		str	r2, [r3, #20]
  76:../firmware/gd32f3x0_hal_peripheral/Source/gd32f3x0_hal_smartcard.c ****         ((hal_smartcard_init_struct *)p_struct)->clock_phase             = SMARTCARD_CLOCK_PHASE_1C
  80              		.loc 1 76 74
  81 0058 3B68     		ldr	r3, [r7]
  82 005a 0022     		movs	r2, #0
  83 005c 9A61     		str	r2, [r3, #24]
  77:../firmware/gd32f3x0_hal_peripheral/Source/gd32f3x0_hal_smartcard.c ****         ((hal_smartcard_init_struct *)p_struct)->clock_length_lastbit    = SMARTCARD_LAST_BIT_NOT_O
  84              		.loc 1 77 74
  85 005e 3B68     		ldr	r3, [r7]
  86 0060 0022     		movs	r2, #0
  87 0062 DA61     		str	r2, [r3, #28]
  78:../firmware/gd32f3x0_hal_peripheral/Source/gd32f3x0_hal_smartcard.c ****         ((hal_smartcard_init_struct *)p_struct)->prescaler               = 1U;
  88              		.loc 1 78 74
  89 0064 3B68     		ldr	r3, [r7]
  90 0066 0122     		movs	r2, #1
  91 0068 1A62     		str	r2, [r3, #32]
  79:../firmware/gd32f3x0_hal_peripheral/Source/gd32f3x0_hal_smartcard.c ****         ((hal_smartcard_init_struct *)p_struct)->guard_time              = 0U;
  92              		.loc 1 79 74
  93 006a 3B68     		ldr	r3, [r7]
  94 006c 0022     		movs	r2, #0
  95 006e 5A62     		str	r2, [r3, #36]
  80:../firmware/gd32f3x0_hal_peripheral/Source/gd32f3x0_hal_smartcard.c ****         ((hal_smartcard_init_struct *)p_struct)->nack_state              = SMARTCARD_NACK_DISABLE;
  96              		.loc 1 80 74
  97 0070 3B68     		ldr	r3, [r7]
  98 0072 0022     		movs	r2, #0
  99 0074 9A62     		str	r2, [r3, #40]
  81:../firmware/gd32f3x0_hal_peripheral/Source/gd32f3x0_hal_smartcard.c ****         ((hal_smartcard_init_struct *)p_struct)->early_nack              = DISABLE;
 100              		.loc 1 81 74
 101 0076 3B68     		ldr	r3, [r7]
 102 0078 0022     		movs	r2, #0
 103 007a 83F82C20 		strb	r2, [r3, #44]
  82:../firmware/gd32f3x0_hal_peripheral/Source/gd32f3x0_hal_smartcard.c ****         ((hal_smartcard_init_struct *)p_struct)->rx_fifo_en              = DISABLE;
 104              		.loc 1 82 74
 105 007e 3B68     		ldr	r3, [r7]
 106 0080 0022     		movs	r2, #0
 107 0082 83F82D20 		strb	r2, [r3, #45]
  83:../firmware/gd32f3x0_hal_peripheral/Source/gd32f3x0_hal_smartcard.c ****         ((hal_smartcard_init_struct *)p_struct)->timeout_enable          = DISABLE;
 108              		.loc 1 83 74
 109 0086 3B68     		ldr	r3, [r7]
 110 0088 0022     		movs	r2, #0
 111 008a 83F82E20 		strb	r2, [r3, #46]
  84:../firmware/gd32f3x0_hal_peripheral/Source/gd32f3x0_hal_smartcard.c ****         ((hal_smartcard_init_struct *)p_struct)->timeout_value           = 0U;
 112              		.loc 1 84 74
 113 008e 3B68     		ldr	r3, [r7]
 114 0090 0022     		movs	r2, #0
 115 0092 1A63     		str	r2, [r3, #48]
  85:../firmware/gd32f3x0_hal_peripheral/Source/gd32f3x0_hal_smartcard.c ****         ((hal_smartcard_init_struct *)p_struct)->sample_method           = SMARTCARD_THREE_SAMPLE_B
 116              		.loc 1 85 74
 117 0094 3B68     		ldr	r3, [r7]
 118 0096 0022     		movs	r2, #0
 119 0098 5A63     		str	r2, [r3, #52]
  86:../firmware/gd32f3x0_hal_peripheral/Source/gd32f3x0_hal_smartcard.c ****         ((hal_smartcard_init_struct *)p_struct)->block_length            = 0U;
 120              		.loc 1 86 74
 121 009a 3B68     		ldr	r3, [r7]
 122 009c 0022     		movs	r2, #0
 123 009e 9A63     		str	r2, [r3, #56]
  87:../firmware/gd32f3x0_hal_peripheral/Source/gd32f3x0_hal_smartcard.c ****         ((hal_smartcard_init_struct *)p_struct)->auto_retry_count        = 0U;
 124              		.loc 1 87 74
 125 00a0 3B68     		ldr	r3, [r7]
 126 00a2 0022     		movs	r2, #0
 127 00a4 DA63     		str	r2, [r3, #60]
  88:../firmware/gd32f3x0_hal_peripheral/Source/gd32f3x0_hal_smartcard.c ****         ((hal_smartcard_init_struct *)p_struct)->first_bit_msb           = DISABLE;
 128              		.loc 1 88 74
 129 00a6 3B68     		ldr	r3, [r7]
 130 00a8 0022     		movs	r2, #0
 131 00aa 83F84020 		strb	r2, [r3, #64]
  89:../firmware/gd32f3x0_hal_peripheral/Source/gd32f3x0_hal_smartcard.c ****         ((hal_smartcard_init_struct *)p_struct)->tx_rx_swap              = DISABLE;
 132              		.loc 1 89 74
 133 00ae 3B68     		ldr	r3, [r7]
 134 00b0 0022     		movs	r2, #0
 135 00b2 83F84120 		strb	r2, [r3, #65]
  90:../firmware/gd32f3x0_hal_peripheral/Source/gd32f3x0_hal_smartcard.c ****         ((hal_smartcard_init_struct *)p_struct)->rx_level_invert         = DISABLE;
 136              		.loc 1 90 74
 137 00b6 3B68     		ldr	r3, [r7]
 138 00b8 0022     		movs	r2, #0
 139 00ba 83F84220 		strb	r2, [r3, #66]
  91:../firmware/gd32f3x0_hal_peripheral/Source/gd32f3x0_hal_smartcard.c ****         ((hal_smartcard_init_struct *)p_struct)->tx_level_invert         = DISABLE;
 140              		.loc 1 91 74
 141 00be 3B68     		ldr	r3, [r7]
 142 00c0 0022     		movs	r2, #0
 143 00c2 83F84320 		strb	r2, [r3, #67]
  92:../firmware/gd32f3x0_hal_peripheral/Source/gd32f3x0_hal_smartcard.c ****         ((hal_smartcard_init_struct *)p_struct)->data_bit_invert         = DISABLE;
 144              		.loc 1 92 74
 145 00c6 3B68     		ldr	r3, [r7]
 146 00c8 0022     		movs	r2, #0
 147 00ca 83F84420 		strb	r2, [r3, #68]
  93:../firmware/gd32f3x0_hal_peripheral/Source/gd32f3x0_hal_smartcard.c ****         ((hal_smartcard_init_struct *)p_struct)->overrun_disable         = DISABLE;
 148              		.loc 1 93 74
 149 00ce 3B68     		ldr	r3, [r7]
 150 00d0 0022     		movs	r2, #0
 151 00d2 83F84520 		strb	r2, [r3, #69]
  94:../firmware/gd32f3x0_hal_peripheral/Source/gd32f3x0_hal_smartcard.c ****         ((hal_smartcard_init_struct *)p_struct)->rx_error_dma_stop       = DISABLE;
 152              		.loc 1 94 74
 153 00d6 3B68     		ldr	r3, [r7]
 154 00d8 0022     		movs	r2, #0
 155 00da 83F84620 		strb	r2, [r3, #70]
  95:../firmware/gd32f3x0_hal_peripheral/Source/gd32f3x0_hal_smartcard.c ****         break;
 156              		.loc 1 95 9
 157 00de 57E0     		b	.L8
 158              	.L6:
  96:../firmware/gd32f3x0_hal_peripheral/Source/gd32f3x0_hal_smartcard.c **** 
  97:../firmware/gd32f3x0_hal_peripheral/Source/gd32f3x0_hal_smartcard.c ****     case HAL_SMARTCARD_DEV_STRUCT:
  98:../firmware/gd32f3x0_hal_peripheral/Source/gd32f3x0_hal_smartcard.c ****         /* initialize smartcard device information structure with the default values */
  99:../firmware/gd32f3x0_hal_peripheral/Source/gd32f3x0_hal_smartcard.c ****         ((hal_smartcard_dev_struct *)p_struct)->periph                                 = 0U;
 159              		.loc 1 99 88
 160 00e0 3B68     		ldr	r3, [r7]
 161 00e2 0022     		movs	r2, #0
 162 00e4 1A60     		str	r2, [r3]
 100:../firmware/gd32f3x0_hal_peripheral/Source/gd32f3x0_hal_smartcard.c ****         ((hal_smartcard_dev_struct *)p_struct)->smartcard_irq.error_handle             = NULL;
 163              		.loc 1 100 88
 164 00e6 3B68     		ldr	r3, [r7]
 165 00e8 0022     		movs	r2, #0
 166 00ea 1A61     		str	r2, [r3, #16]
 101:../firmware/gd32f3x0_hal_peripheral/Source/gd32f3x0_hal_smartcard.c ****         ((hal_smartcard_dev_struct *)p_struct)->smartcard_irq.receive_complete_handle  = NULL;
 167              		.loc 1 101 88
 168 00ec 3B68     		ldr	r3, [r7]
 169 00ee 0022     		movs	r2, #0
 170 00f0 5A60     		str	r2, [r3, #4]
 102:../firmware/gd32f3x0_hal_peripheral/Source/gd32f3x0_hal_smartcard.c ****         ((hal_smartcard_dev_struct *)p_struct)->smartcard_irq.transmit_complete_handle = NULL;
 171              		.loc 1 102 88
 172 00f2 3B68     		ldr	r3, [r7]
 173 00f4 0022     		movs	r2, #0
 174 00f6 DA60     		str	r2, [r3, #12]
 103:../firmware/gd32f3x0_hal_peripheral/Source/gd32f3x0_hal_smartcard.c ****         ((hal_smartcard_dev_struct *)p_struct)->smartcard_irq.transmit_ready_handle    = NULL;
 175              		.loc 1 103 88
 176 00f8 3B68     		ldr	r3, [r7]
 177 00fa 0022     		movs	r2, #0
 178 00fc 9A60     		str	r2, [r3, #8]
 104:../firmware/gd32f3x0_hal_peripheral/Source/gd32f3x0_hal_smartcard.c ****         ((hal_smartcard_dev_struct *)p_struct)->p_dma_rx                               = NULL;
 179              		.loc 1 104 88
 180 00fe 3B68     		ldr	r3, [r7]
 181 0100 0022     		movs	r2, #0
 182 0102 5A61     		str	r2, [r3, #20]
 105:../firmware/gd32f3x0_hal_peripheral/Source/gd32f3x0_hal_smartcard.c ****         ((hal_smartcard_dev_struct *)p_struct)->p_dma_tx                               = NULL;
 183              		.loc 1 105 88
 184 0104 3B68     		ldr	r3, [r7]
 185 0106 0022     		movs	r2, #0
 186 0108 9A61     		str	r2, [r3, #24]
 106:../firmware/gd32f3x0_hal_peripheral/Source/gd32f3x0_hal_smartcard.c ****         ((hal_smartcard_dev_struct *)p_struct)->txbuffer.buffer                        = NULL;
 187              		.loc 1 106 88
 188 010a 3B68     		ldr	r3, [r7]
 189 010c 0022     		movs	r2, #0
 190 010e DA61     		str	r2, [r3, #28]
 107:../firmware/gd32f3x0_hal_peripheral/Source/gd32f3x0_hal_smartcard.c ****         ((hal_smartcard_dev_struct *)p_struct)->txbuffer.length                        = 0U;
 191              		.loc 1 107 88
 192 0110 3B68     		ldr	r3, [r7]
 193 0112 0022     		movs	r2, #0
 194 0114 1A62     		str	r2, [r3, #32]
 108:../firmware/gd32f3x0_hal_peripheral/Source/gd32f3x0_hal_smartcard.c ****         ((hal_smartcard_dev_struct *)p_struct)->txbuffer.pos                           = 0U;
 195              		.loc 1 108 88
 196 0116 3B68     		ldr	r3, [r7]
 197 0118 0022     		movs	r2, #0
 198 011a 5A62     		str	r2, [r3, #36]
 109:../firmware/gd32f3x0_hal_peripheral/Source/gd32f3x0_hal_smartcard.c ****         ((hal_smartcard_dev_struct *)p_struct)->rxbuffer.buffer                        = NULL;
 199              		.loc 1 109 88
 200 011c 3B68     		ldr	r3, [r7]
 201 011e 0022     		movs	r2, #0
 202 0120 9A62     		str	r2, [r3, #40]
 110:../firmware/gd32f3x0_hal_peripheral/Source/gd32f3x0_hal_smartcard.c ****         ((hal_smartcard_dev_struct *)p_struct)->rxbuffer.length                        = 0U;
 203              		.loc 1 110 88
 204 0122 3B68     		ldr	r3, [r7]
 205 0124 0022     		movs	r2, #0
 206 0126 DA62     		str	r2, [r3, #44]
 111:../firmware/gd32f3x0_hal_peripheral/Source/gd32f3x0_hal_smartcard.c ****         ((hal_smartcard_dev_struct *)p_struct)->rxbuffer.pos                           = 0U;
 207              		.loc 1 111 88
 208 0128 3B68     		ldr	r3, [r7]
 209 012a 0022     		movs	r2, #0
 210 012c 1A63     		str	r2, [r3, #48]
 112:../firmware/gd32f3x0_hal_peripheral/Source/gd32f3x0_hal_smartcard.c ****         ((hal_smartcard_dev_struct *)p_struct)->last_error                             = HAL_SMARTC
 211              		.loc 1 112 88
 212 012e 3B68     		ldr	r3, [r7]
 213 0130 0022     		movs	r2, #0
 214 0132 9A86     		strh	r2, [r3, #52]	@ movhi
 113:../firmware/gd32f3x0_hal_peripheral/Source/gd32f3x0_hal_smartcard.c ****         ((hal_smartcard_dev_struct *)p_struct)->error_state                            = HAL_SMARTC
 215              		.loc 1 113 88
 216 0134 3B68     		ldr	r3, [r7]
 217 0136 0022     		movs	r2, #0
 218 0138 DA86     		strh	r2, [r3, #54]	@ movhi
 114:../firmware/gd32f3x0_hal_peripheral/Source/gd32f3x0_hal_smartcard.c ****         ((hal_smartcard_dev_struct *)p_struct)->tx_state                               = SMARTCARD_
 219              		.loc 1 114 88
 220 013a 3B68     		ldr	r3, [r7]
 221 013c 0022     		movs	r2, #0
 222 013e 83F83820 		strb	r2, [r3, #56]
 115:../firmware/gd32f3x0_hal_peripheral/Source/gd32f3x0_hal_smartcard.c ****         ((hal_smartcard_dev_struct *)p_struct)->rx_state                               = SMARTCARD_
 223              		.loc 1 115 88
 224 0142 3B68     		ldr	r3, [r7]
 225 0144 0022     		movs	r2, #0
 226 0146 83F83920 		strb	r2, [r3, #57]
 116:../firmware/gd32f3x0_hal_peripheral/Source/gd32f3x0_hal_smartcard.c ****         ((hal_smartcard_dev_struct *)p_struct)->rx_callback                            = NULL;
 227              		.loc 1 116 88
 228 014a 3B68     		ldr	r3, [r7]
 229 014c 0022     		movs	r2, #0
 230 014e DA63     		str	r2, [r3, #60]
 117:../firmware/gd32f3x0_hal_peripheral/Source/gd32f3x0_hal_smartcard.c ****         ((hal_smartcard_dev_struct *)p_struct)->tx_callback                            = NULL;
 231              		.loc 1 117 88
 232 0150 3B68     		ldr	r3, [r7]
 233 0152 0022     		movs	r2, #0
 234 0154 1A64     		str	r2, [r3, #64]
 118:../firmware/gd32f3x0_hal_peripheral/Source/gd32f3x0_hal_smartcard.c ****         ((hal_smartcard_dev_struct *)p_struct)->mutex                                  = HAL_MUTEX_
 235              		.loc 1 118 88
 236 0156 3B68     		ldr	r3, [r7]
 237 0158 0022     		movs	r2, #0
 238 015a 83F84420 		strb	r2, [r3, #68]
 119:../firmware/gd32f3x0_hal_peripheral/Source/gd32f3x0_hal_smartcard.c ****         ((hal_smartcard_dev_struct *)p_struct)->priv                                   = NULL;
 239              		.loc 1 119 88
 240 015e 3B68     		ldr	r3, [r7]
 241 0160 0022     		movs	r2, #0
 242 0162 9A64     		str	r2, [r3, #72]
 120:../firmware/gd32f3x0_hal_peripheral/Source/gd32f3x0_hal_smartcard.c ****         break;
 243              		.loc 1 120 9
 244 0164 14E0     		b	.L8
 245              	.L5:
 121:../firmware/gd32f3x0_hal_peripheral/Source/gd32f3x0_hal_smartcard.c **** 
 122:../firmware/gd32f3x0_hal_peripheral/Source/gd32f3x0_hal_smartcard.c ****     case HAL_SMARTCARD_USER_CALLBCAK_STRUCT:
 123:../firmware/gd32f3x0_hal_peripheral/Source/gd32f3x0_hal_smartcard.c ****         /* initialize user callback structure with the default values */
 124:../firmware/gd32f3x0_hal_peripheral/Source/gd32f3x0_hal_smartcard.c ****         ((hal_smartcard_user_callback_struct *)p_struct)->complete_func = NULL;
 246              		.loc 1 124 73
 247 0166 3B68     		ldr	r3, [r7]
 248 0168 0022     		movs	r2, #0
 249 016a 1A60     		str	r2, [r3]
 125:../firmware/gd32f3x0_hal_peripheral/Source/gd32f3x0_hal_smartcard.c ****         ((hal_smartcard_user_callback_struct *)p_struct)->error_func = NULL;
 250              		.loc 1 125 70
 251 016c 3B68     		ldr	r3, [r7]
 252 016e 0022     		movs	r2, #0
 253 0170 5A60     		str	r2, [r3, #4]
 126:../firmware/gd32f3x0_hal_peripheral/Source/gd32f3x0_hal_smartcard.c ****         break;
 254              		.loc 1 126 9
 255 0172 0DE0     		b	.L8
 256              	.L3:
 127:../firmware/gd32f3x0_hal_peripheral/Source/gd32f3x0_hal_smartcard.c **** 
 128:../firmware/gd32f3x0_hal_peripheral/Source/gd32f3x0_hal_smartcard.c ****     case HAL_SMARTCARD_IRQ_INIT_STRUCT:
 129:../firmware/gd32f3x0_hal_peripheral/Source/gd32f3x0_hal_smartcard.c ****         /* initialize interrupt callback structure with the default values */
 130:../firmware/gd32f3x0_hal_peripheral/Source/gd32f3x0_hal_smartcard.c ****         ((hal_smartcard_irq_struct *)p_struct)->error_handle = NULL;
 257              		.loc 1 130 62
 258 0174 3B68     		ldr	r3, [r7]
 259 0176 0022     		movs	r2, #0
 260 0178 DA60     		str	r2, [r3, #12]
 131:../firmware/gd32f3x0_hal_peripheral/Source/gd32f3x0_hal_smartcard.c ****         ((hal_smartcard_irq_struct *)p_struct)->receive_complete_handle = NULL;
 261              		.loc 1 131 73
 262 017a 3B68     		ldr	r3, [r7]
 263 017c 0022     		movs	r2, #0
 264 017e 1A60     		str	r2, [r3]
 132:../firmware/gd32f3x0_hal_peripheral/Source/gd32f3x0_hal_smartcard.c ****         ((hal_smartcard_irq_struct *)p_struct)->transmit_complete_handle = NULL;
 265              		.loc 1 132 74
 266 0180 3B68     		ldr	r3, [r7]
 267 0182 0022     		movs	r2, #0
 268 0184 9A60     		str	r2, [r3, #8]
 133:../firmware/gd32f3x0_hal_peripheral/Source/gd32f3x0_hal_smartcard.c ****         ((hal_smartcard_irq_struct *)p_struct)->transmit_ready_handle = NULL;
 269              		.loc 1 133 71
 270 0186 3B68     		ldr	r3, [r7]
 271 0188 0022     		movs	r2, #0
 272 018a 5A60     		str	r2, [r3, #4]
 134:../firmware/gd32f3x0_hal_peripheral/Source/gd32f3x0_hal_smartcard.c ****         break;
 273              		.loc 1 134 9
 274 018c 00E0     		b	.L8
 275              	.L9:
 135:../firmware/gd32f3x0_hal_peripheral/Source/gd32f3x0_hal_smartcard.c **** 
 136:../firmware/gd32f3x0_hal_peripheral/Source/gd32f3x0_hal_smartcard.c ****     default:
 137:../firmware/gd32f3x0_hal_peripheral/Source/gd32f3x0_hal_smartcard.c ****         HAL_DEBUGW("parameter [hal_struct_type] value is undefine");
 138:../firmware/gd32f3x0_hal_peripheral/Source/gd32f3x0_hal_smartcard.c ****         break;
 276              		.loc 1 138 9
 277 018e 00BF     		nop
 278              	.L8:
 139:../firmware/gd32f3x0_hal_peripheral/Source/gd32f3x0_hal_smartcard.c ****     }
 140:../firmware/gd32f3x0_hal_peripheral/Source/gd32f3x0_hal_smartcard.c **** }
 279              		.loc 1 140 1
 280 0190 00BF     		nop
 281 0192 0C37     		adds	r7, r7, #12
 282              		.cfi_def_cfa_offset 4
 283 0194 BD46     		mov	sp, r7
 284              		.cfi_def_cfa_register 13
 285              		@ sp needed
 286 0196 80BC     		pop	{r7}
 287              		.cfi_restore 7
 288              		.cfi_def_cfa_offset 0
 289 0198 7047     		bx	lr
 290              		.cfi_endproc
 291              	.LFE119:
 293 019a 00BF     		.section	.text.hal_smartcard_deinit,"ax",%progbits
 294              		.align	1
 295              		.global	hal_smartcard_deinit
 296              		.syntax unified
 297              		.thumb
 298              		.thumb_func
 299              		.fpu softvfp
 301              	hal_smartcard_deinit:
 302              	.LFB120:
 141:../firmware/gd32f3x0_hal_peripheral/Source/gd32f3x0_hal_smartcard.c **** 
 142:../firmware/gd32f3x0_hal_peripheral/Source/gd32f3x0_hal_smartcard.c **** /*!
 143:../firmware/gd32f3x0_hal_peripheral/Source/gd32f3x0_hal_smartcard.c ****     \brief      deinitialize smartcard
 144:../firmware/gd32f3x0_hal_peripheral/Source/gd32f3x0_hal_smartcard.c ****     \param[in]  smartcard: smartcard device information structure
 145:../firmware/gd32f3x0_hal_peripheral/Source/gd32f3x0_hal_smartcard.c ****                     the structure is not necessary to be reconfigured after structrue initializatio
 146:../firmware/gd32f3x0_hal_peripheral/Source/gd32f3x0_hal_smartcard.c ****                     the structure parameters altering is automatically configured by core
 147:../firmware/gd32f3x0_hal_peripheral/Source/gd32f3x0_hal_smartcard.c ****     \param[out] none
 148:../firmware/gd32f3x0_hal_peripheral/Source/gd32f3x0_hal_smartcard.c ****     \retval     none
 149:../firmware/gd32f3x0_hal_peripheral/Source/gd32f3x0_hal_smartcard.c **** */
 150:../firmware/gd32f3x0_hal_peripheral/Source/gd32f3x0_hal_smartcard.c **** void hal_smartcard_deinit(hal_smartcard_dev_struct *smartcard)
 151:../firmware/gd32f3x0_hal_peripheral/Source/gd32f3x0_hal_smartcard.c **** {
 303              		.loc 1 151 1
 304              		.cfi_startproc
 305              		@ args = 0, pretend = 0, frame = 16
 306              		@ frame_needed = 1, uses_anonymous_args = 0
 307 0000 80B5     		push	{r7, lr}
 308              		.cfi_def_cfa_offset 8
 309              		.cfi_offset 7, -8
 310              		.cfi_offset 14, -4
 311 0002 84B0     		sub	sp, sp, #16
 312              		.cfi_def_cfa_offset 24
 313 0004 00AF     		add	r7, sp, #0
 314              		.cfi_def_cfa_register 7
 315 0006 7860     		str	r0, [r7, #4]
 152:../firmware/gd32f3x0_hal_peripheral/Source/gd32f3x0_hal_smartcard.c ****     uint32_t periph;
 153:../firmware/gd32f3x0_hal_peripheral/Source/gd32f3x0_hal_smartcard.c ****     periph = smartcard->periph;
 316              		.loc 1 153 12
 317 0008 7B68     		ldr	r3, [r7, #4]
 318 000a 1B68     		ldr	r3, [r3]
 319 000c FB60     		str	r3, [r7, #12]
 154:../firmware/gd32f3x0_hal_peripheral/Source/gd32f3x0_hal_smartcard.c **** 
 155:../firmware/gd32f3x0_hal_peripheral/Source/gd32f3x0_hal_smartcard.c ****     if((USART0 == periph)) {
 320              		.loc 1 155 7
 321 000e FB68     		ldr	r3, [r7, #12]
 322 0010 084A     		ldr	r2, .L13
 323 0012 9342     		cmp	r3, r2
 324 0014 09D1     		bne	.L12
 156:../firmware/gd32f3x0_hal_peripheral/Source/gd32f3x0_hal_smartcard.c ****         /* deinitialize the peripheral */
 157:../firmware/gd32f3x0_hal_peripheral/Source/gd32f3x0_hal_smartcard.c ****         hals_smartcard_deinit(periph);
 325              		.loc 1 157 9
 326 0016 F868     		ldr	r0, [r7, #12]
 327 0018 FFF7FEFF 		bl	hals_smartcard_deinit
 158:../firmware/gd32f3x0_hal_peripheral/Source/gd32f3x0_hal_smartcard.c ****         /* initialize smartcard extend initialization structure */
 159:../firmware/gd32f3x0_hal_peripheral/Source/gd32f3x0_hal_smartcard.c ****         hal_smartcard_struct_init(HAL_SMARTCARD_DEV_STRUCT, smartcard);
 328              		.loc 1 159 9
 329 001c 7968     		ldr	r1, [r7, #4]
 330 001e 0120     		movs	r0, #1
 331 0020 FFF7FEFF 		bl	hal_smartcard_struct_init
 160:../firmware/gd32f3x0_hal_peripheral/Source/gd32f3x0_hal_smartcard.c ****         smartcard->periph = periph;
 332              		.loc 1 160 27
 333 0024 7B68     		ldr	r3, [r7, #4]
 334 0026 FA68     		ldr	r2, [r7, #12]
 335 0028 1A60     		str	r2, [r3]
 336              	.L12:
 161:../firmware/gd32f3x0_hal_peripheral/Source/gd32f3x0_hal_smartcard.c ****     } else {
 162:../firmware/gd32f3x0_hal_peripheral/Source/gd32f3x0_hal_smartcard.c ****         HAL_DEBUGE("parameter [smartcard->periph] value is invalid");
 163:../firmware/gd32f3x0_hal_peripheral/Source/gd32f3x0_hal_smartcard.c ****     }
 164:../firmware/gd32f3x0_hal_peripheral/Source/gd32f3x0_hal_smartcard.c **** }
 337              		.loc 1 164 1
 338 002a 00BF     		nop
 339 002c 1037     		adds	r7, r7, #16
 340              		.cfi_def_cfa_offset 8
 341 002e BD46     		mov	sp, r7
 342              		.cfi_def_cfa_register 13
 343              		@ sp needed
 344 0030 80BD     		pop	{r7, pc}
 345              	.L14:
 346 0032 00BF     		.align	2
 347              	.L13:
 348 0034 00380140 		.word	1073821696
 349              		.cfi_endproc
 350              	.LFE120:
 352              		.section	.text.hal_smartcard_init,"ax",%progbits
 353              		.align	1
 354              		.global	hal_smartcard_init
 355              		.syntax unified
 356              		.thumb
 357              		.thumb_func
 358              		.fpu softvfp
 360              	hal_smartcard_init:
 361              	.LFB121:
 165:../firmware/gd32f3x0_hal_peripheral/Source/gd32f3x0_hal_smartcard.c **** 
 166:../firmware/gd32f3x0_hal_peripheral/Source/gd32f3x0_hal_smartcard.c **** /*!
 167:../firmware/gd32f3x0_hal_peripheral/Source/gd32f3x0_hal_smartcard.c ****     \brief      initialize smartcard
 168:../firmware/gd32f3x0_hal_peripheral/Source/gd32f3x0_hal_smartcard.c ****     \param[in]  smartcard: smartcard device information structure
 169:../firmware/gd32f3x0_hal_peripheral/Source/gd32f3x0_hal_smartcard.c ****                     the structure is not necessary to be reconfigured after structrue initializatio
 170:../firmware/gd32f3x0_hal_peripheral/Source/gd32f3x0_hal_smartcard.c ****                     the structure parameters altering is automatically configured by core
 171:../firmware/gd32f3x0_hal_peripheral/Source/gd32f3x0_hal_smartcard.c ****     \param[in]  periph: specify which SMARTCARD is initialized
 172:../firmware/gd32f3x0_hal_peripheral/Source/gd32f3x0_hal_smartcard.c ****                     this parameter can only be USART0 for gd32f3x0
 173:../firmware/gd32f3x0_hal_peripheral/Source/gd32f3x0_hal_smartcard.c ****     \param[in]  p_init: the initialization data needed to initialize smartcard
 174:../firmware/gd32f3x0_hal_peripheral/Source/gd32f3x0_hal_smartcard.c ****                   baudrate: communication baudrate
 175:../firmware/gd32f3x0_hal_peripheral/Source/gd32f3x0_hal_smartcard.c ****                   parity: SMARTCARD_PARITY_EVEN, SMARTCARD_PARITY_ODD
 176:../firmware/gd32f3x0_hal_peripheral/Source/gd32f3x0_hal_smartcard.c ****                   word_length: SMARTCARD_WORD_LENGTH_9BIT
 177:../firmware/gd32f3x0_hal_peripheral/Source/gd32f3x0_hal_smartcard.c ****                   stop_bit: SMARTCARD_STOP_BIT_0_5, SMARTCARD_STOP_BIT_1_5
 178:../firmware/gd32f3x0_hal_peripheral/Source/gd32f3x0_hal_smartcard.c ****                   direction: SMARTCARD_DIRECTION_RX_TX, SMARTCARD_DIRECTION_RX_ONLY, SMARTCARD_DIRE
 179:../firmware/gd32f3x0_hal_peripheral/Source/gd32f3x0_hal_smartcard.c ****                   clock_polarity: SMARTCARD_CLOCK_POLARITY_LOW, SMARTCARD_CLOCK_POLARITY_HIGH
 180:../firmware/gd32f3x0_hal_peripheral/Source/gd32f3x0_hal_smartcard.c ****                   clock_phase: SMARTCARD_CLOCK_PHASE_1CK, SMARTCARD_CLOCK_PHASE_2CK
 181:../firmware/gd32f3x0_hal_peripheral/Source/gd32f3x0_hal_smartcard.c ****                   clock_length_lastbit: SMARTCARD_LAST_BIT_NOT_OUTPUT, SMARTCARD_LAST_BIT_OUTPUT
 182:../firmware/gd32f3x0_hal_peripheral/Source/gd32f3x0_hal_smartcard.c ****                   prescaler: 2,4,6 - 62
 183:../firmware/gd32f3x0_hal_peripheral/Source/gd32f3x0_hal_smartcard.c ****                   guard_time: 0 - 255
 184:../firmware/gd32f3x0_hal_peripheral/Source/gd32f3x0_hal_smartcard.c ****                   nack_state: SMARTCARD_NACK_DISABLE, SMARTCARD_NACK_ENABLE
 185:../firmware/gd32f3x0_hal_peripheral/Source/gd32f3x0_hal_smartcard.c ****                   early_nack: DISABLE, ENABLE
 186:../firmware/gd32f3x0_hal_peripheral/Source/gd32f3x0_hal_smartcard.c ****                   rx_fifo_en: DISABLE, ENABLE
 187:../firmware/gd32f3x0_hal_peripheral/Source/gd32f3x0_hal_smartcard.c ****                   timeout_enable: DISABLE, ENABLE
 188:../firmware/gd32f3x0_hal_peripheral/Source/gd32f3x0_hal_smartcard.c ****                   timeout_value: 0 - (2^24-1)
 189:../firmware/gd32f3x0_hal_peripheral/Source/gd32f3x0_hal_smartcard.c ****                   sample_method: SMARTCARD_THREE_SAMPLE_BIT, SMARTCARD_ONE_SAMPLE_BIT
 190:../firmware/gd32f3x0_hal_peripheral/Source/gd32f3x0_hal_smartcard.c ****                   block_length: 0 - 255
 191:../firmware/gd32f3x0_hal_peripheral/Source/gd32f3x0_hal_smartcard.c ****                   auto_retry_count: 0 - 7
 192:../firmware/gd32f3x0_hal_peripheral/Source/gd32f3x0_hal_smartcard.c ****                   first_bit_msb: DISABLE, ENABLE
 193:../firmware/gd32f3x0_hal_peripheral/Source/gd32f3x0_hal_smartcard.c ****                   tx_rx_swap: DISABLE, ENABLE
 194:../firmware/gd32f3x0_hal_peripheral/Source/gd32f3x0_hal_smartcard.c ****                   rx_level_invert: DISABLE, ENABLE
 195:../firmware/gd32f3x0_hal_peripheral/Source/gd32f3x0_hal_smartcard.c ****                   tx_level_invert: DISABLE, ENABLE
 196:../firmware/gd32f3x0_hal_peripheral/Source/gd32f3x0_hal_smartcard.c ****                   data_bit_invert: DISABLE, ENABLE
 197:../firmware/gd32f3x0_hal_peripheral/Source/gd32f3x0_hal_smartcard.c ****                   overrun_disable: DISABLE, ENABLE
 198:../firmware/gd32f3x0_hal_peripheral/Source/gd32f3x0_hal_smartcard.c ****                   rx_error_dma_stop: DISABLE, ENABLE
 199:../firmware/gd32f3x0_hal_peripheral/Source/gd32f3x0_hal_smartcard.c ****     \param[out] none
 200:../firmware/gd32f3x0_hal_peripheral/Source/gd32f3x0_hal_smartcard.c ****     \retval     error code: HAL_ERR_NONE, HAL_ERR_ADDRESS, HAL_ERR_VAL, details refer to gd32f3x0_h
 201:../firmware/gd32f3x0_hal_peripheral/Source/gd32f3x0_hal_smartcard.c **** */
 202:../firmware/gd32f3x0_hal_peripheral/Source/gd32f3x0_hal_smartcard.c **** int32_t hal_smartcard_init(hal_smartcard_dev_struct *smartcard, uint32_t periph, hal_smartcard_init
 203:../firmware/gd32f3x0_hal_peripheral/Source/gd32f3x0_hal_smartcard.c **** {
 362              		.loc 1 203 1
 363              		.cfi_startproc
 364              		@ args = 0, pretend = 0, frame = 24
 365              		@ frame_needed = 1, uses_anonymous_args = 0
 366 0000 80B5     		push	{r7, lr}
 367              		.cfi_def_cfa_offset 8
 368              		.cfi_offset 7, -8
 369              		.cfi_offset 14, -4
 370 0002 86B0     		sub	sp, sp, #24
 371              		.cfi_def_cfa_offset 32
 372 0004 00AF     		add	r7, sp, #0
 373              		.cfi_def_cfa_register 7
 374 0006 F860     		str	r0, [r7, #12]
 375 0008 B960     		str	r1, [r7, #8]
 376 000a 7A60     		str	r2, [r7, #4]
 204:../firmware/gd32f3x0_hal_peripheral/Source/gd32f3x0_hal_smartcard.c ****     uint32_t reg_temp;
 205:../firmware/gd32f3x0_hal_peripheral/Source/gd32f3x0_hal_smartcard.c **** 
 206:../firmware/gd32f3x0_hal_peripheral/Source/gd32f3x0_hal_smartcard.c **** #if (1U == HAL_PARAMETER_CHECK)
 207:../firmware/gd32f3x0_hal_peripheral/Source/gd32f3x0_hal_smartcard.c ****     /* check smartcard pointer and p_init address */
 208:../firmware/gd32f3x0_hal_peripheral/Source/gd32f3x0_hal_smartcard.c ****     if((NULL == smartcard) || (NULL == p_init)) {
 209:../firmware/gd32f3x0_hal_peripheral/Source/gd32f3x0_hal_smartcard.c ****         HAL_DEBUGE("pointer [smartcard] or [p_init] address is invalid");
 210:../firmware/gd32f3x0_hal_peripheral/Source/gd32f3x0_hal_smartcard.c ****         return HAL_ERR_ADDRESS;
 211:../firmware/gd32f3x0_hal_peripheral/Source/gd32f3x0_hal_smartcard.c ****     }
 212:../firmware/gd32f3x0_hal_peripheral/Source/gd32f3x0_hal_smartcard.c **** 
 213:../firmware/gd32f3x0_hal_peripheral/Source/gd32f3x0_hal_smartcard.c ****     /* check periph parameter */
 214:../firmware/gd32f3x0_hal_peripheral/Source/gd32f3x0_hal_smartcard.c ****     if(USART0 != periph) {
 215:../firmware/gd32f3x0_hal_peripheral/Source/gd32f3x0_hal_smartcard.c ****         HAL_DEBUGE("parameter [periph] value is invalid");
 216:../firmware/gd32f3x0_hal_peripheral/Source/gd32f3x0_hal_smartcard.c ****         return HAL_ERR_VAL;
 217:../firmware/gd32f3x0_hal_peripheral/Source/gd32f3x0_hal_smartcard.c ****     }
 218:../firmware/gd32f3x0_hal_peripheral/Source/gd32f3x0_hal_smartcard.c **** 
 219:../firmware/gd32f3x0_hal_peripheral/Source/gd32f3x0_hal_smartcard.c ****     /* check periph value from smartcard device struct */
 220:../firmware/gd32f3x0_hal_peripheral/Source/gd32f3x0_hal_smartcard.c ****     if(0U != smartcard->periph) {
 221:../firmware/gd32f3x0_hal_peripheral/Source/gd32f3x0_hal_smartcard.c ****         HAL_DEBUGI("periph value from smartcard device struct has been rewrite");
 222:../firmware/gd32f3x0_hal_peripheral/Source/gd32f3x0_hal_smartcard.c ****     }
 223:../firmware/gd32f3x0_hal_peripheral/Source/gd32f3x0_hal_smartcard.c **** #endif /* 1U == HAL_PARAMETER_CHECK */
 224:../firmware/gd32f3x0_hal_peripheral/Source/gd32f3x0_hal_smartcard.c **** 
 225:../firmware/gd32f3x0_hal_peripheral/Source/gd32f3x0_hal_smartcard.c ****     /* lock smartcard */
 226:../firmware/gd32f3x0_hal_peripheral/Source/gd32f3x0_hal_smartcard.c ****     HAL_LOCK(smartcard);
 377              		.loc 1 226 5
 378 000c FB68     		ldr	r3, [r7, #12]
 379 000e 93F84430 		ldrb	r3, [r3, #68]	@ zero_extendqisi2
 380 0012 012B     		cmp	r3, #1
 381 0014 02D1     		bne	.L16
 382              		.loc 1 226 5 is_stmt 0 discriminator 1
 383 0016 6FF00103 		mvn	r3, #1
 384 001a 8BE1     		b	.L17
 385              	.L16:
 386              		.loc 1 226 5 discriminator 2
 387 001c FB68     		ldr	r3, [r7, #12]
 388 001e 0122     		movs	r2, #1
 389 0020 83F84420 		strb	r2, [r3, #68]
 227:../firmware/gd32f3x0_hal_peripheral/Source/gd32f3x0_hal_smartcard.c **** 
 228:../firmware/gd32f3x0_hal_peripheral/Source/gd32f3x0_hal_smartcard.c ****     smartcard->periph   = periph;
 390              		.loc 1 228 25 is_stmt 1 discriminator 2
 391 0024 FB68     		ldr	r3, [r7, #12]
 392 0026 BA68     		ldr	r2, [r7, #8]
 393 0028 1A60     		str	r2, [r3]
 229:../firmware/gd32f3x0_hal_peripheral/Source/gd32f3x0_hal_smartcard.c **** 
 230:../firmware/gd32f3x0_hal_peripheral/Source/gd32f3x0_hal_smartcard.c ****     /* disable the peripheral */
 231:../firmware/gd32f3x0_hal_peripheral/Source/gd32f3x0_hal_smartcard.c ****     hals_smartcard_disable(periph);
 394              		.loc 1 231 5 discriminator 2
 395 002a B868     		ldr	r0, [r7, #8]
 396 002c FFF7FEFF 		bl	hals_smartcard_disable
 232:../firmware/gd32f3x0_hal_peripheral/Source/gd32f3x0_hal_smartcard.c **** 
 233:../firmware/gd32f3x0_hal_peripheral/Source/gd32f3x0_hal_smartcard.c ****     /* configure CTL0 register */
 234:../firmware/gd32f3x0_hal_peripheral/Source/gd32f3x0_hal_smartcard.c ****     reg_temp = USART_CTL0(periph);
 397              		.loc 1 234 16 discriminator 2
 398 0030 BB68     		ldr	r3, [r7, #8]
 399              		.loc 1 234 14 discriminator 2
 400 0032 1B68     		ldr	r3, [r3]
 401 0034 7B61     		str	r3, [r7, #20]
 235:../firmware/gd32f3x0_hal_peripheral/Source/gd32f3x0_hal_smartcard.c ****     reg_temp &= ~(USART_CTL0_PM | USART_CTL0_PCEN | USART_CTL0_WL | USART_CTL0_OVSMOD | \
 402              		.loc 1 235 14 discriminator 2
 403 0036 7B69     		ldr	r3, [r7, #20]
 404 0038 23F41643 		bic	r3, r3, #38400
 405 003c 23F00C03 		bic	r3, r3, #12
 406 0040 7B61     		str	r3, [r7, #20]
 236:../firmware/gd32f3x0_hal_peripheral/Source/gd32f3x0_hal_smartcard.c ****                   USART_CTL0_REN | USART_CTL0_TEN);
 237:../firmware/gd32f3x0_hal_peripheral/Source/gd32f3x0_hal_smartcard.c ****     reg_temp |= (p_init->direction | p_init->parity | p_init->word_length);
 407              		.loc 1 237 24 discriminator 2
 408 0042 7B68     		ldr	r3, [r7, #4]
 409 0044 1A69     		ldr	r2, [r3, #16]
 410              		.loc 1 237 44 discriminator 2
 411 0046 7B68     		ldr	r3, [r7, #4]
 412 0048 5B68     		ldr	r3, [r3, #4]
 413              		.loc 1 237 36 discriminator 2
 414 004a 1A43     		orrs	r2, r2, r3
 415              		.loc 1 237 61 discriminator 2
 416 004c 7B68     		ldr	r3, [r7, #4]
 417 004e 9B68     		ldr	r3, [r3, #8]
 418              		.loc 1 237 53 discriminator 2
 419 0050 1343     		orrs	r3, r3, r2
 420              		.loc 1 237 14 discriminator 2
 421 0052 7A69     		ldr	r2, [r7, #20]
 422 0054 1343     		orrs	r3, r3, r2
 423 0056 7B61     		str	r3, [r7, #20]
 238:../firmware/gd32f3x0_hal_peripheral/Source/gd32f3x0_hal_smartcard.c ****     USART_CTL0(periph) = reg_temp;
 424              		.loc 1 238 5 discriminator 2
 425 0058 BB68     		ldr	r3, [r7, #8]
 426              		.loc 1 238 24 discriminator 2
 427 005a 7A69     		ldr	r2, [r7, #20]
 428 005c 1A60     		str	r2, [r3]
 239:../firmware/gd32f3x0_hal_peripheral/Source/gd32f3x0_hal_smartcard.c **** 
 240:../firmware/gd32f3x0_hal_peripheral/Source/gd32f3x0_hal_smartcard.c ****     /* configure CTL1 register */
 241:../firmware/gd32f3x0_hal_peripheral/Source/gd32f3x0_hal_smartcard.c ****     reg_temp = USART_CTL1(periph);
 429              		.loc 1 241 16 discriminator 2
 430 005e BB68     		ldr	r3, [r7, #8]
 431 0060 0433     		adds	r3, r3, #4
 432              		.loc 1 241 14 discriminator 2
 433 0062 1B68     		ldr	r3, [r3]
 434 0064 7B61     		str	r3, [r7, #20]
 242:../firmware/gd32f3x0_hal_peripheral/Source/gd32f3x0_hal_smartcard.c ****     reg_temp &= ~(USART_CTL1_RTEN | USART_CTL1_CLEN | USART_CTL1_CPH | USART_CTL1_CPL | \
 435              		.loc 1 242 14 discriminator 2
 436 0066 7B69     		ldr	r3, [r7, #20]
 437 0068 23F40003 		bic	r3, r3, #8388608
 438 006c 23F47C53 		bic	r3, r3, #16128
 439 0070 7B61     		str	r3, [r7, #20]
 243:../firmware/gd32f3x0_hal_peripheral/Source/gd32f3x0_hal_smartcard.c ****                   USART_CTL1_CKEN | USART_CTL1_STB);
 244:../firmware/gd32f3x0_hal_peripheral/Source/gd32f3x0_hal_smartcard.c ****     /* Synchronous mode is activated by default */
 245:../firmware/gd32f3x0_hal_peripheral/Source/gd32f3x0_hal_smartcard.c ****     reg_temp |= (USART_CTL1_CKEN | p_init->clock_polarity | p_init->clock_phase | \
 440              		.loc 1 245 42 discriminator 2
 441 0072 7B68     		ldr	r3, [r7, #4]
 442 0074 5A69     		ldr	r2, [r3, #20]
 443              		.loc 1 245 67 discriminator 2
 444 0076 7B68     		ldr	r3, [r7, #4]
 445 0078 9B69     		ldr	r3, [r3, #24]
 446              		.loc 1 245 59 discriminator 2
 447 007a 1A43     		orrs	r2, r2, r3
 246:../firmware/gd32f3x0_hal_peripheral/Source/gd32f3x0_hal_smartcard.c ****                  p_init->clock_length_lastbit | p_init->stop_bit);
 448              		.loc 1 246 24 discriminator 2
 449 007c 7B68     		ldr	r3, [r7, #4]
 450 007e DB69     		ldr	r3, [r3, #28]
 245:../firmware/gd32f3x0_hal_peripheral/Source/gd32f3x0_hal_smartcard.c ****                  p_init->clock_length_lastbit | p_init->stop_bit);
 451              		.loc 1 245 81 discriminator 2
 452 0080 1A43     		orrs	r2, r2, r3
 453              		.loc 1 246 55 discriminator 2
 454 0082 7B68     		ldr	r3, [r7, #4]
 455 0084 DB68     		ldr	r3, [r3, #12]
 456              		.loc 1 246 47 discriminator 2
 457 0086 1A43     		orrs	r2, r2, r3
 245:../firmware/gd32f3x0_hal_peripheral/Source/gd32f3x0_hal_smartcard.c ****                  p_init->clock_length_lastbit | p_init->stop_bit);
 458              		.loc 1 245 14 discriminator 2
 459 0088 7B69     		ldr	r3, [r7, #20]
 460 008a 1343     		orrs	r3, r3, r2
 461 008c 43F40063 		orr	r3, r3, #2048
 462 0090 7B61     		str	r3, [r7, #20]
 247:../firmware/gd32f3x0_hal_peripheral/Source/gd32f3x0_hal_smartcard.c ****     USART_CTL1(periph) = reg_temp;
 463              		.loc 1 247 5 discriminator 2
 464 0092 BB68     		ldr	r3, [r7, #8]
 465 0094 0433     		adds	r3, r3, #4
 466 0096 1A46     		mov	r2, r3
 467              		.loc 1 247 24 discriminator 2
 468 0098 7B69     		ldr	r3, [r7, #20]
 469 009a 1360     		str	r3, [r2]
 248:../firmware/gd32f3x0_hal_peripheral/Source/gd32f3x0_hal_smartcard.c **** 
 249:../firmware/gd32f3x0_hal_peripheral/Source/gd32f3x0_hal_smartcard.c ****     /* configure timeout enable */
 250:../firmware/gd32f3x0_hal_peripheral/Source/gd32f3x0_hal_smartcard.c ****     if(ENABLE == p_init->timeout_enable) {
 470              		.loc 1 250 24 discriminator 2
 471 009c 7B68     		ldr	r3, [r7, #4]
 472 009e 93F82E30 		ldrb	r3, [r3, #46]	@ zero_extendqisi2
 473              		.loc 1 250 7 discriminator 2
 474 00a2 012B     		cmp	r3, #1
 475 00a4 08D1     		bne	.L18
 251:../firmware/gd32f3x0_hal_peripheral/Source/gd32f3x0_hal_smartcard.c ****         USART_CTL1(periph) |= USART_CTL1_RTEN;
 476              		.loc 1 251 28
 477 00a6 BB68     		ldr	r3, [r7, #8]
 478 00a8 0433     		adds	r3, r3, #4
 479 00aa 1B68     		ldr	r3, [r3]
 480 00ac BA68     		ldr	r2, [r7, #8]
 481 00ae 0432     		adds	r2, r2, #4
 482 00b0 43F40003 		orr	r3, r3, #8388608
 483 00b4 1360     		str	r3, [r2]
 484 00b6 07E0     		b	.L19
 485              	.L18:
 252:../firmware/gd32f3x0_hal_peripheral/Source/gd32f3x0_hal_smartcard.c ****     } else {
 253:../firmware/gd32f3x0_hal_peripheral/Source/gd32f3x0_hal_smartcard.c ****         USART_CTL1(periph) &= ~(USART_CTL1_RTEN);
 486              		.loc 1 253 28
 487 00b8 BB68     		ldr	r3, [r7, #8]
 488 00ba 0433     		adds	r3, r3, #4
 489 00bc 1B68     		ldr	r3, [r3]
 490 00be BA68     		ldr	r2, [r7, #8]
 491 00c0 0432     		adds	r2, r2, #4
 492 00c2 23F40003 		bic	r3, r3, #8388608
 493 00c6 1360     		str	r3, [r2]
 494              	.L19:
 254:../firmware/gd32f3x0_hal_peripheral/Source/gd32f3x0_hal_smartcard.c ****     }
 255:../firmware/gd32f3x0_hal_peripheral/Source/gd32f3x0_hal_smartcard.c ****     /* configure data inversion */
 256:../firmware/gd32f3x0_hal_peripheral/Source/gd32f3x0_hal_smartcard.c ****     if(ENABLE == p_init->data_bit_invert) {
 495              		.loc 1 256 24
 496 00c8 7B68     		ldr	r3, [r7, #4]
 497 00ca 93F84430 		ldrb	r3, [r3, #68]	@ zero_extendqisi2
 498              		.loc 1 256 7
 499 00ce 012B     		cmp	r3, #1
 500 00d0 08D1     		bne	.L20
 257:../firmware/gd32f3x0_hal_peripheral/Source/gd32f3x0_hal_smartcard.c ****         USART_CTL1(periph) |= USART_CTL1_DINV;
 501              		.loc 1 257 28
 502 00d2 BB68     		ldr	r3, [r7, #8]
 503 00d4 0433     		adds	r3, r3, #4
 504 00d6 1B68     		ldr	r3, [r3]
 505 00d8 BA68     		ldr	r2, [r7, #8]
 506 00da 0432     		adds	r2, r2, #4
 507 00dc 43F48023 		orr	r3, r3, #262144
 508 00e0 1360     		str	r3, [r2]
 509 00e2 07E0     		b	.L21
 510              	.L20:
 258:../firmware/gd32f3x0_hal_peripheral/Source/gd32f3x0_hal_smartcard.c ****     } else {
 259:../firmware/gd32f3x0_hal_peripheral/Source/gd32f3x0_hal_smartcard.c ****         USART_CTL1(periph) &= ~(USART_CTL1_DINV);
 511              		.loc 1 259 28
 512 00e4 BB68     		ldr	r3, [r7, #8]
 513 00e6 0433     		adds	r3, r3, #4
 514 00e8 1B68     		ldr	r3, [r3]
 515 00ea BA68     		ldr	r2, [r7, #8]
 516 00ec 0432     		adds	r2, r2, #4
 517 00ee 23F48023 		bic	r3, r3, #262144
 518 00f2 1360     		str	r3, [r2]
 519              	.L21:
 260:../firmware/gd32f3x0_hal_peripheral/Source/gd32f3x0_hal_smartcard.c ****     }
 261:../firmware/gd32f3x0_hal_peripheral/Source/gd32f3x0_hal_smartcard.c ****     /* configure Rx pin active level inversion */
 262:../firmware/gd32f3x0_hal_peripheral/Source/gd32f3x0_hal_smartcard.c ****     if(ENABLE == p_init->rx_level_invert) {
 520              		.loc 1 262 24
 521 00f4 7B68     		ldr	r3, [r7, #4]
 522 00f6 93F84230 		ldrb	r3, [r3, #66]	@ zero_extendqisi2
 523              		.loc 1 262 7
 524 00fa 012B     		cmp	r3, #1
 525 00fc 08D1     		bne	.L22
 263:../firmware/gd32f3x0_hal_peripheral/Source/gd32f3x0_hal_smartcard.c ****         USART_CTL1(periph) |= USART_CTL1_RINV;
 526              		.loc 1 263 28
 527 00fe BB68     		ldr	r3, [r7, #8]
 528 0100 0433     		adds	r3, r3, #4
 529 0102 1B68     		ldr	r3, [r3]
 530 0104 BA68     		ldr	r2, [r7, #8]
 531 0106 0432     		adds	r2, r2, #4
 532 0108 43F48033 		orr	r3, r3, #65536
 533 010c 1360     		str	r3, [r2]
 534 010e 07E0     		b	.L23
 535              	.L22:
 264:../firmware/gd32f3x0_hal_peripheral/Source/gd32f3x0_hal_smartcard.c ****     } else {
 265:../firmware/gd32f3x0_hal_peripheral/Source/gd32f3x0_hal_smartcard.c ****         USART_CTL1(periph) &= ~(USART_CTL1_RINV);
 536              		.loc 1 265 28
 537 0110 BB68     		ldr	r3, [r7, #8]
 538 0112 0433     		adds	r3, r3, #4
 539 0114 1B68     		ldr	r3, [r3]
 540 0116 BA68     		ldr	r2, [r7, #8]
 541 0118 0432     		adds	r2, r2, #4
 542 011a 23F48033 		bic	r3, r3, #65536
 543 011e 1360     		str	r3, [r2]
 544              	.L23:
 266:../firmware/gd32f3x0_hal_peripheral/Source/gd32f3x0_hal_smartcard.c ****     }
 267:../firmware/gd32f3x0_hal_peripheral/Source/gd32f3x0_hal_smartcard.c ****     /* configure Tx pin active level inversion */
 268:../firmware/gd32f3x0_hal_peripheral/Source/gd32f3x0_hal_smartcard.c ****     if(ENABLE == p_init->tx_level_invert) {
 545              		.loc 1 268 24
 546 0120 7B68     		ldr	r3, [r7, #4]
 547 0122 93F84330 		ldrb	r3, [r3, #67]	@ zero_extendqisi2
 548              		.loc 1 268 7
 549 0126 012B     		cmp	r3, #1
 550 0128 08D1     		bne	.L24
 269:../firmware/gd32f3x0_hal_peripheral/Source/gd32f3x0_hal_smartcard.c ****         USART_CTL1(periph) |= USART_CTL1_TINV;
 551              		.loc 1 269 28
 552 012a BB68     		ldr	r3, [r7, #8]
 553 012c 0433     		adds	r3, r3, #4
 554 012e 1B68     		ldr	r3, [r3]
 555 0130 BA68     		ldr	r2, [r7, #8]
 556 0132 0432     		adds	r2, r2, #4
 557 0134 43F40033 		orr	r3, r3, #131072
 558 0138 1360     		str	r3, [r2]
 559 013a 07E0     		b	.L25
 560              	.L24:
 270:../firmware/gd32f3x0_hal_peripheral/Source/gd32f3x0_hal_smartcard.c ****     } else {
 271:../firmware/gd32f3x0_hal_peripheral/Source/gd32f3x0_hal_smartcard.c ****         USART_CTL1(periph) &= ~(USART_CTL1_TINV);
 561              		.loc 1 271 28
 562 013c BB68     		ldr	r3, [r7, #8]
 563 013e 0433     		adds	r3, r3, #4
 564 0140 1B68     		ldr	r3, [r3]
 565 0142 BA68     		ldr	r2, [r7, #8]
 566 0144 0432     		adds	r2, r2, #4
 567 0146 23F40033 		bic	r3, r3, #131072
 568 014a 1360     		str	r3, [r2]
 569              	.L25:
 272:../firmware/gd32f3x0_hal_peripheral/Source/gd32f3x0_hal_smartcard.c ****     }
 273:../firmware/gd32f3x0_hal_peripheral/Source/gd32f3x0_hal_smartcard.c ****     /* configure Rx/Tx pins swap */
 274:../firmware/gd32f3x0_hal_peripheral/Source/gd32f3x0_hal_smartcard.c ****     if(ENABLE == p_init->tx_rx_swap) {
 570              		.loc 1 274 24
 571 014c 7B68     		ldr	r3, [r7, #4]
 572 014e 93F84130 		ldrb	r3, [r3, #65]	@ zero_extendqisi2
 573              		.loc 1 274 7
 574 0152 012B     		cmp	r3, #1
 575 0154 08D1     		bne	.L26
 275:../firmware/gd32f3x0_hal_peripheral/Source/gd32f3x0_hal_smartcard.c ****         USART_CTL1(periph) |= USART_CTL1_STRP;
 576              		.loc 1 275 28
 577 0156 BB68     		ldr	r3, [r7, #8]
 578 0158 0433     		adds	r3, r3, #4
 579 015a 1B68     		ldr	r3, [r3]
 580 015c BA68     		ldr	r2, [r7, #8]
 581 015e 0432     		adds	r2, r2, #4
 582 0160 43F40043 		orr	r3, r3, #32768
 583 0164 1360     		str	r3, [r2]
 584 0166 07E0     		b	.L27
 585              	.L26:
 276:../firmware/gd32f3x0_hal_peripheral/Source/gd32f3x0_hal_smartcard.c ****     } else {
 277:../firmware/gd32f3x0_hal_peripheral/Source/gd32f3x0_hal_smartcard.c ****         USART_CTL1(periph) &= ~(USART_CTL1_STRP);
 586              		.loc 1 277 28
 587 0168 BB68     		ldr	r3, [r7, #8]
 588 016a 0433     		adds	r3, r3, #4
 589 016c 1B68     		ldr	r3, [r3]
 590 016e BA68     		ldr	r2, [r7, #8]
 591 0170 0432     		adds	r2, r2, #4
 592 0172 23F40043 		bic	r3, r3, #32768
 593 0176 1360     		str	r3, [r2]
 594              	.L27:
 278:../firmware/gd32f3x0_hal_peripheral/Source/gd32f3x0_hal_smartcard.c ****     }
 279:../firmware/gd32f3x0_hal_peripheral/Source/gd32f3x0_hal_smartcard.c ****     /* configure MSB first on communication line */
 280:../firmware/gd32f3x0_hal_peripheral/Source/gd32f3x0_hal_smartcard.c ****     if(ENABLE == p_init->first_bit_msb) {
 595              		.loc 1 280 24
 596 0178 7B68     		ldr	r3, [r7, #4]
 597 017a 93F84030 		ldrb	r3, [r3, #64]	@ zero_extendqisi2
 598              		.loc 1 280 7
 599 017e 012B     		cmp	r3, #1
 600 0180 08D1     		bne	.L28
 281:../firmware/gd32f3x0_hal_peripheral/Source/gd32f3x0_hal_smartcard.c ****         USART_CTL1(periph) |= USART_CTL1_MSBF;
 601              		.loc 1 281 28
 602 0182 BB68     		ldr	r3, [r7, #8]
 603 0184 0433     		adds	r3, r3, #4
 604 0186 1B68     		ldr	r3, [r3]
 605 0188 BA68     		ldr	r2, [r7, #8]
 606 018a 0432     		adds	r2, r2, #4
 607 018c 43F40023 		orr	r3, r3, #524288
 608 0190 1360     		str	r3, [r2]
 609 0192 07E0     		b	.L29
 610              	.L28:
 282:../firmware/gd32f3x0_hal_peripheral/Source/gd32f3x0_hal_smartcard.c ****     } else {
 283:../firmware/gd32f3x0_hal_peripheral/Source/gd32f3x0_hal_smartcard.c ****         USART_CTL1(periph) &= ~(USART_CTL1_MSBF);
 611              		.loc 1 283 28
 612 0194 BB68     		ldr	r3, [r7, #8]
 613 0196 0433     		adds	r3, r3, #4
 614 0198 1B68     		ldr	r3, [r3]
 615 019a BA68     		ldr	r2, [r7, #8]
 616 019c 0432     		adds	r2, r2, #4
 617 019e 23F40023 		bic	r3, r3, #524288
 618 01a2 1360     		str	r3, [r2]
 619              	.L29:
 284:../firmware/gd32f3x0_hal_peripheral/Source/gd32f3x0_hal_smartcard.c ****     }
 285:../firmware/gd32f3x0_hal_peripheral/Source/gd32f3x0_hal_smartcard.c **** 
 286:../firmware/gd32f3x0_hal_peripheral/Source/gd32f3x0_hal_smartcard.c ****     /* configure CTL2 register */
 287:../firmware/gd32f3x0_hal_peripheral/Source/gd32f3x0_hal_smartcard.c ****     reg_temp = USART_CTL2(periph);
 620              		.loc 1 287 16
 621 01a4 BB68     		ldr	r3, [r7, #8]
 622 01a6 0833     		adds	r3, r3, #8
 623              		.loc 1 287 14
 624 01a8 1B68     		ldr	r3, [r3]
 625 01aa 7B61     		str	r3, [r7, #20]
 288:../firmware/gd32f3x0_hal_peripheral/Source/gd32f3x0_hal_smartcard.c ****     reg_temp &= ~(USART_CTL2_OSB | USART_CTL2_NKEN | USART_CTL2_SCRTNUM);
 626              		.loc 1 288 14
 627 01ac 7B69     		ldr	r3, [r7, #20]
 628 01ae 23F46023 		bic	r3, r3, #917504
 629 01b2 23F40163 		bic	r3, r3, #2064
 630 01b6 7B61     		str	r3, [r7, #20]
 289:../firmware/gd32f3x0_hal_peripheral/Source/gd32f3x0_hal_smartcard.c ****     reg_temp |= (p_init->sample_method | p_init->nack_state | (p_init->auto_retry_count << 17U));
 631              		.loc 1 289 24
 632 01b8 7B68     		ldr	r3, [r7, #4]
 633 01ba 5A6B     		ldr	r2, [r3, #52]
 634              		.loc 1 289 48
 635 01bc 7B68     		ldr	r3, [r7, #4]
 636 01be 9B6A     		ldr	r3, [r3, #40]
 637              		.loc 1 289 40
 638 01c0 1A43     		orrs	r2, r2, r3
 639              		.loc 1 289 70
 640 01c2 7B68     		ldr	r3, [r7, #4]
 641 01c4 DB6B     		ldr	r3, [r3, #60]
 642              		.loc 1 289 89
 643 01c6 5B04     		lsls	r3, r3, #17
 644              		.loc 1 289 61
 645 01c8 1343     		orrs	r3, r3, r2
 646              		.loc 1 289 14
 647 01ca 7A69     		ldr	r2, [r7, #20]
 648 01cc 1343     		orrs	r3, r3, r2
 649 01ce 7B61     		str	r3, [r7, #20]
 290:../firmware/gd32f3x0_hal_peripheral/Source/gd32f3x0_hal_smartcard.c ****     USART_CTL2(periph) = reg_temp;
 650              		.loc 1 290 5
 651 01d0 BB68     		ldr	r3, [r7, #8]
 652 01d2 0833     		adds	r3, r3, #8
 653 01d4 1A46     		mov	r2, r3
 654              		.loc 1 290 24
 655 01d6 7B69     		ldr	r3, [r7, #20]
 656 01d8 1360     		str	r3, [r2]
 291:../firmware/gd32f3x0_hal_peripheral/Source/gd32f3x0_hal_smartcard.c ****     /* configure Rx overrun detection disabling */
 292:../firmware/gd32f3x0_hal_peripheral/Source/gd32f3x0_hal_smartcard.c ****     if(ENABLE == p_init->overrun_disable) {
 657              		.loc 1 292 24
 658 01da 7B68     		ldr	r3, [r7, #4]
 659 01dc 93F84530 		ldrb	r3, [r3, #69]	@ zero_extendqisi2
 660              		.loc 1 292 7
 661 01e0 012B     		cmp	r3, #1
 662 01e2 08D1     		bne	.L30
 293:../firmware/gd32f3x0_hal_peripheral/Source/gd32f3x0_hal_smartcard.c ****         USART_CTL2(periph) |= USART_CTL2_OVRD;
 663              		.loc 1 293 28
 664 01e4 BB68     		ldr	r3, [r7, #8]
 665 01e6 0833     		adds	r3, r3, #8
 666 01e8 1B68     		ldr	r3, [r3]
 667 01ea BA68     		ldr	r2, [r7, #8]
 668 01ec 0832     		adds	r2, r2, #8
 669 01ee 43F48053 		orr	r3, r3, #4096
 670 01f2 1360     		str	r3, [r2]
 671 01f4 07E0     		b	.L31
 672              	.L30:
 294:../firmware/gd32f3x0_hal_peripheral/Source/gd32f3x0_hal_smartcard.c ****     } else {
 295:../firmware/gd32f3x0_hal_peripheral/Source/gd32f3x0_hal_smartcard.c ****         USART_CTL2(periph) &= ~(USART_CTL2_OVRD);
 673              		.loc 1 295 28
 674 01f6 BB68     		ldr	r3, [r7, #8]
 675 01f8 0833     		adds	r3, r3, #8
 676 01fa 1B68     		ldr	r3, [r3]
 677 01fc BA68     		ldr	r2, [r7, #8]
 678 01fe 0832     		adds	r2, r2, #8
 679 0200 23F48053 		bic	r3, r3, #4096
 680 0204 1360     		str	r3, [r2]
 681              	.L31:
 296:../firmware/gd32f3x0_hal_peripheral/Source/gd32f3x0_hal_smartcard.c ****     }
 297:../firmware/gd32f3x0_hal_peripheral/Source/gd32f3x0_hal_smartcard.c **** 
 298:../firmware/gd32f3x0_hal_peripheral/Source/gd32f3x0_hal_smartcard.c ****     /* configure DMA disabling on reception error */
 299:../firmware/gd32f3x0_hal_peripheral/Source/gd32f3x0_hal_smartcard.c ****     if(ENABLE == p_init->rx_error_dma_stop) {
 682              		.loc 1 299 24
 683 0206 7B68     		ldr	r3, [r7, #4]
 684 0208 93F84630 		ldrb	r3, [r3, #70]	@ zero_extendqisi2
 685              		.loc 1 299 7
 686 020c 012B     		cmp	r3, #1
 687 020e 08D1     		bne	.L32
 300:../firmware/gd32f3x0_hal_peripheral/Source/gd32f3x0_hal_smartcard.c ****         USART_CTL2(periph) |= USART_CTL2_DDRE;
 688              		.loc 1 300 28
 689 0210 BB68     		ldr	r3, [r7, #8]
 690 0212 0833     		adds	r3, r3, #8
 691 0214 1B68     		ldr	r3, [r3]
 692 0216 BA68     		ldr	r2, [r7, #8]
 693 0218 0832     		adds	r2, r2, #8
 694 021a 43F40053 		orr	r3, r3, #8192
 695 021e 1360     		str	r3, [r2]
 696 0220 07E0     		b	.L33
 697              	.L32:
 301:../firmware/gd32f3x0_hal_peripheral/Source/gd32f3x0_hal_smartcard.c ****     } else {
 302:../firmware/gd32f3x0_hal_peripheral/Source/gd32f3x0_hal_smartcard.c ****         USART_CTL2(periph) &= ~(USART_CTL2_DDRE);
 698              		.loc 1 302 28
 699 0222 BB68     		ldr	r3, [r7, #8]
 700 0224 0833     		adds	r3, r3, #8
 701 0226 1B68     		ldr	r3, [r3]
 702 0228 BA68     		ldr	r2, [r7, #8]
 703 022a 0832     		adds	r2, r2, #8
 704 022c 23F40053 		bic	r3, r3, #8192
 705 0230 1360     		str	r3, [r2]
 706              	.L33:
 303:../firmware/gd32f3x0_hal_peripheral/Source/gd32f3x0_hal_smartcard.c ****     }
 304:../firmware/gd32f3x0_hal_peripheral/Source/gd32f3x0_hal_smartcard.c **** 
 305:../firmware/gd32f3x0_hal_peripheral/Source/gd32f3x0_hal_smartcard.c ****     /* configure GP register */
 306:../firmware/gd32f3x0_hal_peripheral/Source/gd32f3x0_hal_smartcard.c ****     reg_temp = USART_GP(periph);
 707              		.loc 1 306 16
 708 0232 BB68     		ldr	r3, [r7, #8]
 709 0234 1033     		adds	r3, r3, #16
 710              		.loc 1 306 14
 711 0236 1B68     		ldr	r3, [r3]
 712 0238 7B61     		str	r3, [r7, #20]
 307:../firmware/gd32f3x0_hal_peripheral/Source/gd32f3x0_hal_smartcard.c ****     reg_temp &= ~(USART_GP_PSC | USART_GP_GUAT);
 713              		.loc 1 307 14
 714 023a 7B69     		ldr	r3, [r7, #20]
 715 023c 1B0C     		lsrs	r3, r3, #16
 716 023e 1B04     		lsls	r3, r3, #16
 717 0240 7B61     		str	r3, [r7, #20]
 308:../firmware/gd32f3x0_hal_peripheral/Source/gd32f3x0_hal_smartcard.c ****     reg_temp |= ((p_init->guard_time << 8U) | (p_init->prescaler));
 718              		.loc 1 308 25
 719 0242 7B68     		ldr	r3, [r7, #4]
 720 0244 5B6A     		ldr	r3, [r3, #36]
 721              		.loc 1 308 38
 722 0246 1A02     		lsls	r2, r3, #8
 723              		.loc 1 308 54
 724 0248 7B68     		ldr	r3, [r7, #4]
 725 024a 1B6A     		ldr	r3, [r3, #32]
 726              		.loc 1 308 45
 727 024c 1343     		orrs	r3, r3, r2
 728              		.loc 1 308 14
 729 024e 7A69     		ldr	r2, [r7, #20]
 730 0250 1343     		orrs	r3, r3, r2
 731 0252 7B61     		str	r3, [r7, #20]
 309:../firmware/gd32f3x0_hal_peripheral/Source/gd32f3x0_hal_smartcard.c ****     USART_GP(periph) = reg_temp;
 732              		.loc 1 309 5
 733 0254 BB68     		ldr	r3, [r7, #8]
 734 0256 1033     		adds	r3, r3, #16
 735 0258 1A46     		mov	r2, r3
 736              		.loc 1 309 22
 737 025a 7B69     		ldr	r3, [r7, #20]
 738 025c 1360     		str	r3, [r2]
 310:../firmware/gd32f3x0_hal_peripheral/Source/gd32f3x0_hal_smartcard.c **** 
 311:../firmware/gd32f3x0_hal_peripheral/Source/gd32f3x0_hal_smartcard.c ****     /* configure RT register */
 312:../firmware/gd32f3x0_hal_peripheral/Source/gd32f3x0_hal_smartcard.c ****     reg_temp = USART_RT(periph);
 739              		.loc 1 312 16
 740 025e BB68     		ldr	r3, [r7, #8]
 741 0260 1433     		adds	r3, r3, #20
 742              		.loc 1 312 14
 743 0262 1B68     		ldr	r3, [r3]
 744 0264 7B61     		str	r3, [r7, #20]
 313:../firmware/gd32f3x0_hal_peripheral/Source/gd32f3x0_hal_smartcard.c ****     reg_temp &= ~(USART_RT_RT | USART_RT_BL);
 745              		.loc 1 313 14
 746 0266 0023     		movs	r3, #0
 747 0268 7B61     		str	r3, [r7, #20]
 314:../firmware/gd32f3x0_hal_peripheral/Source/gd32f3x0_hal_smartcard.c ****     reg_temp |= ((p_init->block_length << 24U));
 748              		.loc 1 314 25
 749 026a 7B68     		ldr	r3, [r7, #4]
 750 026c 9B6B     		ldr	r3, [r3, #56]
 751              		.loc 1 314 40
 752 026e 1B06     		lsls	r3, r3, #24
 753              		.loc 1 314 14
 754 0270 7A69     		ldr	r2, [r7, #20]
 755 0272 1343     		orrs	r3, r3, r2
 756 0274 7B61     		str	r3, [r7, #20]
 315:../firmware/gd32f3x0_hal_peripheral/Source/gd32f3x0_hal_smartcard.c ****     if(ENABLE == p_init->timeout_enable) {
 757              		.loc 1 315 24
 758 0276 7B68     		ldr	r3, [r7, #4]
 759 0278 93F82E30 		ldrb	r3, [r3, #46]	@ zero_extendqisi2
 760              		.loc 1 315 7
 761 027c 012B     		cmp	r3, #1
 762 027e 04D1     		bne	.L34
 316:../firmware/gd32f3x0_hal_peripheral/Source/gd32f3x0_hal_smartcard.c ****         reg_temp |= p_init->timeout_value;
 763              		.loc 1 316 27
 764 0280 7B68     		ldr	r3, [r7, #4]
 765 0282 1B6B     		ldr	r3, [r3, #48]
 766              		.loc 1 316 18
 767 0284 7A69     		ldr	r2, [r7, #20]
 768 0286 1343     		orrs	r3, r3, r2
 769 0288 7B61     		str	r3, [r7, #20]
 770              	.L34:
 317:../firmware/gd32f3x0_hal_peripheral/Source/gd32f3x0_hal_smartcard.c ****     }
 318:../firmware/gd32f3x0_hal_peripheral/Source/gd32f3x0_hal_smartcard.c ****     USART_RT(periph) = reg_temp;
 771              		.loc 1 318 5
 772 028a BB68     		ldr	r3, [r7, #8]
 773 028c 1433     		adds	r3, r3, #20
 774 028e 1A46     		mov	r2, r3
 775              		.loc 1 318 22
 776 0290 7B69     		ldr	r3, [r7, #20]
 777 0292 1360     		str	r3, [r2]
 319:../firmware/gd32f3x0_hal_peripheral/Source/gd32f3x0_hal_smartcard.c **** 
 320:../firmware/gd32f3x0_hal_peripheral/Source/gd32f3x0_hal_smartcard.c ****     /* configure RFCS register */
 321:../firmware/gd32f3x0_hal_peripheral/Source/gd32f3x0_hal_smartcard.c ****     if(ENABLE == p_init->early_nack) {
 778              		.loc 1 321 24
 779 0294 7B68     		ldr	r3, [r7, #4]
 780 0296 93F82C30 		ldrb	r3, [r3, #44]	@ zero_extendqisi2
 781              		.loc 1 321 7
 782 029a 012B     		cmp	r3, #1
 783 029c 08D1     		bne	.L35
 322:../firmware/gd32f3x0_hal_peripheral/Source/gd32f3x0_hal_smartcard.c ****         USART_RFCS(periph) |= USART_RFCS_ELNACK;
 784              		.loc 1 322 28
 785 029e BB68     		ldr	r3, [r7, #8]
 786 02a0 D033     		adds	r3, r3, #208
 787 02a2 1B68     		ldr	r3, [r3]
 788 02a4 BA68     		ldr	r2, [r7, #8]
 789 02a6 D032     		adds	r2, r2, #208
 790 02a8 43F00103 		orr	r3, r3, #1
 791 02ac 1360     		str	r3, [r2]
 792 02ae 07E0     		b	.L36
 793              	.L35:
 323:../firmware/gd32f3x0_hal_peripheral/Source/gd32f3x0_hal_smartcard.c ****     } else {
 324:../firmware/gd32f3x0_hal_peripheral/Source/gd32f3x0_hal_smartcard.c ****         USART_RFCS(periph) &= ~USART_RFCS_ELNACK;
 794              		.loc 1 324 28
 795 02b0 BB68     		ldr	r3, [r7, #8]
 796 02b2 D033     		adds	r3, r3, #208
 797 02b4 1B68     		ldr	r3, [r3]
 798 02b6 BA68     		ldr	r2, [r7, #8]
 799 02b8 D032     		adds	r2, r2, #208
 800 02ba 23F00103 		bic	r3, r3, #1
 801 02be 1360     		str	r3, [r2]
 802              	.L36:
 325:../firmware/gd32f3x0_hal_peripheral/Source/gd32f3x0_hal_smartcard.c ****     }
 326:../firmware/gd32f3x0_hal_peripheral/Source/gd32f3x0_hal_smartcard.c ****     if(ENABLE == p_init->rx_fifo_en) {
 803              		.loc 1 326 24
 804 02c0 7B68     		ldr	r3, [r7, #4]
 805 02c2 93F82D30 		ldrb	r3, [r3, #45]	@ zero_extendqisi2
 806              		.loc 1 326 7
 807 02c6 012B     		cmp	r3, #1
 808 02c8 08D1     		bne	.L37
 327:../firmware/gd32f3x0_hal_peripheral/Source/gd32f3x0_hal_smartcard.c ****         USART_RFCS(periph) |= USART_RFCS_RFEN;
 809              		.loc 1 327 28
 810 02ca BB68     		ldr	r3, [r7, #8]
 811 02cc D033     		adds	r3, r3, #208
 812 02ce 1B68     		ldr	r3, [r3]
 813 02d0 BA68     		ldr	r2, [r7, #8]
 814 02d2 D032     		adds	r2, r2, #208
 815 02d4 43F48073 		orr	r3, r3, #256
 816 02d8 1360     		str	r3, [r2]
 817 02da 07E0     		b	.L38
 818              	.L37:
 328:../firmware/gd32f3x0_hal_peripheral/Source/gd32f3x0_hal_smartcard.c ****     } else {
 329:../firmware/gd32f3x0_hal_peripheral/Source/gd32f3x0_hal_smartcard.c ****         USART_RFCS(periph) &= ~USART_RFCS_RFEN;
 819              		.loc 1 329 28
 820 02dc BB68     		ldr	r3, [r7, #8]
 821 02de D033     		adds	r3, r3, #208
 822 02e0 1B68     		ldr	r3, [r3]
 823 02e2 BA68     		ldr	r2, [r7, #8]
 824 02e4 D032     		adds	r2, r2, #208
 825 02e6 23F48073 		bic	r3, r3, #256
 826 02ea 1360     		str	r3, [r2]
 827              	.L38:
 330:../firmware/gd32f3x0_hal_peripheral/Source/gd32f3x0_hal_smartcard.c ****     }
 331:../firmware/gd32f3x0_hal_peripheral/Source/gd32f3x0_hal_smartcard.c **** 
 332:../firmware/gd32f3x0_hal_peripheral/Source/gd32f3x0_hal_smartcard.c ****     /* configure baud rate */
 333:../firmware/gd32f3x0_hal_peripheral/Source/gd32f3x0_hal_smartcard.c ****     hals_smartcard_baudrate_set(periph, p_init->baudrate);
 828              		.loc 1 333 5
 829 02ec 7B68     		ldr	r3, [r7, #4]
 830 02ee 1B68     		ldr	r3, [r3]
 831 02f0 1946     		mov	r1, r3
 832 02f2 B868     		ldr	r0, [r7, #8]
 833 02f4 FFF7FEFF 		bl	hals_smartcard_baudrate_set
 334:../firmware/gd32f3x0_hal_peripheral/Source/gd32f3x0_hal_smartcard.c **** 
 335:../firmware/gd32f3x0_hal_peripheral/Source/gd32f3x0_hal_smartcard.c ****     /* clear LMEN, HDEN, IREN */
 336:../firmware/gd32f3x0_hal_peripheral/Source/gd32f3x0_hal_smartcard.c ****     hals_uart_halfduplex_disable(periph);
 834              		.loc 1 336 5
 835 02f8 B868     		ldr	r0, [r7, #8]
 836 02fa FFF7FEFF 		bl	hals_uart_halfduplex_disable
 337:../firmware/gd32f3x0_hal_peripheral/Source/gd32f3x0_hal_smartcard.c ****     hals_irda_mode_disable(periph);
 837              		.loc 1 337 5
 838 02fe B868     		ldr	r0, [r7, #8]
 839 0300 FFF7FEFF 		bl	hals_irda_mode_disable
 338:../firmware/gd32f3x0_hal_peripheral/Source/gd32f3x0_hal_smartcard.c ****     hals_uart_lin_mode_disable(periph);
 840              		.loc 1 338 5
 841 0304 B868     		ldr	r0, [r7, #8]
 842 0306 FFF7FEFF 		bl	hals_uart_lin_mode_disable
 339:../firmware/gd32f3x0_hal_peripheral/Source/gd32f3x0_hal_smartcard.c **** 
 340:../firmware/gd32f3x0_hal_peripheral/Source/gd32f3x0_hal_smartcard.c ****     /* enable smartcard */
 341:../firmware/gd32f3x0_hal_peripheral/Source/gd32f3x0_hal_smartcard.c ****     hals_smartcard_mode_enable(periph);
 843              		.loc 1 341 5
 844 030a B868     		ldr	r0, [r7, #8]
 845 030c FFF7FEFF 		bl	hals_smartcard_mode_enable
 342:../firmware/gd32f3x0_hal_peripheral/Source/gd32f3x0_hal_smartcard.c **** 
 343:../firmware/gd32f3x0_hal_peripheral/Source/gd32f3x0_hal_smartcard.c ****     /* initialize Tx and Rx state */
 344:../firmware/gd32f3x0_hal_peripheral/Source/gd32f3x0_hal_smartcard.c ****     smartcard->tx_state = SMARTCARD_STATE_FREE;
 846              		.loc 1 344 25
 847 0310 FB68     		ldr	r3, [r7, #12]
 848 0312 0022     		movs	r2, #0
 849 0314 83F83820 		strb	r2, [r3, #56]
 345:../firmware/gd32f3x0_hal_peripheral/Source/gd32f3x0_hal_smartcard.c ****     smartcard->rx_state = SMARTCARD_STATE_FREE;
 850              		.loc 1 345 25
 851 0318 FB68     		ldr	r3, [r7, #12]
 852 031a 0022     		movs	r2, #0
 853 031c 83F83920 		strb	r2, [r3, #57]
 346:../firmware/gd32f3x0_hal_peripheral/Source/gd32f3x0_hal_smartcard.c **** 
 347:../firmware/gd32f3x0_hal_peripheral/Source/gd32f3x0_hal_smartcard.c ****     /* enable usart */
 348:../firmware/gd32f3x0_hal_peripheral/Source/gd32f3x0_hal_smartcard.c ****     hals_smartcard_enable(smartcard->periph);
 854              		.loc 1 348 5
 855 0320 FB68     		ldr	r3, [r7, #12]
 856 0322 1B68     		ldr	r3, [r3]
 857 0324 1846     		mov	r0, r3
 858 0326 FFF7FEFF 		bl	hals_smartcard_enable
 349:../firmware/gd32f3x0_hal_peripheral/Source/gd32f3x0_hal_smartcard.c **** 
 350:../firmware/gd32f3x0_hal_peripheral/Source/gd32f3x0_hal_smartcard.c ****     /* unlock smartcard */
 351:../firmware/gd32f3x0_hal_peripheral/Source/gd32f3x0_hal_smartcard.c ****     HAL_UNLOCK(smartcard);
 859              		.loc 1 351 5
 860 032a FB68     		ldr	r3, [r7, #12]
 861 032c 0022     		movs	r2, #0
 862 032e 83F84420 		strb	r2, [r3, #68]
 352:../firmware/gd32f3x0_hal_peripheral/Source/gd32f3x0_hal_smartcard.c **** 
 353:../firmware/gd32f3x0_hal_peripheral/Source/gd32f3x0_hal_smartcard.c ****     return HAL_ERR_NONE;
 863              		.loc 1 353 12
 864 0332 0023     		movs	r3, #0
 865              	.L17:
 354:../firmware/gd32f3x0_hal_peripheral/Source/gd32f3x0_hal_smartcard.c **** }
 866              		.loc 1 354 1
 867 0334 1846     		mov	r0, r3
 868 0336 1837     		adds	r7, r7, #24
 869              		.cfi_def_cfa_offset 8
 870 0338 BD46     		mov	sp, r7
 871              		.cfi_def_cfa_register 13
 872              		@ sp needed
 873 033a 80BD     		pop	{r7, pc}
 874              		.cfi_endproc
 875              	.LFE121:
 877              		.section	.text.hal_smartcard_irq,"ax",%progbits
 878              		.align	1
 879              		.global	hal_smartcard_irq
 880              		.syntax unified
 881              		.thumb
 882              		.thumb_func
 883              		.fpu softvfp
 885              	hal_smartcard_irq:
 886              	.LFB122:
 355:../firmware/gd32f3x0_hal_peripheral/Source/gd32f3x0_hal_smartcard.c **** 
 356:../firmware/gd32f3x0_hal_peripheral/Source/gd32f3x0_hal_smartcard.c **** /*!
 357:../firmware/gd32f3x0_hal_peripheral/Source/gd32f3x0_hal_smartcard.c ****     \brief      smartcard interrupt handler content function,which is merely used in smartcard_hand
 358:../firmware/gd32f3x0_hal_peripheral/Source/gd32f3x0_hal_smartcard.c ****     \param[in]  smartcard: smartcard device information structure
 359:../firmware/gd32f3x0_hal_peripheral/Source/gd32f3x0_hal_smartcard.c ****                     the structure is not necessary to be reconfigured after structrue initializatio
 360:../firmware/gd32f3x0_hal_peripheral/Source/gd32f3x0_hal_smartcard.c ****                     the structure parameters altering is automatically configured by core
 361:../firmware/gd32f3x0_hal_peripheral/Source/gd32f3x0_hal_smartcard.c ****     \param[out] none
 362:../firmware/gd32f3x0_hal_peripheral/Source/gd32f3x0_hal_smartcard.c ****     \retval     none
 363:../firmware/gd32f3x0_hal_peripheral/Source/gd32f3x0_hal_smartcard.c **** */
 364:../firmware/gd32f3x0_hal_peripheral/Source/gd32f3x0_hal_smartcard.c **** void hal_smartcard_irq(hal_smartcard_dev_struct *smartcard)
 365:../firmware/gd32f3x0_hal_peripheral/Source/gd32f3x0_hal_smartcard.c **** {
 887              		.loc 1 365 1
 888              		.cfi_startproc
 889              		@ args = 0, pretend = 0, frame = 8
 890              		@ frame_needed = 1, uses_anonymous_args = 0
 891 0000 80B5     		push	{r7, lr}
 892              		.cfi_def_cfa_offset 8
 893              		.cfi_offset 7, -8
 894              		.cfi_offset 14, -4
 895 0002 82B0     		sub	sp, sp, #8
 896              		.cfi_def_cfa_offset 16
 897 0004 00AF     		add	r7, sp, #0
 898              		.cfi_def_cfa_register 7
 899 0006 7860     		str	r0, [r7, #4]
 366:../firmware/gd32f3x0_hal_peripheral/Source/gd32f3x0_hal_smartcard.c ****     /* if no error occurs */
 367:../firmware/gd32f3x0_hal_peripheral/Source/gd32f3x0_hal_smartcard.c ****     if(RESET == _smartcard_error_flag_get(smartcard)) {
 900              		.loc 1 367 17
 901 0008 7868     		ldr	r0, [r7, #4]
 902 000a FFF7FEFF 		bl	_smartcard_error_flag_get
 903 000e 0346     		mov	r3, r0
 904              		.loc 1 367 7
 905 0010 002B     		cmp	r3, #0
 906 0012 13D1     		bne	.L40
 368:../firmware/gd32f3x0_hal_peripheral/Source/gd32f3x0_hal_smartcard.c ****         /* if SMARTCARD is in receiver mode */
 369:../firmware/gd32f3x0_hal_peripheral/Source/gd32f3x0_hal_smartcard.c ****         if(RESET != hals_smartcard_interrupt_flag_get(smartcard->periph, USART_INT_FLAG_RBNE)) {
 907              		.loc 1 369 21
 908 0014 7B68     		ldr	r3, [r7, #4]
 909 0016 1B68     		ldr	r3, [r3]
 910 0018 7949     		ldr	r1, .L58
 911 001a 1846     		mov	r0, r3
 912 001c FFF7FEFF 		bl	hals_smartcard_interrupt_flag_get
 913 0020 0346     		mov	r3, r0
 914              		.loc 1 369 11
 915 0022 002B     		cmp	r3, #0
 916 0024 00F0B880 		beq	.L41
 370:../firmware/gd32f3x0_hal_peripheral/Source/gd32f3x0_hal_smartcard.c ****             if(NULL != smartcard->smartcard_irq.receive_complete_handle) {
 917              		.loc 1 370 48
 918 0028 7B68     		ldr	r3, [r7, #4]
 919 002a 5B68     		ldr	r3, [r3, #4]
 920              		.loc 1 370 15
 921 002c 002B     		cmp	r3, #0
 922 002e 00F0DD80 		beq	.L54
 371:../firmware/gd32f3x0_hal_peripheral/Source/gd32f3x0_hal_smartcard.c ****                 smartcard->smartcard_irq.receive_complete_handle(smartcard);
 923              		.loc 1 371 41
 924 0032 7B68     		ldr	r3, [r7, #4]
 925 0034 5B68     		ldr	r3, [r3, #4]
 926              		.loc 1 371 17
 927 0036 7868     		ldr	r0, [r7, #4]
 928 0038 9847     		blx	r3
 929              	.LVL0:
 372:../firmware/gd32f3x0_hal_peripheral/Source/gd32f3x0_hal_smartcard.c ****             }
 373:../firmware/gd32f3x0_hal_peripheral/Source/gd32f3x0_hal_smartcard.c ****             return;
 930              		.loc 1 373 13
 931 003a D7E0     		b	.L54
 932              	.L40:
 374:../firmware/gd32f3x0_hal_peripheral/Source/gd32f3x0_hal_smartcard.c ****         }
 375:../firmware/gd32f3x0_hal_peripheral/Source/gd32f3x0_hal_smartcard.c **** 
 376:../firmware/gd32f3x0_hal_peripheral/Source/gd32f3x0_hal_smartcard.c ****         /* if some errors occur */
 377:../firmware/gd32f3x0_hal_peripheral/Source/gd32f3x0_hal_smartcard.c ****     } else {
 378:../firmware/gd32f3x0_hal_peripheral/Source/gd32f3x0_hal_smartcard.c ****         /* smartcard parity error interrupt occurred */
 379:../firmware/gd32f3x0_hal_peripheral/Source/gd32f3x0_hal_smartcard.c ****         if(RESET != hals_smartcard_interrupt_flag_get(smartcard->periph, USART_INT_FLAG_PERR)) {
 933              		.loc 1 379 21
 934 003c 7B68     		ldr	r3, [r7, #4]
 935 003e 1B68     		ldr	r3, [r3]
 936 0040 7049     		ldr	r1, .L58+4
 937 0042 1846     		mov	r0, r3
 938 0044 FFF7FEFF 		bl	hals_smartcard_interrupt_flag_get
 939 0048 0346     		mov	r3, r0
 940              		.loc 1 379 11
 941 004a 002B     		cmp	r3, #0
 942 004c 10D0     		beq	.L44
 380:../firmware/gd32f3x0_hal_peripheral/Source/gd32f3x0_hal_smartcard.c ****             hals_smartcard_interrupt_flag_clear(smartcard->periph, USART_INT_FLAG_PERR);
 943              		.loc 1 380 13
 944 004e 7B68     		ldr	r3, [r7, #4]
 945 0050 1B68     		ldr	r3, [r3]
 946 0052 6C49     		ldr	r1, .L58+4
 947 0054 1846     		mov	r0, r3
 948 0056 FFF7FEFF 		bl	hals_smartcard_interrupt_flag_clear
 381:../firmware/gd32f3x0_hal_peripheral/Source/gd32f3x0_hal_smartcard.c ****             smartcard->error_state |= HAL_SMARTCARD_ERROR_PERR;
 949              		.loc 1 381 36
 950 005a 7B68     		ldr	r3, [r7, #4]
 951 005c DB8E     		ldrh	r3, [r3, #54]	@ movhi
 952 005e 9BB2     		uxth	r3, r3
 953 0060 43F00103 		orr	r3, r3, #1
 954 0064 9AB2     		uxth	r2, r3
 955 0066 7B68     		ldr	r3, [r7, #4]
 956 0068 DA86     		strh	r2, [r3, #54]	@ movhi
 382:../firmware/gd32f3x0_hal_peripheral/Source/gd32f3x0_hal_smartcard.c ****             smartcard->last_error = HAL_SMARTCARD_ERROR_PERR;
 957              		.loc 1 382 35
 958 006a 7B68     		ldr	r3, [r7, #4]
 959 006c 0122     		movs	r2, #1
 960 006e 9A86     		strh	r2, [r3, #52]	@ movhi
 961              	.L44:
 383:../firmware/gd32f3x0_hal_peripheral/Source/gd32f3x0_hal_smartcard.c ****         }
 384:../firmware/gd32f3x0_hal_peripheral/Source/gd32f3x0_hal_smartcard.c **** 
 385:../firmware/gd32f3x0_hal_peripheral/Source/gd32f3x0_hal_smartcard.c ****         /* smartcard noise error interrupt occurred */
 386:../firmware/gd32f3x0_hal_peripheral/Source/gd32f3x0_hal_smartcard.c ****         if(RESET != hals_smartcard_interrupt_flag_get(smartcard->periph, USART_INT_FLAG_ERR_NERR)) 
 962              		.loc 1 386 21
 963 0070 7B68     		ldr	r3, [r7, #4]
 964 0072 1B68     		ldr	r3, [r3]
 965 0074 6449     		ldr	r1, .L58+8
 966 0076 1846     		mov	r0, r3
 967 0078 FFF7FEFF 		bl	hals_smartcard_interrupt_flag_get
 968 007c 0346     		mov	r3, r0
 969              		.loc 1 386 11
 970 007e 002B     		cmp	r3, #0
 971 0080 10D0     		beq	.L45
 387:../firmware/gd32f3x0_hal_peripheral/Source/gd32f3x0_hal_smartcard.c ****             hals_smartcard_interrupt_flag_clear(smartcard->periph, USART_INT_FLAG_ERR_NERR);
 972              		.loc 1 387 13
 973 0082 7B68     		ldr	r3, [r7, #4]
 974 0084 1B68     		ldr	r3, [r3]
 975 0086 6049     		ldr	r1, .L58+8
 976 0088 1846     		mov	r0, r3
 977 008a FFF7FEFF 		bl	hals_smartcard_interrupt_flag_clear
 388:../firmware/gd32f3x0_hal_peripheral/Source/gd32f3x0_hal_smartcard.c ****             smartcard->error_state |= HAL_SMARTCARD_ERROR_NERR;
 978              		.loc 1 388 36
 979 008e 7B68     		ldr	r3, [r7, #4]
 980 0090 DB8E     		ldrh	r3, [r3, #54]	@ movhi
 981 0092 9BB2     		uxth	r3, r3
 982 0094 43F00203 		orr	r3, r3, #2
 983 0098 9AB2     		uxth	r2, r3
 984 009a 7B68     		ldr	r3, [r7, #4]
 985 009c DA86     		strh	r2, [r3, #54]	@ movhi
 389:../firmware/gd32f3x0_hal_peripheral/Source/gd32f3x0_hal_smartcard.c ****             smartcard->last_error = HAL_SMARTCARD_ERROR_NERR;
 986              		.loc 1 389 35
 987 009e 7B68     		ldr	r3, [r7, #4]
 988 00a0 0222     		movs	r2, #2
 989 00a2 9A86     		strh	r2, [r3, #52]	@ movhi
 990              	.L45:
 390:../firmware/gd32f3x0_hal_peripheral/Source/gd32f3x0_hal_smartcard.c ****         }
 391:../firmware/gd32f3x0_hal_peripheral/Source/gd32f3x0_hal_smartcard.c **** 
 392:../firmware/gd32f3x0_hal_peripheral/Source/gd32f3x0_hal_smartcard.c ****         /* smartcard frame error interrupt occurred */
 393:../firmware/gd32f3x0_hal_peripheral/Source/gd32f3x0_hal_smartcard.c ****         if(RESET != hals_smartcard_interrupt_flag_get(smartcard->periph, USART_INT_FLAG_ERR_FERR)) 
 991              		.loc 1 393 21
 992 00a4 7B68     		ldr	r3, [r7, #4]
 993 00a6 1B68     		ldr	r3, [r3]
 994 00a8 5849     		ldr	r1, .L58+12
 995 00aa 1846     		mov	r0, r3
 996 00ac FFF7FEFF 		bl	hals_smartcard_interrupt_flag_get
 997 00b0 0346     		mov	r3, r0
 998              		.loc 1 393 11
 999 00b2 002B     		cmp	r3, #0
 1000 00b4 10D0     		beq	.L46
 394:../firmware/gd32f3x0_hal_peripheral/Source/gd32f3x0_hal_smartcard.c ****             hals_smartcard_interrupt_flag_clear(smartcard->periph, USART_INT_FLAG_ERR_FERR);
 1001              		.loc 1 394 13
 1002 00b6 7B68     		ldr	r3, [r7, #4]
 1003 00b8 1B68     		ldr	r3, [r3]
 1004 00ba 5449     		ldr	r1, .L58+12
 1005 00bc 1846     		mov	r0, r3
 1006 00be FFF7FEFF 		bl	hals_smartcard_interrupt_flag_clear
 395:../firmware/gd32f3x0_hal_peripheral/Source/gd32f3x0_hal_smartcard.c ****             smartcard->error_state |= HAL_SMARTCARD_ERROR_FERR;
 1007              		.loc 1 395 36
 1008 00c2 7B68     		ldr	r3, [r7, #4]
 1009 00c4 DB8E     		ldrh	r3, [r3, #54]	@ movhi
 1010 00c6 9BB2     		uxth	r3, r3
 1011 00c8 43F00403 		orr	r3, r3, #4
 1012 00cc 9AB2     		uxth	r2, r3
 1013 00ce 7B68     		ldr	r3, [r7, #4]
 1014 00d0 DA86     		strh	r2, [r3, #54]	@ movhi
 396:../firmware/gd32f3x0_hal_peripheral/Source/gd32f3x0_hal_smartcard.c ****             smartcard->last_error = HAL_SMARTCARD_ERROR_FERR;
 1015              		.loc 1 396 35
 1016 00d2 7B68     		ldr	r3, [r7, #4]
 1017 00d4 0422     		movs	r2, #4
 1018 00d6 9A86     		strh	r2, [r3, #52]	@ movhi
 1019              	.L46:
 397:../firmware/gd32f3x0_hal_peripheral/Source/gd32f3x0_hal_smartcard.c ****         }
 398:../firmware/gd32f3x0_hal_peripheral/Source/gd32f3x0_hal_smartcard.c **** 
 399:../firmware/gd32f3x0_hal_peripheral/Source/gd32f3x0_hal_smartcard.c ****         /* smartcard overrun interrupt occurred */
 400:../firmware/gd32f3x0_hal_peripheral/Source/gd32f3x0_hal_smartcard.c ****         if(RESET != hals_smartcard_interrupt_flag_get(smartcard->periph, USART_INT_FLAG_ERR_ORERR))
 1020              		.loc 1 400 21
 1021 00d8 7B68     		ldr	r3, [r7, #4]
 1022 00da 1B68     		ldr	r3, [r3]
 1023 00dc 4C49     		ldr	r1, .L58+16
 1024 00de 1846     		mov	r0, r3
 1025 00e0 FFF7FEFF 		bl	hals_smartcard_interrupt_flag_get
 1026 00e4 0346     		mov	r3, r0
 1027              		.loc 1 400 11
 1028 00e6 002B     		cmp	r3, #0
 1029 00e8 10D0     		beq	.L47
 401:../firmware/gd32f3x0_hal_peripheral/Source/gd32f3x0_hal_smartcard.c ****             hals_smartcard_interrupt_flag_clear(smartcard->periph, USART_INT_FLAG_ERR_ORERR);
 1030              		.loc 1 401 13
 1031 00ea 7B68     		ldr	r3, [r7, #4]
 1032 00ec 1B68     		ldr	r3, [r3]
 1033 00ee 4849     		ldr	r1, .L58+16
 1034 00f0 1846     		mov	r0, r3
 1035 00f2 FFF7FEFF 		bl	hals_smartcard_interrupt_flag_clear
 402:../firmware/gd32f3x0_hal_peripheral/Source/gd32f3x0_hal_smartcard.c ****             smartcard->error_state |= HAL_SMARTCARD_ERROR_ORERR;
 1036              		.loc 1 402 36
 1037 00f6 7B68     		ldr	r3, [r7, #4]
 1038 00f8 DB8E     		ldrh	r3, [r3, #54]	@ movhi
 1039 00fa 9BB2     		uxth	r3, r3
 1040 00fc 43F00803 		orr	r3, r3, #8
 1041 0100 9AB2     		uxth	r2, r3
 1042 0102 7B68     		ldr	r3, [r7, #4]
 1043 0104 DA86     		strh	r2, [r3, #54]	@ movhi
 403:../firmware/gd32f3x0_hal_peripheral/Source/gd32f3x0_hal_smartcard.c ****             smartcard->last_error = HAL_SMARTCARD_ERROR_ORERR;
 1044              		.loc 1 403 35
 1045 0106 7B68     		ldr	r3, [r7, #4]
 1046 0108 0822     		movs	r2, #8
 1047 010a 9A86     		strh	r2, [r3, #52]	@ movhi
 1048              	.L47:
 404:../firmware/gd32f3x0_hal_peripheral/Source/gd32f3x0_hal_smartcard.c ****         }
 405:../firmware/gd32f3x0_hal_peripheral/Source/gd32f3x0_hal_smartcard.c **** 
 406:../firmware/gd32f3x0_hal_peripheral/Source/gd32f3x0_hal_smartcard.c ****         /* smartcard read data buffer not empty and overrun error overrun interrupt occurred */
 407:../firmware/gd32f3x0_hal_peripheral/Source/gd32f3x0_hal_smartcard.c ****         if(RESET != hals_smartcard_interrupt_flag_get(smartcard->periph, USART_INT_FLAG_RBNE_ORERR)
 1049              		.loc 1 407 21
 1050 010c 7B68     		ldr	r3, [r7, #4]
 1051 010e 1B68     		ldr	r3, [r3]
 1052 0110 4049     		ldr	r1, .L58+20
 1053 0112 1846     		mov	r0, r3
 1054 0114 FFF7FEFF 		bl	hals_smartcard_interrupt_flag_get
 1055 0118 0346     		mov	r3, r0
 1056              		.loc 1 407 11
 1057 011a 002B     		cmp	r3, #0
 1058 011c 10D0     		beq	.L48
 408:../firmware/gd32f3x0_hal_peripheral/Source/gd32f3x0_hal_smartcard.c ****             hals_smartcard_interrupt_flag_clear(smartcard->periph, USART_INT_FLAG_RBNE_ORERR);
 1059              		.loc 1 408 13
 1060 011e 7B68     		ldr	r3, [r7, #4]
 1061 0120 1B68     		ldr	r3, [r3]
 1062 0122 3C49     		ldr	r1, .L58+20
 1063 0124 1846     		mov	r0, r3
 1064 0126 FFF7FEFF 		bl	hals_smartcard_interrupt_flag_clear
 409:../firmware/gd32f3x0_hal_peripheral/Source/gd32f3x0_hal_smartcard.c ****             smartcard->error_state |= HAL_SMARTCARD_ERROR_ORERR;
 1065              		.loc 1 409 36
 1066 012a 7B68     		ldr	r3, [r7, #4]
 1067 012c DB8E     		ldrh	r3, [r3, #54]	@ movhi
 1068 012e 9BB2     		uxth	r3, r3
 1069 0130 43F00803 		orr	r3, r3, #8
 1070 0134 9AB2     		uxth	r2, r3
 1071 0136 7B68     		ldr	r3, [r7, #4]
 1072 0138 DA86     		strh	r2, [r3, #54]	@ movhi
 410:../firmware/gd32f3x0_hal_peripheral/Source/gd32f3x0_hal_smartcard.c ****             smartcard->last_error = HAL_SMARTCARD_ERROR_ORERR;
 1073              		.loc 1 410 35
 1074 013a 7B68     		ldr	r3, [r7, #4]
 1075 013c 0822     		movs	r2, #8
 1076 013e 9A86     		strh	r2, [r3, #52]	@ movhi
 1077              	.L48:
 411:../firmware/gd32f3x0_hal_peripheral/Source/gd32f3x0_hal_smartcard.c ****         }
 412:../firmware/gd32f3x0_hal_peripheral/Source/gd32f3x0_hal_smartcard.c **** 
 413:../firmware/gd32f3x0_hal_peripheral/Source/gd32f3x0_hal_smartcard.c ****         /* smartcard receiver timeout interrupt occurred */
 414:../firmware/gd32f3x0_hal_peripheral/Source/gd32f3x0_hal_smartcard.c ****         if(RESET != hals_smartcard_interrupt_flag_get(smartcard->periph, USART_INT_FLAG_RT)) {
 1078              		.loc 1 414 21
 1079 0140 7B68     		ldr	r3, [r7, #4]
 1080 0142 1B68     		ldr	r3, [r3]
 1081 0144 3449     		ldr	r1, .L58+24
 1082 0146 1846     		mov	r0, r3
 1083 0148 FFF7FEFF 		bl	hals_smartcard_interrupt_flag_get
 1084 014c 0346     		mov	r3, r0
 1085              		.loc 1 414 11
 1086 014e 002B     		cmp	r3, #0
 1087 0150 11D0     		beq	.L49
 415:../firmware/gd32f3x0_hal_peripheral/Source/gd32f3x0_hal_smartcard.c ****             hals_smartcard_interrupt_flag_clear(smartcard->periph, USART_INT_FLAG_RT);
 1088              		.loc 1 415 13
 1089 0152 7B68     		ldr	r3, [r7, #4]
 1090 0154 1B68     		ldr	r3, [r3]
 1091 0156 3049     		ldr	r1, .L58+24
 1092 0158 1846     		mov	r0, r3
 1093 015a FFF7FEFF 		bl	hals_smartcard_interrupt_flag_clear
 416:../firmware/gd32f3x0_hal_peripheral/Source/gd32f3x0_hal_smartcard.c ****             smartcard->error_state |= HAL_SMARTCARD_ERROR_RTF;
 1094              		.loc 1 416 36
 1095 015e 7B68     		ldr	r3, [r7, #4]
 1096 0160 DB8E     		ldrh	r3, [r3, #54]	@ movhi
 1097 0162 9BB2     		uxth	r3, r3
 1098 0164 43F40063 		orr	r3, r3, #2048
 1099 0168 9AB2     		uxth	r2, r3
 1100 016a 7B68     		ldr	r3, [r7, #4]
 1101 016c DA86     		strh	r2, [r3, #54]	@ movhi
 417:../firmware/gd32f3x0_hal_peripheral/Source/gd32f3x0_hal_smartcard.c ****             smartcard->last_error = HAL_SMARTCARD_ERROR_RTF;
 1102              		.loc 1 417 35
 1103 016e 7B68     		ldr	r3, [r7, #4]
 1104 0170 4FF40062 		mov	r2, #2048
 1105 0174 9A86     		strh	r2, [r3, #52]	@ movhi
 1106              	.L49:
 418:../firmware/gd32f3x0_hal_peripheral/Source/gd32f3x0_hal_smartcard.c ****         }
 419:../firmware/gd32f3x0_hal_peripheral/Source/gd32f3x0_hal_smartcard.c **** 
 420:../firmware/gd32f3x0_hal_peripheral/Source/gd32f3x0_hal_smartcard.c ****         if(HAL_SMARTCARD_ERROR_NONE != smartcard->error_state) {
 1107              		.loc 1 420 49
 1108 0176 7B68     		ldr	r3, [r7, #4]
 1109 0178 DB8E     		ldrh	r3, [r3, #54]	@ movhi
 1110 017a 9BB2     		uxth	r3, r3
 1111              		.loc 1 420 11
 1112 017c 002B     		cmp	r3, #0
 1113 017e 0BD0     		beq	.L41
 421:../firmware/gd32f3x0_hal_peripheral/Source/gd32f3x0_hal_smartcard.c ****             /* call error callback  */
 422:../firmware/gd32f3x0_hal_peripheral/Source/gd32f3x0_hal_smartcard.c ****             if(NULL != smartcard->smartcard_irq.error_handle) {
 1114              		.loc 1 422 48
 1115 0180 7B68     		ldr	r3, [r7, #4]
 1116 0182 1B69     		ldr	r3, [r3, #16]
 1117              		.loc 1 422 15
 1118 0184 002B     		cmp	r3, #0
 1119 0186 33D0     		beq	.L55
 423:../firmware/gd32f3x0_hal_peripheral/Source/gd32f3x0_hal_smartcard.c ****                 smartcard->smartcard_irq.error_handle(smartcard);
 1120              		.loc 1 423 41
 1121 0188 7B68     		ldr	r3, [r7, #4]
 1122 018a 1B69     		ldr	r3, [r3, #16]
 1123              		.loc 1 423 17
 1124 018c 7868     		ldr	r0, [r7, #4]
 1125 018e 9847     		blx	r3
 1126              	.LVL1:
 424:../firmware/gd32f3x0_hal_peripheral/Source/gd32f3x0_hal_smartcard.c ****                 smartcard->error_state = HAL_SMARTCARD_ERROR_NONE;
 1127              		.loc 1 424 40
 1128 0190 7B68     		ldr	r3, [r7, #4]
 1129 0192 0022     		movs	r2, #0
 1130 0194 DA86     		strh	r2, [r3, #54]	@ movhi
 425:../firmware/gd32f3x0_hal_peripheral/Source/gd32f3x0_hal_smartcard.c ****             }
 426:../firmware/gd32f3x0_hal_peripheral/Source/gd32f3x0_hal_smartcard.c ****             return;
 1131              		.loc 1 426 13
 1132 0196 2BE0     		b	.L55
 1133              	.L41:
 427:../firmware/gd32f3x0_hal_peripheral/Source/gd32f3x0_hal_smartcard.c ****         }
 428:../firmware/gd32f3x0_hal_peripheral/Source/gd32f3x0_hal_smartcard.c ****     }
 429:../firmware/gd32f3x0_hal_peripheral/Source/gd32f3x0_hal_smartcard.c **** 
 430:../firmware/gd32f3x0_hal_peripheral/Source/gd32f3x0_hal_smartcard.c ****     /* transmitter buffer empty interrupt handle */
 431:../firmware/gd32f3x0_hal_peripheral/Source/gd32f3x0_hal_smartcard.c ****     if(RESET != hals_smartcard_interrupt_flag_get(smartcard->periph, USART_INT_FLAG_TBE)) {
 1134              		.loc 1 431 17
 1135 0198 7B68     		ldr	r3, [r7, #4]
 1136 019a 1B68     		ldr	r3, [r3]
 1137 019c 1F49     		ldr	r1, .L58+28
 1138 019e 1846     		mov	r0, r3
 1139 01a0 FFF7FEFF 		bl	hals_smartcard_interrupt_flag_get
 1140 01a4 0346     		mov	r3, r0
 1141              		.loc 1 431 7
 1142 01a6 002B     		cmp	r3, #0
 1143 01a8 08D0     		beq	.L51
 432:../firmware/gd32f3x0_hal_peripheral/Source/gd32f3x0_hal_smartcard.c ****         if(smartcard->smartcard_irq.transmit_ready_handle != NULL) {
 1144              		.loc 1 432 36
 1145 01aa 7B68     		ldr	r3, [r7, #4]
 1146 01ac 9B68     		ldr	r3, [r3, #8]
 1147              		.loc 1 432 11
 1148 01ae 002B     		cmp	r3, #0
 1149 01b0 20D0     		beq	.L56
 433:../firmware/gd32f3x0_hal_peripheral/Source/gd32f3x0_hal_smartcard.c ****             smartcard->smartcard_irq.transmit_ready_handle(smartcard);
 1150              		.loc 1 433 37
 1151 01b2 7B68     		ldr	r3, [r7, #4]
 1152 01b4 9B68     		ldr	r3, [r3, #8]
 1153              		.loc 1 433 13
 1154 01b6 7868     		ldr	r0, [r7, #4]
 1155 01b8 9847     		blx	r3
 1156              	.LVL2:
 434:../firmware/gd32f3x0_hal_peripheral/Source/gd32f3x0_hal_smartcard.c ****         }
 435:../firmware/gd32f3x0_hal_peripheral/Source/gd32f3x0_hal_smartcard.c **** 
 436:../firmware/gd32f3x0_hal_peripheral/Source/gd32f3x0_hal_smartcard.c ****         return;
 1157              		.loc 1 436 9
 1158 01ba 1BE0     		b	.L56
 1159              	.L51:
 437:../firmware/gd32f3x0_hal_peripheral/Source/gd32f3x0_hal_smartcard.c ****     }
 438:../firmware/gd32f3x0_hal_peripheral/Source/gd32f3x0_hal_smartcard.c **** 
 439:../firmware/gd32f3x0_hal_peripheral/Source/gd32f3x0_hal_smartcard.c ****     /* transmission complete interrupt handle */
 440:../firmware/gd32f3x0_hal_peripheral/Source/gd32f3x0_hal_smartcard.c ****     if(RESET != hals_smartcard_interrupt_flag_get(smartcard->periph, USART_INT_FLAG_TC)) {
 1160              		.loc 1 440 17
 1161 01bc 7B68     		ldr	r3, [r7, #4]
 1162 01be 1B68     		ldr	r3, [r3]
 1163 01c0 1749     		ldr	r1, .L58+32
 1164 01c2 1846     		mov	r0, r3
 1165 01c4 FFF7FEFF 		bl	hals_smartcard_interrupt_flag_get
 1166 01c8 0346     		mov	r3, r0
 1167              		.loc 1 440 7
 1168 01ca 002B     		cmp	r3, #0
 1169 01cc 15D0     		beq	.L39
 441:../firmware/gd32f3x0_hal_peripheral/Source/gd32f3x0_hal_smartcard.c ****         hals_smartcard_interrupt_flag_clear(smartcard->periph, USART_INT_FLAG_TC);
 1170              		.loc 1 441 9
 1171 01ce 7B68     		ldr	r3, [r7, #4]
 1172 01d0 1B68     		ldr	r3, [r3]
 1173 01d2 1349     		ldr	r1, .L58+32
 1174 01d4 1846     		mov	r0, r3
 1175 01d6 FFF7FEFF 		bl	hals_smartcard_interrupt_flag_clear
 442:../firmware/gd32f3x0_hal_peripheral/Source/gd32f3x0_hal_smartcard.c **** 
 443:../firmware/gd32f3x0_hal_peripheral/Source/gd32f3x0_hal_smartcard.c ****         if(NULL != smartcard->smartcard_irq.transmit_complete_handle) {
 1176              		.loc 1 443 44
 1177 01da 7B68     		ldr	r3, [r7, #4]
 1178 01dc DB68     		ldr	r3, [r3, #12]
 1179              		.loc 1 443 11
 1180 01de 002B     		cmp	r3, #0
 1181 01e0 0AD0     		beq	.L57
 444:../firmware/gd32f3x0_hal_peripheral/Source/gd32f3x0_hal_smartcard.c ****             smartcard->smartcard_irq.transmit_complete_handle(smartcard);
 1182              		.loc 1 444 37
 1183 01e2 7B68     		ldr	r3, [r7, #4]
 1184 01e4 DB68     		ldr	r3, [r3, #12]
 1185              		.loc 1 444 13
 1186 01e6 7868     		ldr	r0, [r7, #4]
 1187 01e8 9847     		blx	r3
 1188              	.LVL3:
 445:../firmware/gd32f3x0_hal_peripheral/Source/gd32f3x0_hal_smartcard.c ****         }
 446:../firmware/gd32f3x0_hal_peripheral/Source/gd32f3x0_hal_smartcard.c **** 
 447:../firmware/gd32f3x0_hal_peripheral/Source/gd32f3x0_hal_smartcard.c ****         return;
 1189              		.loc 1 447 9
 1190 01ea 05E0     		b	.L57
 1191              	.L54:
 373:../firmware/gd32f3x0_hal_peripheral/Source/gd32f3x0_hal_smartcard.c ****         }
 1192              		.loc 1 373 13
 1193 01ec 00BF     		nop
 1194 01ee 04E0     		b	.L39
 1195              	.L55:
 426:../firmware/gd32f3x0_hal_peripheral/Source/gd32f3x0_hal_smartcard.c ****         }
 1196              		.loc 1 426 13
 1197 01f0 00BF     		nop
 1198 01f2 02E0     		b	.L39
 1199              	.L56:
 436:../firmware/gd32f3x0_hal_peripheral/Source/gd32f3x0_hal_smartcard.c ****     }
 1200              		.loc 1 436 9
 1201 01f4 00BF     		nop
 1202 01f6 00E0     		b	.L39
 1203              	.L57:
 1204              		.loc 1 447 9
 1205 01f8 00BF     		nop
 1206              	.L39:
 448:../firmware/gd32f3x0_hal_peripheral/Source/gd32f3x0_hal_smartcard.c ****     }
 449:../firmware/gd32f3x0_hal_peripheral/Source/gd32f3x0_hal_smartcard.c **** }
 1207              		.loc 1 449 1
 1208 01fa 0837     		adds	r7, r7, #8
 1209              		.cfi_def_cfa_offset 8
 1210 01fc BD46     		mov	sp, r7
 1211              		.cfi_def_cfa_register 13
 1212              		@ sp needed
 1213 01fe 80BD     		pop	{r7, pc}
 1214              	.L59:
 1215              		.align	2
 1216              	.L58:
 1217 0200 05000507 		.word	117768197
 1218 0204 08000007 		.word	117440520
 1219 0208 00020207 		.word	117572096
 1220 020c 00020107 		.word	117506560
 1221 0210 00020307 		.word	117637632
 1222 0214 05000307 		.word	117637125
 1223 0218 1A000B07 		.word	118161434
 1224 021c 07000707 		.word	117899271
 1225 0220 06000607 		.word	117833734
 1226              		.cfi_endproc
 1227              	.LFE122:
 1229              		.section	.text.hal_smartcard_irq_handle_set,"ax",%progbits
 1230              		.align	1
 1231              		.global	hal_smartcard_irq_handle_set
 1232              		.syntax unified
 1233              		.thumb
 1234              		.thumb_func
 1235              		.fpu softvfp
 1237              	hal_smartcard_irq_handle_set:
 1238              	.LFB123:
 450:../firmware/gd32f3x0_hal_peripheral/Source/gd32f3x0_hal_smartcard.c **** 
 451:../firmware/gd32f3x0_hal_peripheral/Source/gd32f3x0_hal_smartcard.c **** /*!
 452:../firmware/gd32f3x0_hal_peripheral/Source/gd32f3x0_hal_smartcard.c ****     \brief      set user-defined interrupt callback function
 453:../firmware/gd32f3x0_hal_peripheral/Source/gd32f3x0_hal_smartcard.c ****     \param[in]  smartcard: smartcard device information structure
 454:../firmware/gd32f3x0_hal_peripheral/Source/gd32f3x0_hal_smartcard.c ****                     the structure is not necessary to be reconfigured after structrue initializatio
 455:../firmware/gd32f3x0_hal_peripheral/Source/gd32f3x0_hal_smartcard.c ****                     the structure parameters altering is automatically configured by core
 456:../firmware/gd32f3x0_hal_peripheral/Source/gd32f3x0_hal_smartcard.c ****     \param[in]  p_irq: smartcard interrupt callback function pointer
 457:../firmware/gd32f3x0_hal_peripheral/Source/gd32f3x0_hal_smartcard.c ****     \param[out] none
 458:../firmware/gd32f3x0_hal_peripheral/Source/gd32f3x0_hal_smartcard.c ****     \retval     none
 459:../firmware/gd32f3x0_hal_peripheral/Source/gd32f3x0_hal_smartcard.c **** */
 460:../firmware/gd32f3x0_hal_peripheral/Source/gd32f3x0_hal_smartcard.c **** void hal_smartcard_irq_handle_set(hal_smartcard_dev_struct *smartcard, hal_smartcard_irq_struct *p_
 461:../firmware/gd32f3x0_hal_peripheral/Source/gd32f3x0_hal_smartcard.c **** {
 1239              		.loc 1 461 1
 1240              		.cfi_startproc
 1241              		@ args = 0, pretend = 0, frame = 8
 1242              		@ frame_needed = 1, uses_anonymous_args = 0
 1243 0000 80B5     		push	{r7, lr}
 1244              		.cfi_def_cfa_offset 8
 1245              		.cfi_offset 7, -8
 1246              		.cfi_offset 14, -4
 1247 0002 82B0     		sub	sp, sp, #8
 1248              		.cfi_def_cfa_offset 16
 1249 0004 00AF     		add	r7, sp, #0
 1250              		.cfi_def_cfa_register 7
 1251 0006 7860     		str	r0, [r7, #4]
 1252 0008 3960     		str	r1, [r7]
 462:../firmware/gd32f3x0_hal_peripheral/Source/gd32f3x0_hal_smartcard.c ****     /* initialize smartcard error callback */
 463:../firmware/gd32f3x0_hal_peripheral/Source/gd32f3x0_hal_smartcard.c ****     if(NULL != p_irq->error_handle) {
 1253              		.loc 1 463 21
 1254 000a 3B68     		ldr	r3, [r7]
 1255 000c DB68     		ldr	r3, [r3, #12]
 1256              		.loc 1 463 7
 1257 000e 002B     		cmp	r3, #0
 1258 0010 11D0     		beq	.L61
 464:../firmware/gd32f3x0_hal_peripheral/Source/gd32f3x0_hal_smartcard.c ****         smartcard->smartcard_irq.error_handle = p_irq->error_handle;
 1259              		.loc 1 464 54
 1260 0012 3B68     		ldr	r3, [r7]
 1261 0014 DA68     		ldr	r2, [r3, #12]
 1262              		.loc 1 464 47
 1263 0016 7B68     		ldr	r3, [r7, #4]
 1264 0018 1A61     		str	r2, [r3, #16]
 465:../firmware/gd32f3x0_hal_peripheral/Source/gd32f3x0_hal_smartcard.c ****         hals_smartcard_interrupt_enable(smartcard->periph, USART_INT_ERR);
 1265              		.loc 1 465 9
 1266 001a 7B68     		ldr	r3, [r7, #4]
 1267 001c 1B68     		ldr	r3, [r3]
 1268 001e 4FF40071 		mov	r1, #512
 1269 0022 1846     		mov	r0, r3
 1270 0024 FFF7FEFF 		bl	hals_smartcard_interrupt_enable
 466:../firmware/gd32f3x0_hal_peripheral/Source/gd32f3x0_hal_smartcard.c ****         hals_smartcard_interrupt_enable(smartcard->periph, USART_INT_PERR);
 1271              		.loc 1 466 9
 1272 0028 7B68     		ldr	r3, [r7, #4]
 1273 002a 1B68     		ldr	r3, [r3]
 1274 002c 0821     		movs	r1, #8
 1275 002e 1846     		mov	r0, r3
 1276 0030 FFF7FEFF 		bl	hals_smartcard_interrupt_enable
 1277 0034 0FE0     		b	.L62
 1278              	.L61:
 467:../firmware/gd32f3x0_hal_peripheral/Source/gd32f3x0_hal_smartcard.c ****     } else {
 468:../firmware/gd32f3x0_hal_peripheral/Source/gd32f3x0_hal_smartcard.c ****         smartcard->smartcard_irq.error_handle = NULL;
 1279              		.loc 1 468 47
 1280 0036 7B68     		ldr	r3, [r7, #4]
 1281 0038 0022     		movs	r2, #0
 1282 003a 1A61     		str	r2, [r3, #16]
 469:../firmware/gd32f3x0_hal_peripheral/Source/gd32f3x0_hal_smartcard.c ****         hals_smartcard_interrupt_disable(smartcard->periph, USART_INT_ERR);
 1283              		.loc 1 469 9
 1284 003c 7B68     		ldr	r3, [r7, #4]
 1285 003e 1B68     		ldr	r3, [r3]
 1286 0040 4FF40071 		mov	r1, #512
 1287 0044 1846     		mov	r0, r3
 1288 0046 FFF7FEFF 		bl	hals_smartcard_interrupt_disable
 470:../firmware/gd32f3x0_hal_peripheral/Source/gd32f3x0_hal_smartcard.c ****         hals_smartcard_interrupt_disable(smartcard->periph, USART_INT_PERR);
 1289              		.loc 1 470 9
 1290 004a 7B68     		ldr	r3, [r7, #4]
 1291 004c 1B68     		ldr	r3, [r3]
 1292 004e 0821     		movs	r1, #8
 1293 0050 1846     		mov	r0, r3
 1294 0052 FFF7FEFF 		bl	hals_smartcard_interrupt_disable
 1295              	.L62:
 471:../firmware/gd32f3x0_hal_peripheral/Source/gd32f3x0_hal_smartcard.c ****     }
 472:../firmware/gd32f3x0_hal_peripheral/Source/gd32f3x0_hal_smartcard.c **** 
 473:../firmware/gd32f3x0_hal_peripheral/Source/gd32f3x0_hal_smartcard.c ****     /* initialize smartcard receive completed callback */
 474:../firmware/gd32f3x0_hal_peripheral/Source/gd32f3x0_hal_smartcard.c ****     if(NULL != p_irq->receive_complete_handle) {
 1296              		.loc 1 474 21
 1297 0056 3B68     		ldr	r3, [r7]
 1298 0058 1B68     		ldr	r3, [r3]
 1299              		.loc 1 474 7
 1300 005a 002B     		cmp	r3, #0
 1301 005c 0AD0     		beq	.L63
 475:../firmware/gd32f3x0_hal_peripheral/Source/gd32f3x0_hal_smartcard.c ****         smartcard->smartcard_irq.receive_complete_handle = p_irq->receive_complete_handle;
 1302              		.loc 1 475 65
 1303 005e 3B68     		ldr	r3, [r7]
 1304 0060 1A68     		ldr	r2, [r3]
 1305              		.loc 1 475 58
 1306 0062 7B68     		ldr	r3, [r7, #4]
 1307 0064 5A60     		str	r2, [r3, #4]
 476:../firmware/gd32f3x0_hal_peripheral/Source/gd32f3x0_hal_smartcard.c ****         hals_smartcard_interrupt_enable(smartcard->periph, USART_INT_RBNE);
 1308              		.loc 1 476 9
 1309 0066 7B68     		ldr	r3, [r7, #4]
 1310 0068 1B68     		ldr	r3, [r3]
 1311 006a 0521     		movs	r1, #5
 1312 006c 1846     		mov	r0, r3
 1313 006e FFF7FEFF 		bl	hals_smartcard_interrupt_enable
 1314 0072 08E0     		b	.L64
 1315              	.L63:
 477:../firmware/gd32f3x0_hal_peripheral/Source/gd32f3x0_hal_smartcard.c ****     } else {
 478:../firmware/gd32f3x0_hal_peripheral/Source/gd32f3x0_hal_smartcard.c ****         smartcard->smartcard_irq.receive_complete_handle = NULL;
 1316              		.loc 1 478 58
 1317 0074 7B68     		ldr	r3, [r7, #4]
 1318 0076 0022     		movs	r2, #0
 1319 0078 5A60     		str	r2, [r3, #4]
 479:../firmware/gd32f3x0_hal_peripheral/Source/gd32f3x0_hal_smartcard.c ****         hals_smartcard_interrupt_disable(smartcard->periph, USART_INT_RBNE);
 1320              		.loc 1 479 9
 1321 007a 7B68     		ldr	r3, [r7, #4]
 1322 007c 1B68     		ldr	r3, [r3]
 1323 007e 0521     		movs	r1, #5
 1324 0080 1846     		mov	r0, r3
 1325 0082 FFF7FEFF 		bl	hals_smartcard_interrupt_disable
 1326              	.L64:
 480:../firmware/gd32f3x0_hal_peripheral/Source/gd32f3x0_hal_smartcard.c ****     }
 481:../firmware/gd32f3x0_hal_peripheral/Source/gd32f3x0_hal_smartcard.c **** 
 482:../firmware/gd32f3x0_hal_peripheral/Source/gd32f3x0_hal_smartcard.c ****     /* initialize smartcard transmit completed callback */
 483:../firmware/gd32f3x0_hal_peripheral/Source/gd32f3x0_hal_smartcard.c ****     if(NULL != p_irq->transmit_complete_handle) {
 1327              		.loc 1 483 21
 1328 0086 3B68     		ldr	r3, [r7]
 1329 0088 9B68     		ldr	r3, [r3, #8]
 1330              		.loc 1 483 7
 1331 008a 002B     		cmp	r3, #0
 1332 008c 0AD0     		beq	.L65
 484:../firmware/gd32f3x0_hal_peripheral/Source/gd32f3x0_hal_smartcard.c ****         smartcard->smartcard_irq.transmit_complete_handle = p_irq->transmit_complete_handle;
 1333              		.loc 1 484 66
 1334 008e 3B68     		ldr	r3, [r7]
 1335 0090 9A68     		ldr	r2, [r3, #8]
 1336              		.loc 1 484 59
 1337 0092 7B68     		ldr	r3, [r7, #4]
 1338 0094 DA60     		str	r2, [r3, #12]
 485:../firmware/gd32f3x0_hal_peripheral/Source/gd32f3x0_hal_smartcard.c ****         hals_smartcard_interrupt_enable(smartcard->periph, USART_INT_TC);
 1339              		.loc 1 485 9
 1340 0096 7B68     		ldr	r3, [r7, #4]
 1341 0098 1B68     		ldr	r3, [r3]
 1342 009a 0621     		movs	r1, #6
 1343 009c 1846     		mov	r0, r3
 1344 009e FFF7FEFF 		bl	hals_smartcard_interrupt_enable
 1345 00a2 08E0     		b	.L66
 1346              	.L65:
 486:../firmware/gd32f3x0_hal_peripheral/Source/gd32f3x0_hal_smartcard.c ****     } else {
 487:../firmware/gd32f3x0_hal_peripheral/Source/gd32f3x0_hal_smartcard.c ****         smartcard->smartcard_irq.transmit_complete_handle = NULL;
 1347              		.loc 1 487 59
 1348 00a4 7B68     		ldr	r3, [r7, #4]
 1349 00a6 0022     		movs	r2, #0
 1350 00a8 DA60     		str	r2, [r3, #12]
 488:../firmware/gd32f3x0_hal_peripheral/Source/gd32f3x0_hal_smartcard.c ****         hals_smartcard_interrupt_disable(smartcard->periph, USART_INT_TC);
 1351              		.loc 1 488 9
 1352 00aa 7B68     		ldr	r3, [r7, #4]
 1353 00ac 1B68     		ldr	r3, [r3]
 1354 00ae 0621     		movs	r1, #6
 1355 00b0 1846     		mov	r0, r3
 1356 00b2 FFF7FEFF 		bl	hals_smartcard_interrupt_disable
 1357              	.L66:
 489:../firmware/gd32f3x0_hal_peripheral/Source/gd32f3x0_hal_smartcard.c ****     }
 490:../firmware/gd32f3x0_hal_peripheral/Source/gd32f3x0_hal_smartcard.c **** 
 491:../firmware/gd32f3x0_hal_peripheral/Source/gd32f3x0_hal_smartcard.c ****     /* initialize smartcard transmit ready callback */
 492:../firmware/gd32f3x0_hal_peripheral/Source/gd32f3x0_hal_smartcard.c ****     if(NULL != p_irq->transmit_ready_handle) {
 1358              		.loc 1 492 21
 1359 00b6 3B68     		ldr	r3, [r7]
 1360 00b8 5B68     		ldr	r3, [r3, #4]
 1361              		.loc 1 492 7
 1362 00ba 002B     		cmp	r3, #0
 1363 00bc 0AD0     		beq	.L67
 493:../firmware/gd32f3x0_hal_peripheral/Source/gd32f3x0_hal_smartcard.c ****         smartcard->smartcard_irq.transmit_ready_handle = p_irq->transmit_ready_handle;
 1364              		.loc 1 493 63
 1365 00be 3B68     		ldr	r3, [r7]
 1366 00c0 5A68     		ldr	r2, [r3, #4]
 1367              		.loc 1 493 56
 1368 00c2 7B68     		ldr	r3, [r7, #4]
 1369 00c4 9A60     		str	r2, [r3, #8]
 494:../firmware/gd32f3x0_hal_peripheral/Source/gd32f3x0_hal_smartcard.c ****         hals_smartcard_interrupt_enable(smartcard->periph, USART_INT_TBE);
 1370              		.loc 1 494 9
 1371 00c6 7B68     		ldr	r3, [r7, #4]
 1372 00c8 1B68     		ldr	r3, [r3]
 1373 00ca 0721     		movs	r1, #7
 1374 00cc 1846     		mov	r0, r3
 1375 00ce FFF7FEFF 		bl	hals_smartcard_interrupt_enable
 495:../firmware/gd32f3x0_hal_peripheral/Source/gd32f3x0_hal_smartcard.c ****     } else {
 496:../firmware/gd32f3x0_hal_peripheral/Source/gd32f3x0_hal_smartcard.c ****         smartcard->smartcard_irq.transmit_ready_handle = NULL;
 497:../firmware/gd32f3x0_hal_peripheral/Source/gd32f3x0_hal_smartcard.c ****         hals_smartcard_interrupt_disable(smartcard->periph, USART_INT_TBE);
 498:../firmware/gd32f3x0_hal_peripheral/Source/gd32f3x0_hal_smartcard.c ****     }
 499:../firmware/gd32f3x0_hal_peripheral/Source/gd32f3x0_hal_smartcard.c **** }
 1376              		.loc 1 499 1
 1377 00d2 08E0     		b	.L69
 1378              	.L67:
 496:../firmware/gd32f3x0_hal_peripheral/Source/gd32f3x0_hal_smartcard.c ****         hals_smartcard_interrupt_disable(smartcard->periph, USART_INT_TBE);
 1379              		.loc 1 496 56
 1380 00d4 7B68     		ldr	r3, [r7, #4]
 1381 00d6 0022     		movs	r2, #0
 1382 00d8 9A60     		str	r2, [r3, #8]
 497:../firmware/gd32f3x0_hal_peripheral/Source/gd32f3x0_hal_smartcard.c ****     }
 1383              		.loc 1 497 9
 1384 00da 7B68     		ldr	r3, [r7, #4]
 1385 00dc 1B68     		ldr	r3, [r3]
 1386 00de 0721     		movs	r1, #7
 1387 00e0 1846     		mov	r0, r3
 1388 00e2 FFF7FEFF 		bl	hals_smartcard_interrupt_disable
 1389              	.L69:
 1390              		.loc 1 499 1
 1391 00e6 00BF     		nop
 1392 00e8 0837     		adds	r7, r7, #8
 1393              		.cfi_def_cfa_offset 8
 1394 00ea BD46     		mov	sp, r7
 1395              		.cfi_def_cfa_register 13
 1396              		@ sp needed
 1397 00ec 80BD     		pop	{r7, pc}
 1398              		.cfi_endproc
 1399              	.LFE123:
 1401              		.section	.text.hal_smartcard_irq_handle_all_reset,"ax",%progbits
 1402              		.align	1
 1403              		.global	hal_smartcard_irq_handle_all_reset
 1404              		.syntax unified
 1405              		.thumb
 1406              		.thumb_func
 1407              		.fpu softvfp
 1409              	hal_smartcard_irq_handle_all_reset:
 1410              	.LFB124:
 500:../firmware/gd32f3x0_hal_peripheral/Source/gd32f3x0_hal_smartcard.c **** 
 501:../firmware/gd32f3x0_hal_peripheral/Source/gd32f3x0_hal_smartcard.c **** /*!
 502:../firmware/gd32f3x0_hal_peripheral/Source/gd32f3x0_hal_smartcard.c ****     \brief      reset all user-defined interrupt callback function
 503:../firmware/gd32f3x0_hal_peripheral/Source/gd32f3x0_hal_smartcard.c ****     \param[in]  smartcard: smartcard device information structure
 504:../firmware/gd32f3x0_hal_peripheral/Source/gd32f3x0_hal_smartcard.c ****                     the structure is not necessary to be reconfigured after structrue initializatio
 505:../firmware/gd32f3x0_hal_peripheral/Source/gd32f3x0_hal_smartcard.c ****                     the structure parameters altering is automatically configured by core
 506:../firmware/gd32f3x0_hal_peripheral/Source/gd32f3x0_hal_smartcard.c ****     \param[out] none
 507:../firmware/gd32f3x0_hal_peripheral/Source/gd32f3x0_hal_smartcard.c ****     \retval     none
 508:../firmware/gd32f3x0_hal_peripheral/Source/gd32f3x0_hal_smartcard.c **** */
 509:../firmware/gd32f3x0_hal_peripheral/Source/gd32f3x0_hal_smartcard.c **** void hal_smartcard_irq_handle_all_reset(hal_smartcard_dev_struct *smartcard)
 510:../firmware/gd32f3x0_hal_peripheral/Source/gd32f3x0_hal_smartcard.c **** {
 1411              		.loc 1 510 1
 1412              		.cfi_startproc
 1413              		@ args = 0, pretend = 0, frame = 8
 1414              		@ frame_needed = 1, uses_anonymous_args = 0
 1415              		@ link register save eliminated.
 1416 0000 80B4     		push	{r7}
 1417              		.cfi_def_cfa_offset 4
 1418              		.cfi_offset 7, -4
 1419 0002 83B0     		sub	sp, sp, #12
 1420              		.cfi_def_cfa_offset 16
 1421 0004 00AF     		add	r7, sp, #0
 1422              		.cfi_def_cfa_register 7
 1423 0006 7860     		str	r0, [r7, #4]
 511:../firmware/gd32f3x0_hal_peripheral/Source/gd32f3x0_hal_smartcard.c ****     /* configure interrupt callback function to NULL */
 512:../firmware/gd32f3x0_hal_peripheral/Source/gd32f3x0_hal_smartcard.c ****     smartcard->smartcard_irq.error_handle = NULL;
 1424              		.loc 1 512 43
 1425 0008 7B68     		ldr	r3, [r7, #4]
 1426 000a 0022     		movs	r2, #0
 1427 000c 1A61     		str	r2, [r3, #16]
 513:../firmware/gd32f3x0_hal_peripheral/Source/gd32f3x0_hal_smartcard.c ****     smartcard->smartcard_irq.receive_complete_handle = NULL;
 1428              		.loc 1 513 54
 1429 000e 7B68     		ldr	r3, [r7, #4]
 1430 0010 0022     		movs	r2, #0
 1431 0012 5A60     		str	r2, [r3, #4]
 514:../firmware/gd32f3x0_hal_peripheral/Source/gd32f3x0_hal_smartcard.c ****     smartcard->smartcard_irq.transmit_complete_handle = NULL;
 1432              		.loc 1 514 55
 1433 0014 7B68     		ldr	r3, [r7, #4]
 1434 0016 0022     		movs	r2, #0
 1435 0018 DA60     		str	r2, [r3, #12]
 515:../firmware/gd32f3x0_hal_peripheral/Source/gd32f3x0_hal_smartcard.c ****     smartcard->smartcard_irq.transmit_ready_handle = NULL;
 1436              		.loc 1 515 52
 1437 001a 7B68     		ldr	r3, [r7, #4]
 1438 001c 0022     		movs	r2, #0
 1439 001e 9A60     		str	r2, [r3, #8]
 516:../firmware/gd32f3x0_hal_peripheral/Source/gd32f3x0_hal_smartcard.c **** }
 1440              		.loc 1 516 1
 1441 0020 00BF     		nop
 1442 0022 0C37     		adds	r7, r7, #12
 1443              		.cfi_def_cfa_offset 4
 1444 0024 BD46     		mov	sp, r7
 1445              		.cfi_def_cfa_register 13
 1446              		@ sp needed
 1447 0026 80BC     		pop	{r7}
 1448              		.cfi_restore 7
 1449              		.cfi_def_cfa_offset 0
 1450 0028 7047     		bx	lr
 1451              		.cfi_endproc
 1452              	.LFE124:
 1454              		.section	.text.hal_smartcard_transmit_poll,"ax",%progbits
 1455              		.align	1
 1456              		.global	hal_smartcard_transmit_poll
 1457              		.syntax unified
 1458              		.thumb
 1459              		.thumb_func
 1460              		.fpu softvfp
 1462              	hal_smartcard_transmit_poll:
 1463              	.LFB125:
 517:../firmware/gd32f3x0_hal_peripheral/Source/gd32f3x0_hal_smartcard.c **** 
 518:../firmware/gd32f3x0_hal_peripheral/Source/gd32f3x0_hal_smartcard.c **** /*!
 519:../firmware/gd32f3x0_hal_peripheral/Source/gd32f3x0_hal_smartcard.c ****     \brief      transmit amounts of data by poll method
 520:../firmware/gd32f3x0_hal_peripheral/Source/gd32f3x0_hal_smartcard.c ****     \param[in]  smartcard: smartcard device information structure
 521:../firmware/gd32f3x0_hal_peripheral/Source/gd32f3x0_hal_smartcard.c ****                     the structure is not necessary to be reconfigured after structrue initializatio
 522:../firmware/gd32f3x0_hal_peripheral/Source/gd32f3x0_hal_smartcard.c ****                     the structure parameters altering is automatically configured by core
 523:../firmware/gd32f3x0_hal_peripheral/Source/gd32f3x0_hal_smartcard.c ****     \param[in]  p_buffer: pointer to data buffer
 524:../firmware/gd32f3x0_hal_peripheral/Source/gd32f3x0_hal_smartcard.c ****     \param[in]  length: number of data to be transmitted
 525:../firmware/gd32f3x0_hal_peripheral/Source/gd32f3x0_hal_smartcard.c ****     \param[in]  timeout_ms: timeout duration
 526:../firmware/gd32f3x0_hal_peripheral/Source/gd32f3x0_hal_smartcard.c ****     \param[out] none
 527:../firmware/gd32f3x0_hal_peripheral/Source/gd32f3x0_hal_smartcard.c ****     \retval     error code: HAL_ERR_NONE, HAL_ERR_ADDRESS, HAL_ERR_VAL, HAL_ERR_BUSY, HAL_ERR_TIMEO
 528:../firmware/gd32f3x0_hal_peripheral/Source/gd32f3x0_hal_smartcard.c **** */
 529:../firmware/gd32f3x0_hal_peripheral/Source/gd32f3x0_hal_smartcard.c **** int32_t hal_smartcard_transmit_poll(hal_smartcard_dev_struct *smartcard, uint8_t *p_buffer, uint32_
 530:../firmware/gd32f3x0_hal_peripheral/Source/gd32f3x0_hal_smartcard.c **** {
 1464              		.loc 1 530 1
 1465              		.cfi_startproc
 1466              		@ args = 0, pretend = 0, frame = 24
 1467              		@ frame_needed = 1, uses_anonymous_args = 0
 1468 0000 80B5     		push	{r7, lr}
 1469              		.cfi_def_cfa_offset 8
 1470              		.cfi_offset 7, -8
 1471              		.cfi_offset 14, -4
 1472 0002 86B0     		sub	sp, sp, #24
 1473              		.cfi_def_cfa_offset 32
 1474 0004 00AF     		add	r7, sp, #0
 1475              		.cfi_def_cfa_register 7
 1476 0006 F860     		str	r0, [r7, #12]
 1477 0008 B960     		str	r1, [r7, #8]
 1478 000a 7A60     		str	r2, [r7, #4]
 1479 000c 3B60     		str	r3, [r7]
 531:../firmware/gd32f3x0_hal_peripheral/Source/gd32f3x0_hal_smartcard.c ****     uint32_t tick_start;
 532:../firmware/gd32f3x0_hal_peripheral/Source/gd32f3x0_hal_smartcard.c **** 
 533:../firmware/gd32f3x0_hal_peripheral/Source/gd32f3x0_hal_smartcard.c **** #if (1U == HAL_PARAMETER_CHECK)
 534:../firmware/gd32f3x0_hal_peripheral/Source/gd32f3x0_hal_smartcard.c ****     /* check smartcard pointer, p_buffer address and length */
 535:../firmware/gd32f3x0_hal_peripheral/Source/gd32f3x0_hal_smartcard.c ****     if((NULL == smartcard) || (NULL == p_buffer) || (0U == length)) {
 536:../firmware/gd32f3x0_hal_peripheral/Source/gd32f3x0_hal_smartcard.c ****         HAL_DEBUGE("parameter [usart] or [p_buffer] or [length] value is invalid");
 537:../firmware/gd32f3x0_hal_peripheral/Source/gd32f3x0_hal_smartcard.c ****         return HAL_ERR_ADDRESS;
 538:../firmware/gd32f3x0_hal_peripheral/Source/gd32f3x0_hal_smartcard.c ****     }
 539:../firmware/gd32f3x0_hal_peripheral/Source/gd32f3x0_hal_smartcard.c **** #endif /* 1U == HAL_PARAMETER_CHECK */
 540:../firmware/gd32f3x0_hal_peripheral/Source/gd32f3x0_hal_smartcard.c **** 
 541:../firmware/gd32f3x0_hal_peripheral/Source/gd32f3x0_hal_smartcard.c ****     /* check whether the Tx state is in ready */
 542:../firmware/gd32f3x0_hal_peripheral/Source/gd32f3x0_hal_smartcard.c ****     if(SMARTCARD_STATE_BUSY == smartcard->tx_state) {
 1480              		.loc 1 542 41
 1481 000e FB68     		ldr	r3, [r7, #12]
 1482 0010 93F83830 		ldrb	r3, [r3, #56]
 1483 0014 DBB2     		uxtb	r3, r3
 1484              		.loc 1 542 7
 1485 0016 012B     		cmp	r3, #1
 1486 0018 02D1     		bne	.L72
 543:../firmware/gd32f3x0_hal_peripheral/Source/gd32f3x0_hal_smartcard.c ****         HAL_DEBUGE("usart tx has already been used, please wait until run_state change to free ");
 544:../firmware/gd32f3x0_hal_peripheral/Source/gd32f3x0_hal_smartcard.c ****         return HAL_ERR_BUSY;
 1487              		.loc 1 544 16
 1488 001a 6FF00203 		mvn	r3, #2
 1489 001e 9CE0     		b	.L73
 1490              	.L72:
 545:../firmware/gd32f3x0_hal_peripheral/Source/gd32f3x0_hal_smartcard.c ****     }
 546:../firmware/gd32f3x0_hal_peripheral/Source/gd32f3x0_hal_smartcard.c **** 
 547:../firmware/gd32f3x0_hal_peripheral/Source/gd32f3x0_hal_smartcard.c ****     /* lock smartcard */
 548:../firmware/gd32f3x0_hal_peripheral/Source/gd32f3x0_hal_smartcard.c ****     HAL_LOCK(smartcard);
 1491              		.loc 1 548 5
 1492 0020 FB68     		ldr	r3, [r7, #12]
 1493 0022 93F84430 		ldrb	r3, [r3, #68]	@ zero_extendqisi2
 1494 0026 012B     		cmp	r3, #1
 1495 0028 02D1     		bne	.L74
 1496              		.loc 1 548 5 is_stmt 0 discriminator 1
 1497 002a 6FF00103 		mvn	r3, #1
 1498 002e 94E0     		b	.L73
 1499              	.L74:
 1500              		.loc 1 548 5 discriminator 2
 1501 0030 FB68     		ldr	r3, [r7, #12]
 1502 0032 0122     		movs	r2, #1
 1503 0034 83F84420 		strb	r2, [r3, #68]
 549:../firmware/gd32f3x0_hal_peripheral/Source/gd32f3x0_hal_smartcard.c **** 
 550:../firmware/gd32f3x0_hal_peripheral/Source/gd32f3x0_hal_smartcard.c ****     /* disable receive and enable transmit */
 551:../firmware/gd32f3x0_hal_peripheral/Source/gd32f3x0_hal_smartcard.c ****     hals_smartcard_receive_config(smartcard->periph, USART_RECEIVE_DISABLE);
 1504              		.loc 1 551 5 is_stmt 1 discriminator 2
 1505 0038 FB68     		ldr	r3, [r7, #12]
 1506 003a 1B68     		ldr	r3, [r3]
 1507 003c 0021     		movs	r1, #0
 1508 003e 1846     		mov	r0, r3
 1509 0040 FFF7FEFF 		bl	hals_smartcard_receive_config
 552:../firmware/gd32f3x0_hal_peripheral/Source/gd32f3x0_hal_smartcard.c ****     hals_smartcard_command_enable(smartcard->periph, USART_CMD_RXFCMD);
 1510              		.loc 1 552 5 discriminator 2
 1511 0044 FB68     		ldr	r3, [r7, #12]
 1512 0046 1B68     		ldr	r3, [r3]
 1513 0048 0821     		movs	r1, #8
 1514 004a 1846     		mov	r0, r3
 1515 004c FFF7FEFF 		bl	hals_smartcard_command_enable
 553:../firmware/gd32f3x0_hal_peripheral/Source/gd32f3x0_hal_smartcard.c ****     hals_smartcard_transmit_config(smartcard->periph, USART_TRANSMIT_ENABLE);
 1516              		.loc 1 553 5 discriminator 2
 1517 0050 FB68     		ldr	r3, [r7, #12]
 1518 0052 1B68     		ldr	r3, [r3]
 1519 0054 0821     		movs	r1, #8
 1520 0056 1846     		mov	r0, r3
 1521 0058 FFF7FEFF 		bl	hals_smartcard_transmit_config
 554:../firmware/gd32f3x0_hal_peripheral/Source/gd32f3x0_hal_smartcard.c **** 
 555:../firmware/gd32f3x0_hal_peripheral/Source/gd32f3x0_hal_smartcard.c ****     /* initialize transmit parameter */
 556:../firmware/gd32f3x0_hal_peripheral/Source/gd32f3x0_hal_smartcard.c ****     smartcard->error_state = HAL_SMARTCARD_ERROR_NONE;
 1522              		.loc 1 556 28 discriminator 2
 1523 005c FB68     		ldr	r3, [r7, #12]
 1524 005e 0022     		movs	r2, #0
 1525 0060 DA86     		strh	r2, [r3, #54]	@ movhi
 557:../firmware/gd32f3x0_hal_peripheral/Source/gd32f3x0_hal_smartcard.c ****     smartcard->tx_state = SMARTCARD_STATE_BUSY;
 1526              		.loc 1 557 25 discriminator 2
 1527 0062 FB68     		ldr	r3, [r7, #12]
 1528 0064 0122     		movs	r2, #1
 1529 0066 83F83820 		strb	r2, [r3, #56]
 558:../firmware/gd32f3x0_hal_peripheral/Source/gd32f3x0_hal_smartcard.c ****     smartcard->txbuffer.buffer  = (uint8_t *)p_buffer;
 1530              		.loc 1 558 33 discriminator 2
 1531 006a FB68     		ldr	r3, [r7, #12]
 1532 006c BA68     		ldr	r2, [r7, #8]
 1533 006e DA61     		str	r2, [r3, #28]
 559:../firmware/gd32f3x0_hal_peripheral/Source/gd32f3x0_hal_smartcard.c ****     smartcard->txbuffer.length  = length;
 1534              		.loc 1 559 33 discriminator 2
 1535 0070 FB68     		ldr	r3, [r7, #12]
 1536 0072 7A68     		ldr	r2, [r7, #4]
 1537 0074 1A62     		str	r2, [r3, #32]
 560:../firmware/gd32f3x0_hal_peripheral/Source/gd32f3x0_hal_smartcard.c ****     smartcard->txbuffer.pos     = 0U;
 1538              		.loc 1 560 33 discriminator 2
 1539 0076 FB68     		ldr	r3, [r7, #12]
 1540 0078 0022     		movs	r2, #0
 1541 007a 5A62     		str	r2, [r3, #36]
 561:../firmware/gd32f3x0_hal_peripheral/Source/gd32f3x0_hal_smartcard.c **** 
 562:../firmware/gd32f3x0_hal_peripheral/Source/gd32f3x0_hal_smartcard.c ****     /* configure timeout */
 563:../firmware/gd32f3x0_hal_peripheral/Source/gd32f3x0_hal_smartcard.c ****     tick_start = hal_sys_basetick_count_get();
 1542              		.loc 1 563 18 discriminator 2
 1543 007c FFF7FEFF 		bl	hal_sys_basetick_count_get
 1544 0080 7861     		str	r0, [r7, #20]
 564:../firmware/gd32f3x0_hal_peripheral/Source/gd32f3x0_hal_smartcard.c **** 
 565:../firmware/gd32f3x0_hal_peripheral/Source/gd32f3x0_hal_smartcard.c ****     while(smartcard->txbuffer.pos < smartcard->txbuffer.length) {
 1545              		.loc 1 565 10 discriminator 2
 1546 0082 34E0     		b	.L75
 1547              	.L77:
 566:../firmware/gd32f3x0_hal_peripheral/Source/gd32f3x0_hal_smartcard.c ****         /* wait for transmit buffer empty */
 567:../firmware/gd32f3x0_hal_peripheral/Source/gd32f3x0_hal_smartcard.c ****         while(RESET == hals_smartcard_flag_get(smartcard->periph, USART_FLAG_TBE)) {
 568:../firmware/gd32f3x0_hal_peripheral/Source/gd32f3x0_hal_smartcard.c ****             if(HAL_TIMEOUT_FOREVER != timeout_ms) {
 1548              		.loc 1 568 15
 1549 0084 3B68     		ldr	r3, [r7]
 1550 0086 B3F1FF3F 		cmp	r3, #-1
 1551 008a 11D0     		beq	.L76
 569:../firmware/gd32f3x0_hal_peripheral/Source/gd32f3x0_hal_smartcard.c ****                 if(SET == hal_sys_basetick_timeout_check(tick_start, timeout_ms)) {
 1552              		.loc 1 569 27
 1553 008c 3968     		ldr	r1, [r7]
 1554 008e 7869     		ldr	r0, [r7, #20]
 1555 0090 FFF7FEFF 		bl	hal_sys_basetick_timeout_check
 1556 0094 0346     		mov	r3, r0
 1557              		.loc 1 569 19
 1558 0096 012B     		cmp	r3, #1
 1559 0098 0AD1     		bne	.L76
 570:../firmware/gd32f3x0_hal_peripheral/Source/gd32f3x0_hal_smartcard.c ****                     HAL_DEBUGW("smartcard transmit timeout");
 571:../firmware/gd32f3x0_hal_peripheral/Source/gd32f3x0_hal_smartcard.c ****                     smartcard->tx_state = SMARTCARD_STATE_FREE;
 1560              		.loc 1 571 41
 1561 009a FB68     		ldr	r3, [r7, #12]
 1562 009c 0022     		movs	r2, #0
 1563 009e 83F83820 		strb	r2, [r3, #56]
 572:../firmware/gd32f3x0_hal_peripheral/Source/gd32f3x0_hal_smartcard.c ****                     /* unlock smartcard */
 573:../firmware/gd32f3x0_hal_peripheral/Source/gd32f3x0_hal_smartcard.c ****                     HAL_UNLOCK(smartcard);
 1564              		.loc 1 573 21
 1565 00a2 FB68     		ldr	r3, [r7, #12]
 1566 00a4 0022     		movs	r2, #0
 1567 00a6 83F84420 		strb	r2, [r3, #68]
 574:../firmware/gd32f3x0_hal_peripheral/Source/gd32f3x0_hal_smartcard.c **** 
 575:../firmware/gd32f3x0_hal_peripheral/Source/gd32f3x0_hal_smartcard.c ****                     return HAL_ERR_TIMEOUT;
 1568              		.loc 1 575 28
 1569 00aa 6FF00403 		mvn	r3, #4
 1570 00ae 54E0     		b	.L73
 1571              	.L76:
 567:../firmware/gd32f3x0_hal_peripheral/Source/gd32f3x0_hal_smartcard.c ****             if(HAL_TIMEOUT_FOREVER != timeout_ms) {
 1572              		.loc 1 567 24
 1573 00b0 FB68     		ldr	r3, [r7, #12]
 1574 00b2 1B68     		ldr	r3, [r3]
 1575 00b4 40F20771 		movw	r1, #1799
 1576 00b8 1846     		mov	r0, r3
 1577 00ba FFF7FEFF 		bl	hals_smartcard_flag_get
 1578 00be 0346     		mov	r3, r0
 567:../firmware/gd32f3x0_hal_peripheral/Source/gd32f3x0_hal_smartcard.c ****             if(HAL_TIMEOUT_FOREVER != timeout_ms) {
 1579              		.loc 1 567 14
 1580 00c0 002B     		cmp	r3, #0
 1581 00c2 DFD0     		beq	.L77
 576:../firmware/gd32f3x0_hal_peripheral/Source/gd32f3x0_hal_smartcard.c ****                 }
 577:../firmware/gd32f3x0_hal_peripheral/Source/gd32f3x0_hal_smartcard.c ****             }
 578:../firmware/gd32f3x0_hal_peripheral/Source/gd32f3x0_hal_smartcard.c ****         }
 579:../firmware/gd32f3x0_hal_peripheral/Source/gd32f3x0_hal_smartcard.c **** 
 580:../firmware/gd32f3x0_hal_peripheral/Source/gd32f3x0_hal_smartcard.c ****         /* write the data to be transmitted */
 581:../firmware/gd32f3x0_hal_peripheral/Source/gd32f3x0_hal_smartcard.c ****         hals_smartcard_data_transmit(smartcard->periph, (*smartcard->txbuffer.buffer & (uint8_t)0xF
 1582              		.loc 1 581 9
 1583 00c4 FB68     		ldr	r3, [r7, #12]
 1584 00c6 1A68     		ldr	r2, [r3]
 1585              		.loc 1 581 78
 1586 00c8 FB68     		ldr	r3, [r7, #12]
 1587 00ca DB69     		ldr	r3, [r3, #28]
 1588              		.loc 1 581 58
 1589 00cc 1B78     		ldrb	r3, [r3]
 1590 00ce DBB2     		uxtb	r3, r3
 1591              		.loc 1 581 9
 1592 00d0 9BB2     		uxth	r3, r3
 1593 00d2 1946     		mov	r1, r3
 1594 00d4 1046     		mov	r0, r2
 1595 00d6 FFF7FEFF 		bl	hals_smartcard_data_transmit
 582:../firmware/gd32f3x0_hal_peripheral/Source/gd32f3x0_hal_smartcard.c ****         smartcard->txbuffer.buffer++;
 1596              		.loc 1 582 28
 1597 00da FB68     		ldr	r3, [r7, #12]
 1598 00dc DB69     		ldr	r3, [r3, #28]
 1599              		.loc 1 582 35
 1600 00de 5A1C     		adds	r2, r3, #1
 1601 00e0 FB68     		ldr	r3, [r7, #12]
 1602 00e2 DA61     		str	r2, [r3, #28]
 583:../firmware/gd32f3x0_hal_peripheral/Source/gd32f3x0_hal_smartcard.c ****         /* change the transmit pointer */
 584:../firmware/gd32f3x0_hal_peripheral/Source/gd32f3x0_hal_smartcard.c ****         smartcard->txbuffer.pos++;
 1603              		.loc 1 584 28
 1604 00e4 FB68     		ldr	r3, [r7, #12]
 1605 00e6 5B6A     		ldr	r3, [r3, #36]
 1606              		.loc 1 584 32
 1607 00e8 5A1C     		adds	r2, r3, #1
 1608 00ea FB68     		ldr	r3, [r7, #12]
 1609 00ec 5A62     		str	r2, [r3, #36]
 1610              	.L75:
 565:../firmware/gd32f3x0_hal_peripheral/Source/gd32f3x0_hal_smartcard.c ****         /* wait for transmit buffer empty */
 1611              		.loc 1 565 30
 1612 00ee FB68     		ldr	r3, [r7, #12]
 1613 00f0 5A6A     		ldr	r2, [r3, #36]
 565:../firmware/gd32f3x0_hal_peripheral/Source/gd32f3x0_hal_smartcard.c ****         /* wait for transmit buffer empty */
 1614              		.loc 1 565 56
 1615 00f2 FB68     		ldr	r3, [r7, #12]
 1616 00f4 1B6A     		ldr	r3, [r3, #32]
 565:../firmware/gd32f3x0_hal_peripheral/Source/gd32f3x0_hal_smartcard.c ****         /* wait for transmit buffer empty */
 1617              		.loc 1 565 10
 1618 00f6 9A42     		cmp	r2, r3
 1619 00f8 DAD3     		bcc	.L76
 585:../firmware/gd32f3x0_hal_peripheral/Source/gd32f3x0_hal_smartcard.c ****     }
 586:../firmware/gd32f3x0_hal_peripheral/Source/gd32f3x0_hal_smartcard.c **** 
 587:../firmware/gd32f3x0_hal_peripheral/Source/gd32f3x0_hal_smartcard.c ****     /* wait for transmit complete */
 588:../firmware/gd32f3x0_hal_peripheral/Source/gd32f3x0_hal_smartcard.c ****     while(RESET == hals_smartcard_flag_get(smartcard->periph, USART_FLAG_TC)) {
 1620              		.loc 1 588 10
 1621 00fa 15E0     		b	.L79
 1622              	.L80:
 589:../firmware/gd32f3x0_hal_peripheral/Source/gd32f3x0_hal_smartcard.c ****         if(HAL_TIMEOUT_FOREVER != timeout_ms) {
 1623              		.loc 1 589 11
 1624 00fc 3B68     		ldr	r3, [r7]
 1625 00fe B3F1FF3F 		cmp	r3, #-1
 1626 0102 11D0     		beq	.L79
 590:../firmware/gd32f3x0_hal_peripheral/Source/gd32f3x0_hal_smartcard.c ****             if(SET == hal_sys_basetick_timeout_check(tick_start, timeout_ms)) {
 1627              		.loc 1 590 23
 1628 0104 3968     		ldr	r1, [r7]
 1629 0106 7869     		ldr	r0, [r7, #20]
 1630 0108 FFF7FEFF 		bl	hal_sys_basetick_timeout_check
 1631 010c 0346     		mov	r3, r0
 1632              		.loc 1 590 15
 1633 010e 012B     		cmp	r3, #1
 1634 0110 0AD1     		bne	.L79
 591:../firmware/gd32f3x0_hal_peripheral/Source/gd32f3x0_hal_smartcard.c ****                 HAL_DEBUGW("smartcard transmit timeout");
 592:../firmware/gd32f3x0_hal_peripheral/Source/gd32f3x0_hal_smartcard.c ****                 smartcard->tx_state = SMARTCARD_STATE_FREE;
 1635              		.loc 1 592 37
 1636 0112 FB68     		ldr	r3, [r7, #12]
 1637 0114 0022     		movs	r2, #0
 1638 0116 83F83820 		strb	r2, [r3, #56]
 593:../firmware/gd32f3x0_hal_peripheral/Source/gd32f3x0_hal_smartcard.c ****                 /* unlock smartcard */
 594:../firmware/gd32f3x0_hal_peripheral/Source/gd32f3x0_hal_smartcard.c ****                 HAL_UNLOCK(smartcard);
 1639              		.loc 1 594 17
 1640 011a FB68     		ldr	r3, [r7, #12]
 1641 011c 0022     		movs	r2, #0
 1642 011e 83F84420 		strb	r2, [r3, #68]
 595:../firmware/gd32f3x0_hal_peripheral/Source/gd32f3x0_hal_smartcard.c ****                 return HAL_ERR_TIMEOUT;
 1643              		.loc 1 595 24
 1644 0122 6FF00403 		mvn	r3, #4
 1645 0126 18E0     		b	.L73
 1646              	.L79:
 588:../firmware/gd32f3x0_hal_peripheral/Source/gd32f3x0_hal_smartcard.c ****         if(HAL_TIMEOUT_FOREVER != timeout_ms) {
 1647              		.loc 1 588 20
 1648 0128 FB68     		ldr	r3, [r7, #12]
 1649 012a 1B68     		ldr	r3, [r3]
 1650 012c 40F20671 		movw	r1, #1798
 1651 0130 1846     		mov	r0, r3
 1652 0132 FFF7FEFF 		bl	hals_smartcard_flag_get
 1653 0136 0346     		mov	r3, r0
 588:../firmware/gd32f3x0_hal_peripheral/Source/gd32f3x0_hal_smartcard.c ****         if(HAL_TIMEOUT_FOREVER != timeout_ms) {
 1654              		.loc 1 588 10
 1655 0138 002B     		cmp	r3, #0
 1656 013a DFD0     		beq	.L80
 596:../firmware/gd32f3x0_hal_peripheral/Source/gd32f3x0_hal_smartcard.c ****             }
 597:../firmware/gd32f3x0_hal_peripheral/Source/gd32f3x0_hal_smartcard.c ****         }
 598:../firmware/gd32f3x0_hal_peripheral/Source/gd32f3x0_hal_smartcard.c ****     }
 599:../firmware/gd32f3x0_hal_peripheral/Source/gd32f3x0_hal_smartcard.c **** 
 600:../firmware/gd32f3x0_hal_peripheral/Source/gd32f3x0_hal_smartcard.c ****     /* re-enable receive */
 601:../firmware/gd32f3x0_hal_peripheral/Source/gd32f3x0_hal_smartcard.c ****     hals_smartcard_receive_config(smartcard->periph, USART_RECEIVE_ENABLE);
 1657              		.loc 1 601 5
 1658 013c FB68     		ldr	r3, [r7, #12]
 1659 013e 1B68     		ldr	r3, [r3]
 1660 0140 0421     		movs	r1, #4
 1661 0142 1846     		mov	r0, r3
 1662 0144 FFF7FEFF 		bl	hals_smartcard_receive_config
 602:../firmware/gd32f3x0_hal_peripheral/Source/gd32f3x0_hal_smartcard.c **** 
 603:../firmware/gd32f3x0_hal_peripheral/Source/gd32f3x0_hal_smartcard.c ****     /* change the Tx state to free */
 604:../firmware/gd32f3x0_hal_peripheral/Source/gd32f3x0_hal_smartcard.c ****     smartcard->tx_state = SMARTCARD_STATE_FREE;
 1663              		.loc 1 604 25
 1664 0148 FB68     		ldr	r3, [r7, #12]
 1665 014a 0022     		movs	r2, #0
 1666 014c 83F83820 		strb	r2, [r3, #56]
 605:../firmware/gd32f3x0_hal_peripheral/Source/gd32f3x0_hal_smartcard.c **** 
 606:../firmware/gd32f3x0_hal_peripheral/Source/gd32f3x0_hal_smartcard.c ****     /* unlock smartcard */
 607:../firmware/gd32f3x0_hal_peripheral/Source/gd32f3x0_hal_smartcard.c ****     HAL_UNLOCK(smartcard);
 1667              		.loc 1 607 5
 1668 0150 FB68     		ldr	r3, [r7, #12]
 1669 0152 0022     		movs	r2, #0
 1670 0154 83F84420 		strb	r2, [r3, #68]
 608:../firmware/gd32f3x0_hal_peripheral/Source/gd32f3x0_hal_smartcard.c **** 
 609:../firmware/gd32f3x0_hal_peripheral/Source/gd32f3x0_hal_smartcard.c ****     return HAL_ERR_NONE;
 1671              		.loc 1 609 12
 1672 0158 0023     		movs	r3, #0
 1673              	.L73:
 610:../firmware/gd32f3x0_hal_peripheral/Source/gd32f3x0_hal_smartcard.c **** }
 1674              		.loc 1 610 1
 1675 015a 1846     		mov	r0, r3
 1676 015c 1837     		adds	r7, r7, #24
 1677              		.cfi_def_cfa_offset 8
 1678 015e BD46     		mov	sp, r7
 1679              		.cfi_def_cfa_register 13
 1680              		@ sp needed
 1681 0160 80BD     		pop	{r7, pc}
 1682              		.cfi_endproc
 1683              	.LFE125:
 1685              		.section	.text.hal_smartcard_receive_poll,"ax",%progbits
 1686              		.align	1
 1687              		.global	hal_smartcard_receive_poll
 1688              		.syntax unified
 1689              		.thumb
 1690              		.thumb_func
 1691              		.fpu softvfp
 1693              	hal_smartcard_receive_poll:
 1694              	.LFB126:
 611:../firmware/gd32f3x0_hal_peripheral/Source/gd32f3x0_hal_smartcard.c **** 
 612:../firmware/gd32f3x0_hal_peripheral/Source/gd32f3x0_hal_smartcard.c **** /*!
 613:../firmware/gd32f3x0_hal_peripheral/Source/gd32f3x0_hal_smartcard.c ****     \brief      receive amounts of data by poll method
 614:../firmware/gd32f3x0_hal_peripheral/Source/gd32f3x0_hal_smartcard.c ****     \param[in]  smartcard: smartcard device information structure
 615:../firmware/gd32f3x0_hal_peripheral/Source/gd32f3x0_hal_smartcard.c ****                     the structure is not necessary to be reconfigured after structrue initializatio
 616:../firmware/gd32f3x0_hal_peripheral/Source/gd32f3x0_hal_smartcard.c ****                     the structure parameters altering is automatically configured by core
 617:../firmware/gd32f3x0_hal_peripheral/Source/gd32f3x0_hal_smartcard.c ****     \param[in]  p_buffer: pointer to data buffer
 618:../firmware/gd32f3x0_hal_peripheral/Source/gd32f3x0_hal_smartcard.c ****     \param[in]  length: number of data to be received
 619:../firmware/gd32f3x0_hal_peripheral/Source/gd32f3x0_hal_smartcard.c ****     \param[in]  timeout_ms: timeout duration
 620:../firmware/gd32f3x0_hal_peripheral/Source/gd32f3x0_hal_smartcard.c ****     \param[out] none
 621:../firmware/gd32f3x0_hal_peripheral/Source/gd32f3x0_hal_smartcard.c ****     \retval     error code: HAL_ERR_NONE, HAL_ERR_ADDRESS, HAL_ERR_VAL, HAL_ERR_BUSY, HAL_ERR_TIMEO
 622:../firmware/gd32f3x0_hal_peripheral/Source/gd32f3x0_hal_smartcard.c **** */
 623:../firmware/gd32f3x0_hal_peripheral/Source/gd32f3x0_hal_smartcard.c **** int32_t hal_smartcard_receive_poll(hal_smartcard_dev_struct *smartcard, uint8_t *p_buffer, uint32_t
 624:../firmware/gd32f3x0_hal_peripheral/Source/gd32f3x0_hal_smartcard.c **** {
 1695              		.loc 1 624 1
 1696              		.cfi_startproc
 1697              		@ args = 0, pretend = 0, frame = 24
 1698              		@ frame_needed = 1, uses_anonymous_args = 0
 1699 0000 80B5     		push	{r7, lr}
 1700              		.cfi_def_cfa_offset 8
 1701              		.cfi_offset 7, -8
 1702              		.cfi_offset 14, -4
 1703 0002 86B0     		sub	sp, sp, #24
 1704              		.cfi_def_cfa_offset 32
 1705 0004 00AF     		add	r7, sp, #0
 1706              		.cfi_def_cfa_register 7
 1707 0006 F860     		str	r0, [r7, #12]
 1708 0008 B960     		str	r1, [r7, #8]
 1709 000a 7A60     		str	r2, [r7, #4]
 1710 000c 3B60     		str	r3, [r7]
 625:../firmware/gd32f3x0_hal_peripheral/Source/gd32f3x0_hal_smartcard.c ****     uint32_t tick_start;
 626:../firmware/gd32f3x0_hal_peripheral/Source/gd32f3x0_hal_smartcard.c **** 
 627:../firmware/gd32f3x0_hal_peripheral/Source/gd32f3x0_hal_smartcard.c **** #if (1U == HAL_PARAMETER_CHECK)
 628:../firmware/gd32f3x0_hal_peripheral/Source/gd32f3x0_hal_smartcard.c ****     /* check smartcard pointer, p_buffer address and length */
 629:../firmware/gd32f3x0_hal_peripheral/Source/gd32f3x0_hal_smartcard.c ****     if((NULL == smartcard) || (NULL == p_buffer) || (0U == length)) {
 630:../firmware/gd32f3x0_hal_peripheral/Source/gd32f3x0_hal_smartcard.c ****         HAL_DEBUGE("parameter [usart] or [p_buffer] or [length] value is invalid");
 631:../firmware/gd32f3x0_hal_peripheral/Source/gd32f3x0_hal_smartcard.c ****         return HAL_ERR_ADDRESS;
 632:../firmware/gd32f3x0_hal_peripheral/Source/gd32f3x0_hal_smartcard.c ****     }
 633:../firmware/gd32f3x0_hal_peripheral/Source/gd32f3x0_hal_smartcard.c **** #endif /* 1U == HAL_PARAMETER_CHECK */
 634:../firmware/gd32f3x0_hal_peripheral/Source/gd32f3x0_hal_smartcard.c **** 
 635:../firmware/gd32f3x0_hal_peripheral/Source/gd32f3x0_hal_smartcard.c ****     /* check whether the Rx state is in ready */
 636:../firmware/gd32f3x0_hal_peripheral/Source/gd32f3x0_hal_smartcard.c ****     if(SMARTCARD_STATE_BUSY == smartcard->rx_state) {
 1711              		.loc 1 636 41
 1712 000e FB68     		ldr	r3, [r7, #12]
 1713 0010 93F83930 		ldrb	r3, [r3, #57]
 1714 0014 DBB2     		uxtb	r3, r3
 1715              		.loc 1 636 7
 1716 0016 012B     		cmp	r3, #1
 1717 0018 02D1     		bne	.L82
 637:../firmware/gd32f3x0_hal_peripheral/Source/gd32f3x0_hal_smartcard.c ****         HAL_DEBUGE("usart rx has already been used, please wait until run_state change to free ");
 638:../firmware/gd32f3x0_hal_peripheral/Source/gd32f3x0_hal_smartcard.c ****         return HAL_ERR_BUSY;
 1718              		.loc 1 638 16
 1719 001a 6FF00203 		mvn	r3, #2
 1720 001e 63E0     		b	.L83
 1721              	.L82:
 639:../firmware/gd32f3x0_hal_peripheral/Source/gd32f3x0_hal_smartcard.c ****     }
 640:../firmware/gd32f3x0_hal_peripheral/Source/gd32f3x0_hal_smartcard.c **** 
 641:../firmware/gd32f3x0_hal_peripheral/Source/gd32f3x0_hal_smartcard.c ****     /* lock smartcard */
 642:../firmware/gd32f3x0_hal_peripheral/Source/gd32f3x0_hal_smartcard.c ****     HAL_LOCK(smartcard);
 1722              		.loc 1 642 5
 1723 0020 FB68     		ldr	r3, [r7, #12]
 1724 0022 93F84430 		ldrb	r3, [r3, #68]	@ zero_extendqisi2
 1725 0026 012B     		cmp	r3, #1
 1726 0028 02D1     		bne	.L84
 1727              		.loc 1 642 5 is_stmt 0 discriminator 1
 1728 002a 6FF00103 		mvn	r3, #1
 1729 002e 5BE0     		b	.L83
 1730              	.L84:
 1731              		.loc 1 642 5 discriminator 2
 1732 0030 FB68     		ldr	r3, [r7, #12]
 1733 0032 0122     		movs	r2, #1
 1734 0034 83F84420 		strb	r2, [r3, #68]
 643:../firmware/gd32f3x0_hal_peripheral/Source/gd32f3x0_hal_smartcard.c **** 
 644:../firmware/gd32f3x0_hal_peripheral/Source/gd32f3x0_hal_smartcard.c ****     smartcard->error_state = HAL_SMARTCARD_ERROR_NONE;
 1735              		.loc 1 644 28 is_stmt 1 discriminator 2
 1736 0038 FB68     		ldr	r3, [r7, #12]
 1737 003a 0022     		movs	r2, #0
 1738 003c DA86     		strh	r2, [r3, #54]	@ movhi
 645:../firmware/gd32f3x0_hal_peripheral/Source/gd32f3x0_hal_smartcard.c ****     smartcard->rx_state = SMARTCARD_STATE_BUSY;
 1739              		.loc 1 645 25 discriminator 2
 1740 003e FB68     		ldr	r3, [r7, #12]
 1741 0040 0122     		movs	r2, #1
 1742 0042 83F83920 		strb	r2, [r3, #57]
 646:../firmware/gd32f3x0_hal_peripheral/Source/gd32f3x0_hal_smartcard.c **** 
 647:../firmware/gd32f3x0_hal_peripheral/Source/gd32f3x0_hal_smartcard.c ****     /* initialize receive parameter */
 648:../firmware/gd32f3x0_hal_peripheral/Source/gd32f3x0_hal_smartcard.c ****     smartcard->rxbuffer.buffer  = (uint8_t *)p_buffer;
 1743              		.loc 1 648 33 discriminator 2
 1744 0046 FB68     		ldr	r3, [r7, #12]
 1745 0048 BA68     		ldr	r2, [r7, #8]
 1746 004a 9A62     		str	r2, [r3, #40]
 649:../firmware/gd32f3x0_hal_peripheral/Source/gd32f3x0_hal_smartcard.c ****     smartcard->rxbuffer.length  = length;
 1747              		.loc 1 649 33 discriminator 2
 1748 004c FB68     		ldr	r3, [r7, #12]
 1749 004e 7A68     		ldr	r2, [r7, #4]
 1750 0050 DA62     		str	r2, [r3, #44]
 650:../firmware/gd32f3x0_hal_peripheral/Source/gd32f3x0_hal_smartcard.c ****     smartcard->rxbuffer.pos     = 0U;
 1751              		.loc 1 650 33 discriminator 2
 1752 0052 FB68     		ldr	r3, [r7, #12]
 1753 0054 0022     		movs	r2, #0
 1754 0056 1A63     		str	r2, [r3, #48]
 651:../firmware/gd32f3x0_hal_peripheral/Source/gd32f3x0_hal_smartcard.c **** 
 652:../firmware/gd32f3x0_hal_peripheral/Source/gd32f3x0_hal_smartcard.c ****     /* configure timeout */
 653:../firmware/gd32f3x0_hal_peripheral/Source/gd32f3x0_hal_smartcard.c ****     tick_start = hal_sys_basetick_count_get();
 1755              		.loc 1 653 18 discriminator 2
 1756 0058 FFF7FEFF 		bl	hal_sys_basetick_count_get
 1757 005c 7861     		str	r0, [r7, #20]
 654:../firmware/gd32f3x0_hal_peripheral/Source/gd32f3x0_hal_smartcard.c **** 
 655:../firmware/gd32f3x0_hal_peripheral/Source/gd32f3x0_hal_smartcard.c ****     while(smartcard->rxbuffer.pos < smartcard->rxbuffer.length) {
 1758              		.loc 1 655 10 discriminator 2
 1759 005e 34E0     		b	.L85
 1760              	.L87:
 656:../firmware/gd32f3x0_hal_peripheral/Source/gd32f3x0_hal_smartcard.c ****         /* wait for read data buffer not empty */
 657:../firmware/gd32f3x0_hal_peripheral/Source/gd32f3x0_hal_smartcard.c ****         while(RESET == hals_smartcard_flag_get(smartcard->periph, USART_FLAG_RBNE)) {
 658:../firmware/gd32f3x0_hal_peripheral/Source/gd32f3x0_hal_smartcard.c ****             if(HAL_TIMEOUT_FOREVER != timeout_ms) {
 1761              		.loc 1 658 15
 1762 0060 3B68     		ldr	r3, [r7]
 1763 0062 B3F1FF3F 		cmp	r3, #-1
 1764 0066 11D0     		beq	.L86
 659:../firmware/gd32f3x0_hal_peripheral/Source/gd32f3x0_hal_smartcard.c ****                 if(SET == hal_sys_basetick_timeout_check(tick_start, timeout_ms)) {
 1765              		.loc 1 659 27
 1766 0068 3968     		ldr	r1, [r7]
 1767 006a 7869     		ldr	r0, [r7, #20]
 1768 006c FFF7FEFF 		bl	hal_sys_basetick_timeout_check
 1769 0070 0346     		mov	r3, r0
 1770              		.loc 1 659 19
 1771 0072 012B     		cmp	r3, #1
 1772 0074 0AD1     		bne	.L86
 660:../firmware/gd32f3x0_hal_peripheral/Source/gd32f3x0_hal_smartcard.c ****                     HAL_DEBUGW("usart receive timeout");
 661:../firmware/gd32f3x0_hal_peripheral/Source/gd32f3x0_hal_smartcard.c ****                     smartcard->rx_state = SMARTCARD_STATE_FREE;
 1773              		.loc 1 661 41
 1774 0076 FB68     		ldr	r3, [r7, #12]
 1775 0078 0022     		movs	r2, #0
 1776 007a 83F83920 		strb	r2, [r3, #57]
 662:../firmware/gd32f3x0_hal_peripheral/Source/gd32f3x0_hal_smartcard.c ****                     /* unlock smartcard */
 663:../firmware/gd32f3x0_hal_peripheral/Source/gd32f3x0_hal_smartcard.c ****                     HAL_UNLOCK(smartcard);
 1777              		.loc 1 663 21
 1778 007e FB68     		ldr	r3, [r7, #12]
 1779 0080 0022     		movs	r2, #0
 1780 0082 83F84420 		strb	r2, [r3, #68]
 664:../firmware/gd32f3x0_hal_peripheral/Source/gd32f3x0_hal_smartcard.c **** 
 665:../firmware/gd32f3x0_hal_peripheral/Source/gd32f3x0_hal_smartcard.c ****                     return HAL_ERR_TIMEOUT;
 1781              		.loc 1 665 28
 1782 0086 6FF00403 		mvn	r3, #4
 1783 008a 2DE0     		b	.L83
 1784              	.L86:
 657:../firmware/gd32f3x0_hal_peripheral/Source/gd32f3x0_hal_smartcard.c ****             if(HAL_TIMEOUT_FOREVER != timeout_ms) {
 1785              		.loc 1 657 24
 1786 008c FB68     		ldr	r3, [r7, #12]
 1787 008e 1B68     		ldr	r3, [r3]
 1788 0090 40F20571 		movw	r1, #1797
 1789 0094 1846     		mov	r0, r3
 1790 0096 FFF7FEFF 		bl	hals_smartcard_flag_get
 1791 009a 0346     		mov	r3, r0
 657:../firmware/gd32f3x0_hal_peripheral/Source/gd32f3x0_hal_smartcard.c ****             if(HAL_TIMEOUT_FOREVER != timeout_ms) {
 1792              		.loc 1 657 14
 1793 009c 002B     		cmp	r3, #0
 1794 009e DFD0     		beq	.L87
 666:../firmware/gd32f3x0_hal_peripheral/Source/gd32f3x0_hal_smartcard.c ****                 }
 667:../firmware/gd32f3x0_hal_peripheral/Source/gd32f3x0_hal_smartcard.c ****             }
 668:../firmware/gd32f3x0_hal_peripheral/Source/gd32f3x0_hal_smartcard.c ****         }
 669:../firmware/gd32f3x0_hal_peripheral/Source/gd32f3x0_hal_smartcard.c **** 
 670:../firmware/gd32f3x0_hal_peripheral/Source/gd32f3x0_hal_smartcard.c ****         /* read data from data register */
 671:../firmware/gd32f3x0_hal_peripheral/Source/gd32f3x0_hal_smartcard.c ****         *smartcard->rxbuffer.buffer = (uint8_t)(hals_smartcard_data_receive(smartcard->periph) & 0x
 1795              		.loc 1 671 49
 1796 00a0 FB68     		ldr	r3, [r7, #12]
 1797 00a2 1B68     		ldr	r3, [r3]
 1798 00a4 1846     		mov	r0, r3
 1799 00a6 FFF7FEFF 		bl	hals_smartcard_data_receive
 1800 00aa 0346     		mov	r3, r0
 1801 00ac 1A46     		mov	r2, r3
 1802              		.loc 1 671 29
 1803 00ae FB68     		ldr	r3, [r7, #12]
 1804 00b0 9B6A     		ldr	r3, [r3, #40]
 1805              		.loc 1 671 39
 1806 00b2 D2B2     		uxtb	r2, r2
 1807              		.loc 1 671 37
 1808 00b4 1A70     		strb	r2, [r3]
 672:../firmware/gd32f3x0_hal_peripheral/Source/gd32f3x0_hal_smartcard.c ****         smartcard->rxbuffer.buffer++;
 1809              		.loc 1 672 28
 1810 00b6 FB68     		ldr	r3, [r7, #12]
 1811 00b8 9B6A     		ldr	r3, [r3, #40]
 1812              		.loc 1 672 35
 1813 00ba 5A1C     		adds	r2, r3, #1
 1814 00bc FB68     		ldr	r3, [r7, #12]
 1815 00be 9A62     		str	r2, [r3, #40]
 673:../firmware/gd32f3x0_hal_peripheral/Source/gd32f3x0_hal_smartcard.c **** 
 674:../firmware/gd32f3x0_hal_peripheral/Source/gd32f3x0_hal_smartcard.c ****         /* change the receive pointer */
 675:../firmware/gd32f3x0_hal_peripheral/Source/gd32f3x0_hal_smartcard.c ****         smartcard->rxbuffer.pos++;
 1816              		.loc 1 675 28
 1817 00c0 FB68     		ldr	r3, [r7, #12]
 1818 00c2 1B6B     		ldr	r3, [r3, #48]
 1819              		.loc 1 675 32
 1820 00c4 5A1C     		adds	r2, r3, #1
 1821 00c6 FB68     		ldr	r3, [r7, #12]
 1822 00c8 1A63     		str	r2, [r3, #48]
 1823              	.L85:
 655:../firmware/gd32f3x0_hal_peripheral/Source/gd32f3x0_hal_smartcard.c ****         /* wait for read data buffer not empty */
 1824              		.loc 1 655 30
 1825 00ca FB68     		ldr	r3, [r7, #12]
 1826 00cc 1A6B     		ldr	r2, [r3, #48]
 655:../firmware/gd32f3x0_hal_peripheral/Source/gd32f3x0_hal_smartcard.c ****         /* wait for read data buffer not empty */
 1827              		.loc 1 655 56
 1828 00ce FB68     		ldr	r3, [r7, #12]
 1829 00d0 DB6A     		ldr	r3, [r3, #44]
 655:../firmware/gd32f3x0_hal_peripheral/Source/gd32f3x0_hal_smartcard.c ****         /* wait for read data buffer not empty */
 1830              		.loc 1 655 10
 1831 00d2 9A42     		cmp	r2, r3
 1832 00d4 DAD3     		bcc	.L86
 676:../firmware/gd32f3x0_hal_peripheral/Source/gd32f3x0_hal_smartcard.c ****     }
 677:../firmware/gd32f3x0_hal_peripheral/Source/gd32f3x0_hal_smartcard.c **** 
 678:../firmware/gd32f3x0_hal_peripheral/Source/gd32f3x0_hal_smartcard.c ****     /* change the Rx state to free */
 679:../firmware/gd32f3x0_hal_peripheral/Source/gd32f3x0_hal_smartcard.c ****     smartcard->rx_state = SMARTCARD_STATE_FREE;
 1833              		.loc 1 679 25
 1834 00d6 FB68     		ldr	r3, [r7, #12]
 1835 00d8 0022     		movs	r2, #0
 1836 00da 83F83920 		strb	r2, [r3, #57]
 680:../firmware/gd32f3x0_hal_peripheral/Source/gd32f3x0_hal_smartcard.c **** 
 681:../firmware/gd32f3x0_hal_peripheral/Source/gd32f3x0_hal_smartcard.c ****     /* unlock smartcard */
 682:../firmware/gd32f3x0_hal_peripheral/Source/gd32f3x0_hal_smartcard.c ****     HAL_UNLOCK(smartcard);
 1837              		.loc 1 682 5
 1838 00de FB68     		ldr	r3, [r7, #12]
 1839 00e0 0022     		movs	r2, #0
 1840 00e2 83F84420 		strb	r2, [r3, #68]
 683:../firmware/gd32f3x0_hal_peripheral/Source/gd32f3x0_hal_smartcard.c **** 
 684:../firmware/gd32f3x0_hal_peripheral/Source/gd32f3x0_hal_smartcard.c ****     return HAL_ERR_NONE;
 1841              		.loc 1 684 12
 1842 00e6 0023     		movs	r3, #0
 1843              	.L83:
 685:../firmware/gd32f3x0_hal_peripheral/Source/gd32f3x0_hal_smartcard.c **** }
 1844              		.loc 1 685 1
 1845 00e8 1846     		mov	r0, r3
 1846 00ea 1837     		adds	r7, r7, #24
 1847              		.cfi_def_cfa_offset 8
 1848 00ec BD46     		mov	sp, r7
 1849              		.cfi_def_cfa_register 13
 1850              		@ sp needed
 1851 00ee 80BD     		pop	{r7, pc}
 1852              		.cfi_endproc
 1853              	.LFE126:
 1855              		.section	.text.hal_smartcard_transmit_interrupt,"ax",%progbits
 1856              		.align	1
 1857              		.global	hal_smartcard_transmit_interrupt
 1858              		.syntax unified
 1859              		.thumb
 1860              		.thumb_func
 1861              		.fpu softvfp
 1863              	hal_smartcard_transmit_interrupt:
 1864              	.LFB127:
 686:../firmware/gd32f3x0_hal_peripheral/Source/gd32f3x0_hal_smartcard.c **** 
 687:../firmware/gd32f3x0_hal_peripheral/Source/gd32f3x0_hal_smartcard.c **** /*!
 688:../firmware/gd32f3x0_hal_peripheral/Source/gd32f3x0_hal_smartcard.c ****     \brief      transmit amounts of data by interrupt method
 689:../firmware/gd32f3x0_hal_peripheral/Source/gd32f3x0_hal_smartcard.c ****     \param[in]  smartcard: smartcard device information structure
 690:../firmware/gd32f3x0_hal_peripheral/Source/gd32f3x0_hal_smartcard.c ****                     the structure is not necessary to be reconfigured after structrue initializatio
 691:../firmware/gd32f3x0_hal_peripheral/Source/gd32f3x0_hal_smartcard.c ****                     the structure parameters altering is automatically configured by core
 692:../firmware/gd32f3x0_hal_peripheral/Source/gd32f3x0_hal_smartcard.c ****     \param[in]  p_buffer: pointer to data buffer
 693:../firmware/gd32f3x0_hal_peripheral/Source/gd32f3x0_hal_smartcard.c ****     \param[in]  length: number of data to be transmitted
 694:../firmware/gd32f3x0_hal_peripheral/Source/gd32f3x0_hal_smartcard.c ****     \param[in]  p_user_func: user callback function
 695:../firmware/gd32f3x0_hal_peripheral/Source/gd32f3x0_hal_smartcard.c ****     \param[out] none
 696:../firmware/gd32f3x0_hal_peripheral/Source/gd32f3x0_hal_smartcard.c ****     \retval     error code: HAL_ERR_NONE, HAL_ERR_ADDRESS, HAL_ERR_BUSY, details refer to gd32f3x0_
 697:../firmware/gd32f3x0_hal_peripheral/Source/gd32f3x0_hal_smartcard.c **** */
 698:../firmware/gd32f3x0_hal_peripheral/Source/gd32f3x0_hal_smartcard.c **** int32_t hal_smartcard_transmit_interrupt(hal_smartcard_dev_struct *smartcard, uint8_t *p_buffer, ui
 699:../firmware/gd32f3x0_hal_peripheral/Source/gd32f3x0_hal_smartcard.c **** {
 1865              		.loc 1 699 1
 1866              		.cfi_startproc
 1867              		@ args = 0, pretend = 0, frame = 16
 1868              		@ frame_needed = 1, uses_anonymous_args = 0
 1869 0000 80B5     		push	{r7, lr}
 1870              		.cfi_def_cfa_offset 8
 1871              		.cfi_offset 7, -8
 1872              		.cfi_offset 14, -4
 1873 0002 84B0     		sub	sp, sp, #16
 1874              		.cfi_def_cfa_offset 24
 1875 0004 00AF     		add	r7, sp, #0
 1876              		.cfi_def_cfa_register 7
 1877 0006 F860     		str	r0, [r7, #12]
 1878 0008 B960     		str	r1, [r7, #8]
 1879 000a 7A60     		str	r2, [r7, #4]
 1880 000c 3B60     		str	r3, [r7]
 700:../firmware/gd32f3x0_hal_peripheral/Source/gd32f3x0_hal_smartcard.c **** #if (1U == HAL_PARAMETER_CHECK)
 701:../firmware/gd32f3x0_hal_peripheral/Source/gd32f3x0_hal_smartcard.c ****     /* check smartcard pointer, p_buffer address and length */
 702:../firmware/gd32f3x0_hal_peripheral/Source/gd32f3x0_hal_smartcard.c ****     if((NULL == smartcard) || (NULL == p_buffer) || (0U == length)) {
 703:../firmware/gd32f3x0_hal_peripheral/Source/gd32f3x0_hal_smartcard.c ****         HAL_DEBUGE("parameter [usart] or [p_buffer] or [length] value is invalid");
 704:../firmware/gd32f3x0_hal_peripheral/Source/gd32f3x0_hal_smartcard.c ****         return HAL_ERR_ADDRESS;
 705:../firmware/gd32f3x0_hal_peripheral/Source/gd32f3x0_hal_smartcard.c ****     }
 706:../firmware/gd32f3x0_hal_peripheral/Source/gd32f3x0_hal_smartcard.c **** #endif /* 1U == HAL_PARAMETER_CHECK */
 707:../firmware/gd32f3x0_hal_peripheral/Source/gd32f3x0_hal_smartcard.c **** 
 708:../firmware/gd32f3x0_hal_peripheral/Source/gd32f3x0_hal_smartcard.c ****     /* check whether the Tx state is in ready */
 709:../firmware/gd32f3x0_hal_peripheral/Source/gd32f3x0_hal_smartcard.c ****     if(SMARTCARD_STATE_BUSY == smartcard->tx_state) {
 1881              		.loc 1 709 41
 1882 000e FB68     		ldr	r3, [r7, #12]
 1883 0010 93F83830 		ldrb	r3, [r3, #56]
 1884 0014 DBB2     		uxtb	r3, r3
 1885              		.loc 1 709 7
 1886 0016 012B     		cmp	r3, #1
 1887 0018 02D1     		bne	.L90
 710:../firmware/gd32f3x0_hal_peripheral/Source/gd32f3x0_hal_smartcard.c ****         HAL_DEBUGE("usart tx has already been used, please wait until run_state change to free ");
 711:../firmware/gd32f3x0_hal_peripheral/Source/gd32f3x0_hal_smartcard.c ****         return HAL_ERR_BUSY;
 1888              		.loc 1 711 16
 1889 001a 6FF00203 		mvn	r3, #2
 1890 001e 4EE0     		b	.L91
 1891              	.L90:
 712:../firmware/gd32f3x0_hal_peripheral/Source/gd32f3x0_hal_smartcard.c ****     }
 713:../firmware/gd32f3x0_hal_peripheral/Source/gd32f3x0_hal_smartcard.c **** 
 714:../firmware/gd32f3x0_hal_peripheral/Source/gd32f3x0_hal_smartcard.c ****     /* lock smartcard */
 715:../firmware/gd32f3x0_hal_peripheral/Source/gd32f3x0_hal_smartcard.c ****     HAL_LOCK(smartcard);
 1892              		.loc 1 715 5
 1893 0020 FB68     		ldr	r3, [r7, #12]
 1894 0022 93F84430 		ldrb	r3, [r3, #68]	@ zero_extendqisi2
 1895 0026 012B     		cmp	r3, #1
 1896 0028 02D1     		bne	.L92
 1897              		.loc 1 715 5 is_stmt 0 discriminator 1
 1898 002a 6FF00103 		mvn	r3, #1
 1899 002e 46E0     		b	.L91
 1900              	.L92:
 1901              		.loc 1 715 5 discriminator 2
 1902 0030 FB68     		ldr	r3, [r7, #12]
 1903 0032 0122     		movs	r2, #1
 1904 0034 83F84420 		strb	r2, [r3, #68]
 716:../firmware/gd32f3x0_hal_peripheral/Source/gd32f3x0_hal_smartcard.c **** 
 717:../firmware/gd32f3x0_hal_peripheral/Source/gd32f3x0_hal_smartcard.c ****     smartcard->tx_state = SMARTCARD_STATE_BUSY;
 1905              		.loc 1 717 25 is_stmt 1 discriminator 2
 1906 0038 FB68     		ldr	r3, [r7, #12]
 1907 003a 0122     		movs	r2, #1
 1908 003c 83F83820 		strb	r2, [r3, #56]
 718:../firmware/gd32f3x0_hal_peripheral/Source/gd32f3x0_hal_smartcard.c ****     smartcard->error_state = HAL_SMARTCARD_ERROR_NONE;
 1909              		.loc 1 718 28 discriminator 2
 1910 0040 FB68     		ldr	r3, [r7, #12]
 1911 0042 0022     		movs	r2, #0
 1912 0044 DA86     		strh	r2, [r3, #54]	@ movhi
 719:../firmware/gd32f3x0_hal_peripheral/Source/gd32f3x0_hal_smartcard.c **** 
 720:../firmware/gd32f3x0_hal_peripheral/Source/gd32f3x0_hal_smartcard.c ****     /* disable receive and enable transmit */
 721:../firmware/gd32f3x0_hal_peripheral/Source/gd32f3x0_hal_smartcard.c ****     hals_smartcard_receive_config(smartcard->periph, USART_RECEIVE_DISABLE);
 1913              		.loc 1 721 5 discriminator 2
 1914 0046 FB68     		ldr	r3, [r7, #12]
 1915 0048 1B68     		ldr	r3, [r3]
 1916 004a 0021     		movs	r1, #0
 1917 004c 1846     		mov	r0, r3
 1918 004e FFF7FEFF 		bl	hals_smartcard_receive_config
 722:../firmware/gd32f3x0_hal_peripheral/Source/gd32f3x0_hal_smartcard.c ****     hals_smartcard_command_enable(smartcard->periph, USART_CMD_RXFCMD);
 1919              		.loc 1 722 5 discriminator 2
 1920 0052 FB68     		ldr	r3, [r7, #12]
 1921 0054 1B68     		ldr	r3, [r3]
 1922 0056 0821     		movs	r1, #8
 1923 0058 1846     		mov	r0, r3
 1924 005a FFF7FEFF 		bl	hals_smartcard_command_enable
 723:../firmware/gd32f3x0_hal_peripheral/Source/gd32f3x0_hal_smartcard.c ****     hals_smartcard_transmit_config(smartcard->periph, USART_TRANSMIT_ENABLE);
 1925              		.loc 1 723 5 discriminator 2
 1926 005e FB68     		ldr	r3, [r7, #12]
 1927 0060 1B68     		ldr	r3, [r3]
 1928 0062 0821     		movs	r1, #8
 1929 0064 1846     		mov	r0, r3
 1930 0066 FFF7FEFF 		bl	hals_smartcard_transmit_config
 724:../firmware/gd32f3x0_hal_peripheral/Source/gd32f3x0_hal_smartcard.c **** 
 725:../firmware/gd32f3x0_hal_peripheral/Source/gd32f3x0_hal_smartcard.c ****     /* initialize transmit parameter */
 726:../firmware/gd32f3x0_hal_peripheral/Source/gd32f3x0_hal_smartcard.c ****     smartcard->txbuffer.buffer  = (uint8_t *)p_buffer;
 1931              		.loc 1 726 33 discriminator 2
 1932 006a FB68     		ldr	r3, [r7, #12]
 1933 006c BA68     		ldr	r2, [r7, #8]
 1934 006e DA61     		str	r2, [r3, #28]
 727:../firmware/gd32f3x0_hal_peripheral/Source/gd32f3x0_hal_smartcard.c ****     smartcard->txbuffer.length  = length;
 1935              		.loc 1 727 33 discriminator 2
 1936 0070 FB68     		ldr	r3, [r7, #12]
 1937 0072 7A68     		ldr	r2, [r7, #4]
 1938 0074 1A62     		str	r2, [r3, #32]
 728:../firmware/gd32f3x0_hal_peripheral/Source/gd32f3x0_hal_smartcard.c ****     smartcard->txbuffer.pos     = 0U;
 1939              		.loc 1 728 33 discriminator 2
 1940 0076 FB68     		ldr	r3, [r7, #12]
 1941 0078 0022     		movs	r2, #0
 1942 007a 5A62     		str	r2, [r3, #36]
 729:../firmware/gd32f3x0_hal_peripheral/Source/gd32f3x0_hal_smartcard.c ****     smartcard->tx_callback      = (void *)p_user_func;
 1943              		.loc 1 729 33 discriminator 2
 1944 007c FB68     		ldr	r3, [r7, #12]
 1945 007e 3A68     		ldr	r2, [r7]
 1946 0080 1A64     		str	r2, [r3, #64]
 730:../firmware/gd32f3x0_hal_peripheral/Source/gd32f3x0_hal_smartcard.c ****     smartcard->smartcard_irq.transmit_ready_handle = _smartcard_transmit_interrupt;
 1947              		.loc 1 730 52 discriminator 2
 1948 0082 FB68     		ldr	r3, [r7, #12]
 1949 0084 104A     		ldr	r2, .L93
 1950 0086 9A60     		str	r2, [r3, #8]
 731:../firmware/gd32f3x0_hal_peripheral/Source/gd32f3x0_hal_smartcard.c ****     smartcard->smartcard_irq.transmit_complete_handle = _smartcard_transmit_complete_interrupt;
 1951              		.loc 1 731 55 discriminator 2
 1952 0088 FB68     		ldr	r3, [r7, #12]
 1953 008a 104A     		ldr	r2, .L93+4
 1954 008c DA60     		str	r2, [r3, #12]
 732:../firmware/gd32f3x0_hal_peripheral/Source/gd32f3x0_hal_smartcard.c **** 
 733:../firmware/gd32f3x0_hal_peripheral/Source/gd32f3x0_hal_smartcard.c ****     /* clear SMARTCARD TC interrupt flag */
 734:../firmware/gd32f3x0_hal_peripheral/Source/gd32f3x0_hal_smartcard.c ****     hals_smartcard_interrupt_flag_clear(smartcard->periph, USART_INT_FLAG_TC);
 1955              		.loc 1 734 5 discriminator 2
 1956 008e FB68     		ldr	r3, [r7, #12]
 1957 0090 1B68     		ldr	r3, [r3]
 1958 0092 0F49     		ldr	r1, .L93+8
 1959 0094 1846     		mov	r0, r3
 1960 0096 FFF7FEFF 		bl	hals_smartcard_interrupt_flag_clear
 735:../firmware/gd32f3x0_hal_peripheral/Source/gd32f3x0_hal_smartcard.c **** 
 736:../firmware/gd32f3x0_hal_peripheral/Source/gd32f3x0_hal_smartcard.c ****     /* enable ERR(frame error) and TBE interrupt */
 737:../firmware/gd32f3x0_hal_peripheral/Source/gd32f3x0_hal_smartcard.c ****     hals_smartcard_interrupt_enable(smartcard->periph, USART_INT_ERR);
 1961              		.loc 1 737 5 discriminator 2
 1962 009a FB68     		ldr	r3, [r7, #12]
 1963 009c 1B68     		ldr	r3, [r3]
 1964 009e 4FF40071 		mov	r1, #512
 1965 00a2 1846     		mov	r0, r3
 1966 00a4 FFF7FEFF 		bl	hals_smartcard_interrupt_enable
 738:../firmware/gd32f3x0_hal_peripheral/Source/gd32f3x0_hal_smartcard.c ****     hals_smartcard_interrupt_enable(smartcard->periph, USART_INT_TBE);
 1967              		.loc 1 738 5 discriminator 2
 1968 00a8 FB68     		ldr	r3, [r7, #12]
 1969 00aa 1B68     		ldr	r3, [r3]
 1970 00ac 0721     		movs	r1, #7
 1971 00ae 1846     		mov	r0, r3
 1972 00b0 FFF7FEFF 		bl	hals_smartcard_interrupt_enable
 739:../firmware/gd32f3x0_hal_peripheral/Source/gd32f3x0_hal_smartcard.c **** 
 740:../firmware/gd32f3x0_hal_peripheral/Source/gd32f3x0_hal_smartcard.c ****     /* unlock smartcard */
 741:../firmware/gd32f3x0_hal_peripheral/Source/gd32f3x0_hal_smartcard.c ****     HAL_UNLOCK(smartcard);
 1973              		.loc 1 741 5 discriminator 2
 1974 00b4 FB68     		ldr	r3, [r7, #12]
 1975 00b6 0022     		movs	r2, #0
 1976 00b8 83F84420 		strb	r2, [r3, #68]
 742:../firmware/gd32f3x0_hal_peripheral/Source/gd32f3x0_hal_smartcard.c **** 
 743:../firmware/gd32f3x0_hal_peripheral/Source/gd32f3x0_hal_smartcard.c ****     return HAL_ERR_NONE;
 1977              		.loc 1 743 12 discriminator 2
 1978 00bc 0023     		movs	r3, #0
 1979              	.L91:
 744:../firmware/gd32f3x0_hal_peripheral/Source/gd32f3x0_hal_smartcard.c **** }
 1980              		.loc 1 744 1
 1981 00be 1846     		mov	r0, r3
 1982 00c0 1037     		adds	r7, r7, #16
 1983              		.cfi_def_cfa_offset 8
 1984 00c2 BD46     		mov	sp, r7
 1985              		.cfi_def_cfa_register 13
 1986              		@ sp needed
 1987 00c4 80BD     		pop	{r7, pc}
 1988              	.L94:
 1989 00c6 00BF     		.align	2
 1990              	.L93:
 1991 00c8 00000000 		.word	_smartcard_transmit_interrupt
 1992 00cc 00000000 		.word	_smartcard_transmit_complete_interrupt
 1993 00d0 06000607 		.word	117833734
 1994              		.cfi_endproc
 1995              	.LFE127:
 1997              		.section	.text.hal_smartcard_receive_interrupt,"ax",%progbits
 1998              		.align	1
 1999              		.global	hal_smartcard_receive_interrupt
 2000              		.syntax unified
 2001              		.thumb
 2002              		.thumb_func
 2003              		.fpu softvfp
 2005              	hal_smartcard_receive_interrupt:
 2006              	.LFB128:
 745:../firmware/gd32f3x0_hal_peripheral/Source/gd32f3x0_hal_smartcard.c **** 
 746:../firmware/gd32f3x0_hal_peripheral/Source/gd32f3x0_hal_smartcard.c **** /*!
 747:../firmware/gd32f3x0_hal_peripheral/Source/gd32f3x0_hal_smartcard.c ****     \brief      receive amounts of data by interrupt method
 748:../firmware/gd32f3x0_hal_peripheral/Source/gd32f3x0_hal_smartcard.c ****     \param[in]  smartcard: smartcard device information structure
 749:../firmware/gd32f3x0_hal_peripheral/Source/gd32f3x0_hal_smartcard.c ****                     the structure is not necessary to be reconfigured after structrue initializatio
 750:../firmware/gd32f3x0_hal_peripheral/Source/gd32f3x0_hal_smartcard.c ****                     the structure parameters altering is automatically configured by core
 751:../firmware/gd32f3x0_hal_peripheral/Source/gd32f3x0_hal_smartcard.c ****     \param[in]  p_buffer: pointer to data buffer
 752:../firmware/gd32f3x0_hal_peripheral/Source/gd32f3x0_hal_smartcard.c ****     \param[in]  length: number of data to be sent received
 753:../firmware/gd32f3x0_hal_peripheral/Source/gd32f3x0_hal_smartcard.c ****     \param[in]  p_user_func: user callback function
 754:../firmware/gd32f3x0_hal_peripheral/Source/gd32f3x0_hal_smartcard.c ****     \param[out] none
 755:../firmware/gd32f3x0_hal_peripheral/Source/gd32f3x0_hal_smartcard.c ****     \retval     error code: HAL_ERR_NONE, HAL_ERR_ADDRESS, HAL_ERR_BUSY, details refer to gd32f3x0_
 756:../firmware/gd32f3x0_hal_peripheral/Source/gd32f3x0_hal_smartcard.c **** */
 757:../firmware/gd32f3x0_hal_peripheral/Source/gd32f3x0_hal_smartcard.c **** int32_t hal_smartcard_receive_interrupt(hal_smartcard_dev_struct *smartcard, uint8_t *p_buffer, uin
 758:../firmware/gd32f3x0_hal_peripheral/Source/gd32f3x0_hal_smartcard.c **** {
 2007              		.loc 1 758 1
 2008              		.cfi_startproc
 2009              		@ args = 0, pretend = 0, frame = 16
 2010              		@ frame_needed = 1, uses_anonymous_args = 0
 2011 0000 80B5     		push	{r7, lr}
 2012              		.cfi_def_cfa_offset 8
 2013              		.cfi_offset 7, -8
 2014              		.cfi_offset 14, -4
 2015 0002 84B0     		sub	sp, sp, #16
 2016              		.cfi_def_cfa_offset 24
 2017 0004 00AF     		add	r7, sp, #0
 2018              		.cfi_def_cfa_register 7
 2019 0006 F860     		str	r0, [r7, #12]
 2020 0008 B960     		str	r1, [r7, #8]
 2021 000a 7A60     		str	r2, [r7, #4]
 2022 000c 3B60     		str	r3, [r7]
 759:../firmware/gd32f3x0_hal_peripheral/Source/gd32f3x0_hal_smartcard.c **** #if (1U == HAL_PARAMETER_CHECK)
 760:../firmware/gd32f3x0_hal_peripheral/Source/gd32f3x0_hal_smartcard.c ****     /* check smartcard pointer, p_buffer address and length */
 761:../firmware/gd32f3x0_hal_peripheral/Source/gd32f3x0_hal_smartcard.c ****     if((NULL == smartcard) || (NULL == p_buffer) || (0U == length)) {
 762:../firmware/gd32f3x0_hal_peripheral/Source/gd32f3x0_hal_smartcard.c ****         HAL_DEBUGE("parameter [usart] or [p_buffer] or [length] value is invalid");
 763:../firmware/gd32f3x0_hal_peripheral/Source/gd32f3x0_hal_smartcard.c ****         return HAL_ERR_ADDRESS;
 764:../firmware/gd32f3x0_hal_peripheral/Source/gd32f3x0_hal_smartcard.c ****     }
 765:../firmware/gd32f3x0_hal_peripheral/Source/gd32f3x0_hal_smartcard.c **** #endif /* 1U == HAL_PARAMETER_CHECK */
 766:../firmware/gd32f3x0_hal_peripheral/Source/gd32f3x0_hal_smartcard.c **** 
 767:../firmware/gd32f3x0_hal_peripheral/Source/gd32f3x0_hal_smartcard.c ****     /* check whether the Rx state is in ready */
 768:../firmware/gd32f3x0_hal_peripheral/Source/gd32f3x0_hal_smartcard.c ****     if(SMARTCARD_STATE_BUSY == smartcard->rx_state) {
 2023              		.loc 1 768 41
 2024 000e FB68     		ldr	r3, [r7, #12]
 2025 0010 93F83930 		ldrb	r3, [r3, #57]
 2026 0014 DBB2     		uxtb	r3, r3
 2027              		.loc 1 768 7
 2028 0016 012B     		cmp	r3, #1
 2029 0018 02D1     		bne	.L96
 769:../firmware/gd32f3x0_hal_peripheral/Source/gd32f3x0_hal_smartcard.c ****         HAL_DEBUGE("usart tx has already been used, please wait until run_state change to free ");
 770:../firmware/gd32f3x0_hal_peripheral/Source/gd32f3x0_hal_smartcard.c ****         return HAL_ERR_BUSY;
 2030              		.loc 1 770 16
 2031 001a 6FF00203 		mvn	r3, #2
 2032 001e 39E0     		b	.L97
 2033              	.L96:
 771:../firmware/gd32f3x0_hal_peripheral/Source/gd32f3x0_hal_smartcard.c ****     }
 772:../firmware/gd32f3x0_hal_peripheral/Source/gd32f3x0_hal_smartcard.c **** 
 773:../firmware/gd32f3x0_hal_peripheral/Source/gd32f3x0_hal_smartcard.c ****     /* lock smartcard */
 774:../firmware/gd32f3x0_hal_peripheral/Source/gd32f3x0_hal_smartcard.c ****     HAL_LOCK(smartcard);
 2034              		.loc 1 774 5
 2035 0020 FB68     		ldr	r3, [r7, #12]
 2036 0022 93F84430 		ldrb	r3, [r3, #68]	@ zero_extendqisi2
 2037 0026 012B     		cmp	r3, #1
 2038 0028 02D1     		bne	.L98
 2039              		.loc 1 774 5 is_stmt 0 discriminator 1
 2040 002a 6FF00103 		mvn	r3, #1
 2041 002e 31E0     		b	.L97
 2042              	.L98:
 2043              		.loc 1 774 5 discriminator 2
 2044 0030 FB68     		ldr	r3, [r7, #12]
 2045 0032 0122     		movs	r2, #1
 2046 0034 83F84420 		strb	r2, [r3, #68]
 775:../firmware/gd32f3x0_hal_peripheral/Source/gd32f3x0_hal_smartcard.c **** 
 776:../firmware/gd32f3x0_hal_peripheral/Source/gd32f3x0_hal_smartcard.c ****     smartcard->rx_state = SMARTCARD_STATE_BUSY;
 2047              		.loc 1 776 25 is_stmt 1 discriminator 2
 2048 0038 FB68     		ldr	r3, [r7, #12]
 2049 003a 0122     		movs	r2, #1
 2050 003c 83F83920 		strb	r2, [r3, #57]
 777:../firmware/gd32f3x0_hal_peripheral/Source/gd32f3x0_hal_smartcard.c ****     smartcard->error_state = HAL_SMARTCARD_ERROR_NONE;
 2051              		.loc 1 777 28 discriminator 2
 2052 0040 FB68     		ldr	r3, [r7, #12]
 2053 0042 0022     		movs	r2, #0
 2054 0044 DA86     		strh	r2, [r3, #54]	@ movhi
 778:../firmware/gd32f3x0_hal_peripheral/Source/gd32f3x0_hal_smartcard.c **** 
 779:../firmware/gd32f3x0_hal_peripheral/Source/gd32f3x0_hal_smartcard.c ****     /* initialize receive parameter */
 780:../firmware/gd32f3x0_hal_peripheral/Source/gd32f3x0_hal_smartcard.c ****     smartcard->rxbuffer.buffer  = (uint8_t *)p_buffer;
 2055              		.loc 1 780 33 discriminator 2
 2056 0046 FB68     		ldr	r3, [r7, #12]
 2057 0048 BA68     		ldr	r2, [r7, #8]
 2058 004a 9A62     		str	r2, [r3, #40]
 781:../firmware/gd32f3x0_hal_peripheral/Source/gd32f3x0_hal_smartcard.c ****     smartcard->rxbuffer.length  = length;
 2059              		.loc 1 781 33 discriminator 2
 2060 004c FB68     		ldr	r3, [r7, #12]
 2061 004e 7A68     		ldr	r2, [r7, #4]
 2062 0050 DA62     		str	r2, [r3, #44]
 782:../firmware/gd32f3x0_hal_peripheral/Source/gd32f3x0_hal_smartcard.c ****     smartcard->rxbuffer.pos     = 0U;
 2063              		.loc 1 782 33 discriminator 2
 2064 0052 FB68     		ldr	r3, [r7, #12]
 2065 0054 0022     		movs	r2, #0
 2066 0056 1A63     		str	r2, [r3, #48]
 783:../firmware/gd32f3x0_hal_peripheral/Source/gd32f3x0_hal_smartcard.c ****     smartcard->rx_callback      = (void *)p_user_func;
 2067              		.loc 1 783 33 discriminator 2
 2068 0058 FB68     		ldr	r3, [r7, #12]
 2069 005a 3A68     		ldr	r2, [r7]
 2070 005c DA63     		str	r2, [r3, #60]
 784:../firmware/gd32f3x0_hal_peripheral/Source/gd32f3x0_hal_smartcard.c ****     smartcard->smartcard_irq.receive_complete_handle = _smartcard_receive_interrupt;
 2071              		.loc 1 784 54 discriminator 2
 2072 005e FB68     		ldr	r3, [r7, #12]
 2073 0060 0E4A     		ldr	r2, .L99
 2074 0062 5A60     		str	r2, [r3, #4]
 785:../firmware/gd32f3x0_hal_peripheral/Source/gd32f3x0_hal_smartcard.c **** 
 786:../firmware/gd32f3x0_hal_peripheral/Source/gd32f3x0_hal_smartcard.c ****     /* enable interrupt */
 787:../firmware/gd32f3x0_hal_peripheral/Source/gd32f3x0_hal_smartcard.c ****     hals_smartcard_interrupt_enable(smartcard->periph, USART_INT_PERR);
 2075              		.loc 1 787 5 discriminator 2
 2076 0064 FB68     		ldr	r3, [r7, #12]
 2077 0066 1B68     		ldr	r3, [r3]
 2078 0068 0821     		movs	r1, #8
 2079 006a 1846     		mov	r0, r3
 2080 006c FFF7FEFF 		bl	hals_smartcard_interrupt_enable
 788:../firmware/gd32f3x0_hal_peripheral/Source/gd32f3x0_hal_smartcard.c ****     hals_smartcard_interrupt_enable(smartcard->periph, USART_INT_ERR);
 2081              		.loc 1 788 5 discriminator 2
 2082 0070 FB68     		ldr	r3, [r7, #12]
 2083 0072 1B68     		ldr	r3, [r3]
 2084 0074 4FF40071 		mov	r1, #512
 2085 0078 1846     		mov	r0, r3
 2086 007a FFF7FEFF 		bl	hals_smartcard_interrupt_enable
 789:../firmware/gd32f3x0_hal_peripheral/Source/gd32f3x0_hal_smartcard.c ****     hals_smartcard_interrupt_enable(smartcard->periph, USART_INT_RBNE);
 2087              		.loc 1 789 5 discriminator 2
 2088 007e FB68     		ldr	r3, [r7, #12]
 2089 0080 1B68     		ldr	r3, [r3]
 2090 0082 0521     		movs	r1, #5
 2091 0084 1846     		mov	r0, r3
 2092 0086 FFF7FEFF 		bl	hals_smartcard_interrupt_enable
 790:../firmware/gd32f3x0_hal_peripheral/Source/gd32f3x0_hal_smartcard.c **** 
 791:../firmware/gd32f3x0_hal_peripheral/Source/gd32f3x0_hal_smartcard.c ****     /* unlock smartcard */
 792:../firmware/gd32f3x0_hal_peripheral/Source/gd32f3x0_hal_smartcard.c ****     HAL_UNLOCK(smartcard);
 2093              		.loc 1 792 5 discriminator 2
 2094 008a FB68     		ldr	r3, [r7, #12]
 2095 008c 0022     		movs	r2, #0
 2096 008e 83F84420 		strb	r2, [r3, #68]
 793:../firmware/gd32f3x0_hal_peripheral/Source/gd32f3x0_hal_smartcard.c **** 
 794:../firmware/gd32f3x0_hal_peripheral/Source/gd32f3x0_hal_smartcard.c ****     return HAL_ERR_NONE;
 2097              		.loc 1 794 12 discriminator 2
 2098 0092 0023     		movs	r3, #0
 2099              	.L97:
 795:../firmware/gd32f3x0_hal_peripheral/Source/gd32f3x0_hal_smartcard.c **** }
 2100              		.loc 1 795 1
 2101 0094 1846     		mov	r0, r3
 2102 0096 1037     		adds	r7, r7, #16
 2103              		.cfi_def_cfa_offset 8
 2104 0098 BD46     		mov	sp, r7
 2105              		.cfi_def_cfa_register 13
 2106              		@ sp needed
 2107 009a 80BD     		pop	{r7, pc}
 2108              	.L100:
 2109              		.align	2
 2110              	.L99:
 2111 009c 00000000 		.word	_smartcard_receive_interrupt
 2112              		.cfi_endproc
 2113              	.LFE128:
 2115              		.section	.text.hal_smartcard_transmit_dma,"ax",%progbits
 2116              		.align	1
 2117              		.global	hal_smartcard_transmit_dma
 2118              		.syntax unified
 2119              		.thumb
 2120              		.thumb_func
 2121              		.fpu softvfp
 2123              	hal_smartcard_transmit_dma:
 2124              	.LFB129:
 796:../firmware/gd32f3x0_hal_peripheral/Source/gd32f3x0_hal_smartcard.c **** 
 797:../firmware/gd32f3x0_hal_peripheral/Source/gd32f3x0_hal_smartcard.c **** /*!
 798:../firmware/gd32f3x0_hal_peripheral/Source/gd32f3x0_hal_smartcard.c ****     \brief      transmit amounts of data by dma method
 799:../firmware/gd32f3x0_hal_peripheral/Source/gd32f3x0_hal_smartcard.c ****     \param[in]  smartcard: smartcard device information structure
 800:../firmware/gd32f3x0_hal_peripheral/Source/gd32f3x0_hal_smartcard.c ****                     the structure is not necessary to be reconfigured after structrue initializatio
 801:../firmware/gd32f3x0_hal_peripheral/Source/gd32f3x0_hal_smartcard.c ****                     the structure parameters altering is automatically configured by core
 802:../firmware/gd32f3x0_hal_peripheral/Source/gd32f3x0_hal_smartcard.c ****     \param[in]  p_buffer: pointer to data buffer
 803:../firmware/gd32f3x0_hal_peripheral/Source/gd32f3x0_hal_smartcard.c ****     \param[in]  length: number of data to be transmitted
 804:../firmware/gd32f3x0_hal_peripheral/Source/gd32f3x0_hal_smartcard.c ****     \param[in]  p_user_func: user callback function
 805:../firmware/gd32f3x0_hal_peripheral/Source/gd32f3x0_hal_smartcard.c ****     \param[out] none
 806:../firmware/gd32f3x0_hal_peripheral/Source/gd32f3x0_hal_smartcard.c ****     \retval     error code: HAL_ERR_NONE, HAL_ERR_ADDRESS, HAL_ERR_BUSY, details refer to gd32f3x0_
 807:../firmware/gd32f3x0_hal_peripheral/Source/gd32f3x0_hal_smartcard.c **** */
 808:../firmware/gd32f3x0_hal_peripheral/Source/gd32f3x0_hal_smartcard.c **** int32_t hal_smartcard_transmit_dma(hal_smartcard_dev_struct *smartcard, uint8_t *p_buffer, uint16_t
 809:../firmware/gd32f3x0_hal_peripheral/Source/gd32f3x0_hal_smartcard.c **** {
 2125              		.loc 1 809 1
 2126              		.cfi_startproc
 2127              		@ args = 0, pretend = 0, frame = 32
 2128              		@ frame_needed = 1, uses_anonymous_args = 0
 2129 0000 90B5     		push	{r4, r7, lr}
 2130              		.cfi_def_cfa_offset 12
 2131              		.cfi_offset 4, -12
 2132              		.cfi_offset 7, -8
 2133              		.cfi_offset 14, -4
 2134 0002 8BB0     		sub	sp, sp, #44
 2135              		.cfi_def_cfa_offset 56
 2136 0004 02AF     		add	r7, sp, #8
 2137              		.cfi_def_cfa 7, 48
 2138 0006 F860     		str	r0, [r7, #12]
 2139 0008 B960     		str	r1, [r7, #8]
 2140 000a 3B60     		str	r3, [r7]
 2141 000c 1346     		mov	r3, r2	@ movhi
 2142 000e FB80     		strh	r3, [r7, #6]	@ movhi
 810:../firmware/gd32f3x0_hal_peripheral/Source/gd32f3x0_hal_smartcard.c ****     hal_dma_irq_struct dma_irq;
 811:../firmware/gd32f3x0_hal_peripheral/Source/gd32f3x0_hal_smartcard.c **** 
 812:../firmware/gd32f3x0_hal_peripheral/Source/gd32f3x0_hal_smartcard.c **** #if (1U == HAL_PARAMETER_CHECK)
 813:../firmware/gd32f3x0_hal_peripheral/Source/gd32f3x0_hal_smartcard.c ****     /* check smartcard pointer, p_buffer address and length */
 814:../firmware/gd32f3x0_hal_peripheral/Source/gd32f3x0_hal_smartcard.c ****     if((NULL == smartcard) || (NULL == p_buffer) || (0U == length)) {
 815:../firmware/gd32f3x0_hal_peripheral/Source/gd32f3x0_hal_smartcard.c ****         HAL_DEBUGE("parameter [usart] or [p_buffer] or [length] value is invalid");
 816:../firmware/gd32f3x0_hal_peripheral/Source/gd32f3x0_hal_smartcard.c ****         return HAL_ERR_ADDRESS;
 817:../firmware/gd32f3x0_hal_peripheral/Source/gd32f3x0_hal_smartcard.c ****     }
 818:../firmware/gd32f3x0_hal_peripheral/Source/gd32f3x0_hal_smartcard.c **** #endif /* 1U == HAL_PARAMETER_CHECK */
 819:../firmware/gd32f3x0_hal_peripheral/Source/gd32f3x0_hal_smartcard.c **** 
 820:../firmware/gd32f3x0_hal_peripheral/Source/gd32f3x0_hal_smartcard.c ****     /* check whether the Tx state is in ready */
 821:../firmware/gd32f3x0_hal_peripheral/Source/gd32f3x0_hal_smartcard.c ****     if(SMARTCARD_STATE_BUSY == smartcard->tx_state) {
 2143              		.loc 1 821 41
 2144 0010 FB68     		ldr	r3, [r7, #12]
 2145 0012 93F83830 		ldrb	r3, [r3, #56]
 2146 0016 DBB2     		uxtb	r3, r3
 2147              		.loc 1 821 7
 2148 0018 012B     		cmp	r3, #1
 2149 001a 02D1     		bne	.L102
 822:../firmware/gd32f3x0_hal_peripheral/Source/gd32f3x0_hal_smartcard.c ****         HAL_DEBUGE("usart tx has already been used, please wait until run_state change to free ");
 823:../firmware/gd32f3x0_hal_peripheral/Source/gd32f3x0_hal_smartcard.c ****         return HAL_ERR_BUSY;
 2150              		.loc 1 823 16
 2151 001c 6FF00203 		mvn	r3, #2
 2152 0020 92E0     		b	.L111
 2153              	.L102:
 824:../firmware/gd32f3x0_hal_peripheral/Source/gd32f3x0_hal_smartcard.c ****     }
 825:../firmware/gd32f3x0_hal_peripheral/Source/gd32f3x0_hal_smartcard.c **** 
 826:../firmware/gd32f3x0_hal_peripheral/Source/gd32f3x0_hal_smartcard.c ****     /* check whether the pointer of DMA Tx is NULL */
 827:../firmware/gd32f3x0_hal_peripheral/Source/gd32f3x0_hal_smartcard.c ****     if(NULL == smartcard->p_dma_tx) {
 2154              		.loc 1 827 25
 2155 0022 FB68     		ldr	r3, [r7, #12]
 2156 0024 9B69     		ldr	r3, [r3, #24]
 2157              		.loc 1 827 7
 2158 0026 002B     		cmp	r3, #0
 2159 0028 02D1     		bne	.L104
 828:../firmware/gd32f3x0_hal_peripheral/Source/gd32f3x0_hal_smartcard.c ****         HAL_DEBUGE("parameter [smartcard->p_dma_tx] value is invalid");
 829:../firmware/gd32f3x0_hal_peripheral/Source/gd32f3x0_hal_smartcard.c ****         return HAL_ERR_ADDRESS;
 2160              		.loc 1 829 16
 2161 002a 6FF00603 		mvn	r3, #6
 2162 002e 8BE0     		b	.L111
 2163              	.L104:
 830:../firmware/gd32f3x0_hal_peripheral/Source/gd32f3x0_hal_smartcard.c ****     }
 831:../firmware/gd32f3x0_hal_peripheral/Source/gd32f3x0_hal_smartcard.c **** 
 832:../firmware/gd32f3x0_hal_peripheral/Source/gd32f3x0_hal_smartcard.c ****     /* lock smartcard */
 833:../firmware/gd32f3x0_hal_peripheral/Source/gd32f3x0_hal_smartcard.c ****     HAL_LOCK(smartcard);
 2164              		.loc 1 833 5
 2165 0030 FB68     		ldr	r3, [r7, #12]
 2166 0032 93F84430 		ldrb	r3, [r3, #68]	@ zero_extendqisi2
 2167 0036 012B     		cmp	r3, #1
 2168 0038 02D1     		bne	.L105
 2169              		.loc 1 833 5 is_stmt 0 discriminator 1
 2170 003a 6FF00103 		mvn	r3, #1
 2171 003e 83E0     		b	.L111
 2172              	.L105:
 2173              		.loc 1 833 5 discriminator 2
 2174 0040 FB68     		ldr	r3, [r7, #12]
 2175 0042 0122     		movs	r2, #1
 2176 0044 83F84420 		strb	r2, [r3, #68]
 834:../firmware/gd32f3x0_hal_peripheral/Source/gd32f3x0_hal_smartcard.c **** 
 835:../firmware/gd32f3x0_hal_peripheral/Source/gd32f3x0_hal_smartcard.c ****     smartcard->tx_state = SMARTCARD_STATE_BUSY;
 2177              		.loc 1 835 25 is_stmt 1 discriminator 2
 2178 0048 FB68     		ldr	r3, [r7, #12]
 2179 004a 0122     		movs	r2, #1
 2180 004c 83F83820 		strb	r2, [r3, #56]
 836:../firmware/gd32f3x0_hal_peripheral/Source/gd32f3x0_hal_smartcard.c ****     smartcard->error_state = HAL_SMARTCARD_ERROR_NONE;
 2181              		.loc 1 836 28 discriminator 2
 2182 0050 FB68     		ldr	r3, [r7, #12]
 2183 0052 0022     		movs	r2, #0
 2184 0054 DA86     		strh	r2, [r3, #54]	@ movhi
 837:../firmware/gd32f3x0_hal_peripheral/Source/gd32f3x0_hal_smartcard.c **** 
 838:../firmware/gd32f3x0_hal_peripheral/Source/gd32f3x0_hal_smartcard.c ****     /* disable receive and enable transmit */
 839:../firmware/gd32f3x0_hal_peripheral/Source/gd32f3x0_hal_smartcard.c ****     hals_smartcard_receive_config(smartcard->periph, USART_RECEIVE_DISABLE);
 2185              		.loc 1 839 5 discriminator 2
 2186 0056 FB68     		ldr	r3, [r7, #12]
 2187 0058 1B68     		ldr	r3, [r3]
 2188 005a 0021     		movs	r1, #0
 2189 005c 1846     		mov	r0, r3
 2190 005e FFF7FEFF 		bl	hals_smartcard_receive_config
 840:../firmware/gd32f3x0_hal_peripheral/Source/gd32f3x0_hal_smartcard.c ****     hals_smartcard_command_enable(smartcard->periph, USART_CMD_RXFCMD);
 2191              		.loc 1 840 5 discriminator 2
 2192 0062 FB68     		ldr	r3, [r7, #12]
 2193 0064 1B68     		ldr	r3, [r3]
 2194 0066 0821     		movs	r1, #8
 2195 0068 1846     		mov	r0, r3
 2196 006a FFF7FEFF 		bl	hals_smartcard_command_enable
 841:../firmware/gd32f3x0_hal_peripheral/Source/gd32f3x0_hal_smartcard.c ****     hals_smartcard_transmit_config(smartcard->periph, USART_TRANSMIT_ENABLE);
 2197              		.loc 1 841 5 discriminator 2
 2198 006e FB68     		ldr	r3, [r7, #12]
 2199 0070 1B68     		ldr	r3, [r3]
 2200 0072 0821     		movs	r1, #8
 2201 0074 1846     		mov	r0, r3
 2202 0076 FFF7FEFF 		bl	hals_smartcard_transmit_config
 842:../firmware/gd32f3x0_hal_peripheral/Source/gd32f3x0_hal_smartcard.c **** 
 843:../firmware/gd32f3x0_hal_peripheral/Source/gd32f3x0_hal_smartcard.c ****     /* initialize transmit parameter */
 844:../firmware/gd32f3x0_hal_peripheral/Source/gd32f3x0_hal_smartcard.c ****     smartcard->txbuffer.buffer  = (uint8_t *)p_buffer;
 2203              		.loc 1 844 33 discriminator 2
 2204 007a FB68     		ldr	r3, [r7, #12]
 2205 007c BA68     		ldr	r2, [r7, #8]
 2206 007e DA61     		str	r2, [r3, #28]
 845:../firmware/gd32f3x0_hal_peripheral/Source/gd32f3x0_hal_smartcard.c ****     smartcard->txbuffer.length  = length;
 2207              		.loc 1 845 33 discriminator 2
 2208 0080 FA88     		ldrh	r2, [r7, #6]
 2209 0082 FB68     		ldr	r3, [r7, #12]
 2210 0084 1A62     		str	r2, [r3, #32]
 846:../firmware/gd32f3x0_hal_peripheral/Source/gd32f3x0_hal_smartcard.c ****     smartcard->txbuffer.pos     = 0U;
 2211              		.loc 1 846 33 discriminator 2
 2212 0086 FB68     		ldr	r3, [r7, #12]
 2213 0088 0022     		movs	r2, #0
 2214 008a 5A62     		str	r2, [r3, #36]
 847:../firmware/gd32f3x0_hal_peripheral/Source/gd32f3x0_hal_smartcard.c **** 
 848:../firmware/gd32f3x0_hal_peripheral/Source/gd32f3x0_hal_smartcard.c ****     if(NULL != p_user_func) {
 2215              		.loc 1 848 7 discriminator 2
 2216 008c 3B68     		ldr	r3, [r7]
 2217 008e 002B     		cmp	r3, #0
 2218 0090 08D0     		beq	.L106
 849:../firmware/gd32f3x0_hal_peripheral/Source/gd32f3x0_hal_smartcard.c ****         smartcard->tx_callback = (void *)p_user_func->complete_func;
 2219              		.loc 1 849 53
 2220 0092 3B68     		ldr	r3, [r7]
 2221 0094 1A68     		ldr	r2, [r3]
 2222              		.loc 1 849 32
 2223 0096 FB68     		ldr	r3, [r7, #12]
 2224 0098 1A64     		str	r2, [r3, #64]
 850:../firmware/gd32f3x0_hal_peripheral/Source/gd32f3x0_hal_smartcard.c ****         smartcard->smartcard_irq.error_handle = (hal_irq_handle_cb)p_user_func->error_func;
 2225              		.loc 1 850 79
 2226 009a 3B68     		ldr	r3, [r7]
 2227 009c 5A68     		ldr	r2, [r3, #4]
 2228              		.loc 1 850 47
 2229 009e FB68     		ldr	r3, [r7, #12]
 2230 00a0 1A61     		str	r2, [r3, #16]
 2231 00a2 05E0     		b	.L107
 2232              	.L106:
 851:../firmware/gd32f3x0_hal_peripheral/Source/gd32f3x0_hal_smartcard.c ****     } else {
 852:../firmware/gd32f3x0_hal_peripheral/Source/gd32f3x0_hal_smartcard.c ****         smartcard->tx_callback = NULL;
 2233              		.loc 1 852 32
 2234 00a4 FB68     		ldr	r3, [r7, #12]
 2235 00a6 0022     		movs	r2, #0
 2236 00a8 1A64     		str	r2, [r3, #64]
 853:../firmware/gd32f3x0_hal_peripheral/Source/gd32f3x0_hal_smartcard.c ****         smartcard->smartcard_irq.error_handle = NULL;
 2237              		.loc 1 853 47
 2238 00aa FB68     		ldr	r3, [r7, #12]
 2239 00ac 0022     		movs	r2, #0
 2240 00ae 1A61     		str	r2, [r3, #16]
 2241              	.L107:
 854:../firmware/gd32f3x0_hal_peripheral/Source/gd32f3x0_hal_smartcard.c ****     }
 855:../firmware/gd32f3x0_hal_peripheral/Source/gd32f3x0_hal_smartcard.c ****     smartcard->smartcard_irq.transmit_complete_handle = _smartcard_transmit_complete_interrupt;
 2242              		.loc 1 855 55
 2243 00b0 FB68     		ldr	r3, [r7, #12]
 2244 00b2 274A     		ldr	r2, .L112
 2245 00b4 DA60     		str	r2, [r3, #12]
 856:../firmware/gd32f3x0_hal_peripheral/Source/gd32f3x0_hal_smartcard.c **** 
 857:../firmware/gd32f3x0_hal_peripheral/Source/gd32f3x0_hal_smartcard.c ****     /* configure DMA interrupt callback function */
 858:../firmware/gd32f3x0_hal_peripheral/Source/gd32f3x0_hal_smartcard.c ****     dma_irq.full_finish_handle = _smartcard_transmit_dma;
 2246              		.loc 1 858 32
 2247 00b6 274B     		ldr	r3, .L112+4
 2248 00b8 FB61     		str	r3, [r7, #28]
 859:../firmware/gd32f3x0_hal_peripheral/Source/gd32f3x0_hal_smartcard.c ****     dma_irq.error_handle = _smartcard_dma_error;
 2249              		.loc 1 859 26
 2250 00ba 274B     		ldr	r3, .L112+8
 2251 00bc 7B61     		str	r3, [r7, #20]
 860:../firmware/gd32f3x0_hal_peripheral/Source/gd32f3x0_hal_smartcard.c ****     if(NULL != smartcard->p_dma_tx->dma_irq.half_finish_handle) {
 2252              		.loc 1 860 25
 2253 00be FB68     		ldr	r3, [r7, #12]
 2254 00c0 9B69     		ldr	r3, [r3, #24]
 2255              		.loc 1 860 44
 2256 00c2 9B68     		ldr	r3, [r3, #8]
 2257              		.loc 1 860 7
 2258 00c4 002B     		cmp	r3, #0
 2259 00c6 04D0     		beq	.L108
 861:../firmware/gd32f3x0_hal_peripheral/Source/gd32f3x0_hal_smartcard.c ****         dma_irq.half_finish_handle = smartcard->p_dma_tx->dma_irq.half_finish_handle;
 2260              		.loc 1 861 47
 2261 00c8 FB68     		ldr	r3, [r7, #12]
 2262 00ca 9B69     		ldr	r3, [r3, #24]
 2263              		.loc 1 861 66
 2264 00cc 9B68     		ldr	r3, [r3, #8]
 2265              		.loc 1 861 36
 2266 00ce BB61     		str	r3, [r7, #24]
 2267 00d0 01E0     		b	.L109
 2268              	.L108:
 862:../firmware/gd32f3x0_hal_peripheral/Source/gd32f3x0_hal_smartcard.c ****     } else {
 863:../firmware/gd32f3x0_hal_peripheral/Source/gd32f3x0_hal_smartcard.c ****         dma_irq.half_finish_handle = NULL;
 2269              		.loc 1 863 36
 2270 00d2 0023     		movs	r3, #0
 2271 00d4 BB61     		str	r3, [r7, #24]
 2272              	.L109:
 864:../firmware/gd32f3x0_hal_peripheral/Source/gd32f3x0_hal_smartcard.c ****     }
 865:../firmware/gd32f3x0_hal_peripheral/Source/gd32f3x0_hal_smartcard.c **** 
 866:../firmware/gd32f3x0_hal_peripheral/Source/gd32f3x0_hal_smartcard.c ****     /* start DMA interrupt mode transfer */
 867:../firmware/gd32f3x0_hal_peripheral/Source/gd32f3x0_hal_smartcard.c ****     if(HAL_ERR_NONE != hal_dma_start_interrupt(smartcard->p_dma_tx,
 2273              		.loc 1 867 24
 2274 00d6 FB68     		ldr	r3, [r7, #12]
 2275 00d8 9869     		ldr	r0, [r3, #24]
 868:../firmware/gd32f3x0_hal_peripheral/Source/gd32f3x0_hal_smartcard.c ****             (uint32_t)smartcard->txbuffer.buffer, (uint32_t)&USART_TDATA(smartcard->periph),
 2276              		.loc 1 868 42
 2277 00da FB68     		ldr	r3, [r7, #12]
 2278 00dc DB69     		ldr	r3, [r3, #28]
 867:../firmware/gd32f3x0_hal_peripheral/Source/gd32f3x0_hal_smartcard.c ****             (uint32_t)smartcard->txbuffer.buffer, (uint32_t)&USART_TDATA(smartcard->periph),
 2279              		.loc 1 867 24
 2280 00de 1C46     		mov	r4, r3
 2281              		.loc 1 868 62
 2282 00e0 FB68     		ldr	r3, [r7, #12]
 2283 00e2 1B68     		ldr	r3, [r3]
 867:../firmware/gd32f3x0_hal_peripheral/Source/gd32f3x0_hal_smartcard.c ****             (uint32_t)smartcard->txbuffer.buffer, (uint32_t)&USART_TDATA(smartcard->periph),
 2284              		.loc 1 867 24
 2285 00e4 03F12802 		add	r2, r3, #40
 869:../firmware/gd32f3x0_hal_peripheral/Source/gd32f3x0_hal_smartcard.c ****             smartcard->txbuffer.length, &dma_irq)) {
 2286              		.loc 1 869 32
 2287 00e8 FB68     		ldr	r3, [r7, #12]
 2288 00ea 1B6A     		ldr	r3, [r3, #32]
 867:../firmware/gd32f3x0_hal_peripheral/Source/gd32f3x0_hal_smartcard.c ****             (uint32_t)smartcard->txbuffer.buffer, (uint32_t)&USART_TDATA(smartcard->periph),
 2289              		.loc 1 867 24
 2290 00ec 99B2     		uxth	r1, r3
 2291 00ee 07F11403 		add	r3, r7, #20
 2292 00f2 0093     		str	r3, [sp]
 2293 00f4 0B46     		mov	r3, r1
 2294 00f6 2146     		mov	r1, r4
 2295 00f8 FFF7FEFF 		bl	hal_dma_start_interrupt
 2296 00fc 0346     		mov	r3, r0
 867:../firmware/gd32f3x0_hal_peripheral/Source/gd32f3x0_hal_smartcard.c ****             (uint32_t)smartcard->txbuffer.buffer, (uint32_t)&USART_TDATA(smartcard->periph),
 2297              		.loc 1 867 7
 2298 00fe 002B     		cmp	r3, #0
 2299 0100 0AD0     		beq	.L110
 870:../firmware/gd32f3x0_hal_peripheral/Source/gd32f3x0_hal_smartcard.c ****         smartcard->tx_state = SMARTCARD_STATE_FREE;
 2300              		.loc 1 870 29
 2301 0102 FB68     		ldr	r3, [r7, #12]
 2302 0104 0022     		movs	r2, #0
 2303 0106 83F83820 		strb	r2, [r3, #56]
 871:../firmware/gd32f3x0_hal_peripheral/Source/gd32f3x0_hal_smartcard.c ****         smartcard->error_state = HAL_SMARTCARD_ERROR_DMATX;
 2304              		.loc 1 871 32
 2305 010a FB68     		ldr	r3, [r7, #12]
 2306 010c 1022     		movs	r2, #16
 2307 010e DA86     		strh	r2, [r3, #54]	@ movhi
 872:../firmware/gd32f3x0_hal_peripheral/Source/gd32f3x0_hal_smartcard.c ****         /* unlock uart */
 873:../firmware/gd32f3x0_hal_peripheral/Source/gd32f3x0_hal_smartcard.c ****         HAL_UNLOCK(smartcard);
 2308              		.loc 1 873 9
 2309 0110 FB68     		ldr	r3, [r7, #12]
 2310 0112 0022     		movs	r2, #0
 2311 0114 83F84420 		strb	r2, [r3, #68]
 2312              	.L110:
 874:../firmware/gd32f3x0_hal_peripheral/Source/gd32f3x0_hal_smartcard.c ****     }
 875:../firmware/gd32f3x0_hal_peripheral/Source/gd32f3x0_hal_smartcard.c **** 
 876:../firmware/gd32f3x0_hal_peripheral/Source/gd32f3x0_hal_smartcard.c ****     /* clear SMARTCARD TC interrupt flag */
 877:../firmware/gd32f3x0_hal_peripheral/Source/gd32f3x0_hal_smartcard.c ****     hals_smartcard_interrupt_flag_clear(smartcard->periph, USART_INT_FLAG_TC);
 2313              		.loc 1 877 5
 2314 0118 FB68     		ldr	r3, [r7, #12]
 2315 011a 1B68     		ldr	r3, [r3]
 2316 011c 0F49     		ldr	r1, .L112+12
 2317 011e 1846     		mov	r0, r3
 2318 0120 FFF7FEFF 		bl	hals_smartcard_interrupt_flag_clear
 878:../firmware/gd32f3x0_hal_peripheral/Source/gd32f3x0_hal_smartcard.c **** 
 879:../firmware/gd32f3x0_hal_peripheral/Source/gd32f3x0_hal_smartcard.c ****     /* enable ERR interrupt(frame error) */
 880:../firmware/gd32f3x0_hal_peripheral/Source/gd32f3x0_hal_smartcard.c ****     hals_smartcard_interrupt_enable(smartcard->periph, USART_INT_ERR);
 2319              		.loc 1 880 5
 2320 0124 FB68     		ldr	r3, [r7, #12]
 2321 0126 1B68     		ldr	r3, [r3]
 2322 0128 4FF40071 		mov	r1, #512
 2323 012c 1846     		mov	r0, r3
 2324 012e FFF7FEFF 		bl	hals_smartcard_interrupt_enable
 881:../firmware/gd32f3x0_hal_peripheral/Source/gd32f3x0_hal_smartcard.c **** 
 882:../firmware/gd32f3x0_hal_peripheral/Source/gd32f3x0_hal_smartcard.c ****     /* DMA enable for smartcard transmission */
 883:../firmware/gd32f3x0_hal_peripheral/Source/gd32f3x0_hal_smartcard.c ****     hals_smartcard_dma_transmit_config(smartcard->periph, USART_TRANSMIT_DMA_ENABLE);
 2325              		.loc 1 883 5
 2326 0132 FB68     		ldr	r3, [r7, #12]
 2327 0134 1B68     		ldr	r3, [r3]
 2328 0136 8021     		movs	r1, #128
 2329 0138 1846     		mov	r0, r3
 2330 013a FFF7FEFF 		bl	hals_smartcard_dma_transmit_config
 884:../firmware/gd32f3x0_hal_peripheral/Source/gd32f3x0_hal_smartcard.c **** 
 885:../firmware/gd32f3x0_hal_peripheral/Source/gd32f3x0_hal_smartcard.c ****     /* unlock smartcard */
 886:../firmware/gd32f3x0_hal_peripheral/Source/gd32f3x0_hal_smartcard.c ****     HAL_UNLOCK(smartcard);
 2331              		.loc 1 886 5
 2332 013e FB68     		ldr	r3, [r7, #12]
 2333 0140 0022     		movs	r2, #0
 2334 0142 83F84420 		strb	r2, [r3, #68]
 887:../firmware/gd32f3x0_hal_peripheral/Source/gd32f3x0_hal_smartcard.c **** 
 888:../firmware/gd32f3x0_hal_peripheral/Source/gd32f3x0_hal_smartcard.c ****     return HAL_ERR_NONE;
 2335              		.loc 1 888 12
 2336 0146 0023     		movs	r3, #0
 2337              	.L111:
 889:../firmware/gd32f3x0_hal_peripheral/Source/gd32f3x0_hal_smartcard.c **** }
 2338              		.loc 1 889 1 discriminator 1
 2339 0148 1846     		mov	r0, r3
 2340 014a 2437     		adds	r7, r7, #36
 2341              		.cfi_def_cfa_offset 12
 2342 014c BD46     		mov	sp, r7
 2343              		.cfi_def_cfa_register 13
 2344              		@ sp needed
 2345 014e 90BD     		pop	{r4, r7, pc}
 2346              	.L113:
 2347              		.align	2
 2348              	.L112:
 2349 0150 00000000 		.word	_smartcard_transmit_complete_interrupt
 2350 0154 00000000 		.word	_smartcard_transmit_dma
 2351 0158 00000000 		.word	_smartcard_dma_error
 2352 015c 06000607 		.word	117833734
 2353              		.cfi_endproc
 2354              	.LFE129:
 2356              		.section	.text.hal_smartcard_receive_dma,"ax",%progbits
 2357              		.align	1
 2358              		.global	hal_smartcard_receive_dma
 2359              		.syntax unified
 2360              		.thumb
 2361              		.thumb_func
 2362              		.fpu softvfp
 2364              	hal_smartcard_receive_dma:
 2365              	.LFB130:
 890:../firmware/gd32f3x0_hal_peripheral/Source/gd32f3x0_hal_smartcard.c **** 
 891:../firmware/gd32f3x0_hal_peripheral/Source/gd32f3x0_hal_smartcard.c **** /*!
 892:../firmware/gd32f3x0_hal_peripheral/Source/gd32f3x0_hal_smartcard.c ****     \brief      receive amounts of data by dma method
 893:../firmware/gd32f3x0_hal_peripheral/Source/gd32f3x0_hal_smartcard.c ****     \param[in]  smartcard: smartcard device information structure
 894:../firmware/gd32f3x0_hal_peripheral/Source/gd32f3x0_hal_smartcard.c ****                     the structure is not necessary to be reconfigured after structrue initializatio
 895:../firmware/gd32f3x0_hal_peripheral/Source/gd32f3x0_hal_smartcard.c ****                     the structure parameters altering is automatically configured by core
 896:../firmware/gd32f3x0_hal_peripheral/Source/gd32f3x0_hal_smartcard.c ****     \param[in]  p_buffer: pointer to data buffer
 897:../firmware/gd32f3x0_hal_peripheral/Source/gd32f3x0_hal_smartcard.c ****     \param[in]  length: number of data to be sent received
 898:../firmware/gd32f3x0_hal_peripheral/Source/gd32f3x0_hal_smartcard.c ****     \param[in]  p_user_func: user callback function
 899:../firmware/gd32f3x0_hal_peripheral/Source/gd32f3x0_hal_smartcard.c ****     \param[out] none
 900:../firmware/gd32f3x0_hal_peripheral/Source/gd32f3x0_hal_smartcard.c ****     \retval     error code: HAL_ERR_NONE, HAL_ERR_ADDRESS, HAL_ERR_BUSY, details refer to gd32f3x0_
 901:../firmware/gd32f3x0_hal_peripheral/Source/gd32f3x0_hal_smartcard.c **** */
 902:../firmware/gd32f3x0_hal_peripheral/Source/gd32f3x0_hal_smartcard.c **** int32_t hal_smartcard_receive_dma(hal_smartcard_dev_struct *smartcard, uint8_t *p_buffer, uint16_t 
 903:../firmware/gd32f3x0_hal_peripheral/Source/gd32f3x0_hal_smartcard.c **** {
 2366              		.loc 1 903 1
 2367              		.cfi_startproc
 2368              		@ args = 0, pretend = 0, frame = 32
 2369              		@ frame_needed = 1, uses_anonymous_args = 0
 2370 0000 90B5     		push	{r4, r7, lr}
 2371              		.cfi_def_cfa_offset 12
 2372              		.cfi_offset 4, -12
 2373              		.cfi_offset 7, -8
 2374              		.cfi_offset 14, -4
 2375 0002 8BB0     		sub	sp, sp, #44
 2376              		.cfi_def_cfa_offset 56
 2377 0004 02AF     		add	r7, sp, #8
 2378              		.cfi_def_cfa 7, 48
 2379 0006 F860     		str	r0, [r7, #12]
 2380 0008 B960     		str	r1, [r7, #8]
 2381 000a 3B60     		str	r3, [r7]
 2382 000c 1346     		mov	r3, r2	@ movhi
 2383 000e FB80     		strh	r3, [r7, #6]	@ movhi
 904:../firmware/gd32f3x0_hal_peripheral/Source/gd32f3x0_hal_smartcard.c ****     hal_dma_irq_struct dma_irq;
 905:../firmware/gd32f3x0_hal_peripheral/Source/gd32f3x0_hal_smartcard.c **** 
 906:../firmware/gd32f3x0_hal_peripheral/Source/gd32f3x0_hal_smartcard.c **** #if (1U == HAL_PARAMETER_CHECK)
 907:../firmware/gd32f3x0_hal_peripheral/Source/gd32f3x0_hal_smartcard.c ****     /* check smartcard pointer, p_buffer address and length */
 908:../firmware/gd32f3x0_hal_peripheral/Source/gd32f3x0_hal_smartcard.c ****     if((NULL == smartcard) || (NULL == p_buffer) || (0 == length)) {
 909:../firmware/gd32f3x0_hal_peripheral/Source/gd32f3x0_hal_smartcard.c ****         HAL_DEBUGE("parameter [usart] or [p_buffer] or [length] value is invalid");
 910:../firmware/gd32f3x0_hal_peripheral/Source/gd32f3x0_hal_smartcard.c ****         return HAL_ERR_ADDRESS;
 911:../firmware/gd32f3x0_hal_peripheral/Source/gd32f3x0_hal_smartcard.c ****     }
 912:../firmware/gd32f3x0_hal_peripheral/Source/gd32f3x0_hal_smartcard.c **** #endif /* 1U == HAL_PARAMETER_CHECK */
 913:../firmware/gd32f3x0_hal_peripheral/Source/gd32f3x0_hal_smartcard.c **** 
 914:../firmware/gd32f3x0_hal_peripheral/Source/gd32f3x0_hal_smartcard.c ****     /* check whether the Rx state is in ready */
 915:../firmware/gd32f3x0_hal_peripheral/Source/gd32f3x0_hal_smartcard.c ****     if(SMARTCARD_STATE_BUSY == smartcard->rx_state) {
 2384              		.loc 1 915 41
 2385 0010 FB68     		ldr	r3, [r7, #12]
 2386 0012 93F83930 		ldrb	r3, [r3, #57]
 2387 0016 DBB2     		uxtb	r3, r3
 2388              		.loc 1 915 7
 2389 0018 012B     		cmp	r3, #1
 2390 001a 02D1     		bne	.L115
 916:../firmware/gd32f3x0_hal_peripheral/Source/gd32f3x0_hal_smartcard.c ****         HAL_DEBUGE("usart rx has already been used, please wait until run_state change to free ");
 917:../firmware/gd32f3x0_hal_peripheral/Source/gd32f3x0_hal_smartcard.c ****         return HAL_ERR_BUSY;
 2391              		.loc 1 917 16
 2392 001c 6FF00203 		mvn	r3, #2
 2393 0020 7DE0     		b	.L124
 2394              	.L115:
 918:../firmware/gd32f3x0_hal_peripheral/Source/gd32f3x0_hal_smartcard.c ****     }
 919:../firmware/gd32f3x0_hal_peripheral/Source/gd32f3x0_hal_smartcard.c **** 
 920:../firmware/gd32f3x0_hal_peripheral/Source/gd32f3x0_hal_smartcard.c ****     /* check whether the pointer of DMA Rx is NULL */
 921:../firmware/gd32f3x0_hal_peripheral/Source/gd32f3x0_hal_smartcard.c ****     if(NULL == smartcard->p_dma_rx) {
 2395              		.loc 1 921 25
 2396 0022 FB68     		ldr	r3, [r7, #12]
 2397 0024 5B69     		ldr	r3, [r3, #20]
 2398              		.loc 1 921 7
 2399 0026 002B     		cmp	r3, #0
 2400 0028 02D1     		bne	.L117
 922:../firmware/gd32f3x0_hal_peripheral/Source/gd32f3x0_hal_smartcard.c ****         HAL_DEBUGE("parameter [smartcard->p_dma_rx] value is invalid");
 923:../firmware/gd32f3x0_hal_peripheral/Source/gd32f3x0_hal_smartcard.c ****         return HAL_ERR_ADDRESS;
 2401              		.loc 1 923 16
 2402 002a 6FF00603 		mvn	r3, #6
 2403 002e 76E0     		b	.L124
 2404              	.L117:
 924:../firmware/gd32f3x0_hal_peripheral/Source/gd32f3x0_hal_smartcard.c ****     }
 925:../firmware/gd32f3x0_hal_peripheral/Source/gd32f3x0_hal_smartcard.c **** 
 926:../firmware/gd32f3x0_hal_peripheral/Source/gd32f3x0_hal_smartcard.c ****     /* lock smartcard */
 927:../firmware/gd32f3x0_hal_peripheral/Source/gd32f3x0_hal_smartcard.c ****     HAL_LOCK(smartcard);
 2405              		.loc 1 927 5
 2406 0030 FB68     		ldr	r3, [r7, #12]
 2407 0032 93F84430 		ldrb	r3, [r3, #68]	@ zero_extendqisi2
 2408 0036 012B     		cmp	r3, #1
 2409 0038 02D1     		bne	.L118
 2410              		.loc 1 927 5 is_stmt 0 discriminator 1
 2411 003a 6FF00103 		mvn	r3, #1
 2412 003e 6EE0     		b	.L124
 2413              	.L118:
 2414              		.loc 1 927 5 discriminator 2
 2415 0040 FB68     		ldr	r3, [r7, #12]
 2416 0042 0122     		movs	r2, #1
 2417 0044 83F84420 		strb	r2, [r3, #68]
 928:../firmware/gd32f3x0_hal_peripheral/Source/gd32f3x0_hal_smartcard.c **** 
 929:../firmware/gd32f3x0_hal_peripheral/Source/gd32f3x0_hal_smartcard.c ****     smartcard->rx_state = SMARTCARD_STATE_BUSY;
 2418              		.loc 1 929 25 is_stmt 1 discriminator 2
 2419 0048 FB68     		ldr	r3, [r7, #12]
 2420 004a 0122     		movs	r2, #1
 2421 004c 83F83920 		strb	r2, [r3, #57]
 930:../firmware/gd32f3x0_hal_peripheral/Source/gd32f3x0_hal_smartcard.c ****     smartcard->error_state = HAL_SMARTCARD_ERROR_NONE;
 2422              		.loc 1 930 28 discriminator 2
 2423 0050 FB68     		ldr	r3, [r7, #12]
 2424 0052 0022     		movs	r2, #0
 2425 0054 DA86     		strh	r2, [r3, #54]	@ movhi
 931:../firmware/gd32f3x0_hal_peripheral/Source/gd32f3x0_hal_smartcard.c **** 
 932:../firmware/gd32f3x0_hal_peripheral/Source/gd32f3x0_hal_smartcard.c ****     /* initialize receive parameter */
 933:../firmware/gd32f3x0_hal_peripheral/Source/gd32f3x0_hal_smartcard.c ****     smartcard->rxbuffer.buffer  = (uint8_t *)p_buffer;
 2426              		.loc 1 933 33 discriminator 2
 2427 0056 FB68     		ldr	r3, [r7, #12]
 2428 0058 BA68     		ldr	r2, [r7, #8]
 2429 005a 9A62     		str	r2, [r3, #40]
 934:../firmware/gd32f3x0_hal_peripheral/Source/gd32f3x0_hal_smartcard.c ****     smartcard->rxbuffer.length  = length;
 2430              		.loc 1 934 33 discriminator 2
 2431 005c FA88     		ldrh	r2, [r7, #6]
 2432 005e FB68     		ldr	r3, [r7, #12]
 2433 0060 DA62     		str	r2, [r3, #44]
 935:../firmware/gd32f3x0_hal_peripheral/Source/gd32f3x0_hal_smartcard.c ****     smartcard->rxbuffer.pos     = 0U;
 2434              		.loc 1 935 33 discriminator 2
 2435 0062 FB68     		ldr	r3, [r7, #12]
 2436 0064 0022     		movs	r2, #0
 2437 0066 1A63     		str	r2, [r3, #48]
 936:../firmware/gd32f3x0_hal_peripheral/Source/gd32f3x0_hal_smartcard.c **** 
 937:../firmware/gd32f3x0_hal_peripheral/Source/gd32f3x0_hal_smartcard.c ****     if(NULL != p_user_func) {
 2438              		.loc 1 937 7 discriminator 2
 2439 0068 3B68     		ldr	r3, [r7]
 2440 006a 002B     		cmp	r3, #0
 2441 006c 08D0     		beq	.L119
 938:../firmware/gd32f3x0_hal_peripheral/Source/gd32f3x0_hal_smartcard.c ****         smartcard->rx_callback = (void *)p_user_func->complete_func;
 2442              		.loc 1 938 53
 2443 006e 3B68     		ldr	r3, [r7]
 2444 0070 1A68     		ldr	r2, [r3]
 2445              		.loc 1 938 32
 2446 0072 FB68     		ldr	r3, [r7, #12]
 2447 0074 DA63     		str	r2, [r3, #60]
 939:../firmware/gd32f3x0_hal_peripheral/Source/gd32f3x0_hal_smartcard.c ****         smartcard->smartcard_irq.error_handle = (hal_irq_handle_cb)p_user_func->error_func;
 2448              		.loc 1 939 79
 2449 0076 3B68     		ldr	r3, [r7]
 2450 0078 5A68     		ldr	r2, [r3, #4]
 2451              		.loc 1 939 47
 2452 007a FB68     		ldr	r3, [r7, #12]
 2453 007c 1A61     		str	r2, [r3, #16]
 2454 007e 05E0     		b	.L120
 2455              	.L119:
 940:../firmware/gd32f3x0_hal_peripheral/Source/gd32f3x0_hal_smartcard.c ****     } else {
 941:../firmware/gd32f3x0_hal_peripheral/Source/gd32f3x0_hal_smartcard.c ****         smartcard->rx_callback = NULL;
 2456              		.loc 1 941 32
 2457 0080 FB68     		ldr	r3, [r7, #12]
 2458 0082 0022     		movs	r2, #0
 2459 0084 DA63     		str	r2, [r3, #60]
 942:../firmware/gd32f3x0_hal_peripheral/Source/gd32f3x0_hal_smartcard.c ****         smartcard->smartcard_irq.error_handle = NULL;
 2460              		.loc 1 942 47
 2461 0086 FB68     		ldr	r3, [r7, #12]
 2462 0088 0022     		movs	r2, #0
 2463 008a 1A61     		str	r2, [r3, #16]
 2464              	.L120:
 943:../firmware/gd32f3x0_hal_peripheral/Source/gd32f3x0_hal_smartcard.c ****     }
 944:../firmware/gd32f3x0_hal_peripheral/Source/gd32f3x0_hal_smartcard.c **** 
 945:../firmware/gd32f3x0_hal_peripheral/Source/gd32f3x0_hal_smartcard.c ****     /* configure DMA interrupt interrupt callback function */
 946:../firmware/gd32f3x0_hal_peripheral/Source/gd32f3x0_hal_smartcard.c ****     dma_irq.full_finish_handle = _smartcard_receive_dma;
 2465              		.loc 1 946 32
 2466 008c 264B     		ldr	r3, .L125
 2467 008e FB61     		str	r3, [r7, #28]
 947:../firmware/gd32f3x0_hal_peripheral/Source/gd32f3x0_hal_smartcard.c ****     dma_irq.error_handle = _smartcard_dma_error;
 2468              		.loc 1 947 26
 2469 0090 264B     		ldr	r3, .L125+4
 2470 0092 7B61     		str	r3, [r7, #20]
 948:../firmware/gd32f3x0_hal_peripheral/Source/gd32f3x0_hal_smartcard.c ****     if(NULL != smartcard->p_dma_rx->dma_irq.half_finish_handle) {
 2471              		.loc 1 948 25
 2472 0094 FB68     		ldr	r3, [r7, #12]
 2473 0096 5B69     		ldr	r3, [r3, #20]
 2474              		.loc 1 948 44
 2475 0098 9B68     		ldr	r3, [r3, #8]
 2476              		.loc 1 948 7
 2477 009a 002B     		cmp	r3, #0
 2478 009c 04D0     		beq	.L121
 949:../firmware/gd32f3x0_hal_peripheral/Source/gd32f3x0_hal_smartcard.c ****         dma_irq.half_finish_handle = smartcard->p_dma_rx->dma_irq.half_finish_handle;
 2479              		.loc 1 949 47
 2480 009e FB68     		ldr	r3, [r7, #12]
 2481 00a0 5B69     		ldr	r3, [r3, #20]
 2482              		.loc 1 949 66
 2483 00a2 9B68     		ldr	r3, [r3, #8]
 2484              		.loc 1 949 36
 2485 00a4 BB61     		str	r3, [r7, #24]
 2486 00a6 01E0     		b	.L122
 2487              	.L121:
 950:../firmware/gd32f3x0_hal_peripheral/Source/gd32f3x0_hal_smartcard.c ****     } else {
 951:../firmware/gd32f3x0_hal_peripheral/Source/gd32f3x0_hal_smartcard.c ****         dma_irq.half_finish_handle = NULL;
 2488              		.loc 1 951 36
 2489 00a8 0023     		movs	r3, #0
 2490 00aa BB61     		str	r3, [r7, #24]
 2491              	.L122:
 952:../firmware/gd32f3x0_hal_peripheral/Source/gd32f3x0_hal_smartcard.c ****     }
 953:../firmware/gd32f3x0_hal_peripheral/Source/gd32f3x0_hal_smartcard.c **** 
 954:../firmware/gd32f3x0_hal_peripheral/Source/gd32f3x0_hal_smartcard.c ****     /* start DMA interrupt mode transfer */
 955:../firmware/gd32f3x0_hal_peripheral/Source/gd32f3x0_hal_smartcard.c ****     if(HAL_ERR_NONE != hal_dma_start_interrupt(smartcard->p_dma_rx,
 2492              		.loc 1 955 24
 2493 00ac FB68     		ldr	r3, [r7, #12]
 2494 00ae 5869     		ldr	r0, [r3, #20]
 956:../firmware/gd32f3x0_hal_peripheral/Source/gd32f3x0_hal_smartcard.c ****             (uint32_t)&USART_RDATA(smartcard->periph), (uint32_t)smartcard->rxbuffer.buffer,
 2495              		.loc 1 956 24
 2496 00b0 FB68     		ldr	r3, [r7, #12]
 2497 00b2 1B68     		ldr	r3, [r3]
 955:../firmware/gd32f3x0_hal_peripheral/Source/gd32f3x0_hal_smartcard.c ****             (uint32_t)&USART_RDATA(smartcard->periph), (uint32_t)smartcard->rxbuffer.buffer,
 2498              		.loc 1 955 24
 2499 00b4 03F12401 		add	r1, r3, #36
 2500              		.loc 1 956 85
 2501 00b8 FB68     		ldr	r3, [r7, #12]
 2502 00ba 9B6A     		ldr	r3, [r3, #40]
 955:../firmware/gd32f3x0_hal_peripheral/Source/gd32f3x0_hal_smartcard.c ****             (uint32_t)&USART_RDATA(smartcard->periph), (uint32_t)smartcard->rxbuffer.buffer,
 2503              		.loc 1 955 24
 2504 00bc 1C46     		mov	r4, r3
 957:../firmware/gd32f3x0_hal_peripheral/Source/gd32f3x0_hal_smartcard.c ****             smartcard->rxbuffer.length, &dma_irq)) {
 2505              		.loc 1 957 32
 2506 00be FB68     		ldr	r3, [r7, #12]
 2507 00c0 DB6A     		ldr	r3, [r3, #44]
 955:../firmware/gd32f3x0_hal_peripheral/Source/gd32f3x0_hal_smartcard.c ****             (uint32_t)&USART_RDATA(smartcard->periph), (uint32_t)smartcard->rxbuffer.buffer,
 2508              		.loc 1 955 24
 2509 00c2 9AB2     		uxth	r2, r3
 2510 00c4 07F11403 		add	r3, r7, #20
 2511 00c8 0093     		str	r3, [sp]
 2512 00ca 1346     		mov	r3, r2
 2513 00cc 2246     		mov	r2, r4
 2514 00ce FFF7FEFF 		bl	hal_dma_start_interrupt
 2515 00d2 0346     		mov	r3, r0
 955:../firmware/gd32f3x0_hal_peripheral/Source/gd32f3x0_hal_smartcard.c ****             (uint32_t)&USART_RDATA(smartcard->periph), (uint32_t)smartcard->rxbuffer.buffer,
 2516              		.loc 1 955 7
 2517 00d4 002B     		cmp	r3, #0
 2518 00d6 0AD0     		beq	.L123
 958:../firmware/gd32f3x0_hal_peripheral/Source/gd32f3x0_hal_smartcard.c ****         smartcard->rx_state = SMARTCARD_STATE_FREE;
 2519              		.loc 1 958 29
 2520 00d8 FB68     		ldr	r3, [r7, #12]
 2521 00da 0022     		movs	r2, #0
 2522 00dc 83F83920 		strb	r2, [r3, #57]
 959:../firmware/gd32f3x0_hal_peripheral/Source/gd32f3x0_hal_smartcard.c ****         smartcard->error_state = HAL_SMARTCARD_ERROR_DMARX;
 2523              		.loc 1 959 32
 2524 00e0 FB68     		ldr	r3, [r7, #12]
 2525 00e2 2022     		movs	r2, #32
 2526 00e4 DA86     		strh	r2, [r3, #54]	@ movhi
 960:../firmware/gd32f3x0_hal_peripheral/Source/gd32f3x0_hal_smartcard.c ****         /* unlock uart */
 961:../firmware/gd32f3x0_hal_peripheral/Source/gd32f3x0_hal_smartcard.c ****         HAL_UNLOCK(smartcard);
 2527              		.loc 1 961 9
 2528 00e6 FB68     		ldr	r3, [r7, #12]
 2529 00e8 0022     		movs	r2, #0
 2530 00ea 83F84420 		strb	r2, [r3, #68]
 2531              	.L123:
 962:../firmware/gd32f3x0_hal_peripheral/Source/gd32f3x0_hal_smartcard.c ****     }
 963:../firmware/gd32f3x0_hal_peripheral/Source/gd32f3x0_hal_smartcard.c **** 
 964:../firmware/gd32f3x0_hal_peripheral/Source/gd32f3x0_hal_smartcard.c ****     /* enable the usart parity error interrupt */
 965:../firmware/gd32f3x0_hal_peripheral/Source/gd32f3x0_hal_smartcard.c ****     hals_smartcard_interrupt_enable(smartcard->periph, USART_INT_PERR);
 2532              		.loc 1 965 5
 2533 00ee FB68     		ldr	r3, [r7, #12]
 2534 00f0 1B68     		ldr	r3, [r3]
 2535 00f2 0821     		movs	r1, #8
 2536 00f4 1846     		mov	r0, r3
 2537 00f6 FFF7FEFF 		bl	hals_smartcard_interrupt_enable
 966:../firmware/gd32f3x0_hal_peripheral/Source/gd32f3x0_hal_smartcard.c **** 
 967:../firmware/gd32f3x0_hal_peripheral/Source/gd32f3x0_hal_smartcard.c ****     /* enable the usart error interrupt: (frame error, noise error, overrun error) */
 968:../firmware/gd32f3x0_hal_peripheral/Source/gd32f3x0_hal_smartcard.c ****     hals_smartcard_interrupt_enable(smartcard->periph, USART_INT_ERR);
 2538              		.loc 1 968 5
 2539 00fa FB68     		ldr	r3, [r7, #12]
 2540 00fc 1B68     		ldr	r3, [r3]
 2541 00fe 4FF40071 		mov	r1, #512
 2542 0102 1846     		mov	r0, r3
 2543 0104 FFF7FEFF 		bl	hals_smartcard_interrupt_enable
 969:../firmware/gd32f3x0_hal_peripheral/Source/gd32f3x0_hal_smartcard.c **** 
 970:../firmware/gd32f3x0_hal_peripheral/Source/gd32f3x0_hal_smartcard.c ****     /* DMA enable for smartcard reception */
 971:../firmware/gd32f3x0_hal_peripheral/Source/gd32f3x0_hal_smartcard.c ****     hals_smartcard_dma_receive_config(smartcard->periph, USART_RECEIVE_DMA_ENABLE);
 2544              		.loc 1 971 5
 2545 0108 FB68     		ldr	r3, [r7, #12]
 2546 010a 1B68     		ldr	r3, [r3]
 2547 010c 4021     		movs	r1, #64
 2548 010e 1846     		mov	r0, r3
 2549 0110 FFF7FEFF 		bl	hals_smartcard_dma_receive_config
 972:../firmware/gd32f3x0_hal_peripheral/Source/gd32f3x0_hal_smartcard.c **** 
 973:../firmware/gd32f3x0_hal_peripheral/Source/gd32f3x0_hal_smartcard.c ****     /* unlock smartcard */
 974:../firmware/gd32f3x0_hal_peripheral/Source/gd32f3x0_hal_smartcard.c ****     HAL_UNLOCK(smartcard);
 2550              		.loc 1 974 5
 2551 0114 FB68     		ldr	r3, [r7, #12]
 2552 0116 0022     		movs	r2, #0
 2553 0118 83F84420 		strb	r2, [r3, #68]
 975:../firmware/gd32f3x0_hal_peripheral/Source/gd32f3x0_hal_smartcard.c **** 
 976:../firmware/gd32f3x0_hal_peripheral/Source/gd32f3x0_hal_smartcard.c ****     return HAL_ERR_NONE;
 2554              		.loc 1 976 12
 2555 011c 0023     		movs	r3, #0
 2556              	.L124:
 977:../firmware/gd32f3x0_hal_peripheral/Source/gd32f3x0_hal_smartcard.c **** }
 2557              		.loc 1 977 1 discriminator 1
 2558 011e 1846     		mov	r0, r3
 2559 0120 2437     		adds	r7, r7, #36
 2560              		.cfi_def_cfa_offset 12
 2561 0122 BD46     		mov	sp, r7
 2562              		.cfi_def_cfa_register 13
 2563              		@ sp needed
 2564 0124 90BD     		pop	{r4, r7, pc}
 2565              	.L126:
 2566 0126 00BF     		.align	2
 2567              	.L125:
 2568 0128 00000000 		.word	_smartcard_receive_dma
 2569 012c 00000000 		.word	_smartcard_dma_error
 2570              		.cfi_endproc
 2571              	.LFE130:
 2573              		.section	.text.hal_smartcard_transmit_stop,"ax",%progbits
 2574              		.align	1
 2575              		.global	hal_smartcard_transmit_stop
 2576              		.syntax unified
 2577              		.thumb
 2578              		.thumb_func
 2579              		.fpu softvfp
 2581              	hal_smartcard_transmit_stop:
 2582              	.LFB131:
 978:../firmware/gd32f3x0_hal_peripheral/Source/gd32f3x0_hal_smartcard.c **** 
 979:../firmware/gd32f3x0_hal_peripheral/Source/gd32f3x0_hal_smartcard.c **** /*!
 980:../firmware/gd32f3x0_hal_peripheral/Source/gd32f3x0_hal_smartcard.c ****     \brief      stop smartcard transmit transfer
 981:../firmware/gd32f3x0_hal_peripheral/Source/gd32f3x0_hal_smartcard.c ****                 the function is blocking
 982:../firmware/gd32f3x0_hal_peripheral/Source/gd32f3x0_hal_smartcard.c ****     \param[in]  smartcard: smartcard device information structure
 983:../firmware/gd32f3x0_hal_peripheral/Source/gd32f3x0_hal_smartcard.c ****                     the structure is not necessary to be reconfigured after structrue initializatio
 984:../firmware/gd32f3x0_hal_peripheral/Source/gd32f3x0_hal_smartcard.c ****                     the structure parameters altering is automatically configured by core
 985:../firmware/gd32f3x0_hal_peripheral/Source/gd32f3x0_hal_smartcard.c ****     \param[out] none
 986:../firmware/gd32f3x0_hal_peripheral/Source/gd32f3x0_hal_smartcard.c ****     \retval     error code: HAL_ERR_NONE, HAL_ERR_ADDRESS, details refer to gd32f3x0_hal.h
 987:../firmware/gd32f3x0_hal_peripheral/Source/gd32f3x0_hal_smartcard.c **** */
 988:../firmware/gd32f3x0_hal_peripheral/Source/gd32f3x0_hal_smartcard.c **** int32_t hal_smartcard_transmit_stop(hal_smartcard_dev_struct *smartcard)
 989:../firmware/gd32f3x0_hal_peripheral/Source/gd32f3x0_hal_smartcard.c **** {
 2583              		.loc 1 989 1
 2584              		.cfi_startproc
 2585              		@ args = 0, pretend = 0, frame = 8
 2586              		@ frame_needed = 1, uses_anonymous_args = 0
 2587 0000 80B5     		push	{r7, lr}
 2588              		.cfi_def_cfa_offset 8
 2589              		.cfi_offset 7, -8
 2590              		.cfi_offset 14, -4
 2591 0002 82B0     		sub	sp, sp, #8
 2592              		.cfi_def_cfa_offset 16
 2593 0004 00AF     		add	r7, sp, #0
 2594              		.cfi_def_cfa_register 7
 2595 0006 7860     		str	r0, [r7, #4]
 990:../firmware/gd32f3x0_hal_peripheral/Source/gd32f3x0_hal_smartcard.c **** #if (1U == HAL_PARAMETER_CHECK)
 991:../firmware/gd32f3x0_hal_peripheral/Source/gd32f3x0_hal_smartcard.c ****     /* check the parameter */
 992:../firmware/gd32f3x0_hal_peripheral/Source/gd32f3x0_hal_smartcard.c ****     if(NULL == smartcard) {
 993:../firmware/gd32f3x0_hal_peripheral/Source/gd32f3x0_hal_smartcard.c ****         HAL_DEBUGE("parameter [smartcard] value is invalid");
 994:../firmware/gd32f3x0_hal_peripheral/Source/gd32f3x0_hal_smartcard.c ****         return HAL_ERR_ADDRESS;
 995:../firmware/gd32f3x0_hal_peripheral/Source/gd32f3x0_hal_smartcard.c ****     }
 996:../firmware/gd32f3x0_hal_peripheral/Source/gd32f3x0_hal_smartcard.c **** #endif /* 1U == HAL_PARAMETER_CHECK */
 997:../firmware/gd32f3x0_hal_peripheral/Source/gd32f3x0_hal_smartcard.c **** 
 998:../firmware/gd32f3x0_hal_peripheral/Source/gd32f3x0_hal_smartcard.c ****     /* lock smartcard */
 999:../firmware/gd32f3x0_hal_peripheral/Source/gd32f3x0_hal_smartcard.c ****     HAL_LOCK(smartcard);
 2596              		.loc 1 999 5
 2597 0008 7B68     		ldr	r3, [r7, #4]
 2598 000a 93F84430 		ldrb	r3, [r3, #68]	@ zero_extendqisi2
 2599 000e 012B     		cmp	r3, #1
 2600 0010 02D1     		bne	.L128
 2601              		.loc 1 999 5 is_stmt 0 discriminator 1
 2602 0012 6FF00103 		mvn	r3, #1
 2603 0016 39E0     		b	.L129
 2604              	.L128:
 2605              		.loc 1 999 5 discriminator 2
 2606 0018 7B68     		ldr	r3, [r7, #4]
 2607 001a 0122     		movs	r2, #1
 2608 001c 83F84420 		strb	r2, [r3, #68]
1000:../firmware/gd32f3x0_hal_peripheral/Source/gd32f3x0_hal_smartcard.c **** 
1001:../firmware/gd32f3x0_hal_peripheral/Source/gd32f3x0_hal_smartcard.c ****     /* disable the TBE and TC interrupt */
1002:../firmware/gd32f3x0_hal_peripheral/Source/gd32f3x0_hal_smartcard.c ****     hals_smartcard_interrupt_disable(smartcard->periph, USART_INT_TBE);
 2609              		.loc 1 1002 5 is_stmt 1 discriminator 2
 2610 0020 7B68     		ldr	r3, [r7, #4]
 2611 0022 1B68     		ldr	r3, [r3]
 2612 0024 0721     		movs	r1, #7
 2613 0026 1846     		mov	r0, r3
 2614 0028 FFF7FEFF 		bl	hals_smartcard_interrupt_disable
1003:../firmware/gd32f3x0_hal_peripheral/Source/gd32f3x0_hal_smartcard.c ****     hals_smartcard_interrupt_disable(smartcard->periph, USART_INT_TC);
 2615              		.loc 1 1003 5 discriminator 2
 2616 002c 7B68     		ldr	r3, [r7, #4]
 2617 002e 1B68     		ldr	r3, [r3]
 2618 0030 0621     		movs	r1, #6
 2619 0032 1846     		mov	r0, r3
 2620 0034 FFF7FEFF 		bl	hals_smartcard_interrupt_disable
1004:../firmware/gd32f3x0_hal_peripheral/Source/gd32f3x0_hal_smartcard.c **** 
1005:../firmware/gd32f3x0_hal_peripheral/Source/gd32f3x0_hal_smartcard.c ****     /* check receive state, if free then disable ERR interrupt */
1006:../firmware/gd32f3x0_hal_peripheral/Source/gd32f3x0_hal_smartcard.c ****     if(SMARTCARD_STATE_FREE == smartcard->rx_state) {
 2621              		.loc 1 1006 41 discriminator 2
 2622 0038 7B68     		ldr	r3, [r7, #4]
 2623 003a 93F83930 		ldrb	r3, [r3, #57]
 2624 003e DBB2     		uxtb	r3, r3
 2625              		.loc 1 1006 7 discriminator 2
 2626 0040 002B     		cmp	r3, #0
 2627 0042 06D1     		bne	.L130
1007:../firmware/gd32f3x0_hal_peripheral/Source/gd32f3x0_hal_smartcard.c ****         hals_smartcard_interrupt_disable(smartcard->periph, USART_INT_ERR);
 2628              		.loc 1 1007 9
 2629 0044 7B68     		ldr	r3, [r7, #4]
 2630 0046 1B68     		ldr	r3, [r3]
 2631 0048 4FF40071 		mov	r1, #512
 2632 004c 1846     		mov	r0, r3
 2633 004e FFF7FEFF 		bl	hals_smartcard_interrupt_disable
 2634              	.L130:
1008:../firmware/gd32f3x0_hal_peripheral/Source/gd32f3x0_hal_smartcard.c ****     }
1009:../firmware/gd32f3x0_hal_peripheral/Source/gd32f3x0_hal_smartcard.c **** 
1010:../firmware/gd32f3x0_hal_peripheral/Source/gd32f3x0_hal_smartcard.c ****     /* disable DMA transimt and stop DMA */
1011:../firmware/gd32f3x0_hal_peripheral/Source/gd32f3x0_hal_smartcard.c ****     hals_smartcard_dma_transmit_config(smartcard->periph, USART_TRANSMIT_DMA_DISABLE);
 2635              		.loc 1 1011 5
 2636 0052 7B68     		ldr	r3, [r7, #4]
 2637 0054 1B68     		ldr	r3, [r3]
 2638 0056 0021     		movs	r1, #0
 2639 0058 1846     		mov	r0, r3
 2640 005a FFF7FEFF 		bl	hals_smartcard_dma_transmit_config
1012:../firmware/gd32f3x0_hal_peripheral/Source/gd32f3x0_hal_smartcard.c ****     hal_dma_stop(smartcard->p_dma_tx);
 2641              		.loc 1 1012 5
 2642 005e 7B68     		ldr	r3, [r7, #4]
 2643 0060 9B69     		ldr	r3, [r3, #24]
 2644 0062 1846     		mov	r0, r3
 2645 0064 FFF7FEFF 		bl	hal_dma_stop
1013:../firmware/gd32f3x0_hal_peripheral/Source/gd32f3x0_hal_smartcard.c **** 
1014:../firmware/gd32f3x0_hal_peripheral/Source/gd32f3x0_hal_smartcard.c ****     /* reset the position and state */
1015:../firmware/gd32f3x0_hal_peripheral/Source/gd32f3x0_hal_smartcard.c ****     smartcard->txbuffer.pos = 0U;
 2646              		.loc 1 1015 29
 2647 0068 7B68     		ldr	r3, [r7, #4]
 2648 006a 0022     		movs	r2, #0
 2649 006c 5A62     		str	r2, [r3, #36]
1016:../firmware/gd32f3x0_hal_peripheral/Source/gd32f3x0_hal_smartcard.c ****     smartcard->tx_state = SMARTCARD_STATE_FREE;
 2650              		.loc 1 1016 25
 2651 006e 7B68     		ldr	r3, [r7, #4]
 2652 0070 0022     		movs	r2, #0
 2653 0072 83F83820 		strb	r2, [r3, #56]
1017:../firmware/gd32f3x0_hal_peripheral/Source/gd32f3x0_hal_smartcard.c **** 
1018:../firmware/gd32f3x0_hal_peripheral/Source/gd32f3x0_hal_smartcard.c ****     /* clear interrupt error flags */
1019:../firmware/gd32f3x0_hal_peripheral/Source/gd32f3x0_hal_smartcard.c ****     hals_smartcard_interrupt_flag_clear(smartcard->periph, USART_INT_FLAG_ERR_FERR);
 2654              		.loc 1 1019 5
 2655 0076 7B68     		ldr	r3, [r7, #4]
 2656 0078 1B68     		ldr	r3, [r3]
 2657 007a 0649     		ldr	r1, .L131
 2658 007c 1846     		mov	r0, r3
 2659 007e FFF7FEFF 		bl	hals_smartcard_interrupt_flag_clear
1020:../firmware/gd32f3x0_hal_peripheral/Source/gd32f3x0_hal_smartcard.c **** 
1021:../firmware/gd32f3x0_hal_peripheral/Source/gd32f3x0_hal_smartcard.c ****     /* unlock smartcard */
1022:../firmware/gd32f3x0_hal_peripheral/Source/gd32f3x0_hal_smartcard.c ****     HAL_UNLOCK(smartcard);
 2660              		.loc 1 1022 5
 2661 0082 7B68     		ldr	r3, [r7, #4]
 2662 0084 0022     		movs	r2, #0
 2663 0086 83F84420 		strb	r2, [r3, #68]
1023:../firmware/gd32f3x0_hal_peripheral/Source/gd32f3x0_hal_smartcard.c **** 
1024:../firmware/gd32f3x0_hal_peripheral/Source/gd32f3x0_hal_smartcard.c ****     return HAL_ERR_NONE;
 2664              		.loc 1 1024 12
 2665 008a 0023     		movs	r3, #0
 2666              	.L129:
1025:../firmware/gd32f3x0_hal_peripheral/Source/gd32f3x0_hal_smartcard.c **** }
 2667              		.loc 1 1025 1
 2668 008c 1846     		mov	r0, r3
 2669 008e 0837     		adds	r7, r7, #8
 2670              		.cfi_def_cfa_offset 8
 2671 0090 BD46     		mov	sp, r7
 2672              		.cfi_def_cfa_register 13
 2673              		@ sp needed
 2674 0092 80BD     		pop	{r7, pc}
 2675              	.L132:
 2676              		.align	2
 2677              	.L131:
 2678 0094 00020107 		.word	117506560
 2679              		.cfi_endproc
 2680              	.LFE131:
 2682              		.section	.text.hal_smartcard_receive_stop,"ax",%progbits
 2683              		.align	1
 2684              		.global	hal_smartcard_receive_stop
 2685              		.syntax unified
 2686              		.thumb
 2687              		.thumb_func
 2688              		.fpu softvfp
 2690              	hal_smartcard_receive_stop:
 2691              	.LFB132:
1026:../firmware/gd32f3x0_hal_peripheral/Source/gd32f3x0_hal_smartcard.c **** 
1027:../firmware/gd32f3x0_hal_peripheral/Source/gd32f3x0_hal_smartcard.c **** /*!
1028:../firmware/gd32f3x0_hal_peripheral/Source/gd32f3x0_hal_smartcard.c ****     \brief      stop smartcard receive transfer
1029:../firmware/gd32f3x0_hal_peripheral/Source/gd32f3x0_hal_smartcard.c ****                 the function is blocking
1030:../firmware/gd32f3x0_hal_peripheral/Source/gd32f3x0_hal_smartcard.c ****     \param[in]  smartcard: smartcard device information structure
1031:../firmware/gd32f3x0_hal_peripheral/Source/gd32f3x0_hal_smartcard.c ****                     the structure is not necessary to be reconfigured after structrue initializatio
1032:../firmware/gd32f3x0_hal_peripheral/Source/gd32f3x0_hal_smartcard.c ****                     the structure parameters altering is automatically configured by core
1033:../firmware/gd32f3x0_hal_peripheral/Source/gd32f3x0_hal_smartcard.c ****     \param[out] none
1034:../firmware/gd32f3x0_hal_peripheral/Source/gd32f3x0_hal_smartcard.c ****     \retval     error code: HAL_ERR_NONE, HAL_ERR_ADDRESS, details refer to gd32f3x0_hal.h
1035:../firmware/gd32f3x0_hal_peripheral/Source/gd32f3x0_hal_smartcard.c **** */
1036:../firmware/gd32f3x0_hal_peripheral/Source/gd32f3x0_hal_smartcard.c **** int32_t hal_smartcard_receive_stop(hal_smartcard_dev_struct *smartcard)
1037:../firmware/gd32f3x0_hal_peripheral/Source/gd32f3x0_hal_smartcard.c **** {
 2692              		.loc 1 1037 1
 2693              		.cfi_startproc
 2694              		@ args = 0, pretend = 0, frame = 8
 2695              		@ frame_needed = 1, uses_anonymous_args = 0
 2696 0000 80B5     		push	{r7, lr}
 2697              		.cfi_def_cfa_offset 8
 2698              		.cfi_offset 7, -8
 2699              		.cfi_offset 14, -4
 2700 0002 82B0     		sub	sp, sp, #8
 2701              		.cfi_def_cfa_offset 16
 2702 0004 00AF     		add	r7, sp, #0
 2703              		.cfi_def_cfa_register 7
 2704 0006 7860     		str	r0, [r7, #4]
1038:../firmware/gd32f3x0_hal_peripheral/Source/gd32f3x0_hal_smartcard.c **** #if (1U == HAL_PARAMETER_CHECK)
1039:../firmware/gd32f3x0_hal_peripheral/Source/gd32f3x0_hal_smartcard.c ****     /* check the parameter */
1040:../firmware/gd32f3x0_hal_peripheral/Source/gd32f3x0_hal_smartcard.c ****     if(NULL == smartcard) {
1041:../firmware/gd32f3x0_hal_peripheral/Source/gd32f3x0_hal_smartcard.c ****         HAL_DEBUGE("parameter [smartcard] value is invalid");
1042:../firmware/gd32f3x0_hal_peripheral/Source/gd32f3x0_hal_smartcard.c ****         return HAL_ERR_ADDRESS;
1043:../firmware/gd32f3x0_hal_peripheral/Source/gd32f3x0_hal_smartcard.c ****     }
1044:../firmware/gd32f3x0_hal_peripheral/Source/gd32f3x0_hal_smartcard.c **** #endif /* 1U == HAL_PARAMETER_CHECK */
1045:../firmware/gd32f3x0_hal_peripheral/Source/gd32f3x0_hal_smartcard.c **** 
1046:../firmware/gd32f3x0_hal_peripheral/Source/gd32f3x0_hal_smartcard.c ****     /* lock smartcard */
1047:../firmware/gd32f3x0_hal_peripheral/Source/gd32f3x0_hal_smartcard.c ****     HAL_LOCK(smartcard);
 2705              		.loc 1 1047 5
 2706 0008 7B68     		ldr	r3, [r7, #4]
 2707 000a 93F84430 		ldrb	r3, [r3, #68]	@ zero_extendqisi2
 2708 000e 012B     		cmp	r3, #1
 2709 0010 02D1     		bne	.L134
 2710              		.loc 1 1047 5 is_stmt 0 discriminator 1
 2711 0012 6FF00103 		mvn	r3, #1
 2712 0016 63E0     		b	.L135
 2713              	.L134:
 2714              		.loc 1 1047 5 discriminator 2
 2715 0018 7B68     		ldr	r3, [r7, #4]
 2716 001a 0122     		movs	r2, #1
 2717 001c 83F84420 		strb	r2, [r3, #68]
1048:../firmware/gd32f3x0_hal_peripheral/Source/gd32f3x0_hal_smartcard.c **** 
1049:../firmware/gd32f3x0_hal_peripheral/Source/gd32f3x0_hal_smartcard.c ****     /* disable the RBNE, PERR, ERR, EB and RT interrupt */
1050:../firmware/gd32f3x0_hal_peripheral/Source/gd32f3x0_hal_smartcard.c ****     hals_smartcard_interrupt_disable(smartcard->periph, USART_INT_RBNE);
 2718              		.loc 1 1050 5 is_stmt 1 discriminator 2
 2719 0020 7B68     		ldr	r3, [r7, #4]
 2720 0022 1B68     		ldr	r3, [r3]
 2721 0024 0521     		movs	r1, #5
 2722 0026 1846     		mov	r0, r3
 2723 0028 FFF7FEFF 		bl	hals_smartcard_interrupt_disable
1051:../firmware/gd32f3x0_hal_peripheral/Source/gd32f3x0_hal_smartcard.c ****     hals_smartcard_interrupt_disable(smartcard->periph, USART_INT_PERR);
 2724              		.loc 1 1051 5 discriminator 2
 2725 002c 7B68     		ldr	r3, [r7, #4]
 2726 002e 1B68     		ldr	r3, [r3]
 2727 0030 0821     		movs	r1, #8
 2728 0032 1846     		mov	r0, r3
 2729 0034 FFF7FEFF 		bl	hals_smartcard_interrupt_disable
1052:../firmware/gd32f3x0_hal_peripheral/Source/gd32f3x0_hal_smartcard.c ****     hals_smartcard_interrupt_disable(smartcard->periph, USART_INT_EB);
 2730              		.loc 1 1052 5 discriminator 2
 2731 0038 7B68     		ldr	r3, [r7, #4]
 2732 003a 1B68     		ldr	r3, [r3]
 2733 003c 1B21     		movs	r1, #27
 2734 003e 1846     		mov	r0, r3
 2735 0040 FFF7FEFF 		bl	hals_smartcard_interrupt_disable
1053:../firmware/gd32f3x0_hal_peripheral/Source/gd32f3x0_hal_smartcard.c ****     hals_smartcard_interrupt_disable(smartcard->periph, USART_INT_RT);
 2736              		.loc 1 1053 5 discriminator 2
 2737 0044 7B68     		ldr	r3, [r7, #4]
 2738 0046 1B68     		ldr	r3, [r3]
 2739 0048 1A21     		movs	r1, #26
 2740 004a 1846     		mov	r0, r3
 2741 004c FFF7FEFF 		bl	hals_smartcard_interrupt_disable
1054:../firmware/gd32f3x0_hal_peripheral/Source/gd32f3x0_hal_smartcard.c **** 
1055:../firmware/gd32f3x0_hal_peripheral/Source/gd32f3x0_hal_smartcard.c ****     /* check transmit state, if free then disable ERR interrupt */
1056:../firmware/gd32f3x0_hal_peripheral/Source/gd32f3x0_hal_smartcard.c ****     if(SMARTCARD_STATE_FREE == smartcard->tx_state) {
 2742              		.loc 1 1056 41 discriminator 2
 2743 0050 7B68     		ldr	r3, [r7, #4]
 2744 0052 93F83830 		ldrb	r3, [r3, #56]
 2745 0056 DBB2     		uxtb	r3, r3
 2746              		.loc 1 1056 7 discriminator 2
 2747 0058 002B     		cmp	r3, #0
 2748 005a 06D1     		bne	.L136
1057:../firmware/gd32f3x0_hal_peripheral/Source/gd32f3x0_hal_smartcard.c ****         hals_smartcard_interrupt_disable(smartcard->periph, USART_INT_ERR);
 2749              		.loc 1 1057 9
 2750 005c 7B68     		ldr	r3, [r7, #4]
 2751 005e 1B68     		ldr	r3, [r3]
 2752 0060 4FF40071 		mov	r1, #512
 2753 0064 1846     		mov	r0, r3
 2754 0066 FFF7FEFF 		bl	hals_smartcard_interrupt_disable
 2755              	.L136:
1058:../firmware/gd32f3x0_hal_peripheral/Source/gd32f3x0_hal_smartcard.c ****     }
1059:../firmware/gd32f3x0_hal_peripheral/Source/gd32f3x0_hal_smartcard.c **** 
1060:../firmware/gd32f3x0_hal_peripheral/Source/gd32f3x0_hal_smartcard.c ****     /* disable DMA receive and stop DMA */
1061:../firmware/gd32f3x0_hal_peripheral/Source/gd32f3x0_hal_smartcard.c ****     hals_smartcard_dma_receive_config(smartcard->periph, USART_RECEIVE_DMA_DISABLE);
 2756              		.loc 1 1061 5
 2757 006a 7B68     		ldr	r3, [r7, #4]
 2758 006c 1B68     		ldr	r3, [r3]
 2759 006e 0021     		movs	r1, #0
 2760 0070 1846     		mov	r0, r3
 2761 0072 FFF7FEFF 		bl	hals_smartcard_dma_receive_config
1062:../firmware/gd32f3x0_hal_peripheral/Source/gd32f3x0_hal_smartcard.c ****     hal_dma_stop(smartcard->p_dma_rx);
 2762              		.loc 1 1062 5
 2763 0076 7B68     		ldr	r3, [r7, #4]
 2764 0078 5B69     		ldr	r3, [r3, #20]
 2765 007a 1846     		mov	r0, r3
 2766 007c FFF7FEFF 		bl	hal_dma_stop
1063:../firmware/gd32f3x0_hal_peripheral/Source/gd32f3x0_hal_smartcard.c **** 
1064:../firmware/gd32f3x0_hal_peripheral/Source/gd32f3x0_hal_smartcard.c ****     /* reset the position and state */
1065:../firmware/gd32f3x0_hal_peripheral/Source/gd32f3x0_hal_smartcard.c ****     smartcard->rxbuffer.pos = 0U;
 2767              		.loc 1 1065 29
 2768 0080 7B68     		ldr	r3, [r7, #4]
 2769 0082 0022     		movs	r2, #0
 2770 0084 1A63     		str	r2, [r3, #48]
1066:../firmware/gd32f3x0_hal_peripheral/Source/gd32f3x0_hal_smartcard.c ****     smartcard->rx_state = SMARTCARD_STATE_FREE;
 2771              		.loc 1 1066 25
 2772 0086 7B68     		ldr	r3, [r7, #4]
 2773 0088 0022     		movs	r2, #0
 2774 008a 83F83920 		strb	r2, [r3, #57]
1067:../firmware/gd32f3x0_hal_peripheral/Source/gd32f3x0_hal_smartcard.c **** 
1068:../firmware/gd32f3x0_hal_peripheral/Source/gd32f3x0_hal_smartcard.c ****     /* clear interrupt error flags */
1069:../firmware/gd32f3x0_hal_peripheral/Source/gd32f3x0_hal_smartcard.c ****     hals_smartcard_interrupt_flag_clear(smartcard->periph, USART_INT_FLAG_PERR);
 2775              		.loc 1 1069 5
 2776 008e 7B68     		ldr	r3, [r7, #4]
 2777 0090 1B68     		ldr	r3, [r3]
 2778 0092 1549     		ldr	r1, .L137
 2779 0094 1846     		mov	r0, r3
 2780 0096 FFF7FEFF 		bl	hals_smartcard_interrupt_flag_clear
1070:../firmware/gd32f3x0_hal_peripheral/Source/gd32f3x0_hal_smartcard.c ****     hals_smartcard_interrupt_flag_clear(smartcard->periph, USART_INT_FLAG_ERR_FERR);
 2781              		.loc 1 1070 5
 2782 009a 7B68     		ldr	r3, [r7, #4]
 2783 009c 1B68     		ldr	r3, [r3]
 2784 009e 1349     		ldr	r1, .L137+4
 2785 00a0 1846     		mov	r0, r3
 2786 00a2 FFF7FEFF 		bl	hals_smartcard_interrupt_flag_clear
1071:../firmware/gd32f3x0_hal_peripheral/Source/gd32f3x0_hal_smartcard.c ****     hals_smartcard_interrupt_flag_clear(smartcard->periph, USART_INT_FLAG_ERR_NERR);
 2787              		.loc 1 1071 5
 2788 00a6 7B68     		ldr	r3, [r7, #4]
 2789 00a8 1B68     		ldr	r3, [r3]
 2790 00aa 1149     		ldr	r1, .L137+8
 2791 00ac 1846     		mov	r0, r3
 2792 00ae FFF7FEFF 		bl	hals_smartcard_interrupt_flag_clear
1072:../firmware/gd32f3x0_hal_peripheral/Source/gd32f3x0_hal_smartcard.c ****     hals_smartcard_interrupt_flag_clear(smartcard->periph, USART_INT_FLAG_ERR_ORERR);
 2793              		.loc 1 1072 5
 2794 00b2 7B68     		ldr	r3, [r7, #4]
 2795 00b4 1B68     		ldr	r3, [r3]
 2796 00b6 0F49     		ldr	r1, .L137+12
 2797 00b8 1846     		mov	r0, r3
 2798 00ba FFF7FEFF 		bl	hals_smartcard_interrupt_flag_clear
1073:../firmware/gd32f3x0_hal_peripheral/Source/gd32f3x0_hal_smartcard.c ****     hals_smartcard_interrupt_flag_clear(smartcard->periph, USART_INT_FLAG_EB);
 2799              		.loc 1 1073 5
 2800 00be 7B68     		ldr	r3, [r7, #4]
 2801 00c0 1B68     		ldr	r3, [r3]
 2802 00c2 0D49     		ldr	r1, .L137+16
 2803 00c4 1846     		mov	r0, r3
 2804 00c6 FFF7FEFF 		bl	hals_smartcard_interrupt_flag_clear
1074:../firmware/gd32f3x0_hal_peripheral/Source/gd32f3x0_hal_smartcard.c ****     hals_smartcard_interrupt_flag_clear(smartcard->periph, USART_INT_FLAG_RT);
 2805              		.loc 1 1074 5
 2806 00ca 7B68     		ldr	r3, [r7, #4]
 2807 00cc 1B68     		ldr	r3, [r3]
 2808 00ce 0B49     		ldr	r1, .L137+20
 2809 00d0 1846     		mov	r0, r3
 2810 00d2 FFF7FEFF 		bl	hals_smartcard_interrupt_flag_clear
1075:../firmware/gd32f3x0_hal_peripheral/Source/gd32f3x0_hal_smartcard.c **** 
1076:../firmware/gd32f3x0_hal_peripheral/Source/gd32f3x0_hal_smartcard.c ****     /* unlock smartcard */
1077:../firmware/gd32f3x0_hal_peripheral/Source/gd32f3x0_hal_smartcard.c ****     HAL_UNLOCK(smartcard);
 2811              		.loc 1 1077 5
 2812 00d6 7B68     		ldr	r3, [r7, #4]
 2813 00d8 0022     		movs	r2, #0
 2814 00da 83F84420 		strb	r2, [r3, #68]
1078:../firmware/gd32f3x0_hal_peripheral/Source/gd32f3x0_hal_smartcard.c **** 
1079:../firmware/gd32f3x0_hal_peripheral/Source/gd32f3x0_hal_smartcard.c ****     return HAL_ERR_NONE;
 2815              		.loc 1 1079 12
 2816 00de 0023     		movs	r3, #0
 2817              	.L135:
1080:../firmware/gd32f3x0_hal_peripheral/Source/gd32f3x0_hal_smartcard.c **** }
 2818              		.loc 1 1080 1
 2819 00e0 1846     		mov	r0, r3
 2820 00e2 0837     		adds	r7, r7, #8
 2821              		.cfi_def_cfa_offset 8
 2822 00e4 BD46     		mov	sp, r7
 2823              		.cfi_def_cfa_register 13
 2824              		@ sp needed
 2825 00e6 80BD     		pop	{r7, pc}
 2826              	.L138:
 2827              		.align	2
 2828              	.L137:
 2829 00e8 08000007 		.word	117440520
 2830 00ec 00020107 		.word	117506560
 2831 00f0 00020207 		.word	117572096
 2832 00f4 00020307 		.word	117637632
 2833 00f8 1B000C07 		.word	118226971
 2834 00fc 1A000B07 		.word	118161434
 2835              		.cfi_endproc
 2836              	.LFE132:
 2838              		.section	.text.hals_smartcard_deinit,"ax",%progbits
 2839              		.align	1
 2840              		.global	hals_smartcard_deinit
 2841              		.syntax unified
 2842              		.thumb
 2843              		.thumb_func
 2844              		.fpu softvfp
 2846              	hals_smartcard_deinit:
 2847              	.LFB133:
1081:../firmware/gd32f3x0_hal_peripheral/Source/gd32f3x0_hal_smartcard.c **** 
1082:../firmware/gd32f3x0_hal_peripheral/Source/gd32f3x0_hal_smartcard.c **** /*!
1083:../firmware/gd32f3x0_hal_peripheral/Source/gd32f3x0_hal_smartcard.c ****     \brief      reset SMARTCARD
1084:../firmware/gd32f3x0_hal_peripheral/Source/gd32f3x0_hal_smartcard.c ****     \param[in]  smartcard_periph: USARTx(x=0,1)
1085:../firmware/gd32f3x0_hal_peripheral/Source/gd32f3x0_hal_smartcard.c ****     \param[out] none
1086:../firmware/gd32f3x0_hal_peripheral/Source/gd32f3x0_hal_smartcard.c ****     \retval     none
1087:../firmware/gd32f3x0_hal_peripheral/Source/gd32f3x0_hal_smartcard.c **** */
1088:../firmware/gd32f3x0_hal_peripheral/Source/gd32f3x0_hal_smartcard.c **** void hals_smartcard_deinit(uint32_t smartcard_periph)
1089:../firmware/gd32f3x0_hal_peripheral/Source/gd32f3x0_hal_smartcard.c **** {
 2848              		.loc 1 1089 1
 2849              		.cfi_startproc
 2850              		@ args = 0, pretend = 0, frame = 8
 2851              		@ frame_needed = 1, uses_anonymous_args = 0
 2852 0000 80B5     		push	{r7, lr}
 2853              		.cfi_def_cfa_offset 8
 2854              		.cfi_offset 7, -8
 2855              		.cfi_offset 14, -4
 2856 0002 82B0     		sub	sp, sp, #8
 2857              		.cfi_def_cfa_offset 16
 2858 0004 00AF     		add	r7, sp, #0
 2859              		.cfi_def_cfa_register 7
 2860 0006 7860     		str	r0, [r7, #4]
1090:../firmware/gd32f3x0_hal_peripheral/Source/gd32f3x0_hal_smartcard.c ****     switch(smartcard_periph) {
 2861              		.loc 1 1090 5
 2862 0008 7B68     		ldr	r3, [r7, #4]
 2863 000a 0F4A     		ldr	r2, .L144
 2864 000c 9342     		cmp	r3, r2
 2865 000e 0CD0     		beq	.L140
 2866 0010 7B68     		ldr	r3, [r7, #4]
 2867 0012 0E4A     		ldr	r2, .L144+4
 2868 0014 9342     		cmp	r3, r2
 2869 0016 11D1     		bne	.L143
1091:../firmware/gd32f3x0_hal_peripheral/Source/gd32f3x0_hal_smartcard.c ****     case USART0:
1092:../firmware/gd32f3x0_hal_peripheral/Source/gd32f3x0_hal_smartcard.c ****         /* reset USART0 */
1093:../firmware/gd32f3x0_hal_peripheral/Source/gd32f3x0_hal_smartcard.c ****         hal_rcu_periph_reset_enable(RCU_USART0RST);
 2870              		.loc 1 1093 9
 2871 0018 40F20E30 		movw	r0, #782
 2872 001c FFF7FEFF 		bl	hal_rcu_periph_reset_enable
1094:../firmware/gd32f3x0_hal_peripheral/Source/gd32f3x0_hal_smartcard.c ****         hal_rcu_periph_reset_disable(RCU_USART0RST);
 2873              		.loc 1 1094 9
 2874 0020 40F20E30 		movw	r0, #782
 2875 0024 FFF7FEFF 		bl	hal_rcu_periph_reset_disable
1095:../firmware/gd32f3x0_hal_peripheral/Source/gd32f3x0_hal_smartcard.c ****         break;
 2876              		.loc 1 1095 9
 2877 0028 09E0     		b	.L142
 2878              	.L140:
1096:../firmware/gd32f3x0_hal_peripheral/Source/gd32f3x0_hal_smartcard.c ****     case USART1:
1097:../firmware/gd32f3x0_hal_peripheral/Source/gd32f3x0_hal_smartcard.c ****         /* reset USART1 */
1098:../firmware/gd32f3x0_hal_peripheral/Source/gd32f3x0_hal_smartcard.c ****         hal_rcu_periph_reset_enable(RCU_USART1RST);
 2879              		.loc 1 1098 9
 2880 002a 40F21140 		movw	r0, #1041
 2881 002e FFF7FEFF 		bl	hal_rcu_periph_reset_enable
1099:../firmware/gd32f3x0_hal_peripheral/Source/gd32f3x0_hal_smartcard.c ****         hal_rcu_periph_reset_disable(RCU_USART1RST);
 2882              		.loc 1 1099 9
 2883 0032 40F21140 		movw	r0, #1041
 2884 0036 FFF7FEFF 		bl	hal_rcu_periph_reset_disable
1100:../firmware/gd32f3x0_hal_peripheral/Source/gd32f3x0_hal_smartcard.c ****         break;
 2885              		.loc 1 1100 9
 2886 003a 00E0     		b	.L142
 2887              	.L143:
1101:../firmware/gd32f3x0_hal_peripheral/Source/gd32f3x0_hal_smartcard.c ****     default:
1102:../firmware/gd32f3x0_hal_peripheral/Source/gd32f3x0_hal_smartcard.c ****         break;
 2888              		.loc 1 1102 9
 2889 003c 00BF     		nop
 2890              	.L142:
1103:../firmware/gd32f3x0_hal_peripheral/Source/gd32f3x0_hal_smartcard.c ****     }
1104:../firmware/gd32f3x0_hal_peripheral/Source/gd32f3x0_hal_smartcard.c **** }
 2891              		.loc 1 1104 1
 2892 003e 00BF     		nop
 2893 0040 0837     		adds	r7, r7, #8
 2894              		.cfi_def_cfa_offset 8
 2895 0042 BD46     		mov	sp, r7
 2896              		.cfi_def_cfa_register 13
 2897              		@ sp needed
 2898 0044 80BD     		pop	{r7, pc}
 2899              	.L145:
 2900 0046 00BF     		.align	2
 2901              	.L144:
 2902 0048 00440040 		.word	1073759232
 2903 004c 00380140 		.word	1073821696
 2904              		.cfi_endproc
 2905              	.LFE133:
 2907              		.section	.text.hals_smartcard_baudrate_set,"ax",%progbits
 2908              		.align	1
 2909              		.global	hals_smartcard_baudrate_set
 2910              		.syntax unified
 2911              		.thumb
 2912              		.thumb_func
 2913              		.fpu softvfp
 2915              	hals_smartcard_baudrate_set:
 2916              	.LFB134:
1105:../firmware/gd32f3x0_hal_peripheral/Source/gd32f3x0_hal_smartcard.c **** 
1106:../firmware/gd32f3x0_hal_peripheral/Source/gd32f3x0_hal_smartcard.c **** /*!
1107:../firmware/gd32f3x0_hal_peripheral/Source/gd32f3x0_hal_smartcard.c ****     \brief      configure SMARTCARD baud rate value
1108:../firmware/gd32f3x0_hal_peripheral/Source/gd32f3x0_hal_smartcard.c ****     \param[in]  smartcard_periph: USARTx(x=0,1)
1109:../firmware/gd32f3x0_hal_peripheral/Source/gd32f3x0_hal_smartcard.c ****     \param[in]  baudval: baud rate value
1110:../firmware/gd32f3x0_hal_peripheral/Source/gd32f3x0_hal_smartcard.c ****     \param[out] none
1111:../firmware/gd32f3x0_hal_peripheral/Source/gd32f3x0_hal_smartcard.c ****     \retval     none
1112:../firmware/gd32f3x0_hal_peripheral/Source/gd32f3x0_hal_smartcard.c **** */
1113:../firmware/gd32f3x0_hal_peripheral/Source/gd32f3x0_hal_smartcard.c **** void hals_smartcard_baudrate_set(uint32_t smartcard_periph, uint32_t baudval)
1114:../firmware/gd32f3x0_hal_peripheral/Source/gd32f3x0_hal_smartcard.c **** {
 2917              		.loc 1 1114 1
 2918              		.cfi_startproc
 2919              		@ args = 0, pretend = 0, frame = 24
 2920              		@ frame_needed = 1, uses_anonymous_args = 0
 2921 0000 80B5     		push	{r7, lr}
 2922              		.cfi_def_cfa_offset 8
 2923              		.cfi_offset 7, -8
 2924              		.cfi_offset 14, -4
 2925 0002 86B0     		sub	sp, sp, #24
 2926              		.cfi_def_cfa_offset 32
 2927 0004 00AF     		add	r7, sp, #0
 2928              		.cfi_def_cfa_register 7
 2929 0006 7860     		str	r0, [r7, #4]
 2930 0008 3960     		str	r1, [r7]
1115:../firmware/gd32f3x0_hal_peripheral/Source/gd32f3x0_hal_smartcard.c ****     uint32_t uclk = 0U, intdiv = 0U, fradiv = 0U, udiv = 0U;
 2931              		.loc 1 1115 14
 2932 000a 0023     		movs	r3, #0
 2933 000c 7B61     		str	r3, [r7, #20]
 2934              		.loc 1 1115 25
 2935 000e 0023     		movs	r3, #0
 2936 0010 3B61     		str	r3, [r7, #16]
 2937              		.loc 1 1115 38
 2938 0012 0023     		movs	r3, #0
 2939 0014 FB60     		str	r3, [r7, #12]
 2940              		.loc 1 1115 51
 2941 0016 0023     		movs	r3, #0
 2942 0018 BB60     		str	r3, [r7, #8]
1116:../firmware/gd32f3x0_hal_peripheral/Source/gd32f3x0_hal_smartcard.c ****     switch(smartcard_periph) {
 2943              		.loc 1 1116 5
 2944 001a 7B68     		ldr	r3, [r7, #4]
 2945 001c 294A     		ldr	r2, .L154
 2946 001e 9342     		cmp	r3, r2
 2947 0020 08D0     		beq	.L147
 2948 0022 7B68     		ldr	r3, [r7, #4]
 2949 0024 284A     		ldr	r2, .L154+4
 2950 0026 9342     		cmp	r3, r2
 2951 0028 09D1     		bne	.L152
1117:../firmware/gd32f3x0_hal_peripheral/Source/gd32f3x0_hal_smartcard.c ****     /* get clock frequency */
1118:../firmware/gd32f3x0_hal_peripheral/Source/gd32f3x0_hal_smartcard.c ****     case USART0:
1119:../firmware/gd32f3x0_hal_peripheral/Source/gd32f3x0_hal_smartcard.c ****         /* get USART0 clock */
1120:../firmware/gd32f3x0_hal_peripheral/Source/gd32f3x0_hal_smartcard.c ****         uclk = hals_rcu_clock_freq_get(CK_USART);
 2952              		.loc 1 1120 16
 2953 002a 0620     		movs	r0, #6
 2954 002c FFF7FEFF 		bl	hals_rcu_clock_freq_get
 2955 0030 7861     		str	r0, [r7, #20]
1121:../firmware/gd32f3x0_hal_peripheral/Source/gd32f3x0_hal_smartcard.c ****         break;
 2956              		.loc 1 1121 9
 2957 0032 05E0     		b	.L149
 2958              	.L147:
1122:../firmware/gd32f3x0_hal_peripheral/Source/gd32f3x0_hal_smartcard.c ****     case USART1:
1123:../firmware/gd32f3x0_hal_peripheral/Source/gd32f3x0_hal_smartcard.c ****         /* get USART1 clock */
1124:../firmware/gd32f3x0_hal_peripheral/Source/gd32f3x0_hal_smartcard.c ****         uclk = hals_rcu_clock_freq_get(CK_APB1);
 2959              		.loc 1 1124 16
 2960 0034 0220     		movs	r0, #2
 2961 0036 FFF7FEFF 		bl	hals_rcu_clock_freq_get
 2962 003a 7861     		str	r0, [r7, #20]
1125:../firmware/gd32f3x0_hal_peripheral/Source/gd32f3x0_hal_smartcard.c ****         break;
 2963              		.loc 1 1125 9
 2964 003c 00E0     		b	.L149
 2965              	.L152:
1126:../firmware/gd32f3x0_hal_peripheral/Source/gd32f3x0_hal_smartcard.c ****     default:
1127:../firmware/gd32f3x0_hal_peripheral/Source/gd32f3x0_hal_smartcard.c ****         break;
 2966              		.loc 1 1127 9
 2967 003e 00BF     		nop
 2968              	.L149:
1128:../firmware/gd32f3x0_hal_peripheral/Source/gd32f3x0_hal_smartcard.c ****     }
1129:../firmware/gd32f3x0_hal_peripheral/Source/gd32f3x0_hal_smartcard.c ****     if(USART_CTL0(smartcard_periph) & USART_CTL0_OVSMOD) {
 2969              		.loc 1 1129 8
 2970 0040 7B68     		ldr	r3, [r7, #4]
 2971 0042 1B68     		ldr	r3, [r3]
 2972              		.loc 1 1129 37
 2973 0044 03F40043 		and	r3, r3, #32768
 2974              		.loc 1 1129 7
 2975 0048 002B     		cmp	r3, #0
 2976 004a 1CD0     		beq	.L150
1130:../firmware/gd32f3x0_hal_peripheral/Source/gd32f3x0_hal_smartcard.c ****         /* oversampling by 8, configure the value of USART_BAUD */
1131:../firmware/gd32f3x0_hal_peripheral/Source/gd32f3x0_hal_smartcard.c ****         udiv = ((2U * uclk) + (baudval / 2U)) / baudval;
 2977              		.loc 1 1131 21
 2978 004c 7B69     		ldr	r3, [r7, #20]
 2979 004e 5A00     		lsls	r2, r3, #1
 2980              		.loc 1 1131 40
 2981 0050 3B68     		ldr	r3, [r7]
 2982 0052 5B08     		lsrs	r3, r3, #1
 2983              		.loc 1 1131 29
 2984 0054 1A44     		add	r2, r2, r3
 2985              		.loc 1 1131 14
 2986 0056 3B68     		ldr	r3, [r7]
 2987 0058 B2FBF3F3 		udiv	r3, r2, r3
 2988 005c BB60     		str	r3, [r7, #8]
1132:../firmware/gd32f3x0_hal_peripheral/Source/gd32f3x0_hal_smartcard.c ****         intdiv = udiv & 0x0000fff0U;
 2989              		.loc 1 1132 16
 2990 005e BA68     		ldr	r2, [r7, #8]
 2991 0060 4FF6F073 		movw	r3, #65520
 2992 0064 1340     		ands	r3, r3, r2
 2993 0066 3B61     		str	r3, [r7, #16]
1133:../firmware/gd32f3x0_hal_peripheral/Source/gd32f3x0_hal_smartcard.c ****         fradiv = (udiv >> 1U) & 0x00000007U;
 2994              		.loc 1 1133 24
 2995 0068 BB68     		ldr	r3, [r7, #8]
 2996 006a 5B08     		lsrs	r3, r3, #1
 2997              		.loc 1 1133 16
 2998 006c 03F00703 		and	r3, r3, #7
 2999 0070 FB60     		str	r3, [r7, #12]
1134:../firmware/gd32f3x0_hal_peripheral/Source/gd32f3x0_hal_smartcard.c ****         USART_BAUD(smartcard_periph) = ((USART_BAUD_FRADIV | USART_BAUD_INTDIV) & (intdiv | fradiv)
 3000              		.loc 1 1134 91
 3001 0072 3A69     		ldr	r2, [r7, #16]
 3002 0074 FB68     		ldr	r3, [r7, #12]
 3003 0076 42EA0301 		orr	r1, r2, r3
 3004              		.loc 1 1134 9
 3005 007a 7B68     		ldr	r3, [r7, #4]
 3006 007c 0C33     		adds	r3, r3, #12
 3007 007e 1A46     		mov	r2, r3
 3008              		.loc 1 1134 81
 3009 0080 8BB2     		uxth	r3, r1
 3010              		.loc 1 1134 38
 3011 0082 1360     		str	r3, [r2]
1135:../firmware/gd32f3x0_hal_peripheral/Source/gd32f3x0_hal_smartcard.c ****     } else {
1136:../firmware/gd32f3x0_hal_peripheral/Source/gd32f3x0_hal_smartcard.c ****         /* oversampling by 16, configure the value of USART_BAUD */
1137:../firmware/gd32f3x0_hal_peripheral/Source/gd32f3x0_hal_smartcard.c ****         udiv = (uclk + (baudval / 2U)) / baudval;
1138:../firmware/gd32f3x0_hal_peripheral/Source/gd32f3x0_hal_smartcard.c ****         intdiv = udiv & 0x0000fff0U;
1139:../firmware/gd32f3x0_hal_peripheral/Source/gd32f3x0_hal_smartcard.c ****         fradiv = udiv & 0x0000000fU;
1140:../firmware/gd32f3x0_hal_peripheral/Source/gd32f3x0_hal_smartcard.c ****         USART_BAUD(smartcard_periph) = ((USART_BAUD_FRADIV | USART_BAUD_INTDIV) & (intdiv | fradiv)
1141:../firmware/gd32f3x0_hal_peripheral/Source/gd32f3x0_hal_smartcard.c ****     }
1142:../firmware/gd32f3x0_hal_peripheral/Source/gd32f3x0_hal_smartcard.c **** }
 3012              		.loc 1 1142 1
 3013 0084 19E0     		b	.L153
 3014              	.L150:
1137:../firmware/gd32f3x0_hal_peripheral/Source/gd32f3x0_hal_smartcard.c ****         intdiv = udiv & 0x0000fff0U;
 3015              		.loc 1 1137 33
 3016 0086 3B68     		ldr	r3, [r7]
 3017 0088 5A08     		lsrs	r2, r3, #1
1137:../firmware/gd32f3x0_hal_peripheral/Source/gd32f3x0_hal_smartcard.c ****         intdiv = udiv & 0x0000fff0U;
 3018              		.loc 1 1137 22
 3019 008a 7B69     		ldr	r3, [r7, #20]
 3020 008c 1A44     		add	r2, r2, r3
1137:../firmware/gd32f3x0_hal_peripheral/Source/gd32f3x0_hal_smartcard.c ****         intdiv = udiv & 0x0000fff0U;
 3021              		.loc 1 1137 14
 3022 008e 3B68     		ldr	r3, [r7]
 3023 0090 B2FBF3F3 		udiv	r3, r2, r3
 3024 0094 BB60     		str	r3, [r7, #8]
1138:../firmware/gd32f3x0_hal_peripheral/Source/gd32f3x0_hal_smartcard.c ****         fradiv = udiv & 0x0000000fU;
 3025              		.loc 1 1138 16
 3026 0096 BA68     		ldr	r2, [r7, #8]
 3027 0098 4FF6F073 		movw	r3, #65520
 3028 009c 1340     		ands	r3, r3, r2
 3029 009e 3B61     		str	r3, [r7, #16]
1139:../firmware/gd32f3x0_hal_peripheral/Source/gd32f3x0_hal_smartcard.c ****         USART_BAUD(smartcard_periph) = ((USART_BAUD_FRADIV | USART_BAUD_INTDIV) & (intdiv | fradiv)
 3030              		.loc 1 1139 16
 3031 00a0 BB68     		ldr	r3, [r7, #8]
 3032 00a2 03F00F03 		and	r3, r3, #15
 3033 00a6 FB60     		str	r3, [r7, #12]
1140:../firmware/gd32f3x0_hal_peripheral/Source/gd32f3x0_hal_smartcard.c ****     }
 3034              		.loc 1 1140 91
 3035 00a8 3A69     		ldr	r2, [r7, #16]
 3036 00aa FB68     		ldr	r3, [r7, #12]
 3037 00ac 42EA0301 		orr	r1, r2, r3
1140:../firmware/gd32f3x0_hal_peripheral/Source/gd32f3x0_hal_smartcard.c ****     }
 3038              		.loc 1 1140 9
 3039 00b0 7B68     		ldr	r3, [r7, #4]
 3040 00b2 0C33     		adds	r3, r3, #12
 3041 00b4 1A46     		mov	r2, r3
1140:../firmware/gd32f3x0_hal_peripheral/Source/gd32f3x0_hal_smartcard.c ****     }
 3042              		.loc 1 1140 81
 3043 00b6 8BB2     		uxth	r3, r1
1140:../firmware/gd32f3x0_hal_peripheral/Source/gd32f3x0_hal_smartcard.c ****     }
 3044              		.loc 1 1140 38
 3045 00b8 1360     		str	r3, [r2]
 3046              	.L153:
 3047              		.loc 1 1142 1
 3048 00ba 00BF     		nop
 3049 00bc 1837     		adds	r7, r7, #24
 3050              		.cfi_def_cfa_offset 8
 3051 00be BD46     		mov	sp, r7
 3052              		.cfi_def_cfa_register 13
 3053              		@ sp needed
 3054 00c0 80BD     		pop	{r7, pc}
 3055              	.L155:
 3056 00c2 00BF     		.align	2
 3057              	.L154:
 3058 00c4 00440040 		.word	1073759232
 3059 00c8 00380140 		.word	1073821696
 3060              		.cfi_endproc
 3061              	.LFE134:
 3063              		.section	.text.hals_smartcard_parity_config,"ax",%progbits
 3064              		.align	1
 3065              		.global	hals_smartcard_parity_config
 3066              		.syntax unified
 3067              		.thumb
 3068              		.thumb_func
 3069              		.fpu softvfp
 3071              	hals_smartcard_parity_config:
 3072              	.LFB135:
1143:../firmware/gd32f3x0_hal_peripheral/Source/gd32f3x0_hal_smartcard.c **** 
1144:../firmware/gd32f3x0_hal_peripheral/Source/gd32f3x0_hal_smartcard.c **** /*!
1145:../firmware/gd32f3x0_hal_peripheral/Source/gd32f3x0_hal_smartcard.c ****     \brief      configure SMARTCARD parity
1146:../firmware/gd32f3x0_hal_peripheral/Source/gd32f3x0_hal_smartcard.c ****     \param[in]  smartcard_periph: USARTx(x=0,1)
1147:../firmware/gd32f3x0_hal_peripheral/Source/gd32f3x0_hal_smartcard.c ****     \param[in]  paritycfg: SMARTCARD parity configure
1148:../firmware/gd32f3x0_hal_peripheral/Source/gd32f3x0_hal_smartcard.c ****                 only one parameter can be selected which is shown as below:
1149:../firmware/gd32f3x0_hal_peripheral/Source/gd32f3x0_hal_smartcard.c ****       \arg        USART_PM_NONE: no parity
1150:../firmware/gd32f3x0_hal_peripheral/Source/gd32f3x0_hal_smartcard.c ****       \arg        USART_PM_ODD: odd parity
1151:../firmware/gd32f3x0_hal_peripheral/Source/gd32f3x0_hal_smartcard.c ****       \arg        USART_PM_EVEN: even parity
1152:../firmware/gd32f3x0_hal_peripheral/Source/gd32f3x0_hal_smartcard.c ****     \param[out] none
1153:../firmware/gd32f3x0_hal_peripheral/Source/gd32f3x0_hal_smartcard.c ****     \retval     none
1154:../firmware/gd32f3x0_hal_peripheral/Source/gd32f3x0_hal_smartcard.c **** */
1155:../firmware/gd32f3x0_hal_peripheral/Source/gd32f3x0_hal_smartcard.c **** void hals_smartcard_parity_config(uint32_t smartcard_periph, uint32_t paritycfg)
1156:../firmware/gd32f3x0_hal_peripheral/Source/gd32f3x0_hal_smartcard.c **** {
 3073              		.loc 1 1156 1
 3074              		.cfi_startproc
 3075              		@ args = 0, pretend = 0, frame = 8
 3076              		@ frame_needed = 1, uses_anonymous_args = 0
 3077              		@ link register save eliminated.
 3078 0000 80B4     		push	{r7}
 3079              		.cfi_def_cfa_offset 4
 3080              		.cfi_offset 7, -4
 3081 0002 83B0     		sub	sp, sp, #12
 3082              		.cfi_def_cfa_offset 16
 3083 0004 00AF     		add	r7, sp, #0
 3084              		.cfi_def_cfa_register 7
 3085 0006 7860     		str	r0, [r7, #4]
 3086 0008 3960     		str	r1, [r7]
1157:../firmware/gd32f3x0_hal_peripheral/Source/gd32f3x0_hal_smartcard.c ****     /* disable SMARTCARD */
1158:../firmware/gd32f3x0_hal_peripheral/Source/gd32f3x0_hal_smartcard.c ****     USART_CTL0(smartcard_periph) &= ~(USART_CTL0_UEN);
 3087              		.loc 1 1158 34
 3088 000a 7B68     		ldr	r3, [r7, #4]
 3089 000c 1A68     		ldr	r2, [r3]
 3090 000e 7B68     		ldr	r3, [r7, #4]
 3091 0010 22F00102 		bic	r2, r2, #1
 3092 0014 1A60     		str	r2, [r3]
1159:../firmware/gd32f3x0_hal_peripheral/Source/gd32f3x0_hal_smartcard.c ****     /* clear USART_CTL0 PM,PCEN bits */
1160:../firmware/gd32f3x0_hal_peripheral/Source/gd32f3x0_hal_smartcard.c ****     USART_CTL0(smartcard_periph) &= ~(USART_CTL0_PM | USART_CTL0_PCEN);
 3093              		.loc 1 1160 34
 3094 0016 7B68     		ldr	r3, [r7, #4]
 3095 0018 1A68     		ldr	r2, [r3]
 3096 001a 7B68     		ldr	r3, [r7, #4]
 3097 001c 22F4C062 		bic	r2, r2, #1536
 3098 0020 1A60     		str	r2, [r3]
1161:../firmware/gd32f3x0_hal_peripheral/Source/gd32f3x0_hal_smartcard.c ****     /* configure SMARTCARD parity mode */
1162:../firmware/gd32f3x0_hal_peripheral/Source/gd32f3x0_hal_smartcard.c ****     USART_CTL0(smartcard_periph) |= paritycfg;
 3099              		.loc 1 1162 34
 3100 0022 7B68     		ldr	r3, [r7, #4]
 3101 0024 1968     		ldr	r1, [r3]
 3102 0026 7B68     		ldr	r3, [r7, #4]
 3103 0028 3A68     		ldr	r2, [r7]
 3104 002a 0A43     		orrs	r2, r2, r1
 3105 002c 1A60     		str	r2, [r3]
1163:../firmware/gd32f3x0_hal_peripheral/Source/gd32f3x0_hal_smartcard.c **** }
 3106              		.loc 1 1163 1
 3107 002e 00BF     		nop
 3108 0030 0C37     		adds	r7, r7, #12
 3109              		.cfi_def_cfa_offset 4
 3110 0032 BD46     		mov	sp, r7
 3111              		.cfi_def_cfa_register 13
 3112              		@ sp needed
 3113 0034 80BC     		pop	{r7}
 3114              		.cfi_restore 7
 3115              		.cfi_def_cfa_offset 0
 3116 0036 7047     		bx	lr
 3117              		.cfi_endproc
 3118              	.LFE135:
 3120              		.section	.text.hals_smartcard_word_length_set,"ax",%progbits
 3121              		.align	1
 3122              		.global	hals_smartcard_word_length_set
 3123              		.syntax unified
 3124              		.thumb
 3125              		.thumb_func
 3126              		.fpu softvfp
 3128              	hals_smartcard_word_length_set:
 3129              	.LFB136:
1164:../firmware/gd32f3x0_hal_peripheral/Source/gd32f3x0_hal_smartcard.c **** 
1165:../firmware/gd32f3x0_hal_peripheral/Source/gd32f3x0_hal_smartcard.c **** /*!
1166:../firmware/gd32f3x0_hal_peripheral/Source/gd32f3x0_hal_smartcard.c ****     \brief      configure SMARTCARD word length
1167:../firmware/gd32f3x0_hal_peripheral/Source/gd32f3x0_hal_smartcard.c ****     \param[in]  smartcard_periph: USARTx(x=0,1)
1168:../firmware/gd32f3x0_hal_peripheral/Source/gd32f3x0_hal_smartcard.c ****     \param[in]  wlen: SMARTCARD word length configure
1169:../firmware/gd32f3x0_hal_peripheral/Source/gd32f3x0_hal_smartcard.c ****                 only one parameter can be selected which is shown as below:
1170:../firmware/gd32f3x0_hal_peripheral/Source/gd32f3x0_hal_smartcard.c ****       \arg        USART_WL_8BIT: 8 bits
1171:../firmware/gd32f3x0_hal_peripheral/Source/gd32f3x0_hal_smartcard.c ****       \arg        USART_WL_9BIT: 9 bits
1172:../firmware/gd32f3x0_hal_peripheral/Source/gd32f3x0_hal_smartcard.c ****     \param[out] none
1173:../firmware/gd32f3x0_hal_peripheral/Source/gd32f3x0_hal_smartcard.c ****     \retval     none
1174:../firmware/gd32f3x0_hal_peripheral/Source/gd32f3x0_hal_smartcard.c **** */
1175:../firmware/gd32f3x0_hal_peripheral/Source/gd32f3x0_hal_smartcard.c **** void hals_smartcard_word_length_set(uint32_t smartcard_periph, uint32_t wlen)
1176:../firmware/gd32f3x0_hal_peripheral/Source/gd32f3x0_hal_smartcard.c **** {
 3130              		.loc 1 1176 1
 3131              		.cfi_startproc
 3132              		@ args = 0, pretend = 0, frame = 8
 3133              		@ frame_needed = 1, uses_anonymous_args = 0
 3134              		@ link register save eliminated.
 3135 0000 80B4     		push	{r7}
 3136              		.cfi_def_cfa_offset 4
 3137              		.cfi_offset 7, -4
 3138 0002 83B0     		sub	sp, sp, #12
 3139              		.cfi_def_cfa_offset 16
 3140 0004 00AF     		add	r7, sp, #0
 3141              		.cfi_def_cfa_register 7
 3142 0006 7860     		str	r0, [r7, #4]
 3143 0008 3960     		str	r1, [r7]
1177:../firmware/gd32f3x0_hal_peripheral/Source/gd32f3x0_hal_smartcard.c ****     /* disable SMARTCARD */
1178:../firmware/gd32f3x0_hal_peripheral/Source/gd32f3x0_hal_smartcard.c ****     USART_CTL0(smartcard_periph) &= ~(USART_CTL0_UEN);
 3144              		.loc 1 1178 34
 3145 000a 7B68     		ldr	r3, [r7, #4]
 3146 000c 1A68     		ldr	r2, [r3]
 3147 000e 7B68     		ldr	r3, [r7, #4]
 3148 0010 22F00102 		bic	r2, r2, #1
 3149 0014 1A60     		str	r2, [r3]
1179:../firmware/gd32f3x0_hal_peripheral/Source/gd32f3x0_hal_smartcard.c ****     /* clear USART_CTL0 WL bit */
1180:../firmware/gd32f3x0_hal_peripheral/Source/gd32f3x0_hal_smartcard.c ****     USART_CTL0(smartcard_periph) &= ~USART_CTL0_WL;
 3150              		.loc 1 1180 34
 3151 0016 7B68     		ldr	r3, [r7, #4]
 3152 0018 1A68     		ldr	r2, [r3]
 3153 001a 7B68     		ldr	r3, [r7, #4]
 3154 001c 22F48052 		bic	r2, r2, #4096
 3155 0020 1A60     		str	r2, [r3]
1181:../firmware/gd32f3x0_hal_peripheral/Source/gd32f3x0_hal_smartcard.c ****     /* configure SMARTCARD word length */
1182:../firmware/gd32f3x0_hal_peripheral/Source/gd32f3x0_hal_smartcard.c ****     USART_CTL0(smartcard_periph) |= wlen;
 3156              		.loc 1 1182 34
 3157 0022 7B68     		ldr	r3, [r7, #4]
 3158 0024 1968     		ldr	r1, [r3]
 3159 0026 7B68     		ldr	r3, [r7, #4]
 3160 0028 3A68     		ldr	r2, [r7]
 3161 002a 0A43     		orrs	r2, r2, r1
 3162 002c 1A60     		str	r2, [r3]
1183:../firmware/gd32f3x0_hal_peripheral/Source/gd32f3x0_hal_smartcard.c **** }
 3163              		.loc 1 1183 1
 3164 002e 00BF     		nop
 3165 0030 0C37     		adds	r7, r7, #12
 3166              		.cfi_def_cfa_offset 4
 3167 0032 BD46     		mov	sp, r7
 3168              		.cfi_def_cfa_register 13
 3169              		@ sp needed
 3170 0034 80BC     		pop	{r7}
 3171              		.cfi_restore 7
 3172              		.cfi_def_cfa_offset 0
 3173 0036 7047     		bx	lr
 3174              		.cfi_endproc
 3175              	.LFE136:
 3177              		.section	.text.hals_smartcard_stop_bit_set,"ax",%progbits
 3178              		.align	1
 3179              		.global	hals_smartcard_stop_bit_set
 3180              		.syntax unified
 3181              		.thumb
 3182              		.thumb_func
 3183              		.fpu softvfp
 3185              	hals_smartcard_stop_bit_set:
 3186              	.LFB137:
1184:../firmware/gd32f3x0_hal_peripheral/Source/gd32f3x0_hal_smartcard.c **** 
1185:../firmware/gd32f3x0_hal_peripheral/Source/gd32f3x0_hal_smartcard.c **** /*!
1186:../firmware/gd32f3x0_hal_peripheral/Source/gd32f3x0_hal_smartcard.c ****     \brief      configure SMARTCARD stop bit length
1187:../firmware/gd32f3x0_hal_peripheral/Source/gd32f3x0_hal_smartcard.c ****     \param[in]  smartcard_periph: USARTx(x=0,1)
1188:../firmware/gd32f3x0_hal_peripheral/Source/gd32f3x0_hal_smartcard.c ****     \param[in]  stblen: SMARTCARD stop bit configure
1189:../firmware/gd32f3x0_hal_peripheral/Source/gd32f3x0_hal_smartcard.c ****                 only one parameter can be selected which is shown as below:
1190:../firmware/gd32f3x0_hal_peripheral/Source/gd32f3x0_hal_smartcard.c ****       \arg        USART_STB_1BIT: 1 bit
1191:../firmware/gd32f3x0_hal_peripheral/Source/gd32f3x0_hal_smartcard.c ****       \arg        USART_STB_0_5BIT: 0.5bit
1192:../firmware/gd32f3x0_hal_peripheral/Source/gd32f3x0_hal_smartcard.c ****       \arg        USART_STB_2BIT: 2 bits
1193:../firmware/gd32f3x0_hal_peripheral/Source/gd32f3x0_hal_smartcard.c ****       \arg        USART_STB_1_5BIT: 1.5bit
1194:../firmware/gd32f3x0_hal_peripheral/Source/gd32f3x0_hal_smartcard.c ****     \param[out] none
1195:../firmware/gd32f3x0_hal_peripheral/Source/gd32f3x0_hal_smartcard.c ****     \retval     none
1196:../firmware/gd32f3x0_hal_peripheral/Source/gd32f3x0_hal_smartcard.c **** */
1197:../firmware/gd32f3x0_hal_peripheral/Source/gd32f3x0_hal_smartcard.c **** void hals_smartcard_stop_bit_set(uint32_t smartcard_periph, uint32_t stblen)
1198:../firmware/gd32f3x0_hal_peripheral/Source/gd32f3x0_hal_smartcard.c **** {
 3187              		.loc 1 1198 1
 3188              		.cfi_startproc
 3189              		@ args = 0, pretend = 0, frame = 8
 3190              		@ frame_needed = 1, uses_anonymous_args = 0
 3191              		@ link register save eliminated.
 3192 0000 80B4     		push	{r7}
 3193              		.cfi_def_cfa_offset 4
 3194              		.cfi_offset 7, -4
 3195 0002 83B0     		sub	sp, sp, #12
 3196              		.cfi_def_cfa_offset 16
 3197 0004 00AF     		add	r7, sp, #0
 3198              		.cfi_def_cfa_register 7
 3199 0006 7860     		str	r0, [r7, #4]
 3200 0008 3960     		str	r1, [r7]
1199:../firmware/gd32f3x0_hal_peripheral/Source/gd32f3x0_hal_smartcard.c ****     /* disable SMARTCARD */
1200:../firmware/gd32f3x0_hal_peripheral/Source/gd32f3x0_hal_smartcard.c ****     USART_CTL0(smartcard_periph) &= ~(USART_CTL0_UEN);
 3201              		.loc 1 1200 34
 3202 000a 7B68     		ldr	r3, [r7, #4]
 3203 000c 1A68     		ldr	r2, [r3]
 3204 000e 7B68     		ldr	r3, [r7, #4]
 3205 0010 22F00102 		bic	r2, r2, #1
 3206 0014 1A60     		str	r2, [r3]
1201:../firmware/gd32f3x0_hal_peripheral/Source/gd32f3x0_hal_smartcard.c ****     /* clear USART_CTL1 STB bits */
1202:../firmware/gd32f3x0_hal_peripheral/Source/gd32f3x0_hal_smartcard.c ****     USART_CTL1(smartcard_periph) &= ~USART_CTL1_STB;
 3207              		.loc 1 1202 34
 3208 0016 7B68     		ldr	r3, [r7, #4]
 3209 0018 0433     		adds	r3, r3, #4
 3210 001a 1B68     		ldr	r3, [r3]
 3211 001c 7A68     		ldr	r2, [r7, #4]
 3212 001e 0432     		adds	r2, r2, #4
 3213 0020 23F44053 		bic	r3, r3, #12288
 3214 0024 1360     		str	r3, [r2]
1203:../firmware/gd32f3x0_hal_peripheral/Source/gd32f3x0_hal_smartcard.c ****     USART_CTL1(smartcard_periph) |= stblen;
 3215              		.loc 1 1203 34
 3216 0026 7B68     		ldr	r3, [r7, #4]
 3217 0028 0433     		adds	r3, r3, #4
 3218 002a 1A68     		ldr	r2, [r3]
 3219 002c 7B68     		ldr	r3, [r7, #4]
 3220 002e 0433     		adds	r3, r3, #4
 3221 0030 1946     		mov	r1, r3
 3222 0032 3B68     		ldr	r3, [r7]
 3223 0034 1343     		orrs	r3, r3, r2
 3224 0036 0B60     		str	r3, [r1]
1204:../firmware/gd32f3x0_hal_peripheral/Source/gd32f3x0_hal_smartcard.c **** }
 3225              		.loc 1 1204 1
 3226 0038 00BF     		nop
 3227 003a 0C37     		adds	r7, r7, #12
 3228              		.cfi_def_cfa_offset 4
 3229 003c BD46     		mov	sp, r7
 3230              		.cfi_def_cfa_register 13
 3231              		@ sp needed
 3232 003e 80BC     		pop	{r7}
 3233              		.cfi_restore 7
 3234              		.cfi_def_cfa_offset 0
 3235 0040 7047     		bx	lr
 3236              		.cfi_endproc
 3237              	.LFE137:
 3239              		.section	.text.hals_smartcard_enable,"ax",%progbits
 3240              		.align	1
 3241              		.global	hals_smartcard_enable
 3242              		.syntax unified
 3243              		.thumb
 3244              		.thumb_func
 3245              		.fpu softvfp
 3247              	hals_smartcard_enable:
 3248              	.LFB138:
1205:../firmware/gd32f3x0_hal_peripheral/Source/gd32f3x0_hal_smartcard.c **** 
1206:../firmware/gd32f3x0_hal_peripheral/Source/gd32f3x0_hal_smartcard.c **** /*!
1207:../firmware/gd32f3x0_hal_peripheral/Source/gd32f3x0_hal_smartcard.c ****     \brief      enable SMARTCARD
1208:../firmware/gd32f3x0_hal_peripheral/Source/gd32f3x0_hal_smartcard.c ****     \param[in]  smartcard_periph: USARTx(x=0,1)
1209:../firmware/gd32f3x0_hal_peripheral/Source/gd32f3x0_hal_smartcard.c ****     \param[out] none
1210:../firmware/gd32f3x0_hal_peripheral/Source/gd32f3x0_hal_smartcard.c ****     \retval     none
1211:../firmware/gd32f3x0_hal_peripheral/Source/gd32f3x0_hal_smartcard.c **** */
1212:../firmware/gd32f3x0_hal_peripheral/Source/gd32f3x0_hal_smartcard.c **** void hals_smartcard_enable(uint32_t smartcard_periph)
1213:../firmware/gd32f3x0_hal_peripheral/Source/gd32f3x0_hal_smartcard.c **** {
 3249              		.loc 1 1213 1
 3250              		.cfi_startproc
 3251              		@ args = 0, pretend = 0, frame = 8
 3252              		@ frame_needed = 1, uses_anonymous_args = 0
 3253              		@ link register save eliminated.
 3254 0000 80B4     		push	{r7}
 3255              		.cfi_def_cfa_offset 4
 3256              		.cfi_offset 7, -4
 3257 0002 83B0     		sub	sp, sp, #12
 3258              		.cfi_def_cfa_offset 16
 3259 0004 00AF     		add	r7, sp, #0
 3260              		.cfi_def_cfa_register 7
 3261 0006 7860     		str	r0, [r7, #4]
1214:../firmware/gd32f3x0_hal_peripheral/Source/gd32f3x0_hal_smartcard.c ****     USART_CTL0(smartcard_periph) |= USART_CTL0_UEN;
 3262              		.loc 1 1214 34
 3263 0008 7B68     		ldr	r3, [r7, #4]
 3264 000a 1A68     		ldr	r2, [r3]
 3265 000c 7B68     		ldr	r3, [r7, #4]
 3266 000e 42F00102 		orr	r2, r2, #1
 3267 0012 1A60     		str	r2, [r3]
1215:../firmware/gd32f3x0_hal_peripheral/Source/gd32f3x0_hal_smartcard.c **** }
 3268              		.loc 1 1215 1
 3269 0014 00BF     		nop
 3270 0016 0C37     		adds	r7, r7, #12
 3271              		.cfi_def_cfa_offset 4
 3272 0018 BD46     		mov	sp, r7
 3273              		.cfi_def_cfa_register 13
 3274              		@ sp needed
 3275 001a 80BC     		pop	{r7}
 3276              		.cfi_restore 7
 3277              		.cfi_def_cfa_offset 0
 3278 001c 7047     		bx	lr
 3279              		.cfi_endproc
 3280              	.LFE138:
 3282              		.section	.text.hals_smartcard_disable,"ax",%progbits
 3283              		.align	1
 3284              		.global	hals_smartcard_disable
 3285              		.syntax unified
 3286              		.thumb
 3287              		.thumb_func
 3288              		.fpu softvfp
 3290              	hals_smartcard_disable:
 3291              	.LFB139:
1216:../firmware/gd32f3x0_hal_peripheral/Source/gd32f3x0_hal_smartcard.c **** 
1217:../firmware/gd32f3x0_hal_peripheral/Source/gd32f3x0_hal_smartcard.c **** /*!
1218:../firmware/gd32f3x0_hal_peripheral/Source/gd32f3x0_hal_smartcard.c ****     \brief      disable SMARTCARD
1219:../firmware/gd32f3x0_hal_peripheral/Source/gd32f3x0_hal_smartcard.c ****     \param[in]  smartcard_periph: USARTx(x=0,1)
1220:../firmware/gd32f3x0_hal_peripheral/Source/gd32f3x0_hal_smartcard.c ****     \param[out] none
1221:../firmware/gd32f3x0_hal_peripheral/Source/gd32f3x0_hal_smartcard.c ****     \retval     none
1222:../firmware/gd32f3x0_hal_peripheral/Source/gd32f3x0_hal_smartcard.c **** */
1223:../firmware/gd32f3x0_hal_peripheral/Source/gd32f3x0_hal_smartcard.c **** void hals_smartcard_disable(uint32_t smartcard_periph)
1224:../firmware/gd32f3x0_hal_peripheral/Source/gd32f3x0_hal_smartcard.c **** {
 3292              		.loc 1 1224 1
 3293              		.cfi_startproc
 3294              		@ args = 0, pretend = 0, frame = 8
 3295              		@ frame_needed = 1, uses_anonymous_args = 0
 3296              		@ link register save eliminated.
 3297 0000 80B4     		push	{r7}
 3298              		.cfi_def_cfa_offset 4
 3299              		.cfi_offset 7, -4
 3300 0002 83B0     		sub	sp, sp, #12
 3301              		.cfi_def_cfa_offset 16
 3302 0004 00AF     		add	r7, sp, #0
 3303              		.cfi_def_cfa_register 7
 3304 0006 7860     		str	r0, [r7, #4]
1225:../firmware/gd32f3x0_hal_peripheral/Source/gd32f3x0_hal_smartcard.c ****     USART_CTL0(smartcard_periph) &= ~(USART_CTL0_UEN);
 3305              		.loc 1 1225 34
 3306 0008 7B68     		ldr	r3, [r7, #4]
 3307 000a 1A68     		ldr	r2, [r3]
 3308 000c 7B68     		ldr	r3, [r7, #4]
 3309 000e 22F00102 		bic	r2, r2, #1
 3310 0012 1A60     		str	r2, [r3]
1226:../firmware/gd32f3x0_hal_peripheral/Source/gd32f3x0_hal_smartcard.c **** }
 3311              		.loc 1 1226 1
 3312 0014 00BF     		nop
 3313 0016 0C37     		adds	r7, r7, #12
 3314              		.cfi_def_cfa_offset 4
 3315 0018 BD46     		mov	sp, r7
 3316              		.cfi_def_cfa_register 13
 3317              		@ sp needed
 3318 001a 80BC     		pop	{r7}
 3319              		.cfi_restore 7
 3320              		.cfi_def_cfa_offset 0
 3321 001c 7047     		bx	lr
 3322              		.cfi_endproc
 3323              	.LFE139:
 3325              		.section	.text.hals_smartcard_transmit_config,"ax",%progbits
 3326              		.align	1
 3327              		.global	hals_smartcard_transmit_config
 3328              		.syntax unified
 3329              		.thumb
 3330              		.thumb_func
 3331              		.fpu softvfp
 3333              	hals_smartcard_transmit_config:
 3334              	.LFB140:
1227:../firmware/gd32f3x0_hal_peripheral/Source/gd32f3x0_hal_smartcard.c **** 
1228:../firmware/gd32f3x0_hal_peripheral/Source/gd32f3x0_hal_smartcard.c **** /*!
1229:../firmware/gd32f3x0_hal_peripheral/Source/gd32f3x0_hal_smartcard.c ****     \brief      configure SMARTCARD transmitter
1230:../firmware/gd32f3x0_hal_peripheral/Source/gd32f3x0_hal_smartcard.c ****     \param[in]  smartcard_periph: USARTx(x=0,1)
1231:../firmware/gd32f3x0_hal_peripheral/Source/gd32f3x0_hal_smartcard.c ****     \param[in]  txconfig: enable or disable SMARTCARD transmitter
1232:../firmware/gd32f3x0_hal_peripheral/Source/gd32f3x0_hal_smartcard.c ****                 only one parameter can be selected which is shown as below:
1233:../firmware/gd32f3x0_hal_peripheral/Source/gd32f3x0_hal_smartcard.c ****       \arg        USART_TRANSMIT_ENABLE: enable SMARTCARD transmission
1234:../firmware/gd32f3x0_hal_peripheral/Source/gd32f3x0_hal_smartcard.c ****       \arg        USART_TRANSMIT_DISABLE: enable SMARTCARD transmission
1235:../firmware/gd32f3x0_hal_peripheral/Source/gd32f3x0_hal_smartcard.c ****     \param[out] none
1236:../firmware/gd32f3x0_hal_peripheral/Source/gd32f3x0_hal_smartcard.c ****     \retval     none
1237:../firmware/gd32f3x0_hal_peripheral/Source/gd32f3x0_hal_smartcard.c **** */
1238:../firmware/gd32f3x0_hal_peripheral/Source/gd32f3x0_hal_smartcard.c **** void hals_smartcard_transmit_config(uint32_t smartcard_periph, uint32_t txconfig)
1239:../firmware/gd32f3x0_hal_peripheral/Source/gd32f3x0_hal_smartcard.c **** {
 3335              		.loc 1 1239 1
 3336              		.cfi_startproc
 3337              		@ args = 0, pretend = 0, frame = 8
 3338              		@ frame_needed = 1, uses_anonymous_args = 0
 3339              		@ link register save eliminated.
 3340 0000 80B4     		push	{r7}
 3341              		.cfi_def_cfa_offset 4
 3342              		.cfi_offset 7, -4
 3343 0002 83B0     		sub	sp, sp, #12
 3344              		.cfi_def_cfa_offset 16
 3345 0004 00AF     		add	r7, sp, #0
 3346              		.cfi_def_cfa_register 7
 3347 0006 7860     		str	r0, [r7, #4]
 3348 0008 3960     		str	r1, [r7]
1240:../firmware/gd32f3x0_hal_peripheral/Source/gd32f3x0_hal_smartcard.c ****     USART_CTL0(smartcard_periph) &= ~USART_CTL0_TEN;
 3349              		.loc 1 1240 34
 3350 000a 7B68     		ldr	r3, [r7, #4]
 3351 000c 1A68     		ldr	r2, [r3]
 3352 000e 7B68     		ldr	r3, [r7, #4]
 3353 0010 22F00802 		bic	r2, r2, #8
 3354 0014 1A60     		str	r2, [r3]
1241:../firmware/gd32f3x0_hal_peripheral/Source/gd32f3x0_hal_smartcard.c ****     /* configure transfer mode */
1242:../firmware/gd32f3x0_hal_peripheral/Source/gd32f3x0_hal_smartcard.c ****     USART_CTL0(smartcard_periph) |= txconfig;
 3355              		.loc 1 1242 34
 3356 0016 7B68     		ldr	r3, [r7, #4]
 3357 0018 1968     		ldr	r1, [r3]
 3358 001a 7B68     		ldr	r3, [r7, #4]
 3359 001c 3A68     		ldr	r2, [r7]
 3360 001e 0A43     		orrs	r2, r2, r1
 3361 0020 1A60     		str	r2, [r3]
1243:../firmware/gd32f3x0_hal_peripheral/Source/gd32f3x0_hal_smartcard.c **** }
 3362              		.loc 1 1243 1
 3363 0022 00BF     		nop
 3364 0024 0C37     		adds	r7, r7, #12
 3365              		.cfi_def_cfa_offset 4
 3366 0026 BD46     		mov	sp, r7
 3367              		.cfi_def_cfa_register 13
 3368              		@ sp needed
 3369 0028 80BC     		pop	{r7}
 3370              		.cfi_restore 7
 3371              		.cfi_def_cfa_offset 0
 3372 002a 7047     		bx	lr
 3373              		.cfi_endproc
 3374              	.LFE140:
 3376              		.section	.text.hals_smartcard_receive_config,"ax",%progbits
 3377              		.align	1
 3378              		.global	hals_smartcard_receive_config
 3379              		.syntax unified
 3380              		.thumb
 3381              		.thumb_func
 3382              		.fpu softvfp
 3384              	hals_smartcard_receive_config:
 3385              	.LFB141:
1244:../firmware/gd32f3x0_hal_peripheral/Source/gd32f3x0_hal_smartcard.c **** 
1245:../firmware/gd32f3x0_hal_peripheral/Source/gd32f3x0_hal_smartcard.c **** /*!
1246:../firmware/gd32f3x0_hal_peripheral/Source/gd32f3x0_hal_smartcard.c ****     \brief      configure SMARTCARD receiver
1247:../firmware/gd32f3x0_hal_peripheral/Source/gd32f3x0_hal_smartcard.c ****     \param[in]  smartcard_periph: USARTx(x=0,1)
1248:../firmware/gd32f3x0_hal_peripheral/Source/gd32f3x0_hal_smartcard.c ****     \param[in]  rxconfig: enable or disable SMARTCARD receiver
1249:../firmware/gd32f3x0_hal_peripheral/Source/gd32f3x0_hal_smartcard.c ****                 only one parameter can be selected which is shown as below:
1250:../firmware/gd32f3x0_hal_peripheral/Source/gd32f3x0_hal_smartcard.c ****       \arg        USART_RECEIVE_ENABLE: enable SMARTCARD reception
1251:../firmware/gd32f3x0_hal_peripheral/Source/gd32f3x0_hal_smartcard.c ****       \arg        USART_RECEIVE_DISABLE: disable SMARTCARD reception
1252:../firmware/gd32f3x0_hal_peripheral/Source/gd32f3x0_hal_smartcard.c ****     \param[out] none
1253:../firmware/gd32f3x0_hal_peripheral/Source/gd32f3x0_hal_smartcard.c ****     \retval     none
1254:../firmware/gd32f3x0_hal_peripheral/Source/gd32f3x0_hal_smartcard.c **** */
1255:../firmware/gd32f3x0_hal_peripheral/Source/gd32f3x0_hal_smartcard.c **** void hals_smartcard_receive_config(uint32_t smartcard_periph, uint32_t rxconfig)
1256:../firmware/gd32f3x0_hal_peripheral/Source/gd32f3x0_hal_smartcard.c **** {
 3386              		.loc 1 1256 1
 3387              		.cfi_startproc
 3388              		@ args = 0, pretend = 0, frame = 8
 3389              		@ frame_needed = 1, uses_anonymous_args = 0
 3390              		@ link register save eliminated.
 3391 0000 80B4     		push	{r7}
 3392              		.cfi_def_cfa_offset 4
 3393              		.cfi_offset 7, -4
 3394 0002 83B0     		sub	sp, sp, #12
 3395              		.cfi_def_cfa_offset 16
 3396 0004 00AF     		add	r7, sp, #0
 3397              		.cfi_def_cfa_register 7
 3398 0006 7860     		str	r0, [r7, #4]
 3399 0008 3960     		str	r1, [r7]
1257:../firmware/gd32f3x0_hal_peripheral/Source/gd32f3x0_hal_smartcard.c ****     USART_CTL0(smartcard_periph) &= ~USART_CTL0_REN;
 3400              		.loc 1 1257 34
 3401 000a 7B68     		ldr	r3, [r7, #4]
 3402 000c 1A68     		ldr	r2, [r3]
 3403 000e 7B68     		ldr	r3, [r7, #4]
 3404 0010 22F00402 		bic	r2, r2, #4
 3405 0014 1A60     		str	r2, [r3]
1258:../firmware/gd32f3x0_hal_peripheral/Source/gd32f3x0_hal_smartcard.c ****     /* configure receiver mode */
1259:../firmware/gd32f3x0_hal_peripheral/Source/gd32f3x0_hal_smartcard.c ****     USART_CTL0(smartcard_periph) |= rxconfig;
 3406              		.loc 1 1259 34
 3407 0016 7B68     		ldr	r3, [r7, #4]
 3408 0018 1968     		ldr	r1, [r3]
 3409 001a 7B68     		ldr	r3, [r7, #4]
 3410 001c 3A68     		ldr	r2, [r7]
 3411 001e 0A43     		orrs	r2, r2, r1
 3412 0020 1A60     		str	r2, [r3]
1260:../firmware/gd32f3x0_hal_peripheral/Source/gd32f3x0_hal_smartcard.c **** }
 3413              		.loc 1 1260 1
 3414 0022 00BF     		nop
 3415 0024 0C37     		adds	r7, r7, #12
 3416              		.cfi_def_cfa_offset 4
 3417 0026 BD46     		mov	sp, r7
 3418              		.cfi_def_cfa_register 13
 3419              		@ sp needed
 3420 0028 80BC     		pop	{r7}
 3421              		.cfi_restore 7
 3422              		.cfi_def_cfa_offset 0
 3423 002a 7047     		bx	lr
 3424              		.cfi_endproc
 3425              	.LFE141:
 3427              		.section	.text.hals_smartcard_data_first_config,"ax",%progbits
 3428              		.align	1
 3429              		.global	hals_smartcard_data_first_config
 3430              		.syntax unified
 3431              		.thumb
 3432              		.thumb_func
 3433              		.fpu softvfp
 3435              	hals_smartcard_data_first_config:
 3436              	.LFB142:
1261:../firmware/gd32f3x0_hal_peripheral/Source/gd32f3x0_hal_smartcard.c **** 
1262:../firmware/gd32f3x0_hal_peripheral/Source/gd32f3x0_hal_smartcard.c **** /*!
1263:../firmware/gd32f3x0_hal_peripheral/Source/gd32f3x0_hal_smartcard.c ****     \brief      data is transmitted/received with the LSB/MSB first
1264:../firmware/gd32f3x0_hal_peripheral/Source/gd32f3x0_hal_smartcard.c ****     \param[in]  smartcard_periph: USARTx(x=0,1)
1265:../firmware/gd32f3x0_hal_peripheral/Source/gd32f3x0_hal_smartcard.c ****     \param[in]  msbf: LSB/MSB
1266:../firmware/gd32f3x0_hal_peripheral/Source/gd32f3x0_hal_smartcard.c ****                 only one parameter can be selected which is shown as below:
1267:../firmware/gd32f3x0_hal_peripheral/Source/gd32f3x0_hal_smartcard.c ****       \arg        USART_MSBF_LSB: LSB first
1268:../firmware/gd32f3x0_hal_peripheral/Source/gd32f3x0_hal_smartcard.c ****       \arg        USART_MSBF_MSB: MSB first
1269:../firmware/gd32f3x0_hal_peripheral/Source/gd32f3x0_hal_smartcard.c ****     \param[out] none
1270:../firmware/gd32f3x0_hal_peripheral/Source/gd32f3x0_hal_smartcard.c ****     \retval     none
1271:../firmware/gd32f3x0_hal_peripheral/Source/gd32f3x0_hal_smartcard.c **** */
1272:../firmware/gd32f3x0_hal_peripheral/Source/gd32f3x0_hal_smartcard.c **** void hals_smartcard_data_first_config(uint32_t smartcard_periph, uint32_t msbf)
1273:../firmware/gd32f3x0_hal_peripheral/Source/gd32f3x0_hal_smartcard.c **** {
 3437              		.loc 1 1273 1
 3438              		.cfi_startproc
 3439              		@ args = 0, pretend = 0, frame = 8
 3440              		@ frame_needed = 1, uses_anonymous_args = 0
 3441              		@ link register save eliminated.
 3442 0000 80B4     		push	{r7}
 3443              		.cfi_def_cfa_offset 4
 3444              		.cfi_offset 7, -4
 3445 0002 83B0     		sub	sp, sp, #12
 3446              		.cfi_def_cfa_offset 16
 3447 0004 00AF     		add	r7, sp, #0
 3448              		.cfi_def_cfa_register 7
 3449 0006 7860     		str	r0, [r7, #4]
 3450 0008 3960     		str	r1, [r7]
1274:../firmware/gd32f3x0_hal_peripheral/Source/gd32f3x0_hal_smartcard.c ****     USART_CTL0(smartcard_periph) &= ~(USART_CTL0_UEN);
 3451              		.loc 1 1274 34
 3452 000a 7B68     		ldr	r3, [r7, #4]
 3453 000c 1A68     		ldr	r2, [r3]
 3454 000e 7B68     		ldr	r3, [r7, #4]
 3455 0010 22F00102 		bic	r2, r2, #1
 3456 0014 1A60     		str	r2, [r3]
1275:../firmware/gd32f3x0_hal_peripheral/Source/gd32f3x0_hal_smartcard.c ****     /* configure LSB or MSB first */
1276:../firmware/gd32f3x0_hal_peripheral/Source/gd32f3x0_hal_smartcard.c ****     USART_CTL1(smartcard_periph) &= ~(USART_CTL1_MSBF);
 3457              		.loc 1 1276 34
 3458 0016 7B68     		ldr	r3, [r7, #4]
 3459 0018 0433     		adds	r3, r3, #4
 3460 001a 1B68     		ldr	r3, [r3]
 3461 001c 7A68     		ldr	r2, [r7, #4]
 3462 001e 0432     		adds	r2, r2, #4
 3463 0020 23F40023 		bic	r3, r3, #524288
 3464 0024 1360     		str	r3, [r2]
1277:../firmware/gd32f3x0_hal_peripheral/Source/gd32f3x0_hal_smartcard.c ****     USART_CTL1(smartcard_periph) |= msbf;
 3465              		.loc 1 1277 34
 3466 0026 7B68     		ldr	r3, [r7, #4]
 3467 0028 0433     		adds	r3, r3, #4
 3468 002a 1A68     		ldr	r2, [r3]
 3469 002c 7B68     		ldr	r3, [r7, #4]
 3470 002e 0433     		adds	r3, r3, #4
 3471 0030 1946     		mov	r1, r3
 3472 0032 3B68     		ldr	r3, [r7]
 3473 0034 1343     		orrs	r3, r3, r2
 3474 0036 0B60     		str	r3, [r1]
1278:../firmware/gd32f3x0_hal_peripheral/Source/gd32f3x0_hal_smartcard.c **** }
 3475              		.loc 1 1278 1
 3476 0038 00BF     		nop
 3477 003a 0C37     		adds	r7, r7, #12
 3478              		.cfi_def_cfa_offset 4
 3479 003c BD46     		mov	sp, r7
 3480              		.cfi_def_cfa_register 13
 3481              		@ sp needed
 3482 003e 80BC     		pop	{r7}
 3483              		.cfi_restore 7
 3484              		.cfi_def_cfa_offset 0
 3485 0040 7047     		bx	lr
 3486              		.cfi_endproc
 3487              	.LFE142:
 3489              		.section	.text.hals_smartcard_invert_config,"ax",%progbits
 3490              		.align	1
 3491              		.global	hals_smartcard_invert_config
 3492              		.syntax unified
 3493              		.thumb
 3494              		.thumb_func
 3495              		.fpu softvfp
 3497              	hals_smartcard_invert_config:
 3498              	.LFB143:
1279:../firmware/gd32f3x0_hal_peripheral/Source/gd32f3x0_hal_smartcard.c **** 
1280:../firmware/gd32f3x0_hal_peripheral/Source/gd32f3x0_hal_smartcard.c **** /*!
1281:../firmware/gd32f3x0_hal_peripheral/Source/gd32f3x0_hal_smartcard.c ****     \brief      configure SMARTCARD inversion
1282:../firmware/gd32f3x0_hal_peripheral/Source/gd32f3x0_hal_smartcard.c ****     \param[in]  smartcard_periph: USARTx(x=0,1)
1283:../firmware/gd32f3x0_hal_peripheral/Source/gd32f3x0_hal_smartcard.c ****     \param[in]  invertpara: refer to usart_invert_enum
1284:../firmware/gd32f3x0_hal_peripheral/Source/gd32f3x0_hal_smartcard.c ****                 only one parameter can be selected which is shown as below:
1285:../firmware/gd32f3x0_hal_peripheral/Source/gd32f3x0_hal_smartcard.c ****       \arg        USART_DINV_ENABLE: data bit level inversion
1286:../firmware/gd32f3x0_hal_peripheral/Source/gd32f3x0_hal_smartcard.c ****       \arg        USART_DINV_DISABLE: data bit level not inversion
1287:../firmware/gd32f3x0_hal_peripheral/Source/gd32f3x0_hal_smartcard.c ****       \arg        USART_TXPIN_ENABLE: TX pin level inversion
1288:../firmware/gd32f3x0_hal_peripheral/Source/gd32f3x0_hal_smartcard.c ****       \arg        USART_TXPIN_DISABLE: TX pin level not inversion
1289:../firmware/gd32f3x0_hal_peripheral/Source/gd32f3x0_hal_smartcard.c ****       \arg        USART_RXPIN_ENABLE: RX pin level inversion
1290:../firmware/gd32f3x0_hal_peripheral/Source/gd32f3x0_hal_smartcard.c ****       \arg        USART_RXPIN_DISABLE: RX pin level not inversion
1291:../firmware/gd32f3x0_hal_peripheral/Source/gd32f3x0_hal_smartcard.c ****       \arg        USART_SWAP_ENABLE: swap TX/RX pins
1292:../firmware/gd32f3x0_hal_peripheral/Source/gd32f3x0_hal_smartcard.c ****       \arg        USART_SWAP_DISABLE: not swap TX/RX pins
1293:../firmware/gd32f3x0_hal_peripheral/Source/gd32f3x0_hal_smartcard.c ****     \param[out] none
1294:../firmware/gd32f3x0_hal_peripheral/Source/gd32f3x0_hal_smartcard.c ****     \retval     none
1295:../firmware/gd32f3x0_hal_peripheral/Source/gd32f3x0_hal_smartcard.c **** */
1296:../firmware/gd32f3x0_hal_peripheral/Source/gd32f3x0_hal_smartcard.c **** void hals_smartcard_invert_config(uint32_t smartcard_periph, usart_invert_enum invertpara)
1297:../firmware/gd32f3x0_hal_peripheral/Source/gd32f3x0_hal_smartcard.c **** {
 3499              		.loc 1 1297 1
 3500              		.cfi_startproc
 3501              		@ args = 0, pretend = 0, frame = 8
 3502              		@ frame_needed = 1, uses_anonymous_args = 0
 3503              		@ link register save eliminated.
 3504 0000 80B4     		push	{r7}
 3505              		.cfi_def_cfa_offset 4
 3506              		.cfi_offset 7, -4
 3507 0002 83B0     		sub	sp, sp, #12
 3508              		.cfi_def_cfa_offset 16
 3509 0004 00AF     		add	r7, sp, #0
 3510              		.cfi_def_cfa_register 7
 3511 0006 7860     		str	r0, [r7, #4]
 3512 0008 0B46     		mov	r3, r1
 3513 000a FB70     		strb	r3, [r7, #3]
1298:../firmware/gd32f3x0_hal_peripheral/Source/gd32f3x0_hal_smartcard.c ****     USART_CTL0(smartcard_periph) &= ~(USART_CTL0_UEN);
 3514              		.loc 1 1298 34
 3515 000c 7B68     		ldr	r3, [r7, #4]
 3516 000e 1A68     		ldr	r2, [r3]
 3517 0010 7B68     		ldr	r3, [r7, #4]
 3518 0012 22F00102 		bic	r2, r2, #1
 3519 0016 1A60     		str	r2, [r3]
1299:../firmware/gd32f3x0_hal_peripheral/Source/gd32f3x0_hal_smartcard.c ****     /* inverted or not the specified signal */
1300:../firmware/gd32f3x0_hal_peripheral/Source/gd32f3x0_hal_smartcard.c ****     switch(invertpara) {
 3520              		.loc 1 1300 5
 3521 0018 FB78     		ldrb	r3, [r7, #3]	@ zero_extendqisi2
 3522 001a 072B     		cmp	r3, #7
 3523 001c 5AD8     		bhi	.L176
 3524 001e 01A2     		adr	r2, .L167
 3525 0020 52F823F0 		ldr	pc, [r2, r3, lsl #2]
 3526              		.p2align 2
 3527              	.L167:
 3528 0024 45000000 		.word	.L174+1
 3529 0028 57000000 		.word	.L173+1
 3530 002c 69000000 		.word	.L172+1
 3531 0030 7B000000 		.word	.L171+1
 3532 0034 8D000000 		.word	.L170+1
 3533 0038 9F000000 		.word	.L169+1
 3534 003c B1000000 		.word	.L168+1
 3535 0040 C3000000 		.word	.L166+1
 3536              		.p2align 1
 3537              	.L174:
1301:../firmware/gd32f3x0_hal_peripheral/Source/gd32f3x0_hal_smartcard.c ****     case USART_DINV_ENABLE:
1302:../firmware/gd32f3x0_hal_peripheral/Source/gd32f3x0_hal_smartcard.c ****         USART_CTL1(smartcard_periph) |= USART_CTL1_DINV;
 3538              		.loc 1 1302 38
 3539 0044 7B68     		ldr	r3, [r7, #4]
 3540 0046 0433     		adds	r3, r3, #4
 3541 0048 1B68     		ldr	r3, [r3]
 3542 004a 7A68     		ldr	r2, [r7, #4]
 3543 004c 0432     		adds	r2, r2, #4
 3544 004e 43F48023 		orr	r3, r3, #262144
 3545 0052 1360     		str	r3, [r2]
1303:../firmware/gd32f3x0_hal_peripheral/Source/gd32f3x0_hal_smartcard.c ****         break;
 3546              		.loc 1 1303 9
 3547 0054 3FE0     		b	.L175
 3548              	.L173:
1304:../firmware/gd32f3x0_hal_peripheral/Source/gd32f3x0_hal_smartcard.c ****     case USART_DINV_DISABLE:
1305:../firmware/gd32f3x0_hal_peripheral/Source/gd32f3x0_hal_smartcard.c ****         USART_CTL1(smartcard_periph) &= ~(USART_CTL1_DINV);
 3549              		.loc 1 1305 38
 3550 0056 7B68     		ldr	r3, [r7, #4]
 3551 0058 0433     		adds	r3, r3, #4
 3552 005a 1B68     		ldr	r3, [r3]
 3553 005c 7A68     		ldr	r2, [r7, #4]
 3554 005e 0432     		adds	r2, r2, #4
 3555 0060 23F48023 		bic	r3, r3, #262144
 3556 0064 1360     		str	r3, [r2]
1306:../firmware/gd32f3x0_hal_peripheral/Source/gd32f3x0_hal_smartcard.c ****         break;
 3557              		.loc 1 1306 9
 3558 0066 36E0     		b	.L175
 3559              	.L172:
1307:../firmware/gd32f3x0_hal_peripheral/Source/gd32f3x0_hal_smartcard.c ****     case USART_TXPIN_ENABLE:
1308:../firmware/gd32f3x0_hal_peripheral/Source/gd32f3x0_hal_smartcard.c ****         USART_CTL1(smartcard_periph) |= USART_CTL1_TINV;
 3560              		.loc 1 1308 38
 3561 0068 7B68     		ldr	r3, [r7, #4]
 3562 006a 0433     		adds	r3, r3, #4
 3563 006c 1B68     		ldr	r3, [r3]
 3564 006e 7A68     		ldr	r2, [r7, #4]
 3565 0070 0432     		adds	r2, r2, #4
 3566 0072 43F40033 		orr	r3, r3, #131072
 3567 0076 1360     		str	r3, [r2]
1309:../firmware/gd32f3x0_hal_peripheral/Source/gd32f3x0_hal_smartcard.c ****         break;
 3568              		.loc 1 1309 9
 3569 0078 2DE0     		b	.L175
 3570              	.L171:
1310:../firmware/gd32f3x0_hal_peripheral/Source/gd32f3x0_hal_smartcard.c ****     case USART_TXPIN_DISABLE:
1311:../firmware/gd32f3x0_hal_peripheral/Source/gd32f3x0_hal_smartcard.c ****         USART_CTL1(smartcard_periph) &= ~(USART_CTL1_TINV);
 3571              		.loc 1 1311 38
 3572 007a 7B68     		ldr	r3, [r7, #4]
 3573 007c 0433     		adds	r3, r3, #4
 3574 007e 1B68     		ldr	r3, [r3]
 3575 0080 7A68     		ldr	r2, [r7, #4]
 3576 0082 0432     		adds	r2, r2, #4
 3577 0084 23F40033 		bic	r3, r3, #131072
 3578 0088 1360     		str	r3, [r2]
1312:../firmware/gd32f3x0_hal_peripheral/Source/gd32f3x0_hal_smartcard.c ****         break;
 3579              		.loc 1 1312 9
 3580 008a 24E0     		b	.L175
 3581              	.L170:
1313:../firmware/gd32f3x0_hal_peripheral/Source/gd32f3x0_hal_smartcard.c ****     case USART_RXPIN_ENABLE:
1314:../firmware/gd32f3x0_hal_peripheral/Source/gd32f3x0_hal_smartcard.c ****         USART_CTL1(smartcard_periph) |= USART_CTL1_RINV;
 3582              		.loc 1 1314 38
 3583 008c 7B68     		ldr	r3, [r7, #4]
 3584 008e 0433     		adds	r3, r3, #4
 3585 0090 1B68     		ldr	r3, [r3]
 3586 0092 7A68     		ldr	r2, [r7, #4]
 3587 0094 0432     		adds	r2, r2, #4
 3588 0096 43F48033 		orr	r3, r3, #65536
 3589 009a 1360     		str	r3, [r2]
1315:../firmware/gd32f3x0_hal_peripheral/Source/gd32f3x0_hal_smartcard.c ****         break;
 3590              		.loc 1 1315 9
 3591 009c 1BE0     		b	.L175
 3592              	.L169:
1316:../firmware/gd32f3x0_hal_peripheral/Source/gd32f3x0_hal_smartcard.c ****     case USART_RXPIN_DISABLE:
1317:../firmware/gd32f3x0_hal_peripheral/Source/gd32f3x0_hal_smartcard.c ****         USART_CTL1(smartcard_periph) &= ~(USART_CTL1_RINV);
 3593              		.loc 1 1317 38
 3594 009e 7B68     		ldr	r3, [r7, #4]
 3595 00a0 0433     		adds	r3, r3, #4
 3596 00a2 1B68     		ldr	r3, [r3]
 3597 00a4 7A68     		ldr	r2, [r7, #4]
 3598 00a6 0432     		adds	r2, r2, #4
 3599 00a8 23F48033 		bic	r3, r3, #65536
 3600 00ac 1360     		str	r3, [r2]
1318:../firmware/gd32f3x0_hal_peripheral/Source/gd32f3x0_hal_smartcard.c ****         break;
 3601              		.loc 1 1318 9
 3602 00ae 12E0     		b	.L175
 3603              	.L168:
1319:../firmware/gd32f3x0_hal_peripheral/Source/gd32f3x0_hal_smartcard.c ****     case USART_SWAP_ENABLE:
1320:../firmware/gd32f3x0_hal_peripheral/Source/gd32f3x0_hal_smartcard.c ****         USART_CTL1(smartcard_periph) |= USART_CTL1_STRP;
 3604              		.loc 1 1320 38
 3605 00b0 7B68     		ldr	r3, [r7, #4]
 3606 00b2 0433     		adds	r3, r3, #4
 3607 00b4 1B68     		ldr	r3, [r3]
 3608 00b6 7A68     		ldr	r2, [r7, #4]
 3609 00b8 0432     		adds	r2, r2, #4
 3610 00ba 43F40043 		orr	r3, r3, #32768
 3611 00be 1360     		str	r3, [r2]
1321:../firmware/gd32f3x0_hal_peripheral/Source/gd32f3x0_hal_smartcard.c ****         break;
 3612              		.loc 1 1321 9
 3613 00c0 09E0     		b	.L175
 3614              	.L166:
1322:../firmware/gd32f3x0_hal_peripheral/Source/gd32f3x0_hal_smartcard.c ****     case USART_SWAP_DISABLE:
1323:../firmware/gd32f3x0_hal_peripheral/Source/gd32f3x0_hal_smartcard.c ****         USART_CTL1(smartcard_periph) &= ~(USART_CTL1_STRP);
 3615              		.loc 1 1323 38
 3616 00c2 7B68     		ldr	r3, [r7, #4]
 3617 00c4 0433     		adds	r3, r3, #4
 3618 00c6 1B68     		ldr	r3, [r3]
 3619 00c8 7A68     		ldr	r2, [r7, #4]
 3620 00ca 0432     		adds	r2, r2, #4
 3621 00cc 23F40043 		bic	r3, r3, #32768
 3622 00d0 1360     		str	r3, [r2]
1324:../firmware/gd32f3x0_hal_peripheral/Source/gd32f3x0_hal_smartcard.c ****         break;
 3623              		.loc 1 1324 9
 3624 00d2 00E0     		b	.L175
 3625              	.L176:
1325:../firmware/gd32f3x0_hal_peripheral/Source/gd32f3x0_hal_smartcard.c ****     default:
1326:../firmware/gd32f3x0_hal_peripheral/Source/gd32f3x0_hal_smartcard.c ****         break;
 3626              		.loc 1 1326 9
 3627 00d4 00BF     		nop
 3628              	.L175:
1327:../firmware/gd32f3x0_hal_peripheral/Source/gd32f3x0_hal_smartcard.c ****     }
1328:../firmware/gd32f3x0_hal_peripheral/Source/gd32f3x0_hal_smartcard.c **** }
 3629              		.loc 1 1328 1
 3630 00d6 00BF     		nop
 3631 00d8 0C37     		adds	r7, r7, #12
 3632              		.cfi_def_cfa_offset 4
 3633 00da BD46     		mov	sp, r7
 3634              		.cfi_def_cfa_register 13
 3635              		@ sp needed
 3636 00dc 80BC     		pop	{r7}
 3637              		.cfi_restore 7
 3638              		.cfi_def_cfa_offset 0
 3639 00de 7047     		bx	lr
 3640              		.cfi_endproc
 3641              	.LFE143:
 3643              		.section	.text.hals_smartcard_overrun_enable,"ax",%progbits
 3644              		.align	1
 3645              		.global	hals_smartcard_overrun_enable
 3646              		.syntax unified
 3647              		.thumb
 3648              		.thumb_func
 3649              		.fpu softvfp
 3651              	hals_smartcard_overrun_enable:
 3652              	.LFB144:
1329:../firmware/gd32f3x0_hal_peripheral/Source/gd32f3x0_hal_smartcard.c **** 
1330:../firmware/gd32f3x0_hal_peripheral/Source/gd32f3x0_hal_smartcard.c **** /*!
1331:../firmware/gd32f3x0_hal_peripheral/Source/gd32f3x0_hal_smartcard.c ****     \brief      enable the SMARTCARD overrun function
1332:../firmware/gd32f3x0_hal_peripheral/Source/gd32f3x0_hal_smartcard.c ****     \param[in]  smartcard_periph: USARTx(x=0,1)
1333:../firmware/gd32f3x0_hal_peripheral/Source/gd32f3x0_hal_smartcard.c ****     \param[out] none
1334:../firmware/gd32f3x0_hal_peripheral/Source/gd32f3x0_hal_smartcard.c ****     \retval     none
1335:../firmware/gd32f3x0_hal_peripheral/Source/gd32f3x0_hal_smartcard.c **** */
1336:../firmware/gd32f3x0_hal_peripheral/Source/gd32f3x0_hal_smartcard.c **** void hals_smartcard_overrun_enable(uint32_t smartcard_periph)
1337:../firmware/gd32f3x0_hal_peripheral/Source/gd32f3x0_hal_smartcard.c **** {
 3653              		.loc 1 1337 1
 3654              		.cfi_startproc
 3655              		@ args = 0, pretend = 0, frame = 8
 3656              		@ frame_needed = 1, uses_anonymous_args = 0
 3657              		@ link register save eliminated.
 3658 0000 80B4     		push	{r7}
 3659              		.cfi_def_cfa_offset 4
 3660              		.cfi_offset 7, -4
 3661 0002 83B0     		sub	sp, sp, #12
 3662              		.cfi_def_cfa_offset 16
 3663 0004 00AF     		add	r7, sp, #0
 3664              		.cfi_def_cfa_register 7
 3665 0006 7860     		str	r0, [r7, #4]
1338:../firmware/gd32f3x0_hal_peripheral/Source/gd32f3x0_hal_smartcard.c ****     USART_CTL0(smartcard_periph) &= ~(USART_CTL0_UEN);
 3666              		.loc 1 1338 34
 3667 0008 7B68     		ldr	r3, [r7, #4]
 3668 000a 1A68     		ldr	r2, [r3]
 3669 000c 7B68     		ldr	r3, [r7, #4]
 3670 000e 22F00102 		bic	r2, r2, #1
 3671 0012 1A60     		str	r2, [r3]
1339:../firmware/gd32f3x0_hal_peripheral/Source/gd32f3x0_hal_smartcard.c ****     /* enable overrun function */
1340:../firmware/gd32f3x0_hal_peripheral/Source/gd32f3x0_hal_smartcard.c ****     USART_CTL2(smartcard_periph) &= ~(USART_CTL2_OVRD);
 3672              		.loc 1 1340 34
 3673 0014 7B68     		ldr	r3, [r7, #4]
 3674 0016 0833     		adds	r3, r3, #8
 3675 0018 1B68     		ldr	r3, [r3]
 3676 001a 7A68     		ldr	r2, [r7, #4]
 3677 001c 0832     		adds	r2, r2, #8
 3678 001e 23F48053 		bic	r3, r3, #4096
 3679 0022 1360     		str	r3, [r2]
1341:../firmware/gd32f3x0_hal_peripheral/Source/gd32f3x0_hal_smartcard.c **** }
 3680              		.loc 1 1341 1
 3681 0024 00BF     		nop
 3682 0026 0C37     		adds	r7, r7, #12
 3683              		.cfi_def_cfa_offset 4
 3684 0028 BD46     		mov	sp, r7
 3685              		.cfi_def_cfa_register 13
 3686              		@ sp needed
 3687 002a 80BC     		pop	{r7}
 3688              		.cfi_restore 7
 3689              		.cfi_def_cfa_offset 0
 3690 002c 7047     		bx	lr
 3691              		.cfi_endproc
 3692              	.LFE144:
 3694              		.section	.text.hals_smartcard_overrun_disable,"ax",%progbits
 3695              		.align	1
 3696              		.global	hals_smartcard_overrun_disable
 3697              		.syntax unified
 3698              		.thumb
 3699              		.thumb_func
 3700              		.fpu softvfp
 3702              	hals_smartcard_overrun_disable:
 3703              	.LFB145:
1342:../firmware/gd32f3x0_hal_peripheral/Source/gd32f3x0_hal_smartcard.c **** 
1343:../firmware/gd32f3x0_hal_peripheral/Source/gd32f3x0_hal_smartcard.c **** /*!
1344:../firmware/gd32f3x0_hal_peripheral/Source/gd32f3x0_hal_smartcard.c ****     \brief      disable the SMARTCARD overrun function
1345:../firmware/gd32f3x0_hal_peripheral/Source/gd32f3x0_hal_smartcard.c ****     \param[in]  smartcard_periph: USARTx(x=0,1)
1346:../firmware/gd32f3x0_hal_peripheral/Source/gd32f3x0_hal_smartcard.c ****     \param[out] none
1347:../firmware/gd32f3x0_hal_peripheral/Source/gd32f3x0_hal_smartcard.c ****     \retval     none
1348:../firmware/gd32f3x0_hal_peripheral/Source/gd32f3x0_hal_smartcard.c **** */
1349:../firmware/gd32f3x0_hal_peripheral/Source/gd32f3x0_hal_smartcard.c **** void hals_smartcard_overrun_disable(uint32_t smartcard_periph)
1350:../firmware/gd32f3x0_hal_peripheral/Source/gd32f3x0_hal_smartcard.c **** {
 3704              		.loc 1 1350 1
 3705              		.cfi_startproc
 3706              		@ args = 0, pretend = 0, frame = 8
 3707              		@ frame_needed = 1, uses_anonymous_args = 0
 3708              		@ link register save eliminated.
 3709 0000 80B4     		push	{r7}
 3710              		.cfi_def_cfa_offset 4
 3711              		.cfi_offset 7, -4
 3712 0002 83B0     		sub	sp, sp, #12
 3713              		.cfi_def_cfa_offset 16
 3714 0004 00AF     		add	r7, sp, #0
 3715              		.cfi_def_cfa_register 7
 3716 0006 7860     		str	r0, [r7, #4]
1351:../firmware/gd32f3x0_hal_peripheral/Source/gd32f3x0_hal_smartcard.c ****     USART_CTL0(smartcard_periph) &= ~(USART_CTL0_UEN);
 3717              		.loc 1 1351 34
 3718 0008 7B68     		ldr	r3, [r7, #4]
 3719 000a 1A68     		ldr	r2, [r3]
 3720 000c 7B68     		ldr	r3, [r7, #4]
 3721 000e 22F00102 		bic	r2, r2, #1
 3722 0012 1A60     		str	r2, [r3]
1352:../firmware/gd32f3x0_hal_peripheral/Source/gd32f3x0_hal_smartcard.c ****     /* disable overrun function */
1353:../firmware/gd32f3x0_hal_peripheral/Source/gd32f3x0_hal_smartcard.c ****     USART_CTL2(smartcard_periph) |= USART_CTL2_OVRD;
 3723              		.loc 1 1353 34
 3724 0014 7B68     		ldr	r3, [r7, #4]
 3725 0016 0833     		adds	r3, r3, #8
 3726 0018 1B68     		ldr	r3, [r3]
 3727 001a 7A68     		ldr	r2, [r7, #4]
 3728 001c 0832     		adds	r2, r2, #8
 3729 001e 43F48053 		orr	r3, r3, #4096
 3730 0022 1360     		str	r3, [r2]
1354:../firmware/gd32f3x0_hal_peripheral/Source/gd32f3x0_hal_smartcard.c **** }
 3731              		.loc 1 1354 1
 3732 0024 00BF     		nop
 3733 0026 0C37     		adds	r7, r7, #12
 3734              		.cfi_def_cfa_offset 4
 3735 0028 BD46     		mov	sp, r7
 3736              		.cfi_def_cfa_register 13
 3737              		@ sp needed
 3738 002a 80BC     		pop	{r7}
 3739              		.cfi_restore 7
 3740              		.cfi_def_cfa_offset 0
 3741 002c 7047     		bx	lr
 3742              		.cfi_endproc
 3743              	.LFE145:
 3745              		.section	.text.hals_smartcard_oversample_config,"ax",%progbits
 3746              		.align	1
 3747              		.global	hals_smartcard_oversample_config
 3748              		.syntax unified
 3749              		.thumb
 3750              		.thumb_func
 3751              		.fpu softvfp
 3753              	hals_smartcard_oversample_config:
 3754              	.LFB146:
1355:../firmware/gd32f3x0_hal_peripheral/Source/gd32f3x0_hal_smartcard.c **** 
1356:../firmware/gd32f3x0_hal_peripheral/Source/gd32f3x0_hal_smartcard.c **** /*!
1357:../firmware/gd32f3x0_hal_peripheral/Source/gd32f3x0_hal_smartcard.c ****     \brief      configure the SMARTCARD oversample mode
1358:../firmware/gd32f3x0_hal_peripheral/Source/gd32f3x0_hal_smartcard.c ****     \param[in]  smartcard_periph: USARTx(x=0,1)
1359:../firmware/gd32f3x0_hal_peripheral/Source/gd32f3x0_hal_smartcard.c ****     \param[in]  oversamp: oversample value
1360:../firmware/gd32f3x0_hal_peripheral/Source/gd32f3x0_hal_smartcard.c ****                 only one parameter can be selected which is shown as below:
1361:../firmware/gd32f3x0_hal_peripheral/Source/gd32f3x0_hal_smartcard.c ****       \arg        USART_OVSMOD_8: oversampling by 8
1362:../firmware/gd32f3x0_hal_peripheral/Source/gd32f3x0_hal_smartcard.c ****       \arg        USART_OVSMOD_16: oversampling by 16
1363:../firmware/gd32f3x0_hal_peripheral/Source/gd32f3x0_hal_smartcard.c ****     \param[out] none
1364:../firmware/gd32f3x0_hal_peripheral/Source/gd32f3x0_hal_smartcard.c ****     \retval     none
1365:../firmware/gd32f3x0_hal_peripheral/Source/gd32f3x0_hal_smartcard.c **** */
1366:../firmware/gd32f3x0_hal_peripheral/Source/gd32f3x0_hal_smartcard.c **** void hals_smartcard_oversample_config(uint32_t smartcard_periph, uint32_t oversamp)
1367:../firmware/gd32f3x0_hal_peripheral/Source/gd32f3x0_hal_smartcard.c **** {
 3755              		.loc 1 1367 1
 3756              		.cfi_startproc
 3757              		@ args = 0, pretend = 0, frame = 8
 3758              		@ frame_needed = 1, uses_anonymous_args = 0
 3759              		@ link register save eliminated.
 3760 0000 80B4     		push	{r7}
 3761              		.cfi_def_cfa_offset 4
 3762              		.cfi_offset 7, -4
 3763 0002 83B0     		sub	sp, sp, #12
 3764              		.cfi_def_cfa_offset 16
 3765 0004 00AF     		add	r7, sp, #0
 3766              		.cfi_def_cfa_register 7
 3767 0006 7860     		str	r0, [r7, #4]
 3768 0008 3960     		str	r1, [r7]
1368:../firmware/gd32f3x0_hal_peripheral/Source/gd32f3x0_hal_smartcard.c ****     /* disable SMARTCARD */
1369:../firmware/gd32f3x0_hal_peripheral/Source/gd32f3x0_hal_smartcard.c ****     USART_CTL0(smartcard_periph) &= ~(USART_CTL0_UEN);
 3769              		.loc 1 1369 34
 3770 000a 7B68     		ldr	r3, [r7, #4]
 3771 000c 1A68     		ldr	r2, [r3]
 3772 000e 7B68     		ldr	r3, [r7, #4]
 3773 0010 22F00102 		bic	r2, r2, #1
 3774 0014 1A60     		str	r2, [r3]
1370:../firmware/gd32f3x0_hal_peripheral/Source/gd32f3x0_hal_smartcard.c ****     /* clear OVSMOD bit */
1371:../firmware/gd32f3x0_hal_peripheral/Source/gd32f3x0_hal_smartcard.c ****     USART_CTL0(smartcard_periph) &= ~(USART_CTL0_OVSMOD);
 3775              		.loc 1 1371 34
 3776 0016 7B68     		ldr	r3, [r7, #4]
 3777 0018 1A68     		ldr	r2, [r3]
 3778 001a 7B68     		ldr	r3, [r7, #4]
 3779 001c 22F40042 		bic	r2, r2, #32768
 3780 0020 1A60     		str	r2, [r3]
1372:../firmware/gd32f3x0_hal_peripheral/Source/gd32f3x0_hal_smartcard.c ****     USART_CTL0(smartcard_periph) |= oversamp;
 3781              		.loc 1 1372 34
 3782 0022 7B68     		ldr	r3, [r7, #4]
 3783 0024 1968     		ldr	r1, [r3]
 3784 0026 7B68     		ldr	r3, [r7, #4]
 3785 0028 3A68     		ldr	r2, [r7]
 3786 002a 0A43     		orrs	r2, r2, r1
 3787 002c 1A60     		str	r2, [r3]
1373:../firmware/gd32f3x0_hal_peripheral/Source/gd32f3x0_hal_smartcard.c **** }
 3788              		.loc 1 1373 1
 3789 002e 00BF     		nop
 3790 0030 0C37     		adds	r7, r7, #12
 3791              		.cfi_def_cfa_offset 4
 3792 0032 BD46     		mov	sp, r7
 3793              		.cfi_def_cfa_register 13
 3794              		@ sp needed
 3795 0034 80BC     		pop	{r7}
 3796              		.cfi_restore 7
 3797              		.cfi_def_cfa_offset 0
 3798 0036 7047     		bx	lr
 3799              		.cfi_endproc
 3800              	.LFE146:
 3802              		.section	.text.hals_smartcard_sample_bit_config,"ax",%progbits
 3803              		.align	1
 3804              		.global	hals_smartcard_sample_bit_config
 3805              		.syntax unified
 3806              		.thumb
 3807              		.thumb_func
 3808              		.fpu softvfp
 3810              	hals_smartcard_sample_bit_config:
 3811              	.LFB147:
1374:../firmware/gd32f3x0_hal_peripheral/Source/gd32f3x0_hal_smartcard.c **** 
1375:../firmware/gd32f3x0_hal_peripheral/Source/gd32f3x0_hal_smartcard.c **** /*!
1376:../firmware/gd32f3x0_hal_peripheral/Source/gd32f3x0_hal_smartcard.c ****     \brief      configure the sample bit method
1377:../firmware/gd32f3x0_hal_peripheral/Source/gd32f3x0_hal_smartcard.c ****     \param[in]  smartcard_periph: USARTx(x=0,1)
1378:../firmware/gd32f3x0_hal_peripheral/Source/gd32f3x0_hal_smartcard.c ****     \param[in]  osb: sample bit
1379:../firmware/gd32f3x0_hal_peripheral/Source/gd32f3x0_hal_smartcard.c ****                 only one parameter can be selected which is shown as below:
1380:../firmware/gd32f3x0_hal_peripheral/Source/gd32f3x0_hal_smartcard.c ****       \arg        USART_OSB_1BIT: 1 bit
1381:../firmware/gd32f3x0_hal_peripheral/Source/gd32f3x0_hal_smartcard.c ****       \arg        USART_OSB_3BIT: 3 bits
1382:../firmware/gd32f3x0_hal_peripheral/Source/gd32f3x0_hal_smartcard.c ****     \param[out] none
1383:../firmware/gd32f3x0_hal_peripheral/Source/gd32f3x0_hal_smartcard.c ****     \retval     none
1384:../firmware/gd32f3x0_hal_peripheral/Source/gd32f3x0_hal_smartcard.c **** */
1385:../firmware/gd32f3x0_hal_peripheral/Source/gd32f3x0_hal_smartcard.c **** void hals_smartcard_sample_bit_config(uint32_t smartcard_periph, uint32_t osb)
1386:../firmware/gd32f3x0_hal_peripheral/Source/gd32f3x0_hal_smartcard.c **** {
 3812              		.loc 1 1386 1
 3813              		.cfi_startproc
 3814              		@ args = 0, pretend = 0, frame = 8
 3815              		@ frame_needed = 1, uses_anonymous_args = 0
 3816              		@ link register save eliminated.
 3817 0000 80B4     		push	{r7}
 3818              		.cfi_def_cfa_offset 4
 3819              		.cfi_offset 7, -4
 3820 0002 83B0     		sub	sp, sp, #12
 3821              		.cfi_def_cfa_offset 16
 3822 0004 00AF     		add	r7, sp, #0
 3823              		.cfi_def_cfa_register 7
 3824 0006 7860     		str	r0, [r7, #4]
 3825 0008 3960     		str	r1, [r7]
1387:../firmware/gd32f3x0_hal_peripheral/Source/gd32f3x0_hal_smartcard.c ****     /* disable SMARTCARD */
1388:../firmware/gd32f3x0_hal_peripheral/Source/gd32f3x0_hal_smartcard.c ****     USART_CTL0(smartcard_periph) &= ~(USART_CTL0_UEN);
 3826              		.loc 1 1388 34
 3827 000a 7B68     		ldr	r3, [r7, #4]
 3828 000c 1A68     		ldr	r2, [r3]
 3829 000e 7B68     		ldr	r3, [r7, #4]
 3830 0010 22F00102 		bic	r2, r2, #1
 3831 0014 1A60     		str	r2, [r3]
1389:../firmware/gd32f3x0_hal_peripheral/Source/gd32f3x0_hal_smartcard.c **** 
1390:../firmware/gd32f3x0_hal_peripheral/Source/gd32f3x0_hal_smartcard.c ****     USART_CTL2(smartcard_periph) &= ~(USART_CTL2_OSB);
 3832              		.loc 1 1390 34
 3833 0016 7B68     		ldr	r3, [r7, #4]
 3834 0018 0833     		adds	r3, r3, #8
 3835 001a 1B68     		ldr	r3, [r3]
 3836 001c 7A68     		ldr	r2, [r7, #4]
 3837 001e 0832     		adds	r2, r2, #8
 3838 0020 23F40063 		bic	r3, r3, #2048
 3839 0024 1360     		str	r3, [r2]
1391:../firmware/gd32f3x0_hal_peripheral/Source/gd32f3x0_hal_smartcard.c ****     USART_CTL2(smartcard_periph) |= osb;
 3840              		.loc 1 1391 34
 3841 0026 7B68     		ldr	r3, [r7, #4]
 3842 0028 0833     		adds	r3, r3, #8
 3843 002a 1A68     		ldr	r2, [r3]
 3844 002c 7B68     		ldr	r3, [r7, #4]
 3845 002e 0833     		adds	r3, r3, #8
 3846 0030 1946     		mov	r1, r3
 3847 0032 3B68     		ldr	r3, [r7]
 3848 0034 1343     		orrs	r3, r3, r2
 3849 0036 0B60     		str	r3, [r1]
1392:../firmware/gd32f3x0_hal_peripheral/Source/gd32f3x0_hal_smartcard.c **** }
 3850              		.loc 1 1392 1
 3851 0038 00BF     		nop
 3852 003a 0C37     		adds	r7, r7, #12
 3853              		.cfi_def_cfa_offset 4
 3854 003c BD46     		mov	sp, r7
 3855              		.cfi_def_cfa_register 13
 3856              		@ sp needed
 3857 003e 80BC     		pop	{r7}
 3858              		.cfi_restore 7
 3859              		.cfi_def_cfa_offset 0
 3860 0040 7047     		bx	lr
 3861              		.cfi_endproc
 3862              	.LFE147:
 3864              		.section	.text.hals_smartcard_receiver_timeout_enable,"ax",%progbits
 3865              		.align	1
 3866              		.global	hals_smartcard_receiver_timeout_enable
 3867              		.syntax unified
 3868              		.thumb
 3869              		.thumb_func
 3870              		.fpu softvfp
 3872              	hals_smartcard_receiver_timeout_enable:
 3873              	.LFB148:
1393:../firmware/gd32f3x0_hal_peripheral/Source/gd32f3x0_hal_smartcard.c **** 
1394:../firmware/gd32f3x0_hal_peripheral/Source/gd32f3x0_hal_smartcard.c **** /*!
1395:../firmware/gd32f3x0_hal_peripheral/Source/gd32f3x0_hal_smartcard.c ****     \brief      enable receiver timeout
1396:../firmware/gd32f3x0_hal_peripheral/Source/gd32f3x0_hal_smartcard.c ****     \param[in]  smartcard_periph: USARTx(x=0)
1397:../firmware/gd32f3x0_hal_peripheral/Source/gd32f3x0_hal_smartcard.c ****     \param[out] none
1398:../firmware/gd32f3x0_hal_peripheral/Source/gd32f3x0_hal_smartcard.c ****     \retval     none
1399:../firmware/gd32f3x0_hal_peripheral/Source/gd32f3x0_hal_smartcard.c **** */
1400:../firmware/gd32f3x0_hal_peripheral/Source/gd32f3x0_hal_smartcard.c **** void hals_smartcard_receiver_timeout_enable(uint32_t smartcard_periph)
1401:../firmware/gd32f3x0_hal_peripheral/Source/gd32f3x0_hal_smartcard.c **** {
 3874              		.loc 1 1401 1
 3875              		.cfi_startproc
 3876              		@ args = 0, pretend = 0, frame = 8
 3877              		@ frame_needed = 1, uses_anonymous_args = 0
 3878              		@ link register save eliminated.
 3879 0000 80B4     		push	{r7}
 3880              		.cfi_def_cfa_offset 4
 3881              		.cfi_offset 7, -4
 3882 0002 83B0     		sub	sp, sp, #12
 3883              		.cfi_def_cfa_offset 16
 3884 0004 00AF     		add	r7, sp, #0
 3885              		.cfi_def_cfa_register 7
 3886 0006 7860     		str	r0, [r7, #4]
1402:../firmware/gd32f3x0_hal_peripheral/Source/gd32f3x0_hal_smartcard.c ****     USART_CTL1(smartcard_periph) |= USART_CTL1_RTEN;
 3887              		.loc 1 1402 34
 3888 0008 7B68     		ldr	r3, [r7, #4]
 3889 000a 0433     		adds	r3, r3, #4
 3890 000c 1B68     		ldr	r3, [r3]
 3891 000e 7A68     		ldr	r2, [r7, #4]
 3892 0010 0432     		adds	r2, r2, #4
 3893 0012 43F40003 		orr	r3, r3, #8388608
 3894 0016 1360     		str	r3, [r2]
1403:../firmware/gd32f3x0_hal_peripheral/Source/gd32f3x0_hal_smartcard.c **** }
 3895              		.loc 1 1403 1
 3896 0018 00BF     		nop
 3897 001a 0C37     		adds	r7, r7, #12
 3898              		.cfi_def_cfa_offset 4
 3899 001c BD46     		mov	sp, r7
 3900              		.cfi_def_cfa_register 13
 3901              		@ sp needed
 3902 001e 80BC     		pop	{r7}
 3903              		.cfi_restore 7
 3904              		.cfi_def_cfa_offset 0
 3905 0020 7047     		bx	lr
 3906              		.cfi_endproc
 3907              	.LFE148:
 3909              		.section	.text.hals_smartcard_receiver_timeout_disable,"ax",%progbits
 3910              		.align	1
 3911              		.global	hals_smartcard_receiver_timeout_disable
 3912              		.syntax unified
 3913              		.thumb
 3914              		.thumb_func
 3915              		.fpu softvfp
 3917              	hals_smartcard_receiver_timeout_disable:
 3918              	.LFB149:
1404:../firmware/gd32f3x0_hal_peripheral/Source/gd32f3x0_hal_smartcard.c **** 
1405:../firmware/gd32f3x0_hal_peripheral/Source/gd32f3x0_hal_smartcard.c **** /*!
1406:../firmware/gd32f3x0_hal_peripheral/Source/gd32f3x0_hal_smartcard.c ****     \brief      disable receiver timeout
1407:../firmware/gd32f3x0_hal_peripheral/Source/gd32f3x0_hal_smartcard.c ****     \param[in]  smartcard_periph: USARTx(x=0)
1408:../firmware/gd32f3x0_hal_peripheral/Source/gd32f3x0_hal_smartcard.c ****     \param[out] none
1409:../firmware/gd32f3x0_hal_peripheral/Source/gd32f3x0_hal_smartcard.c ****     \retval     none
1410:../firmware/gd32f3x0_hal_peripheral/Source/gd32f3x0_hal_smartcard.c **** */
1411:../firmware/gd32f3x0_hal_peripheral/Source/gd32f3x0_hal_smartcard.c **** void hals_smartcard_receiver_timeout_disable(uint32_t smartcard_periph)
1412:../firmware/gd32f3x0_hal_peripheral/Source/gd32f3x0_hal_smartcard.c **** {
 3919              		.loc 1 1412 1
 3920              		.cfi_startproc
 3921              		@ args = 0, pretend = 0, frame = 8
 3922              		@ frame_needed = 1, uses_anonymous_args = 0
 3923              		@ link register save eliminated.
 3924 0000 80B4     		push	{r7}
 3925              		.cfi_def_cfa_offset 4
 3926              		.cfi_offset 7, -4
 3927 0002 83B0     		sub	sp, sp, #12
 3928              		.cfi_def_cfa_offset 16
 3929 0004 00AF     		add	r7, sp, #0
 3930              		.cfi_def_cfa_register 7
 3931 0006 7860     		str	r0, [r7, #4]
1413:../firmware/gd32f3x0_hal_peripheral/Source/gd32f3x0_hal_smartcard.c ****     USART_CTL1(smartcard_periph) &= ~(USART_CTL1_RTEN);
 3932              		.loc 1 1413 34
 3933 0008 7B68     		ldr	r3, [r7, #4]
 3934 000a 0433     		adds	r3, r3, #4
 3935 000c 1B68     		ldr	r3, [r3]
 3936 000e 7A68     		ldr	r2, [r7, #4]
 3937 0010 0432     		adds	r2, r2, #4
 3938 0012 23F40003 		bic	r3, r3, #8388608
 3939 0016 1360     		str	r3, [r2]
1414:../firmware/gd32f3x0_hal_peripheral/Source/gd32f3x0_hal_smartcard.c **** }
 3940              		.loc 1 1414 1
 3941 0018 00BF     		nop
 3942 001a 0C37     		adds	r7, r7, #12
 3943              		.cfi_def_cfa_offset 4
 3944 001c BD46     		mov	sp, r7
 3945              		.cfi_def_cfa_register 13
 3946              		@ sp needed
 3947 001e 80BC     		pop	{r7}
 3948              		.cfi_restore 7
 3949              		.cfi_def_cfa_offset 0
 3950 0020 7047     		bx	lr
 3951              		.cfi_endproc
 3952              	.LFE149:
 3954              		.section	.text.hals_smartcard_receiver_timeout_threshold_config,"ax",%progbits
 3955              		.align	1
 3956              		.global	hals_smartcard_receiver_timeout_threshold_config
 3957              		.syntax unified
 3958              		.thumb
 3959              		.thumb_func
 3960              		.fpu softvfp
 3962              	hals_smartcard_receiver_timeout_threshold_config:
 3963              	.LFB150:
1415:../firmware/gd32f3x0_hal_peripheral/Source/gd32f3x0_hal_smartcard.c **** 
1416:../firmware/gd32f3x0_hal_peripheral/Source/gd32f3x0_hal_smartcard.c **** /*!
1417:../firmware/gd32f3x0_hal_peripheral/Source/gd32f3x0_hal_smartcard.c ****     \brief      configure receiver timeout threshold
1418:../firmware/gd32f3x0_hal_peripheral/Source/gd32f3x0_hal_smartcard.c ****     \param[in]  smartcard_periph: USARTx(x=0)
1419:../firmware/gd32f3x0_hal_peripheral/Source/gd32f3x0_hal_smartcard.c ****     \param[in]  rtimeout: 0x00000000-0x00FFFFFF, receiver timeout value in terms of number of baud 
1420:../firmware/gd32f3x0_hal_peripheral/Source/gd32f3x0_hal_smartcard.c ****     \param[out] none
1421:../firmware/gd32f3x0_hal_peripheral/Source/gd32f3x0_hal_smartcard.c ****     \retval     none
1422:../firmware/gd32f3x0_hal_peripheral/Source/gd32f3x0_hal_smartcard.c **** */
1423:../firmware/gd32f3x0_hal_peripheral/Source/gd32f3x0_hal_smartcard.c **** void hals_smartcard_receiver_timeout_threshold_config(uint32_t smartcard_periph, uint32_t rtimeout)
1424:../firmware/gd32f3x0_hal_peripheral/Source/gd32f3x0_hal_smartcard.c **** {
 3964              		.loc 1 1424 1
 3965              		.cfi_startproc
 3966              		@ args = 0, pretend = 0, frame = 8
 3967              		@ frame_needed = 1, uses_anonymous_args = 0
 3968              		@ link register save eliminated.
 3969 0000 80B4     		push	{r7}
 3970              		.cfi_def_cfa_offset 4
 3971              		.cfi_offset 7, -4
 3972 0002 83B0     		sub	sp, sp, #12
 3973              		.cfi_def_cfa_offset 16
 3974 0004 00AF     		add	r7, sp, #0
 3975              		.cfi_def_cfa_register 7
 3976 0006 7860     		str	r0, [r7, #4]
 3977 0008 3960     		str	r1, [r7]
1425:../firmware/gd32f3x0_hal_peripheral/Source/gd32f3x0_hal_smartcard.c ****     USART_RT(smartcard_periph) &= ~(USART_RT_RT);
 3978              		.loc 1 1425 32
 3979 000a 7B68     		ldr	r3, [r7, #4]
 3980 000c 1433     		adds	r3, r3, #20
 3981 000e 1B68     		ldr	r3, [r3]
 3982 0010 7A68     		ldr	r2, [r7, #4]
 3983 0012 1432     		adds	r2, r2, #20
 3984 0014 03F07F43 		and	r3, r3, #-16777216
 3985 0018 1360     		str	r3, [r2]
1426:../firmware/gd32f3x0_hal_peripheral/Source/gd32f3x0_hal_smartcard.c ****     USART_RT(smartcard_periph) |= rtimeout;
 3986              		.loc 1 1426 32
 3987 001a 7B68     		ldr	r3, [r7, #4]
 3988 001c 1433     		adds	r3, r3, #20
 3989 001e 1A68     		ldr	r2, [r3]
 3990 0020 7B68     		ldr	r3, [r7, #4]
 3991 0022 1433     		adds	r3, r3, #20
 3992 0024 1946     		mov	r1, r3
 3993 0026 3B68     		ldr	r3, [r7]
 3994 0028 1343     		orrs	r3, r3, r2
 3995 002a 0B60     		str	r3, [r1]
1427:../firmware/gd32f3x0_hal_peripheral/Source/gd32f3x0_hal_smartcard.c **** }
 3996              		.loc 1 1427 1
 3997 002c 00BF     		nop
 3998 002e 0C37     		adds	r7, r7, #12
 3999              		.cfi_def_cfa_offset 4
 4000 0030 BD46     		mov	sp, r7
 4001              		.cfi_def_cfa_register 13
 4002              		@ sp needed
 4003 0032 80BC     		pop	{r7}
 4004              		.cfi_restore 7
 4005              		.cfi_def_cfa_offset 0
 4006 0034 7047     		bx	lr
 4007              		.cfi_endproc
 4008              	.LFE150:
 4010              		.section	.text.hals_smartcard_data_transmit,"ax",%progbits
 4011              		.align	1
 4012              		.global	hals_smartcard_data_transmit
 4013              		.syntax unified
 4014              		.thumb
 4015              		.thumb_func
 4016              		.fpu softvfp
 4018              	hals_smartcard_data_transmit:
 4019              	.LFB151:
1428:../firmware/gd32f3x0_hal_peripheral/Source/gd32f3x0_hal_smartcard.c **** 
1429:../firmware/gd32f3x0_hal_peripheral/Source/gd32f3x0_hal_smartcard.c **** /*!
1430:../firmware/gd32f3x0_hal_peripheral/Source/gd32f3x0_hal_smartcard.c ****     \brief      SMARTCARD transmit data function
1431:../firmware/gd32f3x0_hal_peripheral/Source/gd32f3x0_hal_smartcard.c ****     \param[in]  smartcard_periph: USARTx(x=0,1)
1432:../firmware/gd32f3x0_hal_peripheral/Source/gd32f3x0_hal_smartcard.c ****     \param[in]  data: data of transmission
1433:../firmware/gd32f3x0_hal_peripheral/Source/gd32f3x0_hal_smartcard.c ****     \param[out] none
1434:../firmware/gd32f3x0_hal_peripheral/Source/gd32f3x0_hal_smartcard.c ****     \retval     none
1435:../firmware/gd32f3x0_hal_peripheral/Source/gd32f3x0_hal_smartcard.c **** */
1436:../firmware/gd32f3x0_hal_peripheral/Source/gd32f3x0_hal_smartcard.c **** void hals_smartcard_data_transmit(uint32_t smartcard_periph, uint16_t data)
1437:../firmware/gd32f3x0_hal_peripheral/Source/gd32f3x0_hal_smartcard.c **** {
 4020              		.loc 1 1437 1
 4021              		.cfi_startproc
 4022              		@ args = 0, pretend = 0, frame = 8
 4023              		@ frame_needed = 1, uses_anonymous_args = 0
 4024              		@ link register save eliminated.
 4025 0000 80B4     		push	{r7}
 4026              		.cfi_def_cfa_offset 4
 4027              		.cfi_offset 7, -4
 4028 0002 83B0     		sub	sp, sp, #12
 4029              		.cfi_def_cfa_offset 16
 4030 0004 00AF     		add	r7, sp, #0
 4031              		.cfi_def_cfa_register 7
 4032 0006 7860     		str	r0, [r7, #4]
 4033 0008 0B46     		mov	r3, r1
 4034 000a 7B80     		strh	r3, [r7, #2]	@ movhi
1438:../firmware/gd32f3x0_hal_peripheral/Source/gd32f3x0_hal_smartcard.c ****     USART_TDATA(smartcard_periph) = (USART_TDATA_TDATA & (uint32_t)data);
 4035              		.loc 1 1438 56
 4036 000c 7B88     		ldrh	r3, [r7, #2]
 4037              		.loc 1 1438 5
 4038 000e 7A68     		ldr	r2, [r7, #4]
 4039 0010 2832     		adds	r2, r2, #40
 4040              		.loc 1 1438 56
 4041 0012 C3F30803 		ubfx	r3, r3, #0, #9
 4042              		.loc 1 1438 35
 4043 0016 1360     		str	r3, [r2]
1439:../firmware/gd32f3x0_hal_peripheral/Source/gd32f3x0_hal_smartcard.c **** }
 4044              		.loc 1 1439 1
 4045 0018 00BF     		nop
 4046 001a 0C37     		adds	r7, r7, #12
 4047              		.cfi_def_cfa_offset 4
 4048 001c BD46     		mov	sp, r7
 4049              		.cfi_def_cfa_register 13
 4050              		@ sp needed
 4051 001e 80BC     		pop	{r7}
 4052              		.cfi_restore 7
 4053              		.cfi_def_cfa_offset 0
 4054 0020 7047     		bx	lr
 4055              		.cfi_endproc
 4056              	.LFE151:
 4058              		.section	.text.hals_smartcard_data_receive,"ax",%progbits
 4059              		.align	1
 4060              		.global	hals_smartcard_data_receive
 4061              		.syntax unified
 4062              		.thumb
 4063              		.thumb_func
 4064              		.fpu softvfp
 4066              	hals_smartcard_data_receive:
 4067              	.LFB152:
1440:../firmware/gd32f3x0_hal_peripheral/Source/gd32f3x0_hal_smartcard.c **** 
1441:../firmware/gd32f3x0_hal_peripheral/Source/gd32f3x0_hal_smartcard.c **** /*!
1442:../firmware/gd32f3x0_hal_peripheral/Source/gd32f3x0_hal_smartcard.c ****     \brief      SMARTCARD receive data function
1443:../firmware/gd32f3x0_hal_peripheral/Source/gd32f3x0_hal_smartcard.c ****     \param[in]  smartcard_periph: USARTx(x=0,1)
1444:../firmware/gd32f3x0_hal_peripheral/Source/gd32f3x0_hal_smartcard.c ****     \param[out] none
1445:../firmware/gd32f3x0_hal_peripheral/Source/gd32f3x0_hal_smartcard.c ****     \retval     data of received
1446:../firmware/gd32f3x0_hal_peripheral/Source/gd32f3x0_hal_smartcard.c **** */
1447:../firmware/gd32f3x0_hal_peripheral/Source/gd32f3x0_hal_smartcard.c **** uint16_t hals_smartcard_data_receive(uint32_t smartcard_periph)
1448:../firmware/gd32f3x0_hal_peripheral/Source/gd32f3x0_hal_smartcard.c **** {
 4068              		.loc 1 1448 1
 4069              		.cfi_startproc
 4070              		@ args = 0, pretend = 0, frame = 8
 4071              		@ frame_needed = 1, uses_anonymous_args = 0
 4072              		@ link register save eliminated.
 4073 0000 80B4     		push	{r7}
 4074              		.cfi_def_cfa_offset 4
 4075              		.cfi_offset 7, -4
 4076 0002 83B0     		sub	sp, sp, #12
 4077              		.cfi_def_cfa_offset 16
 4078 0004 00AF     		add	r7, sp, #0
 4079              		.cfi_def_cfa_register 7
 4080 0006 7860     		str	r0, [r7, #4]
1449:../firmware/gd32f3x0_hal_peripheral/Source/gd32f3x0_hal_smartcard.c ****     return (uint16_t)(GET_BITS(USART_RDATA(smartcard_periph), 0U, 8U));
 4081              		.loc 1 1449 23
 4082 0008 7B68     		ldr	r3, [r7, #4]
 4083 000a 2433     		adds	r3, r3, #36
 4084 000c 1B68     		ldr	r3, [r3]
 4085              		.loc 1 1449 12
 4086 000e 9BB2     		uxth	r3, r3
 4087 0010 C3F30803 		ubfx	r3, r3, #0, #9
 4088 0014 9BB2     		uxth	r3, r3
1450:../firmware/gd32f3x0_hal_peripheral/Source/gd32f3x0_hal_smartcard.c **** }
 4089              		.loc 1 1450 1
 4090 0016 1846     		mov	r0, r3
 4091 0018 0C37     		adds	r7, r7, #12
 4092              		.cfi_def_cfa_offset 4
 4093 001a BD46     		mov	sp, r7
 4094              		.cfi_def_cfa_register 13
 4095              		@ sp needed
 4096 001c 80BC     		pop	{r7}
 4097              		.cfi_restore 7
 4098              		.cfi_def_cfa_offset 0
 4099 001e 7047     		bx	lr
 4100              		.cfi_endproc
 4101              	.LFE152:
 4103              		.section	.text.hals_smartcard_command_enable,"ax",%progbits
 4104              		.align	1
 4105              		.global	hals_smartcard_command_enable
 4106              		.syntax unified
 4107              		.thumb
 4108              		.thumb_func
 4109              		.fpu softvfp
 4111              	hals_smartcard_command_enable:
 4112              	.LFB153:
1451:../firmware/gd32f3x0_hal_peripheral/Source/gd32f3x0_hal_smartcard.c **** 
1452:../firmware/gd32f3x0_hal_peripheral/Source/gd32f3x0_hal_smartcard.c **** /*!
1453:../firmware/gd32f3x0_hal_peripheral/Source/gd32f3x0_hal_smartcard.c ****     \brief      enable SMARTCARD command
1454:../firmware/gd32f3x0_hal_peripheral/Source/gd32f3x0_hal_smartcard.c ****     \param[in]  smartcard_periph: USARTx(x=0,1,2)
1455:../firmware/gd32f3x0_hal_peripheral/Source/gd32f3x0_hal_smartcard.c ****     \param[in]  cmdtype: command type
1456:../firmware/gd32f3x0_hal_peripheral/Source/gd32f3x0_hal_smartcard.c ****                 only one parameter can be selected which is shown as below:
1457:../firmware/gd32f3x0_hal_peripheral/Source/gd32f3x0_hal_smartcard.c ****       \arg        USART_CMD_SBKCMD: send break command
1458:../firmware/gd32f3x0_hal_peripheral/Source/gd32f3x0_hal_smartcard.c ****       \arg        USART_CMD_MMCMD: mute mode command
1459:../firmware/gd32f3x0_hal_peripheral/Source/gd32f3x0_hal_smartcard.c ****       \arg        USART_CMD_RXFCMD: receive data flush command
1460:../firmware/gd32f3x0_hal_peripheral/Source/gd32f3x0_hal_smartcard.c ****       \arg        USART_CMD_TXFCMD: transmit data flush request
1461:../firmware/gd32f3x0_hal_peripheral/Source/gd32f3x0_hal_smartcard.c ****     \param[out] none
1462:../firmware/gd32f3x0_hal_peripheral/Source/gd32f3x0_hal_smartcard.c ****     \retval     none
1463:../firmware/gd32f3x0_hal_peripheral/Source/gd32f3x0_hal_smartcard.c **** */
1464:../firmware/gd32f3x0_hal_peripheral/Source/gd32f3x0_hal_smartcard.c **** void hals_smartcard_command_enable(uint32_t smartcard_periph, uint32_t cmdtype)
1465:../firmware/gd32f3x0_hal_peripheral/Source/gd32f3x0_hal_smartcard.c **** {
 4113              		.loc 1 1465 1
 4114              		.cfi_startproc
 4115              		@ args = 0, pretend = 0, frame = 8
 4116              		@ frame_needed = 1, uses_anonymous_args = 0
 4117              		@ link register save eliminated.
 4118 0000 80B4     		push	{r7}
 4119              		.cfi_def_cfa_offset 4
 4120              		.cfi_offset 7, -4
 4121 0002 83B0     		sub	sp, sp, #12
 4122              		.cfi_def_cfa_offset 16
 4123 0004 00AF     		add	r7, sp, #0
 4124              		.cfi_def_cfa_register 7
 4125 0006 7860     		str	r0, [r7, #4]
 4126 0008 3960     		str	r1, [r7]
1466:../firmware/gd32f3x0_hal_peripheral/Source/gd32f3x0_hal_smartcard.c ****     USART_CMD(smartcard_periph) |= (cmdtype);
 4127              		.loc 1 1466 33
 4128 000a 7B68     		ldr	r3, [r7, #4]
 4129 000c 1833     		adds	r3, r3, #24
 4130 000e 1A68     		ldr	r2, [r3]
 4131 0010 7B68     		ldr	r3, [r7, #4]
 4132 0012 1833     		adds	r3, r3, #24
 4133 0014 1946     		mov	r1, r3
 4134 0016 3B68     		ldr	r3, [r7]
 4135 0018 1343     		orrs	r3, r3, r2
 4136 001a 0B60     		str	r3, [r1]
1467:../firmware/gd32f3x0_hal_peripheral/Source/gd32f3x0_hal_smartcard.c **** }
 4137              		.loc 1 1467 1
 4138 001c 00BF     		nop
 4139 001e 0C37     		adds	r7, r7, #12
 4140              		.cfi_def_cfa_offset 4
 4141 0020 BD46     		mov	sp, r7
 4142              		.cfi_def_cfa_register 13
 4143              		@ sp needed
 4144 0022 80BC     		pop	{r7}
 4145              		.cfi_restore 7
 4146              		.cfi_def_cfa_offset 0
 4147 0024 7047     		bx	lr
 4148              		.cfi_endproc
 4149              	.LFE153:
 4151              		.section	.text.hals_smartcard_clock_enable,"ax",%progbits
 4152              		.align	1
 4153              		.global	hals_smartcard_clock_enable
 4154              		.syntax unified
 4155              		.thumb
 4156              		.thumb_func
 4157              		.fpu softvfp
 4159              	hals_smartcard_clock_enable:
 4160              	.LFB154:
1468:../firmware/gd32f3x0_hal_peripheral/Source/gd32f3x0_hal_smartcard.c **** 
1469:../firmware/gd32f3x0_hal_peripheral/Source/gd32f3x0_hal_smartcard.c **** /*!
1470:../firmware/gd32f3x0_hal_peripheral/Source/gd32f3x0_hal_smartcard.c ****     \brief      enable SMARTCARD clock
1471:../firmware/gd32f3x0_hal_peripheral/Source/gd32f3x0_hal_smartcard.c ****     \param[in]  smartcard_periph: USARTx(x=0)
1472:../firmware/gd32f3x0_hal_peripheral/Source/gd32f3x0_hal_smartcard.c ****     \param[out] none
1473:../firmware/gd32f3x0_hal_peripheral/Source/gd32f3x0_hal_smartcard.c ****     \retval     none
1474:../firmware/gd32f3x0_hal_peripheral/Source/gd32f3x0_hal_smartcard.c **** */
1475:../firmware/gd32f3x0_hal_peripheral/Source/gd32f3x0_hal_smartcard.c **** void hals_smartcard_clock_enable(uint32_t smartcard_periph)
1476:../firmware/gd32f3x0_hal_peripheral/Source/gd32f3x0_hal_smartcard.c **** {
 4161              		.loc 1 1476 1
 4162              		.cfi_startproc
 4163              		@ args = 0, pretend = 0, frame = 8
 4164              		@ frame_needed = 1, uses_anonymous_args = 0
 4165              		@ link register save eliminated.
 4166 0000 80B4     		push	{r7}
 4167              		.cfi_def_cfa_offset 4
 4168              		.cfi_offset 7, -4
 4169 0002 83B0     		sub	sp, sp, #12
 4170              		.cfi_def_cfa_offset 16
 4171 0004 00AF     		add	r7, sp, #0
 4172              		.cfi_def_cfa_register 7
 4173 0006 7860     		str	r0, [r7, #4]
1477:../firmware/gd32f3x0_hal_peripheral/Source/gd32f3x0_hal_smartcard.c ****     /* disable SMARTCARD */
1478:../firmware/gd32f3x0_hal_peripheral/Source/gd32f3x0_hal_smartcard.c ****     USART_CTL0(smartcard_periph) &= ~(USART_CTL0_UEN);
 4174              		.loc 1 1478 34
 4175 0008 7B68     		ldr	r3, [r7, #4]
 4176 000a 1A68     		ldr	r2, [r3]
 4177 000c 7B68     		ldr	r3, [r7, #4]
 4178 000e 22F00102 		bic	r2, r2, #1
 4179 0012 1A60     		str	r2, [r3]
1479:../firmware/gd32f3x0_hal_peripheral/Source/gd32f3x0_hal_smartcard.c **** 
1480:../firmware/gd32f3x0_hal_peripheral/Source/gd32f3x0_hal_smartcard.c ****     USART_CTL1(smartcard_periph) |= USART_CTL1_CKEN;
 4180              		.loc 1 1480 34
 4181 0014 7B68     		ldr	r3, [r7, #4]
 4182 0016 0433     		adds	r3, r3, #4
 4183 0018 1B68     		ldr	r3, [r3]
 4184 001a 7A68     		ldr	r2, [r7, #4]
 4185 001c 0432     		adds	r2, r2, #4
 4186 001e 43F40063 		orr	r3, r3, #2048
 4187 0022 1360     		str	r3, [r2]
1481:../firmware/gd32f3x0_hal_peripheral/Source/gd32f3x0_hal_smartcard.c **** }
 4188              		.loc 1 1481 1
 4189 0024 00BF     		nop
 4190 0026 0C37     		adds	r7, r7, #12
 4191              		.cfi_def_cfa_offset 4
 4192 0028 BD46     		mov	sp, r7
 4193              		.cfi_def_cfa_register 13
 4194              		@ sp needed
 4195 002a 80BC     		pop	{r7}
 4196              		.cfi_restore 7
 4197              		.cfi_def_cfa_offset 0
 4198 002c 7047     		bx	lr
 4199              		.cfi_endproc
 4200              	.LFE154:
 4202              		.section	.text.hals_smartcard_clock_disable,"ax",%progbits
 4203              		.align	1
 4204              		.global	hals_smartcard_clock_disable
 4205              		.syntax unified
 4206              		.thumb
 4207              		.thumb_func
 4208              		.fpu softvfp
 4210              	hals_smartcard_clock_disable:
 4211              	.LFB155:
1482:../firmware/gd32f3x0_hal_peripheral/Source/gd32f3x0_hal_smartcard.c **** 
1483:../firmware/gd32f3x0_hal_peripheral/Source/gd32f3x0_hal_smartcard.c **** /*!
1484:../firmware/gd32f3x0_hal_peripheral/Source/gd32f3x0_hal_smartcard.c ****     \brief      disable SMARTCARD clock
1485:../firmware/gd32f3x0_hal_peripheral/Source/gd32f3x0_hal_smartcard.c ****     \param[in]  smartcard_periph: USARTx(x=0)
1486:../firmware/gd32f3x0_hal_peripheral/Source/gd32f3x0_hal_smartcard.c ****     \param[out] none
1487:../firmware/gd32f3x0_hal_peripheral/Source/gd32f3x0_hal_smartcard.c ****     \retval     none
1488:../firmware/gd32f3x0_hal_peripheral/Source/gd32f3x0_hal_smartcard.c **** */
1489:../firmware/gd32f3x0_hal_peripheral/Source/gd32f3x0_hal_smartcard.c **** void hals_smartcard_clock_disable(uint32_t smartcard_periph)
1490:../firmware/gd32f3x0_hal_peripheral/Source/gd32f3x0_hal_smartcard.c **** {
 4212              		.loc 1 1490 1
 4213              		.cfi_startproc
 4214              		@ args = 0, pretend = 0, frame = 8
 4215              		@ frame_needed = 1, uses_anonymous_args = 0
 4216              		@ link register save eliminated.
 4217 0000 80B4     		push	{r7}
 4218              		.cfi_def_cfa_offset 4
 4219              		.cfi_offset 7, -4
 4220 0002 83B0     		sub	sp, sp, #12
 4221              		.cfi_def_cfa_offset 16
 4222 0004 00AF     		add	r7, sp, #0
 4223              		.cfi_def_cfa_register 7
 4224 0006 7860     		str	r0, [r7, #4]
1491:../firmware/gd32f3x0_hal_peripheral/Source/gd32f3x0_hal_smartcard.c ****     /* disable SMARTCARD */
1492:../firmware/gd32f3x0_hal_peripheral/Source/gd32f3x0_hal_smartcard.c ****     USART_CTL0(smartcard_periph) &= ~(USART_CTL0_UEN);
 4225              		.loc 1 1492 34
 4226 0008 7B68     		ldr	r3, [r7, #4]
 4227 000a 1A68     		ldr	r2, [r3]
 4228 000c 7B68     		ldr	r3, [r7, #4]
 4229 000e 22F00102 		bic	r2, r2, #1
 4230 0012 1A60     		str	r2, [r3]
1493:../firmware/gd32f3x0_hal_peripheral/Source/gd32f3x0_hal_smartcard.c **** 
1494:../firmware/gd32f3x0_hal_peripheral/Source/gd32f3x0_hal_smartcard.c ****     USART_CTL1(smartcard_periph) &= ~(USART_CTL1_CKEN);
 4231              		.loc 1 1494 34
 4232 0014 7B68     		ldr	r3, [r7, #4]
 4233 0016 0433     		adds	r3, r3, #4
 4234 0018 1B68     		ldr	r3, [r3]
 4235 001a 7A68     		ldr	r2, [r7, #4]
 4236 001c 0432     		adds	r2, r2, #4
 4237 001e 23F40063 		bic	r3, r3, #2048
 4238 0022 1360     		str	r3, [r2]
1495:../firmware/gd32f3x0_hal_peripheral/Source/gd32f3x0_hal_smartcard.c **** }
 4239              		.loc 1 1495 1
 4240 0024 00BF     		nop
 4241 0026 0C37     		adds	r7, r7, #12
 4242              		.cfi_def_cfa_offset 4
 4243 0028 BD46     		mov	sp, r7
 4244              		.cfi_def_cfa_register 13
 4245              		@ sp needed
 4246 002a 80BC     		pop	{r7}
 4247              		.cfi_restore 7
 4248              		.cfi_def_cfa_offset 0
 4249 002c 7047     		bx	lr
 4250              		.cfi_endproc
 4251              	.LFE155:
 4253              		.section	.text.hals_smartcard_synchronous_clock_config,"ax",%progbits
 4254              		.align	1
 4255              		.global	hals_smartcard_synchronous_clock_config
 4256              		.syntax unified
 4257              		.thumb
 4258              		.thumb_func
 4259              		.fpu softvfp
 4261              	hals_smartcard_synchronous_clock_config:
 4262              	.LFB156:
1496:../firmware/gd32f3x0_hal_peripheral/Source/gd32f3x0_hal_smartcard.c **** 
1497:../firmware/gd32f3x0_hal_peripheral/Source/gd32f3x0_hal_smartcard.c **** /*!
1498:../firmware/gd32f3x0_hal_peripheral/Source/gd32f3x0_hal_smartcard.c ****     \brief      configure SMARTCARD synchronous mode parameters
1499:../firmware/gd32f3x0_hal_peripheral/Source/gd32f3x0_hal_smartcard.c ****     \param[in]  smartcard_periph: USARTx(x=0,1)
1500:../firmware/gd32f3x0_hal_peripheral/Source/gd32f3x0_hal_smartcard.c ****     \param[in]  clen: last bit clock pulse
1501:../firmware/gd32f3x0_hal_peripheral/Source/gd32f3x0_hal_smartcard.c ****                 only one parameter can be selected which is shown as below:
1502:../firmware/gd32f3x0_hal_peripheral/Source/gd32f3x0_hal_smartcard.c ****       \arg        USART_CLEN_NONE: clock pulse of the last data bit (MSB) is not output to the CK p
1503:../firmware/gd32f3x0_hal_peripheral/Source/gd32f3x0_hal_smartcard.c ****       \arg        USART_CLEN_EN: clock pulse of the last data bit (MSB) is output to the CK pin
1504:../firmware/gd32f3x0_hal_peripheral/Source/gd32f3x0_hal_smartcard.c ****     \param[in]  cph: clock phase
1505:../firmware/gd32f3x0_hal_peripheral/Source/gd32f3x0_hal_smartcard.c ****                 only one parameter can be selected which is shown as below:
1506:../firmware/gd32f3x0_hal_peripheral/Source/gd32f3x0_hal_smartcard.c ****       \arg        USART_CPH_1CK: first clock transition is the first data capture edge
1507:../firmware/gd32f3x0_hal_peripheral/Source/gd32f3x0_hal_smartcard.c ****       \arg        USART_CPH_2CK: second clock transition is the first data capture edge
1508:../firmware/gd32f3x0_hal_peripheral/Source/gd32f3x0_hal_smartcard.c ****     \param[in]  cpl: clock polarity
1509:../firmware/gd32f3x0_hal_peripheral/Source/gd32f3x0_hal_smartcard.c ****                 only one parameter can be selected which is shown as below:
1510:../firmware/gd32f3x0_hal_peripheral/Source/gd32f3x0_hal_smartcard.c ****       \arg        USART_CPL_LOW: steady low value on CK pin
1511:../firmware/gd32f3x0_hal_peripheral/Source/gd32f3x0_hal_smartcard.c ****       \arg        USART_CPL_HIGH: steady high value on CK pin
1512:../firmware/gd32f3x0_hal_peripheral/Source/gd32f3x0_hal_smartcard.c ****     \param[out] none
1513:../firmware/gd32f3x0_hal_peripheral/Source/gd32f3x0_hal_smartcard.c ****     \retval     none
1514:../firmware/gd32f3x0_hal_peripheral/Source/gd32f3x0_hal_smartcard.c **** */
1515:../firmware/gd32f3x0_hal_peripheral/Source/gd32f3x0_hal_smartcard.c **** void hals_smartcard_synchronous_clock_config(uint32_t smartcard_periph, uint32_t clen, uint32_t cph
1516:../firmware/gd32f3x0_hal_peripheral/Source/gd32f3x0_hal_smartcard.c ****         uint32_t cpl)
1517:../firmware/gd32f3x0_hal_peripheral/Source/gd32f3x0_hal_smartcard.c **** {
 4263              		.loc 1 1517 1
 4264              		.cfi_startproc
 4265              		@ args = 0, pretend = 0, frame = 16
 4266              		@ frame_needed = 1, uses_anonymous_args = 0
 4267              		@ link register save eliminated.
 4268 0000 80B4     		push	{r7}
 4269              		.cfi_def_cfa_offset 4
 4270              		.cfi_offset 7, -4
 4271 0002 85B0     		sub	sp, sp, #20
 4272              		.cfi_def_cfa_offset 24
 4273 0004 00AF     		add	r7, sp, #0
 4274              		.cfi_def_cfa_register 7
 4275 0006 F860     		str	r0, [r7, #12]
 4276 0008 B960     		str	r1, [r7, #8]
 4277 000a 7A60     		str	r2, [r7, #4]
 4278 000c 3B60     		str	r3, [r7]
1518:../firmware/gd32f3x0_hal_peripheral/Source/gd32f3x0_hal_smartcard.c ****     /* disable SMARTCARD */
1519:../firmware/gd32f3x0_hal_peripheral/Source/gd32f3x0_hal_smartcard.c ****     USART_CTL0(smartcard_periph) &= ~(USART_CTL0_UEN);
 4279              		.loc 1 1519 34
 4280 000e FB68     		ldr	r3, [r7, #12]
 4281 0010 1A68     		ldr	r2, [r3]
 4282 0012 FB68     		ldr	r3, [r7, #12]
 4283 0014 22F00102 		bic	r2, r2, #1
 4284 0018 1A60     		str	r2, [r3]
1520:../firmware/gd32f3x0_hal_peripheral/Source/gd32f3x0_hal_smartcard.c ****     /* reset USART_CTL1 CLEN,CPH,CPL bits */
1521:../firmware/gd32f3x0_hal_peripheral/Source/gd32f3x0_hal_smartcard.c ****     USART_CTL1(smartcard_periph) &= ~(USART_CTL1_CLEN | USART_CTL1_CPH | USART_CTL1_CPL);
 4285              		.loc 1 1521 34
 4286 001a FB68     		ldr	r3, [r7, #12]
 4287 001c 0433     		adds	r3, r3, #4
 4288 001e 1B68     		ldr	r3, [r3]
 4289 0020 FA68     		ldr	r2, [r7, #12]
 4290 0022 0432     		adds	r2, r2, #4
 4291 0024 23F4E063 		bic	r3, r3, #1792
 4292 0028 1360     		str	r3, [r2]
1522:../firmware/gd32f3x0_hal_peripheral/Source/gd32f3x0_hal_smartcard.c **** 
1523:../firmware/gd32f3x0_hal_peripheral/Source/gd32f3x0_hal_smartcard.c ****     USART_CTL1(smartcard_periph) |= (USART_CTL1_CLEN & clen);
 4293              		.loc 1 1523 34
 4294 002a FB68     		ldr	r3, [r7, #12]
 4295 002c 0433     		adds	r3, r3, #4
 4296 002e 1A68     		ldr	r2, [r3]
 4297              		.loc 1 1523 54
 4298 0030 BB68     		ldr	r3, [r7, #8]
 4299 0032 03F48073 		and	r3, r3, #256
 4300              		.loc 1 1523 34
 4301 0036 F968     		ldr	r1, [r7, #12]
 4302 0038 0431     		adds	r1, r1, #4
 4303 003a 1343     		orrs	r3, r3, r2
 4304 003c 0B60     		str	r3, [r1]
1524:../firmware/gd32f3x0_hal_peripheral/Source/gd32f3x0_hal_smartcard.c ****     USART_CTL1(smartcard_periph) |= (USART_CTL1_CPH & cph);
 4305              		.loc 1 1524 34
 4306 003e FB68     		ldr	r3, [r7, #12]
 4307 0040 0433     		adds	r3, r3, #4
 4308 0042 1A68     		ldr	r2, [r3]
 4309              		.loc 1 1524 53
 4310 0044 7B68     		ldr	r3, [r7, #4]
 4311 0046 03F40073 		and	r3, r3, #512
 4312              		.loc 1 1524 34
 4313 004a F968     		ldr	r1, [r7, #12]
 4314 004c 0431     		adds	r1, r1, #4
 4315 004e 1343     		orrs	r3, r3, r2
 4316 0050 0B60     		str	r3, [r1]
1525:../firmware/gd32f3x0_hal_peripheral/Source/gd32f3x0_hal_smartcard.c ****     USART_CTL1(smartcard_periph) |= (USART_CTL1_CPL & cpl);
 4317              		.loc 1 1525 34
 4318 0052 FB68     		ldr	r3, [r7, #12]
 4319 0054 0433     		adds	r3, r3, #4
 4320 0056 1A68     		ldr	r2, [r3]
 4321              		.loc 1 1525 53
 4322 0058 3B68     		ldr	r3, [r7]
 4323 005a 03F48063 		and	r3, r3, #1024
 4324              		.loc 1 1525 34
 4325 005e F968     		ldr	r1, [r7, #12]
 4326 0060 0431     		adds	r1, r1, #4
 4327 0062 1343     		orrs	r3, r3, r2
 4328 0064 0B60     		str	r3, [r1]
1526:../firmware/gd32f3x0_hal_peripheral/Source/gd32f3x0_hal_smartcard.c **** }
 4329              		.loc 1 1526 1
 4330 0066 00BF     		nop
 4331 0068 1437     		adds	r7, r7, #20
 4332              		.cfi_def_cfa_offset 4
 4333 006a BD46     		mov	sp, r7
 4334              		.cfi_def_cfa_register 13
 4335              		@ sp needed
 4336 006c 80BC     		pop	{r7}
 4337              		.cfi_restore 7
 4338              		.cfi_def_cfa_offset 0
 4339 006e 7047     		bx	lr
 4340              		.cfi_endproc
 4341              	.LFE156:
 4343              		.section	.text.hals_smartcard_guard_time_config,"ax",%progbits
 4344              		.align	1
 4345              		.global	hals_smartcard_guard_time_config
 4346              		.syntax unified
 4347              		.thumb
 4348              		.thumb_func
 4349              		.fpu softvfp
 4351              	hals_smartcard_guard_time_config:
 4352              	.LFB157:
1527:../firmware/gd32f3x0_hal_peripheral/Source/gd32f3x0_hal_smartcard.c **** 
1528:../firmware/gd32f3x0_hal_peripheral/Source/gd32f3x0_hal_smartcard.c **** /*!
1529:../firmware/gd32f3x0_hal_peripheral/Source/gd32f3x0_hal_smartcard.c ****     \brief      configure guard time value in smartcard mode
1530:../firmware/gd32f3x0_hal_peripheral/Source/gd32f3x0_hal_smartcard.c ****     \param[in]  smartcard_periph: USARTx(x=0)
1531:../firmware/gd32f3x0_hal_peripheral/Source/gd32f3x0_hal_smartcard.c ****     \param[in]  guat: 0x00-0xFF
1532:../firmware/gd32f3x0_hal_peripheral/Source/gd32f3x0_hal_smartcard.c ****     \param[out] none
1533:../firmware/gd32f3x0_hal_peripheral/Source/gd32f3x0_hal_smartcard.c ****     \retval     none
1534:../firmware/gd32f3x0_hal_peripheral/Source/gd32f3x0_hal_smartcard.c **** */
1535:../firmware/gd32f3x0_hal_peripheral/Source/gd32f3x0_hal_smartcard.c **** void hals_smartcard_guard_time_config(uint32_t smartcard_periph, uint32_t guat)
1536:../firmware/gd32f3x0_hal_peripheral/Source/gd32f3x0_hal_smartcard.c **** {
 4353              		.loc 1 1536 1
 4354              		.cfi_startproc
 4355              		@ args = 0, pretend = 0, frame = 8
 4356              		@ frame_needed = 1, uses_anonymous_args = 0
 4357              		@ link register save eliminated.
 4358 0000 80B4     		push	{r7}
 4359              		.cfi_def_cfa_offset 4
 4360              		.cfi_offset 7, -4
 4361 0002 83B0     		sub	sp, sp, #12
 4362              		.cfi_def_cfa_offset 16
 4363 0004 00AF     		add	r7, sp, #0
 4364              		.cfi_def_cfa_register 7
 4365 0006 7860     		str	r0, [r7, #4]
 4366 0008 3960     		str	r1, [r7]
1537:../firmware/gd32f3x0_hal_peripheral/Source/gd32f3x0_hal_smartcard.c ****     /* disable SMARTCARD */
1538:../firmware/gd32f3x0_hal_peripheral/Source/gd32f3x0_hal_smartcard.c ****     USART_CTL0(smartcard_periph) &= ~(USART_CTL0_UEN);
 4367              		.loc 1 1538 34
 4368 000a 7B68     		ldr	r3, [r7, #4]
 4369 000c 1A68     		ldr	r2, [r3]
 4370 000e 7B68     		ldr	r3, [r7, #4]
 4371 0010 22F00102 		bic	r2, r2, #1
 4372 0014 1A60     		str	r2, [r3]
1539:../firmware/gd32f3x0_hal_peripheral/Source/gd32f3x0_hal_smartcard.c **** 
1540:../firmware/gd32f3x0_hal_peripheral/Source/gd32f3x0_hal_smartcard.c ****     USART_GP(smartcard_periph) &= ~(USART_GP_GUAT);
 4373              		.loc 1 1540 32
 4374 0016 7B68     		ldr	r3, [r7, #4]
 4375 0018 1033     		adds	r3, r3, #16
 4376 001a 1B68     		ldr	r3, [r3]
 4377 001c 7A68     		ldr	r2, [r7, #4]
 4378 001e 1032     		adds	r2, r2, #16
 4379 0020 23F47F43 		bic	r3, r3, #65280
 4380 0024 1360     		str	r3, [r2]
1541:../firmware/gd32f3x0_hal_peripheral/Source/gd32f3x0_hal_smartcard.c ****     USART_GP(smartcard_periph) |= (USART_GP_GUAT & ((guat) << GP_GUAT_OFFSET));
 4381              		.loc 1 1541 32
 4382 0026 7B68     		ldr	r3, [r7, #4]
 4383 0028 1033     		adds	r3, r3, #16
 4384 002a 1A68     		ldr	r2, [r3]
 4385              		.loc 1 1541 60
 4386 002c 3B68     		ldr	r3, [r7]
 4387 002e 1B02     		lsls	r3, r3, #8
 4388              		.loc 1 1541 50
 4389 0030 9BB2     		uxth	r3, r3
 4390              		.loc 1 1541 32
 4391 0032 7968     		ldr	r1, [r7, #4]
 4392 0034 1031     		adds	r1, r1, #16
 4393 0036 1343     		orrs	r3, r3, r2
 4394 0038 0B60     		str	r3, [r1]
1542:../firmware/gd32f3x0_hal_peripheral/Source/gd32f3x0_hal_smartcard.c **** }
 4395              		.loc 1 1542 1
 4396 003a 00BF     		nop
 4397 003c 0C37     		adds	r7, r7, #12
 4398              		.cfi_def_cfa_offset 4
 4399 003e BD46     		mov	sp, r7
 4400              		.cfi_def_cfa_register 13
 4401              		@ sp needed
 4402 0040 80BC     		pop	{r7}
 4403              		.cfi_restore 7
 4404              		.cfi_def_cfa_offset 0
 4405 0042 7047     		bx	lr
 4406              		.cfi_endproc
 4407              	.LFE157:
 4409              		.section	.text.hals_smartcard_mode_enable,"ax",%progbits
 4410              		.align	1
 4411              		.global	hals_smartcard_mode_enable
 4412              		.syntax unified
 4413              		.thumb
 4414              		.thumb_func
 4415              		.fpu softvfp
 4417              	hals_smartcard_mode_enable:
 4418              	.LFB158:
1543:../firmware/gd32f3x0_hal_peripheral/Source/gd32f3x0_hal_smartcard.c **** 
1544:../firmware/gd32f3x0_hal_peripheral/Source/gd32f3x0_hal_smartcard.c **** /*!
1545:../firmware/gd32f3x0_hal_peripheral/Source/gd32f3x0_hal_smartcard.c ****     \brief      enable smartcard mode
1546:../firmware/gd32f3x0_hal_peripheral/Source/gd32f3x0_hal_smartcard.c ****     \param[in]  smartcard_periph: USARTx(x=0)
1547:../firmware/gd32f3x0_hal_peripheral/Source/gd32f3x0_hal_smartcard.c ****     \param[out] none
1548:../firmware/gd32f3x0_hal_peripheral/Source/gd32f3x0_hal_smartcard.c ****     \retval     none
1549:../firmware/gd32f3x0_hal_peripheral/Source/gd32f3x0_hal_smartcard.c **** */
1550:../firmware/gd32f3x0_hal_peripheral/Source/gd32f3x0_hal_smartcard.c **** void hals_smartcard_mode_enable(uint32_t smartcard_periph)
1551:../firmware/gd32f3x0_hal_peripheral/Source/gd32f3x0_hal_smartcard.c **** {
 4419              		.loc 1 1551 1
 4420              		.cfi_startproc
 4421              		@ args = 0, pretend = 0, frame = 8
 4422              		@ frame_needed = 1, uses_anonymous_args = 0
 4423              		@ link register save eliminated.
 4424 0000 80B4     		push	{r7}
 4425              		.cfi_def_cfa_offset 4
 4426              		.cfi_offset 7, -4
 4427 0002 83B0     		sub	sp, sp, #12
 4428              		.cfi_def_cfa_offset 16
 4429 0004 00AF     		add	r7, sp, #0
 4430              		.cfi_def_cfa_register 7
 4431 0006 7860     		str	r0, [r7, #4]
1552:../firmware/gd32f3x0_hal_peripheral/Source/gd32f3x0_hal_smartcard.c ****     /* disable SMARTCARD */
1553:../firmware/gd32f3x0_hal_peripheral/Source/gd32f3x0_hal_smartcard.c ****     USART_CTL0(smartcard_periph) &= ~(USART_CTL0_UEN);
 4432              		.loc 1 1553 34
 4433 0008 7B68     		ldr	r3, [r7, #4]
 4434 000a 1A68     		ldr	r2, [r3]
 4435 000c 7B68     		ldr	r3, [r7, #4]
 4436 000e 22F00102 		bic	r2, r2, #1
 4437 0012 1A60     		str	r2, [r3]
1554:../firmware/gd32f3x0_hal_peripheral/Source/gd32f3x0_hal_smartcard.c **** 
1555:../firmware/gd32f3x0_hal_peripheral/Source/gd32f3x0_hal_smartcard.c ****     USART_CTL2(smartcard_periph) |= USART_CTL2_SCEN;
 4438              		.loc 1 1555 34
 4439 0014 7B68     		ldr	r3, [r7, #4]
 4440 0016 0833     		adds	r3, r3, #8
 4441 0018 1B68     		ldr	r3, [r3]
 4442 001a 7A68     		ldr	r2, [r7, #4]
 4443 001c 0832     		adds	r2, r2, #8
 4444 001e 43F02003 		orr	r3, r3, #32
 4445 0022 1360     		str	r3, [r2]
1556:../firmware/gd32f3x0_hal_peripheral/Source/gd32f3x0_hal_smartcard.c **** }
 4446              		.loc 1 1556 1
 4447 0024 00BF     		nop
 4448 0026 0C37     		adds	r7, r7, #12
 4449              		.cfi_def_cfa_offset 4
 4450 0028 BD46     		mov	sp, r7
 4451              		.cfi_def_cfa_register 13
 4452              		@ sp needed
 4453 002a 80BC     		pop	{r7}
 4454              		.cfi_restore 7
 4455              		.cfi_def_cfa_offset 0
 4456 002c 7047     		bx	lr
 4457              		.cfi_endproc
 4458              	.LFE158:
 4460              		.section	.text.hals_smartcard_mode_disable,"ax",%progbits
 4461              		.align	1
 4462              		.global	hals_smartcard_mode_disable
 4463              		.syntax unified
 4464              		.thumb
 4465              		.thumb_func
 4466              		.fpu softvfp
 4468              	hals_smartcard_mode_disable:
 4469              	.LFB159:
1557:../firmware/gd32f3x0_hal_peripheral/Source/gd32f3x0_hal_smartcard.c **** 
1558:../firmware/gd32f3x0_hal_peripheral/Source/gd32f3x0_hal_smartcard.c **** /*!
1559:../firmware/gd32f3x0_hal_peripheral/Source/gd32f3x0_hal_smartcard.c ****     \brief      disable smartcard mode
1560:../firmware/gd32f3x0_hal_peripheral/Source/gd32f3x0_hal_smartcard.c ****     \param[in]  smartcard_periph: USARTx(x=0)
1561:../firmware/gd32f3x0_hal_peripheral/Source/gd32f3x0_hal_smartcard.c ****     \param[out] none
1562:../firmware/gd32f3x0_hal_peripheral/Source/gd32f3x0_hal_smartcard.c ****     \retval     none
1563:../firmware/gd32f3x0_hal_peripheral/Source/gd32f3x0_hal_smartcard.c **** */
1564:../firmware/gd32f3x0_hal_peripheral/Source/gd32f3x0_hal_smartcard.c **** void hals_smartcard_mode_disable(uint32_t smartcard_periph)
1565:../firmware/gd32f3x0_hal_peripheral/Source/gd32f3x0_hal_smartcard.c **** {
 4470              		.loc 1 1565 1
 4471              		.cfi_startproc
 4472              		@ args = 0, pretend = 0, frame = 8
 4473              		@ frame_needed = 1, uses_anonymous_args = 0
 4474              		@ link register save eliminated.
 4475 0000 80B4     		push	{r7}
 4476              		.cfi_def_cfa_offset 4
 4477              		.cfi_offset 7, -4
 4478 0002 83B0     		sub	sp, sp, #12
 4479              		.cfi_def_cfa_offset 16
 4480 0004 00AF     		add	r7, sp, #0
 4481              		.cfi_def_cfa_register 7
 4482 0006 7860     		str	r0, [r7, #4]
1566:../firmware/gd32f3x0_hal_peripheral/Source/gd32f3x0_hal_smartcard.c ****     /* disable SMARTCARD */
1567:../firmware/gd32f3x0_hal_peripheral/Source/gd32f3x0_hal_smartcard.c ****     USART_CTL0(smartcard_periph) &= ~(USART_CTL0_UEN);
 4483              		.loc 1 1567 34
 4484 0008 7B68     		ldr	r3, [r7, #4]
 4485 000a 1A68     		ldr	r2, [r3]
 4486 000c 7B68     		ldr	r3, [r7, #4]
 4487 000e 22F00102 		bic	r2, r2, #1
 4488 0012 1A60     		str	r2, [r3]
1568:../firmware/gd32f3x0_hal_peripheral/Source/gd32f3x0_hal_smartcard.c **** 
1569:../firmware/gd32f3x0_hal_peripheral/Source/gd32f3x0_hal_smartcard.c ****     USART_CTL2(smartcard_periph) &= ~(USART_CTL2_SCEN);
 4489              		.loc 1 1569 34
 4490 0014 7B68     		ldr	r3, [r7, #4]
 4491 0016 0833     		adds	r3, r3, #8
 4492 0018 1B68     		ldr	r3, [r3]
 4493 001a 7A68     		ldr	r2, [r7, #4]
 4494 001c 0832     		adds	r2, r2, #8
 4495 001e 23F02003 		bic	r3, r3, #32
 4496 0022 1360     		str	r3, [r2]
1570:../firmware/gd32f3x0_hal_peripheral/Source/gd32f3x0_hal_smartcard.c **** }
 4497              		.loc 1 1570 1
 4498 0024 00BF     		nop
 4499 0026 0C37     		adds	r7, r7, #12
 4500              		.cfi_def_cfa_offset 4
 4501 0028 BD46     		mov	sp, r7
 4502              		.cfi_def_cfa_register 13
 4503              		@ sp needed
 4504 002a 80BC     		pop	{r7}
 4505              		.cfi_restore 7
 4506              		.cfi_def_cfa_offset 0
 4507 002c 7047     		bx	lr
 4508              		.cfi_endproc
 4509              	.LFE159:
 4511              		.section	.text.hals_smartcard_mode_nack_enable,"ax",%progbits
 4512              		.align	1
 4513              		.global	hals_smartcard_mode_nack_enable
 4514              		.syntax unified
 4515              		.thumb
 4516              		.thumb_func
 4517              		.fpu softvfp
 4519              	hals_smartcard_mode_nack_enable:
 4520              	.LFB160:
1571:../firmware/gd32f3x0_hal_peripheral/Source/gd32f3x0_hal_smartcard.c **** 
1572:../firmware/gd32f3x0_hal_peripheral/Source/gd32f3x0_hal_smartcard.c **** /*!
1573:../firmware/gd32f3x0_hal_peripheral/Source/gd32f3x0_hal_smartcard.c ****     \brief      enable NACK in smartcard mode
1574:../firmware/gd32f3x0_hal_peripheral/Source/gd32f3x0_hal_smartcard.c ****     \param[in]  smartcard_periph: USARTx(x=0)
1575:../firmware/gd32f3x0_hal_peripheral/Source/gd32f3x0_hal_smartcard.c ****     \param[out] none
1576:../firmware/gd32f3x0_hal_peripheral/Source/gd32f3x0_hal_smartcard.c ****     \retval     none
1577:../firmware/gd32f3x0_hal_peripheral/Source/gd32f3x0_hal_smartcard.c **** */
1578:../firmware/gd32f3x0_hal_peripheral/Source/gd32f3x0_hal_smartcard.c **** void hals_smartcard_mode_nack_enable(uint32_t smartcard_periph)
1579:../firmware/gd32f3x0_hal_peripheral/Source/gd32f3x0_hal_smartcard.c **** {
 4521              		.loc 1 1579 1
 4522              		.cfi_startproc
 4523              		@ args = 0, pretend = 0, frame = 8
 4524              		@ frame_needed = 1, uses_anonymous_args = 0
 4525              		@ link register save eliminated.
 4526 0000 80B4     		push	{r7}
 4527              		.cfi_def_cfa_offset 4
 4528              		.cfi_offset 7, -4
 4529 0002 83B0     		sub	sp, sp, #12
 4530              		.cfi_def_cfa_offset 16
 4531 0004 00AF     		add	r7, sp, #0
 4532              		.cfi_def_cfa_register 7
 4533 0006 7860     		str	r0, [r7, #4]
1580:../firmware/gd32f3x0_hal_peripheral/Source/gd32f3x0_hal_smartcard.c ****     /* disable SMARTCARD */
1581:../firmware/gd32f3x0_hal_peripheral/Source/gd32f3x0_hal_smartcard.c ****     USART_CTL0(smartcard_periph) &= ~(USART_CTL0_UEN);
 4534              		.loc 1 1581 34
 4535 0008 7B68     		ldr	r3, [r7, #4]
 4536 000a 1A68     		ldr	r2, [r3]
 4537 000c 7B68     		ldr	r3, [r7, #4]
 4538 000e 22F00102 		bic	r2, r2, #1
 4539 0012 1A60     		str	r2, [r3]
1582:../firmware/gd32f3x0_hal_peripheral/Source/gd32f3x0_hal_smartcard.c **** 
1583:../firmware/gd32f3x0_hal_peripheral/Source/gd32f3x0_hal_smartcard.c ****     USART_CTL2(smartcard_periph) |= USART_CTL2_NKEN;
 4540              		.loc 1 1583 34
 4541 0014 7B68     		ldr	r3, [r7, #4]
 4542 0016 0833     		adds	r3, r3, #8
 4543 0018 1B68     		ldr	r3, [r3]
 4544 001a 7A68     		ldr	r2, [r7, #4]
 4545 001c 0832     		adds	r2, r2, #8
 4546 001e 43F01003 		orr	r3, r3, #16
 4547 0022 1360     		str	r3, [r2]
1584:../firmware/gd32f3x0_hal_peripheral/Source/gd32f3x0_hal_smartcard.c **** }
 4548              		.loc 1 1584 1
 4549 0024 00BF     		nop
 4550 0026 0C37     		adds	r7, r7, #12
 4551              		.cfi_def_cfa_offset 4
 4552 0028 BD46     		mov	sp, r7
 4553              		.cfi_def_cfa_register 13
 4554              		@ sp needed
 4555 002a 80BC     		pop	{r7}
 4556              		.cfi_restore 7
 4557              		.cfi_def_cfa_offset 0
 4558 002c 7047     		bx	lr
 4559              		.cfi_endproc
 4560              	.LFE160:
 4562              		.section	.text.hals_smartcard_mode_nack_disable,"ax",%progbits
 4563              		.align	1
 4564              		.global	hals_smartcard_mode_nack_disable
 4565              		.syntax unified
 4566              		.thumb
 4567              		.thumb_func
 4568              		.fpu softvfp
 4570              	hals_smartcard_mode_nack_disable:
 4571              	.LFB161:
1585:../firmware/gd32f3x0_hal_peripheral/Source/gd32f3x0_hal_smartcard.c **** 
1586:../firmware/gd32f3x0_hal_peripheral/Source/gd32f3x0_hal_smartcard.c **** /*!
1587:../firmware/gd32f3x0_hal_peripheral/Source/gd32f3x0_hal_smartcard.c ****     \brief      disable NACK in smartcard mode
1588:../firmware/gd32f3x0_hal_peripheral/Source/gd32f3x0_hal_smartcard.c ****     \param[in]  smartcard_periph: USARTx(x=0)
1589:../firmware/gd32f3x0_hal_peripheral/Source/gd32f3x0_hal_smartcard.c ****     \param[out] none
1590:../firmware/gd32f3x0_hal_peripheral/Source/gd32f3x0_hal_smartcard.c ****     \retval     none
1591:../firmware/gd32f3x0_hal_peripheral/Source/gd32f3x0_hal_smartcard.c **** */
1592:../firmware/gd32f3x0_hal_peripheral/Source/gd32f3x0_hal_smartcard.c **** void hals_smartcard_mode_nack_disable(uint32_t smartcard_periph)
1593:../firmware/gd32f3x0_hal_peripheral/Source/gd32f3x0_hal_smartcard.c **** {
 4572              		.loc 1 1593 1
 4573              		.cfi_startproc
 4574              		@ args = 0, pretend = 0, frame = 8
 4575              		@ frame_needed = 1, uses_anonymous_args = 0
 4576              		@ link register save eliminated.
 4577 0000 80B4     		push	{r7}
 4578              		.cfi_def_cfa_offset 4
 4579              		.cfi_offset 7, -4
 4580 0002 83B0     		sub	sp, sp, #12
 4581              		.cfi_def_cfa_offset 16
 4582 0004 00AF     		add	r7, sp, #0
 4583              		.cfi_def_cfa_register 7
 4584 0006 7860     		str	r0, [r7, #4]
1594:../firmware/gd32f3x0_hal_peripheral/Source/gd32f3x0_hal_smartcard.c ****     /* disable SMARTCARD */
1595:../firmware/gd32f3x0_hal_peripheral/Source/gd32f3x0_hal_smartcard.c ****     USART_CTL0(smartcard_periph) &= ~(USART_CTL0_UEN);
 4585              		.loc 1 1595 34
 4586 0008 7B68     		ldr	r3, [r7, #4]
 4587 000a 1A68     		ldr	r2, [r3]
 4588 000c 7B68     		ldr	r3, [r7, #4]
 4589 000e 22F00102 		bic	r2, r2, #1
 4590 0012 1A60     		str	r2, [r3]
1596:../firmware/gd32f3x0_hal_peripheral/Source/gd32f3x0_hal_smartcard.c **** 
1597:../firmware/gd32f3x0_hal_peripheral/Source/gd32f3x0_hal_smartcard.c ****     USART_CTL2(smartcard_periph) &= ~(USART_CTL2_NKEN);
 4591              		.loc 1 1597 34
 4592 0014 7B68     		ldr	r3, [r7, #4]
 4593 0016 0833     		adds	r3, r3, #8
 4594 0018 1B68     		ldr	r3, [r3]
 4595 001a 7A68     		ldr	r2, [r7, #4]
 4596 001c 0832     		adds	r2, r2, #8
 4597 001e 23F01003 		bic	r3, r3, #16
 4598 0022 1360     		str	r3, [r2]
1598:../firmware/gd32f3x0_hal_peripheral/Source/gd32f3x0_hal_smartcard.c **** }
 4599              		.loc 1 1598 1
 4600 0024 00BF     		nop
 4601 0026 0C37     		adds	r7, r7, #12
 4602              		.cfi_def_cfa_offset 4
 4603 0028 BD46     		mov	sp, r7
 4604              		.cfi_def_cfa_register 13
 4605              		@ sp needed
 4606 002a 80BC     		pop	{r7}
 4607              		.cfi_restore 7
 4608              		.cfi_def_cfa_offset 0
 4609 002c 7047     		bx	lr
 4610              		.cfi_endproc
 4611              	.LFE161:
 4613              		.section	.text.hals_smartcard_mode_early_nack_enable,"ax",%progbits
 4614              		.align	1
 4615              		.global	hals_smartcard_mode_early_nack_enable
 4616              		.syntax unified
 4617              		.thumb
 4618              		.thumb_func
 4619              		.fpu softvfp
 4621              	hals_smartcard_mode_early_nack_enable:
 4622              	.LFB162:
1599:../firmware/gd32f3x0_hal_peripheral/Source/gd32f3x0_hal_smartcard.c **** 
1600:../firmware/gd32f3x0_hal_peripheral/Source/gd32f3x0_hal_smartcard.c **** /*!
1601:../firmware/gd32f3x0_hal_peripheral/Source/gd32f3x0_hal_smartcard.c ****     \brief      enable early NACK in smartcard mode
1602:../firmware/gd32f3x0_hal_peripheral/Source/gd32f3x0_hal_smartcard.c ****     \param[in]  smartcard_periph: USARTx(x=0)
1603:../firmware/gd32f3x0_hal_peripheral/Source/gd32f3x0_hal_smartcard.c ****     \param[out] none
1604:../firmware/gd32f3x0_hal_peripheral/Source/gd32f3x0_hal_smartcard.c ****     \retval     none
1605:../firmware/gd32f3x0_hal_peripheral/Source/gd32f3x0_hal_smartcard.c **** */
1606:../firmware/gd32f3x0_hal_peripheral/Source/gd32f3x0_hal_smartcard.c **** void hals_smartcard_mode_early_nack_enable(uint32_t smartcard_periph)
1607:../firmware/gd32f3x0_hal_peripheral/Source/gd32f3x0_hal_smartcard.c **** {
 4623              		.loc 1 1607 1
 4624              		.cfi_startproc
 4625              		@ args = 0, pretend = 0, frame = 8
 4626              		@ frame_needed = 1, uses_anonymous_args = 0
 4627              		@ link register save eliminated.
 4628 0000 80B4     		push	{r7}
 4629              		.cfi_def_cfa_offset 4
 4630              		.cfi_offset 7, -4
 4631 0002 83B0     		sub	sp, sp, #12
 4632              		.cfi_def_cfa_offset 16
 4633 0004 00AF     		add	r7, sp, #0
 4634              		.cfi_def_cfa_register 7
 4635 0006 7860     		str	r0, [r7, #4]
1608:../firmware/gd32f3x0_hal_peripheral/Source/gd32f3x0_hal_smartcard.c ****     USART_RFCS(smartcard_periph) |= USART_RFCS_ELNACK;
 4636              		.loc 1 1608 34
 4637 0008 7B68     		ldr	r3, [r7, #4]
 4638 000a D033     		adds	r3, r3, #208
 4639 000c 1B68     		ldr	r3, [r3]
 4640 000e 7A68     		ldr	r2, [r7, #4]
 4641 0010 D032     		adds	r2, r2, #208
 4642 0012 43F00103 		orr	r3, r3, #1
 4643 0016 1360     		str	r3, [r2]
1609:../firmware/gd32f3x0_hal_peripheral/Source/gd32f3x0_hal_smartcard.c **** }
 4644              		.loc 1 1609 1
 4645 0018 00BF     		nop
 4646 001a 0C37     		adds	r7, r7, #12
 4647              		.cfi_def_cfa_offset 4
 4648 001c BD46     		mov	sp, r7
 4649              		.cfi_def_cfa_register 13
 4650              		@ sp needed
 4651 001e 80BC     		pop	{r7}
 4652              		.cfi_restore 7
 4653              		.cfi_def_cfa_offset 0
 4654 0020 7047     		bx	lr
 4655              		.cfi_endproc
 4656              	.LFE162:
 4658              		.section	.text.hals_smartcard_mode_early_nack_disable,"ax",%progbits
 4659              		.align	1
 4660              		.global	hals_smartcard_mode_early_nack_disable
 4661              		.syntax unified
 4662              		.thumb
 4663              		.thumb_func
 4664              		.fpu softvfp
 4666              	hals_smartcard_mode_early_nack_disable:
 4667              	.LFB163:
1610:../firmware/gd32f3x0_hal_peripheral/Source/gd32f3x0_hal_smartcard.c **** 
1611:../firmware/gd32f3x0_hal_peripheral/Source/gd32f3x0_hal_smartcard.c **** /*!
1612:../firmware/gd32f3x0_hal_peripheral/Source/gd32f3x0_hal_smartcard.c ****     \brief      disable early NACK in smartcard mode
1613:../firmware/gd32f3x0_hal_peripheral/Source/gd32f3x0_hal_smartcard.c ****     \param[in]  smartcard_periph: USARTx(x=0)
1614:../firmware/gd32f3x0_hal_peripheral/Source/gd32f3x0_hal_smartcard.c ****     \param[out] none
1615:../firmware/gd32f3x0_hal_peripheral/Source/gd32f3x0_hal_smartcard.c ****     \retval     none
1616:../firmware/gd32f3x0_hal_peripheral/Source/gd32f3x0_hal_smartcard.c **** */
1617:../firmware/gd32f3x0_hal_peripheral/Source/gd32f3x0_hal_smartcard.c **** void hals_smartcard_mode_early_nack_disable(uint32_t smartcard_periph)
1618:../firmware/gd32f3x0_hal_peripheral/Source/gd32f3x0_hal_smartcard.c **** {
 4668              		.loc 1 1618 1
 4669              		.cfi_startproc
 4670              		@ args = 0, pretend = 0, frame = 8
 4671              		@ frame_needed = 1, uses_anonymous_args = 0
 4672              		@ link register save eliminated.
 4673 0000 80B4     		push	{r7}
 4674              		.cfi_def_cfa_offset 4
 4675              		.cfi_offset 7, -4
 4676 0002 83B0     		sub	sp, sp, #12
 4677              		.cfi_def_cfa_offset 16
 4678 0004 00AF     		add	r7, sp, #0
 4679              		.cfi_def_cfa_register 7
 4680 0006 7860     		str	r0, [r7, #4]
1619:../firmware/gd32f3x0_hal_peripheral/Source/gd32f3x0_hal_smartcard.c ****     USART_RFCS(smartcard_periph) &= ~USART_RFCS_ELNACK;
 4681              		.loc 1 1619 34
 4682 0008 7B68     		ldr	r3, [r7, #4]
 4683 000a D033     		adds	r3, r3, #208
 4684 000c 1B68     		ldr	r3, [r3]
 4685 000e 7A68     		ldr	r2, [r7, #4]
 4686 0010 D032     		adds	r2, r2, #208
 4687 0012 23F00103 		bic	r3, r3, #1
 4688 0016 1360     		str	r3, [r2]
1620:../firmware/gd32f3x0_hal_peripheral/Source/gd32f3x0_hal_smartcard.c **** }
 4689              		.loc 1 1620 1
 4690 0018 00BF     		nop
 4691 001a 0C37     		adds	r7, r7, #12
 4692              		.cfi_def_cfa_offset 4
 4693 001c BD46     		mov	sp, r7
 4694              		.cfi_def_cfa_register 13
 4695              		@ sp needed
 4696 001e 80BC     		pop	{r7}
 4697              		.cfi_restore 7
 4698              		.cfi_def_cfa_offset 0
 4699 0020 7047     		bx	lr
 4700              		.cfi_endproc
 4701              	.LFE163:
 4703              		.section	.text.hals_smartcard_autoretry_config,"ax",%progbits
 4704              		.align	1
 4705              		.global	hals_smartcard_autoretry_config
 4706              		.syntax unified
 4707              		.thumb
 4708              		.thumb_func
 4709              		.fpu softvfp
 4711              	hals_smartcard_autoretry_config:
 4712              	.LFB164:
1621:../firmware/gd32f3x0_hal_peripheral/Source/gd32f3x0_hal_smartcard.c **** 
1622:../firmware/gd32f3x0_hal_peripheral/Source/gd32f3x0_hal_smartcard.c **** /*!
1623:../firmware/gd32f3x0_hal_peripheral/Source/gd32f3x0_hal_smartcard.c ****     \brief      configure smartcard auto-retry number
1624:../firmware/gd32f3x0_hal_peripheral/Source/gd32f3x0_hal_smartcard.c ****     \param[in]  smartcard_periph: USARTx(x=0)
1625:../firmware/gd32f3x0_hal_peripheral/Source/gd32f3x0_hal_smartcard.c ****     \param[in]  scrtnum: 0x00000000-0x00000007, smartcard auto-retry number
1626:../firmware/gd32f3x0_hal_peripheral/Source/gd32f3x0_hal_smartcard.c ****     \param[out] none
1627:../firmware/gd32f3x0_hal_peripheral/Source/gd32f3x0_hal_smartcard.c ****     \retval     none
1628:../firmware/gd32f3x0_hal_peripheral/Source/gd32f3x0_hal_smartcard.c **** */
1629:../firmware/gd32f3x0_hal_peripheral/Source/gd32f3x0_hal_smartcard.c **** void hals_smartcard_autoretry_config(uint32_t smartcard_periph, uint32_t scrtnum)
1630:../firmware/gd32f3x0_hal_peripheral/Source/gd32f3x0_hal_smartcard.c **** {
 4713              		.loc 1 1630 1
 4714              		.cfi_startproc
 4715              		@ args = 0, pretend = 0, frame = 8
 4716              		@ frame_needed = 1, uses_anonymous_args = 0
 4717              		@ link register save eliminated.
 4718 0000 80B4     		push	{r7}
 4719              		.cfi_def_cfa_offset 4
 4720              		.cfi_offset 7, -4
 4721 0002 83B0     		sub	sp, sp, #12
 4722              		.cfi_def_cfa_offset 16
 4723 0004 00AF     		add	r7, sp, #0
 4724              		.cfi_def_cfa_register 7
 4725 0006 7860     		str	r0, [r7, #4]
 4726 0008 3960     		str	r1, [r7]
1631:../firmware/gd32f3x0_hal_peripheral/Source/gd32f3x0_hal_smartcard.c ****     /* disable SMARTCARD */
1632:../firmware/gd32f3x0_hal_peripheral/Source/gd32f3x0_hal_smartcard.c ****     USART_CTL0(smartcard_periph) &= ~(USART_CTL0_UEN);
 4727              		.loc 1 1632 34
 4728 000a 7B68     		ldr	r3, [r7, #4]
 4729 000c 1A68     		ldr	r2, [r3]
 4730 000e 7B68     		ldr	r3, [r7, #4]
 4731 0010 22F00102 		bic	r2, r2, #1
 4732 0014 1A60     		str	r2, [r3]
1633:../firmware/gd32f3x0_hal_peripheral/Source/gd32f3x0_hal_smartcard.c ****     USART_CTL2(smartcard_periph) &= ~(USART_CTL2_SCRTNUM);
 4733              		.loc 1 1633 34
 4734 0016 7B68     		ldr	r3, [r7, #4]
 4735 0018 0833     		adds	r3, r3, #8
 4736 001a 1B68     		ldr	r3, [r3]
 4737 001c 7A68     		ldr	r2, [r7, #4]
 4738 001e 0832     		adds	r2, r2, #8
 4739 0020 23F46023 		bic	r3, r3, #917504
 4740 0024 1360     		str	r3, [r2]
1634:../firmware/gd32f3x0_hal_peripheral/Source/gd32f3x0_hal_smartcard.c ****     USART_CTL2(smartcard_periph) |= (USART_CTL2_SCRTNUM & (scrtnum << CTL2_SCRTNUM_OFFSET));
 4741              		.loc 1 1634 34
 4742 0026 7B68     		ldr	r3, [r7, #4]
 4743 0028 0833     		adds	r3, r3, #8
 4744 002a 1A68     		ldr	r2, [r3]
 4745              		.loc 1 1634 68
 4746 002c 3B68     		ldr	r3, [r7]
 4747 002e 5B04     		lsls	r3, r3, #17
 4748              		.loc 1 1634 57
 4749 0030 03F46023 		and	r3, r3, #917504
 4750              		.loc 1 1634 34
 4751 0034 7968     		ldr	r1, [r7, #4]
 4752 0036 0831     		adds	r1, r1, #8
 4753 0038 1343     		orrs	r3, r3, r2
 4754 003a 0B60     		str	r3, [r1]
1635:../firmware/gd32f3x0_hal_peripheral/Source/gd32f3x0_hal_smartcard.c **** }
 4755              		.loc 1 1635 1
 4756 003c 00BF     		nop
 4757 003e 0C37     		adds	r7, r7, #12
 4758              		.cfi_def_cfa_offset 4
 4759 0040 BD46     		mov	sp, r7
 4760              		.cfi_def_cfa_register 13
 4761              		@ sp needed
 4762 0042 80BC     		pop	{r7}
 4763              		.cfi_restore 7
 4764              		.cfi_def_cfa_offset 0
 4765 0044 7047     		bx	lr
 4766              		.cfi_endproc
 4767              	.LFE164:
 4769              		.section	.text.hals_smartcard_block_length_config,"ax",%progbits
 4770              		.align	1
 4771              		.global	hals_smartcard_block_length_config
 4772              		.syntax unified
 4773              		.thumb
 4774              		.thumb_func
 4775              		.fpu softvfp
 4777              	hals_smartcard_block_length_config:
 4778              	.LFB165:
1636:../firmware/gd32f3x0_hal_peripheral/Source/gd32f3x0_hal_smartcard.c **** 
1637:../firmware/gd32f3x0_hal_peripheral/Source/gd32f3x0_hal_smartcard.c **** /*!
1638:../firmware/gd32f3x0_hal_peripheral/Source/gd32f3x0_hal_smartcard.c ****     \brief      configure block length
1639:../firmware/gd32f3x0_hal_peripheral/Source/gd32f3x0_hal_smartcard.c ****     \param[in]  smartcard_periph: USARTx(x=0)
1640:../firmware/gd32f3x0_hal_peripheral/Source/gd32f3x0_hal_smartcard.c ****     \param[in]  bl: 0x00000000-0x000000FF
1641:../firmware/gd32f3x0_hal_peripheral/Source/gd32f3x0_hal_smartcard.c ****     \param[out] none
1642:../firmware/gd32f3x0_hal_peripheral/Source/gd32f3x0_hal_smartcard.c ****     \retval     none
1643:../firmware/gd32f3x0_hal_peripheral/Source/gd32f3x0_hal_smartcard.c **** */
1644:../firmware/gd32f3x0_hal_peripheral/Source/gd32f3x0_hal_smartcard.c **** void hals_smartcard_block_length_config(uint32_t smartcard_periph, uint32_t bl)
1645:../firmware/gd32f3x0_hal_peripheral/Source/gd32f3x0_hal_smartcard.c **** {
 4779              		.loc 1 1645 1
 4780              		.cfi_startproc
 4781              		@ args = 0, pretend = 0, frame = 8
 4782              		@ frame_needed = 1, uses_anonymous_args = 0
 4783              		@ link register save eliminated.
 4784 0000 80B4     		push	{r7}
 4785              		.cfi_def_cfa_offset 4
 4786              		.cfi_offset 7, -4
 4787 0002 83B0     		sub	sp, sp, #12
 4788              		.cfi_def_cfa_offset 16
 4789 0004 00AF     		add	r7, sp, #0
 4790              		.cfi_def_cfa_register 7
 4791 0006 7860     		str	r0, [r7, #4]
 4792 0008 3960     		str	r1, [r7]
1646:../firmware/gd32f3x0_hal_peripheral/Source/gd32f3x0_hal_smartcard.c ****     USART_RT(smartcard_periph) &= ~(USART_RT_BL);
 4793              		.loc 1 1646 32
 4794 000a 7B68     		ldr	r3, [r7, #4]
 4795 000c 1433     		adds	r3, r3, #20
 4796 000e 1B68     		ldr	r3, [r3]
 4797 0010 7A68     		ldr	r2, [r7, #4]
 4798 0012 1432     		adds	r2, r2, #20
 4799 0014 23F07F43 		bic	r3, r3, #-16777216
 4800 0018 1360     		str	r3, [r2]
1647:../firmware/gd32f3x0_hal_peripheral/Source/gd32f3x0_hal_smartcard.c ****     USART_RT(smartcard_periph) |= (USART_RT_BL & ((bl) << RT_BL_OFFSET));
 4801              		.loc 1 1647 32
 4802 001a 7B68     		ldr	r3, [r7, #4]
 4803 001c 1433     		adds	r3, r3, #20
 4804 001e 1A68     		ldr	r2, [r3]
 4805              		.loc 1 1647 56
 4806 0020 3B68     		ldr	r3, [r7]
 4807 0022 1B06     		lsls	r3, r3, #24
 4808              		.loc 1 1647 32
 4809 0024 7968     		ldr	r1, [r7, #4]
 4810 0026 1431     		adds	r1, r1, #20
 4811 0028 1343     		orrs	r3, r3, r2
 4812 002a 0B60     		str	r3, [r1]
1648:../firmware/gd32f3x0_hal_peripheral/Source/gd32f3x0_hal_smartcard.c **** }
 4813              		.loc 1 1648 1
 4814 002c 00BF     		nop
 4815 002e 0C37     		adds	r7, r7, #12
 4816              		.cfi_def_cfa_offset 4
 4817 0030 BD46     		mov	sp, r7
 4818              		.cfi_def_cfa_register 13
 4819              		@ sp needed
 4820 0032 80BC     		pop	{r7}
 4821              		.cfi_restore 7
 4822              		.cfi_def_cfa_offset 0
 4823 0034 7047     		bx	lr
 4824              		.cfi_endproc
 4825              	.LFE165:
 4827              		.section	.text.hals_smartcard_dma_receive_config,"ax",%progbits
 4828              		.align	1
 4829              		.global	hals_smartcard_dma_receive_config
 4830              		.syntax unified
 4831              		.thumb
 4832              		.thumb_func
 4833              		.fpu softvfp
 4835              	hals_smartcard_dma_receive_config:
 4836              	.LFB166:
1649:../firmware/gd32f3x0_hal_peripheral/Source/gd32f3x0_hal_smartcard.c **** 
1650:../firmware/gd32f3x0_hal_peripheral/Source/gd32f3x0_hal_smartcard.c **** /*!
1651:../firmware/gd32f3x0_hal_peripheral/Source/gd32f3x0_hal_smartcard.c ****     \brief      configure SMARTCARD DMA reception
1652:../firmware/gd32f3x0_hal_peripheral/Source/gd32f3x0_hal_smartcard.c ****     \param[in]  smartcard_periph: USARTx(x=0,1)
1653:../firmware/gd32f3x0_hal_peripheral/Source/gd32f3x0_hal_smartcard.c ****     \param[in]  dmacmd: SMARTCARD DMA mode
1654:../firmware/gd32f3x0_hal_peripheral/Source/gd32f3x0_hal_smartcard.c ****                 only one parameter can be selected which is shown as below:
1655:../firmware/gd32f3x0_hal_peripheral/Source/gd32f3x0_hal_smartcard.c ****       \arg        USART_RECEIVE_DMA_ENABLE: enable SMARTCARD DMA for reception
1656:../firmware/gd32f3x0_hal_peripheral/Source/gd32f3x0_hal_smartcard.c ****       \arg        USART_RECEIVE_DMA_DISABLE: disable SMARTCARD DMA for reception
1657:../firmware/gd32f3x0_hal_peripheral/Source/gd32f3x0_hal_smartcard.c ****     \param[out] none
1658:../firmware/gd32f3x0_hal_peripheral/Source/gd32f3x0_hal_smartcard.c ****     \retval     none
1659:../firmware/gd32f3x0_hal_peripheral/Source/gd32f3x0_hal_smartcard.c **** */
1660:../firmware/gd32f3x0_hal_peripheral/Source/gd32f3x0_hal_smartcard.c **** void hals_smartcard_dma_receive_config(uint32_t smartcard_periph, uint8_t dmacmd)
1661:../firmware/gd32f3x0_hal_peripheral/Source/gd32f3x0_hal_smartcard.c **** {
 4837              		.loc 1 1661 1
 4838              		.cfi_startproc
 4839              		@ args = 0, pretend = 0, frame = 8
 4840              		@ frame_needed = 1, uses_anonymous_args = 0
 4841              		@ link register save eliminated.
 4842 0000 80B4     		push	{r7}
 4843              		.cfi_def_cfa_offset 4
 4844              		.cfi_offset 7, -4
 4845 0002 83B0     		sub	sp, sp, #12
 4846              		.cfi_def_cfa_offset 16
 4847 0004 00AF     		add	r7, sp, #0
 4848              		.cfi_def_cfa_register 7
 4849 0006 7860     		str	r0, [r7, #4]
 4850 0008 0B46     		mov	r3, r1
 4851 000a FB70     		strb	r3, [r7, #3]
1662:../firmware/gd32f3x0_hal_peripheral/Source/gd32f3x0_hal_smartcard.c ****     USART_CTL2(smartcard_periph) &= ~USART_CTL2_DENR;
 4852              		.loc 1 1662 34
 4853 000c 7B68     		ldr	r3, [r7, #4]
 4854 000e 0833     		adds	r3, r3, #8
 4855 0010 1B68     		ldr	r3, [r3]
 4856 0012 7A68     		ldr	r2, [r7, #4]
 4857 0014 0832     		adds	r2, r2, #8
 4858 0016 23F04003 		bic	r3, r3, #64
 4859 001a 1360     		str	r3, [r2]
1663:../firmware/gd32f3x0_hal_peripheral/Source/gd32f3x0_hal_smartcard.c ****     USART_CTL2(smartcard_periph) |= (USART_CTL2_DENR & dmacmd);
 4860              		.loc 1 1663 34
 4861 001c 7B68     		ldr	r3, [r7, #4]
 4862 001e 0833     		adds	r3, r3, #8
 4863 0020 1A68     		ldr	r2, [r3]
 4864              		.loc 1 1663 54
 4865 0022 FB78     		ldrb	r3, [r7, #3]	@ zero_extendqisi2
 4866 0024 03F04003 		and	r3, r3, #64
 4867              		.loc 1 1663 34
 4868 0028 7968     		ldr	r1, [r7, #4]
 4869 002a 0831     		adds	r1, r1, #8
 4870 002c 1343     		orrs	r3, r3, r2
 4871 002e 0B60     		str	r3, [r1]
1664:../firmware/gd32f3x0_hal_peripheral/Source/gd32f3x0_hal_smartcard.c **** }
 4872              		.loc 1 1664 1
 4873 0030 00BF     		nop
 4874 0032 0C37     		adds	r7, r7, #12
 4875              		.cfi_def_cfa_offset 4
 4876 0034 BD46     		mov	sp, r7
 4877              		.cfi_def_cfa_register 13
 4878              		@ sp needed
 4879 0036 80BC     		pop	{r7}
 4880              		.cfi_restore 7
 4881              		.cfi_def_cfa_offset 0
 4882 0038 7047     		bx	lr
 4883              		.cfi_endproc
 4884              	.LFE166:
 4886              		.section	.text.hals_smartcard_dma_transmit_config,"ax",%progbits
 4887              		.align	1
 4888              		.global	hals_smartcard_dma_transmit_config
 4889              		.syntax unified
 4890              		.thumb
 4891              		.thumb_func
 4892              		.fpu softvfp
 4894              	hals_smartcard_dma_transmit_config:
 4895              	.LFB167:
1665:../firmware/gd32f3x0_hal_peripheral/Source/gd32f3x0_hal_smartcard.c **** 
1666:../firmware/gd32f3x0_hal_peripheral/Source/gd32f3x0_hal_smartcard.c **** /*!
1667:../firmware/gd32f3x0_hal_peripheral/Source/gd32f3x0_hal_smartcard.c ****     \brief      configure SMARTCARD DMA transmission
1668:../firmware/gd32f3x0_hal_peripheral/Source/gd32f3x0_hal_smartcard.c ****     \param[in]  smartcard_periph: USARTx(x=0,1)
1669:../firmware/gd32f3x0_hal_peripheral/Source/gd32f3x0_hal_smartcard.c ****     \param[in]  dmacmd: SMARTCARD DMA mode
1670:../firmware/gd32f3x0_hal_peripheral/Source/gd32f3x0_hal_smartcard.c ****                 only one parameter can be selected which is shown as below:
1671:../firmware/gd32f3x0_hal_peripheral/Source/gd32f3x0_hal_smartcard.c ****       \arg        USART_TRANSMIT_DMA_ENABLE: enable SMARTCARD DMA for transmission
1672:../firmware/gd32f3x0_hal_peripheral/Source/gd32f3x0_hal_smartcard.c ****       \arg        USART_TRANSMIT_DMA_DISABLE: disable SMARTCARD DMA for transmission
1673:../firmware/gd32f3x0_hal_peripheral/Source/gd32f3x0_hal_smartcard.c ****     \param[out] none
1674:../firmware/gd32f3x0_hal_peripheral/Source/gd32f3x0_hal_smartcard.c ****     \retval     none
1675:../firmware/gd32f3x0_hal_peripheral/Source/gd32f3x0_hal_smartcard.c **** */
1676:../firmware/gd32f3x0_hal_peripheral/Source/gd32f3x0_hal_smartcard.c **** void hals_smartcard_dma_transmit_config(uint32_t smartcard_periph, uint8_t dmacmd)
1677:../firmware/gd32f3x0_hal_peripheral/Source/gd32f3x0_hal_smartcard.c **** {
 4896              		.loc 1 1677 1
 4897              		.cfi_startproc
 4898              		@ args = 0, pretend = 0, frame = 8
 4899              		@ frame_needed = 1, uses_anonymous_args = 0
 4900              		@ link register save eliminated.
 4901 0000 80B4     		push	{r7}
 4902              		.cfi_def_cfa_offset 4
 4903              		.cfi_offset 7, -4
 4904 0002 83B0     		sub	sp, sp, #12
 4905              		.cfi_def_cfa_offset 16
 4906 0004 00AF     		add	r7, sp, #0
 4907              		.cfi_def_cfa_register 7
 4908 0006 7860     		str	r0, [r7, #4]
 4909 0008 0B46     		mov	r3, r1
 4910 000a FB70     		strb	r3, [r7, #3]
1678:../firmware/gd32f3x0_hal_peripheral/Source/gd32f3x0_hal_smartcard.c ****     USART_CTL2(smartcard_periph) &= ~USART_CTL2_DENT;
 4911              		.loc 1 1678 34
 4912 000c 7B68     		ldr	r3, [r7, #4]
 4913 000e 0833     		adds	r3, r3, #8
 4914 0010 1B68     		ldr	r3, [r3]
 4915 0012 7A68     		ldr	r2, [r7, #4]
 4916 0014 0832     		adds	r2, r2, #8
 4917 0016 23F08003 		bic	r3, r3, #128
 4918 001a 1360     		str	r3, [r2]
1679:../firmware/gd32f3x0_hal_peripheral/Source/gd32f3x0_hal_smartcard.c ****     USART_CTL2(smartcard_periph) |= (USART_CTL2_DENT & dmacmd);
 4919              		.loc 1 1679 34
 4920 001c 7B68     		ldr	r3, [r7, #4]
 4921 001e 0833     		adds	r3, r3, #8
 4922 0020 1A68     		ldr	r2, [r3]
 4923              		.loc 1 1679 54
 4924 0022 FB78     		ldrb	r3, [r7, #3]	@ zero_extendqisi2
 4925 0024 03F08003 		and	r3, r3, #128
 4926              		.loc 1 1679 34
 4927 0028 7968     		ldr	r1, [r7, #4]
 4928 002a 0831     		adds	r1, r1, #8
 4929 002c 1343     		orrs	r3, r3, r2
 4930 002e 0B60     		str	r3, [r1]
1680:../firmware/gd32f3x0_hal_peripheral/Source/gd32f3x0_hal_smartcard.c **** }
 4931              		.loc 1 1680 1
 4932 0030 00BF     		nop
 4933 0032 0C37     		adds	r7, r7, #12
 4934              		.cfi_def_cfa_offset 4
 4935 0034 BD46     		mov	sp, r7
 4936              		.cfi_def_cfa_register 13
 4937              		@ sp needed
 4938 0036 80BC     		pop	{r7}
 4939              		.cfi_restore 7
 4940              		.cfi_def_cfa_offset 0
 4941 0038 7047     		bx	lr
 4942              		.cfi_endproc
 4943              	.LFE167:
 4945              		.section	.text.hals_smartcard_reception_error_dma_enable,"ax",%progbits
 4946              		.align	1
 4947              		.global	hals_smartcard_reception_error_dma_enable
 4948              		.syntax unified
 4949              		.thumb
 4950              		.thumb_func
 4951              		.fpu softvfp
 4953              	hals_smartcard_reception_error_dma_enable:
 4954              	.LFB168:
1681:../firmware/gd32f3x0_hal_peripheral/Source/gd32f3x0_hal_smartcard.c **** 
1682:../firmware/gd32f3x0_hal_peripheral/Source/gd32f3x0_hal_smartcard.c **** /*!
1683:../firmware/gd32f3x0_hal_peripheral/Source/gd32f3x0_hal_smartcard.c ****     \brief      enable DMA on reception error
1684:../firmware/gd32f3x0_hal_peripheral/Source/gd32f3x0_hal_smartcard.c ****     \param[in]  smartcard_periph: USARTx(x=0,1)
1685:../firmware/gd32f3x0_hal_peripheral/Source/gd32f3x0_hal_smartcard.c ****     \param[out] none
1686:../firmware/gd32f3x0_hal_peripheral/Source/gd32f3x0_hal_smartcard.c ****     \retval     none
1687:../firmware/gd32f3x0_hal_peripheral/Source/gd32f3x0_hal_smartcard.c **** */
1688:../firmware/gd32f3x0_hal_peripheral/Source/gd32f3x0_hal_smartcard.c **** void hals_smartcard_reception_error_dma_enable(uint32_t smartcard_periph)
1689:../firmware/gd32f3x0_hal_peripheral/Source/gd32f3x0_hal_smartcard.c **** {
 4955              		.loc 1 1689 1
 4956              		.cfi_startproc
 4957              		@ args = 0, pretend = 0, frame = 8
 4958              		@ frame_needed = 1, uses_anonymous_args = 0
 4959              		@ link register save eliminated.
 4960 0000 80B4     		push	{r7}
 4961              		.cfi_def_cfa_offset 4
 4962              		.cfi_offset 7, -4
 4963 0002 83B0     		sub	sp, sp, #12
 4964              		.cfi_def_cfa_offset 16
 4965 0004 00AF     		add	r7, sp, #0
 4966              		.cfi_def_cfa_register 7
 4967 0006 7860     		str	r0, [r7, #4]
1690:../firmware/gd32f3x0_hal_peripheral/Source/gd32f3x0_hal_smartcard.c ****     /* disable SMARTCARD */
1691:../firmware/gd32f3x0_hal_peripheral/Source/gd32f3x0_hal_smartcard.c ****     USART_CTL0(smartcard_periph) &= ~(USART_CTL0_UEN);
 4968              		.loc 1 1691 34
 4969 0008 7B68     		ldr	r3, [r7, #4]
 4970 000a 1A68     		ldr	r2, [r3]
 4971 000c 7B68     		ldr	r3, [r7, #4]
 4972 000e 22F00102 		bic	r2, r2, #1
 4973 0012 1A60     		str	r2, [r3]
1692:../firmware/gd32f3x0_hal_peripheral/Source/gd32f3x0_hal_smartcard.c ****     USART_CTL2(smartcard_periph) &= ~(USART_CTL2_DDRE);
 4974              		.loc 1 1692 34
 4975 0014 7B68     		ldr	r3, [r7, #4]
 4976 0016 0833     		adds	r3, r3, #8
 4977 0018 1B68     		ldr	r3, [r3]
 4978 001a 7A68     		ldr	r2, [r7, #4]
 4979 001c 0832     		adds	r2, r2, #8
 4980 001e 23F40053 		bic	r3, r3, #8192
 4981 0022 1360     		str	r3, [r2]
1693:../firmware/gd32f3x0_hal_peripheral/Source/gd32f3x0_hal_smartcard.c **** }
 4982              		.loc 1 1693 1
 4983 0024 00BF     		nop
 4984 0026 0C37     		adds	r7, r7, #12
 4985              		.cfi_def_cfa_offset 4
 4986 0028 BD46     		mov	sp, r7
 4987              		.cfi_def_cfa_register 13
 4988              		@ sp needed
 4989 002a 80BC     		pop	{r7}
 4990              		.cfi_restore 7
 4991              		.cfi_def_cfa_offset 0
 4992 002c 7047     		bx	lr
 4993              		.cfi_endproc
 4994              	.LFE168:
 4996              		.section	.text.hals_smartcard_reception_error_dma_disable,"ax",%progbits
 4997              		.align	1
 4998              		.global	hals_smartcard_reception_error_dma_disable
 4999              		.syntax unified
 5000              		.thumb
 5001              		.thumb_func
 5002              		.fpu softvfp
 5004              	hals_smartcard_reception_error_dma_disable:
 5005              	.LFB169:
1694:../firmware/gd32f3x0_hal_peripheral/Source/gd32f3x0_hal_smartcard.c **** 
1695:../firmware/gd32f3x0_hal_peripheral/Source/gd32f3x0_hal_smartcard.c **** /*!
1696:../firmware/gd32f3x0_hal_peripheral/Source/gd32f3x0_hal_smartcard.c ****     \brief      disable DMA on reception error
1697:../firmware/gd32f3x0_hal_peripheral/Source/gd32f3x0_hal_smartcard.c ****     \param[in]  smartcard_periph: USARTx(x=0,1)
1698:../firmware/gd32f3x0_hal_peripheral/Source/gd32f3x0_hal_smartcard.c ****     \param[out] none
1699:../firmware/gd32f3x0_hal_peripheral/Source/gd32f3x0_hal_smartcard.c ****     \retval     none
1700:../firmware/gd32f3x0_hal_peripheral/Source/gd32f3x0_hal_smartcard.c **** */
1701:../firmware/gd32f3x0_hal_peripheral/Source/gd32f3x0_hal_smartcard.c **** void hals_smartcard_reception_error_dma_disable(uint32_t smartcard_periph)
1702:../firmware/gd32f3x0_hal_peripheral/Source/gd32f3x0_hal_smartcard.c **** {
 5006              		.loc 1 1702 1
 5007              		.cfi_startproc
 5008              		@ args = 0, pretend = 0, frame = 8
 5009              		@ frame_needed = 1, uses_anonymous_args = 0
 5010              		@ link register save eliminated.
 5011 0000 80B4     		push	{r7}
 5012              		.cfi_def_cfa_offset 4
 5013              		.cfi_offset 7, -4
 5014 0002 83B0     		sub	sp, sp, #12
 5015              		.cfi_def_cfa_offset 16
 5016 0004 00AF     		add	r7, sp, #0
 5017              		.cfi_def_cfa_register 7
 5018 0006 7860     		str	r0, [r7, #4]
1703:../firmware/gd32f3x0_hal_peripheral/Source/gd32f3x0_hal_smartcard.c ****     /* disable SMARTCARD */
1704:../firmware/gd32f3x0_hal_peripheral/Source/gd32f3x0_hal_smartcard.c ****     USART_CTL0(smartcard_periph) &= ~(USART_CTL0_UEN);
 5019              		.loc 1 1704 34
 5020 0008 7B68     		ldr	r3, [r7, #4]
 5021 000a 1A68     		ldr	r2, [r3]
 5022 000c 7B68     		ldr	r3, [r7, #4]
 5023 000e 22F00102 		bic	r2, r2, #1
 5024 0012 1A60     		str	r2, [r3]
1705:../firmware/gd32f3x0_hal_peripheral/Source/gd32f3x0_hal_smartcard.c ****     USART_CTL2(smartcard_periph) |= USART_CTL2_DDRE;
 5025              		.loc 1 1705 34
 5026 0014 7B68     		ldr	r3, [r7, #4]
 5027 0016 0833     		adds	r3, r3, #8
 5028 0018 1B68     		ldr	r3, [r3]
 5029 001a 7A68     		ldr	r2, [r7, #4]
 5030 001c 0832     		adds	r2, r2, #8
 5031 001e 43F40053 		orr	r3, r3, #8192
 5032 0022 1360     		str	r3, [r2]
1706:../firmware/gd32f3x0_hal_peripheral/Source/gd32f3x0_hal_smartcard.c **** }
 5033              		.loc 1 1706 1
 5034 0024 00BF     		nop
 5035 0026 0C37     		adds	r7, r7, #12
 5036              		.cfi_def_cfa_offset 4
 5037 0028 BD46     		mov	sp, r7
 5038              		.cfi_def_cfa_register 13
 5039              		@ sp needed
 5040 002a 80BC     		pop	{r7}
 5041              		.cfi_restore 7
 5042              		.cfi_def_cfa_offset 0
 5043 002c 7047     		bx	lr
 5044              		.cfi_endproc
 5045              	.LFE169:
 5047              		.section	.text.hals_smartcard_receive_fifo_enable,"ax",%progbits
 5048              		.align	1
 5049              		.global	hals_smartcard_receive_fifo_enable
 5050              		.syntax unified
 5051              		.thumb
 5052              		.thumb_func
 5053              		.fpu softvfp
 5055              	hals_smartcard_receive_fifo_enable:
 5056              	.LFB170:
1707:../firmware/gd32f3x0_hal_peripheral/Source/gd32f3x0_hal_smartcard.c **** 
1708:../firmware/gd32f3x0_hal_peripheral/Source/gd32f3x0_hal_smartcard.c **** /*!
1709:../firmware/gd32f3x0_hal_peripheral/Source/gd32f3x0_hal_smartcard.c ****     \brief      enable receive FIFO
1710:../firmware/gd32f3x0_hal_peripheral/Source/gd32f3x0_hal_smartcard.c ****     \param[in]  smartcard_periph: USARTx(x=0,1)
1711:../firmware/gd32f3x0_hal_peripheral/Source/gd32f3x0_hal_smartcard.c ****     \param[out] none
1712:../firmware/gd32f3x0_hal_peripheral/Source/gd32f3x0_hal_smartcard.c ****     \retval     none
1713:../firmware/gd32f3x0_hal_peripheral/Source/gd32f3x0_hal_smartcard.c **** */
1714:../firmware/gd32f3x0_hal_peripheral/Source/gd32f3x0_hal_smartcard.c **** void hals_smartcard_receive_fifo_enable(uint32_t smartcard_periph)
1715:../firmware/gd32f3x0_hal_peripheral/Source/gd32f3x0_hal_smartcard.c **** {
 5057              		.loc 1 1715 1
 5058              		.cfi_startproc
 5059              		@ args = 0, pretend = 0, frame = 8
 5060              		@ frame_needed = 1, uses_anonymous_args = 0
 5061              		@ link register save eliminated.
 5062 0000 80B4     		push	{r7}
 5063              		.cfi_def_cfa_offset 4
 5064              		.cfi_offset 7, -4
 5065 0002 83B0     		sub	sp, sp, #12
 5066              		.cfi_def_cfa_offset 16
 5067 0004 00AF     		add	r7, sp, #0
 5068              		.cfi_def_cfa_register 7
 5069 0006 7860     		str	r0, [r7, #4]
1716:../firmware/gd32f3x0_hal_peripheral/Source/gd32f3x0_hal_smartcard.c ****     USART_RFCS(smartcard_periph) |= USART_RFCS_RFEN;
 5070              		.loc 1 1716 34
 5071 0008 7B68     		ldr	r3, [r7, #4]
 5072 000a D033     		adds	r3, r3, #208
 5073 000c 1B68     		ldr	r3, [r3]
 5074 000e 7A68     		ldr	r2, [r7, #4]
 5075 0010 D032     		adds	r2, r2, #208
 5076 0012 43F48073 		orr	r3, r3, #256
 5077 0016 1360     		str	r3, [r2]
1717:../firmware/gd32f3x0_hal_peripheral/Source/gd32f3x0_hal_smartcard.c **** }
 5078              		.loc 1 1717 1
 5079 0018 00BF     		nop
 5080 001a 0C37     		adds	r7, r7, #12
 5081              		.cfi_def_cfa_offset 4
 5082 001c BD46     		mov	sp, r7
 5083              		.cfi_def_cfa_register 13
 5084              		@ sp needed
 5085 001e 80BC     		pop	{r7}
 5086              		.cfi_restore 7
 5087              		.cfi_def_cfa_offset 0
 5088 0020 7047     		bx	lr
 5089              		.cfi_endproc
 5090              	.LFE170:
 5092              		.section	.text.hals_smartcard_receive_fifo_disable,"ax",%progbits
 5093              		.align	1
 5094              		.global	hals_smartcard_receive_fifo_disable
 5095              		.syntax unified
 5096              		.thumb
 5097              		.thumb_func
 5098              		.fpu softvfp
 5100              	hals_smartcard_receive_fifo_disable:
 5101              	.LFB171:
1718:../firmware/gd32f3x0_hal_peripheral/Source/gd32f3x0_hal_smartcard.c **** 
1719:../firmware/gd32f3x0_hal_peripheral/Source/gd32f3x0_hal_smartcard.c **** /*!
1720:../firmware/gd32f3x0_hal_peripheral/Source/gd32f3x0_hal_smartcard.c ****     \brief      disable receive FIFO
1721:../firmware/gd32f3x0_hal_peripheral/Source/gd32f3x0_hal_smartcard.c ****     \param[in]  smartcard_periph: USARTx(x=0,1)
1722:../firmware/gd32f3x0_hal_peripheral/Source/gd32f3x0_hal_smartcard.c ****     \param[out] none
1723:../firmware/gd32f3x0_hal_peripheral/Source/gd32f3x0_hal_smartcard.c ****     \retval     none
1724:../firmware/gd32f3x0_hal_peripheral/Source/gd32f3x0_hal_smartcard.c **** */
1725:../firmware/gd32f3x0_hal_peripheral/Source/gd32f3x0_hal_smartcard.c **** void hals_smartcard_receive_fifo_disable(uint32_t smartcard_periph)
1726:../firmware/gd32f3x0_hal_peripheral/Source/gd32f3x0_hal_smartcard.c **** {
 5102              		.loc 1 1726 1
 5103              		.cfi_startproc
 5104              		@ args = 0, pretend = 0, frame = 8
 5105              		@ frame_needed = 1, uses_anonymous_args = 0
 5106              		@ link register save eliminated.
 5107 0000 80B4     		push	{r7}
 5108              		.cfi_def_cfa_offset 4
 5109              		.cfi_offset 7, -4
 5110 0002 83B0     		sub	sp, sp, #12
 5111              		.cfi_def_cfa_offset 16
 5112 0004 00AF     		add	r7, sp, #0
 5113              		.cfi_def_cfa_register 7
 5114 0006 7860     		str	r0, [r7, #4]
1727:../firmware/gd32f3x0_hal_peripheral/Source/gd32f3x0_hal_smartcard.c ****     USART_RFCS(smartcard_periph) &= ~(USART_RFCS_RFEN);
 5115              		.loc 1 1727 34
 5116 0008 7B68     		ldr	r3, [r7, #4]
 5117 000a D033     		adds	r3, r3, #208
 5118 000c 1B68     		ldr	r3, [r3]
 5119 000e 7A68     		ldr	r2, [r7, #4]
 5120 0010 D032     		adds	r2, r2, #208
 5121 0012 23F48073 		bic	r3, r3, #256
 5122 0016 1360     		str	r3, [r2]
1728:../firmware/gd32f3x0_hal_peripheral/Source/gd32f3x0_hal_smartcard.c **** }
 5123              		.loc 1 1728 1
 5124 0018 00BF     		nop
 5125 001a 0C37     		adds	r7, r7, #12
 5126              		.cfi_def_cfa_offset 4
 5127 001c BD46     		mov	sp, r7
 5128              		.cfi_def_cfa_register 13
 5129              		@ sp needed
 5130 001e 80BC     		pop	{r7}
 5131              		.cfi_restore 7
 5132              		.cfi_def_cfa_offset 0
 5133 0020 7047     		bx	lr
 5134              		.cfi_endproc
 5135              	.LFE171:
 5137              		.section	.text.hals_smartcard_receive_fifo_counter_number,"ax",%progbits
 5138              		.align	1
 5139              		.global	hals_smartcard_receive_fifo_counter_number
 5140              		.syntax unified
 5141              		.thumb
 5142              		.thumb_func
 5143              		.fpu softvfp
 5145              	hals_smartcard_receive_fifo_counter_number:
 5146              	.LFB172:
1729:../firmware/gd32f3x0_hal_peripheral/Source/gd32f3x0_hal_smartcard.c **** 
1730:../firmware/gd32f3x0_hal_peripheral/Source/gd32f3x0_hal_smartcard.c **** /*!
1731:../firmware/gd32f3x0_hal_peripheral/Source/gd32f3x0_hal_smartcard.c ****     \brief      read receive FIFO counter number
1732:../firmware/gd32f3x0_hal_peripheral/Source/gd32f3x0_hal_smartcard.c ****     \param[in]  smartcard_periph: USARTx(x=0,1)
1733:../firmware/gd32f3x0_hal_peripheral/Source/gd32f3x0_hal_smartcard.c ****     \param[out] none
1734:../firmware/gd32f3x0_hal_peripheral/Source/gd32f3x0_hal_smartcard.c ****     \retval     receive FIFO counter number
1735:../firmware/gd32f3x0_hal_peripheral/Source/gd32f3x0_hal_smartcard.c **** */
1736:../firmware/gd32f3x0_hal_peripheral/Source/gd32f3x0_hal_smartcard.c **** uint8_t hals_smartcard_receive_fifo_counter_number(uint32_t smartcard_periph)
1737:../firmware/gd32f3x0_hal_peripheral/Source/gd32f3x0_hal_smartcard.c **** {
 5147              		.loc 1 1737 1
 5148              		.cfi_startproc
 5149              		@ args = 0, pretend = 0, frame = 8
 5150              		@ frame_needed = 1, uses_anonymous_args = 0
 5151              		@ link register save eliminated.
 5152 0000 80B4     		push	{r7}
 5153              		.cfi_def_cfa_offset 4
 5154              		.cfi_offset 7, -4
 5155 0002 83B0     		sub	sp, sp, #12
 5156              		.cfi_def_cfa_offset 16
 5157 0004 00AF     		add	r7, sp, #0
 5158              		.cfi_def_cfa_register 7
 5159 0006 7860     		str	r0, [r7, #4]
1738:../firmware/gd32f3x0_hal_peripheral/Source/gd32f3x0_hal_smartcard.c ****     return (uint8_t)(GET_BITS(USART_RFCS(smartcard_periph), 12U, 14U));
 5160              		.loc 1 1738 22
 5161 0008 7B68     		ldr	r3, [r7, #4]
 5162 000a D033     		adds	r3, r3, #208
 5163 000c 1B68     		ldr	r3, [r3]
 5164 000e 1B0B     		lsrs	r3, r3, #12
 5165              		.loc 1 1738 12
 5166 0010 DBB2     		uxtb	r3, r3
 5167 0012 03F00703 		and	r3, r3, #7
 5168 0016 DBB2     		uxtb	r3, r3
1739:../firmware/gd32f3x0_hal_peripheral/Source/gd32f3x0_hal_smartcard.c **** }
 5169              		.loc 1 1739 1
 5170 0018 1846     		mov	r0, r3
 5171 001a 0C37     		adds	r7, r7, #12
 5172              		.cfi_def_cfa_offset 4
 5173 001c BD46     		mov	sp, r7
 5174              		.cfi_def_cfa_register 13
 5175              		@ sp needed
 5176 001e 80BC     		pop	{r7}
 5177              		.cfi_restore 7
 5178              		.cfi_def_cfa_offset 0
 5179 0020 7047     		bx	lr
 5180              		.cfi_endproc
 5181              	.LFE172:
 5183              		.section	.text.hals_smartcard_flag_get,"ax",%progbits
 5184              		.align	1
 5185              		.global	hals_smartcard_flag_get
 5186              		.syntax unified
 5187              		.thumb
 5188              		.thumb_func
 5189              		.fpu softvfp
 5191              	hals_smartcard_flag_get:
 5192              	.LFB173:
1740:../firmware/gd32f3x0_hal_peripheral/Source/gd32f3x0_hal_smartcard.c **** 
1741:../firmware/gd32f3x0_hal_peripheral/Source/gd32f3x0_hal_smartcard.c **** /*!
1742:../firmware/gd32f3x0_hal_peripheral/Source/gd32f3x0_hal_smartcard.c ****     \brief      get SMARTCARD status
1743:../firmware/gd32f3x0_hal_peripheral/Source/gd32f3x0_hal_smartcard.c ****     \param[in]  smartcard_periph: USARTx(x=0,1)
1744:../firmware/gd32f3x0_hal_peripheral/Source/gd32f3x0_hal_smartcard.c ****     \param[in]  flag: flag type
1745:../firmware/gd32f3x0_hal_peripheral/Source/gd32f3x0_hal_smartcard.c ****                 only one parameter can be selected which is shown as below:
1746:../firmware/gd32f3x0_hal_peripheral/Source/gd32f3x0_hal_smartcard.c ****       \arg        USART_FLAG_PERR: parity error flag
1747:../firmware/gd32f3x0_hal_peripheral/Source/gd32f3x0_hal_smartcard.c ****       \arg        USART_FLAG_FERR: frame error flag
1748:../firmware/gd32f3x0_hal_peripheral/Source/gd32f3x0_hal_smartcard.c ****       \arg        USART_FLAG_NERR: noise error flag
1749:../firmware/gd32f3x0_hal_peripheral/Source/gd32f3x0_hal_smartcard.c ****       \arg        USART_FLAG_ORERR: overrun error flag
1750:../firmware/gd32f3x0_hal_peripheral/Source/gd32f3x0_hal_smartcard.c ****       \arg        USART_FLAG_IDLE: idle line detected flag
1751:../firmware/gd32f3x0_hal_peripheral/Source/gd32f3x0_hal_smartcard.c ****       \arg        USART_FLAG_RBNE: read data buffer not empty
1752:../firmware/gd32f3x0_hal_peripheral/Source/gd32f3x0_hal_smartcard.c ****       \arg        USART_FLAG_TC: transmission complete flag
1753:../firmware/gd32f3x0_hal_peripheral/Source/gd32f3x0_hal_smartcard.c ****       \arg        USART_FLAG_TBE: transmit data register empty
1754:../firmware/gd32f3x0_hal_peripheral/Source/gd32f3x0_hal_smartcard.c ****       \arg        USART_FLAG_LBD: LIN break detected flag
1755:../firmware/gd32f3x0_hal_peripheral/Source/gd32f3x0_hal_smartcard.c ****       \arg        USART_FLAG_CTSF: CTS change flag
1756:../firmware/gd32f3x0_hal_peripheral/Source/gd32f3x0_hal_smartcard.c ****       \arg        USART_FLAG_CTS: CTS level
1757:../firmware/gd32f3x0_hal_peripheral/Source/gd32f3x0_hal_smartcard.c ****       \arg        USART_FLAG_RT: receiver timeout flag
1758:../firmware/gd32f3x0_hal_peripheral/Source/gd32f3x0_hal_smartcard.c ****       \arg        USART_FLAG_EB: end of block flag
1759:../firmware/gd32f3x0_hal_peripheral/Source/gd32f3x0_hal_smartcard.c ****       \arg        USART_FLAG_BSY: busy flag
1760:../firmware/gd32f3x0_hal_peripheral/Source/gd32f3x0_hal_smartcard.c ****       \arg        USART_FLAG_AM: address match flag
1761:../firmware/gd32f3x0_hal_peripheral/Source/gd32f3x0_hal_smartcard.c ****       \arg        USART_FLAG_SB: send break flag
1762:../firmware/gd32f3x0_hal_peripheral/Source/gd32f3x0_hal_smartcard.c ****       \arg        USART_FLAG_RWU: receiver wakeup from mute mode.
1763:../firmware/gd32f3x0_hal_peripheral/Source/gd32f3x0_hal_smartcard.c ****       \arg        USART_FLAG_WU: wakeup from deep-sleep mode flag
1764:../firmware/gd32f3x0_hal_peripheral/Source/gd32f3x0_hal_smartcard.c ****       \arg        USART_FLAG_TEA: transmit enable acknowledge flag
1765:../firmware/gd32f3x0_hal_peripheral/Source/gd32f3x0_hal_smartcard.c ****       \arg        USART_FLAG_REA: receive enable acknowledge flag
1766:../firmware/gd32f3x0_hal_peripheral/Source/gd32f3x0_hal_smartcard.c ****       \arg        USART_FLAG_EPERR: early parity error flag
1767:../firmware/gd32f3x0_hal_peripheral/Source/gd32f3x0_hal_smartcard.c ****       \arg        USART_FLAG_RFE: receive FIFO empty flag
1768:../firmware/gd32f3x0_hal_peripheral/Source/gd32f3x0_hal_smartcard.c ****       \arg        USART_FLAG_RFF: receive FIFO full flag
1769:../firmware/gd32f3x0_hal_peripheral/Source/gd32f3x0_hal_smartcard.c ****     \param[out] none
1770:../firmware/gd32f3x0_hal_peripheral/Source/gd32f3x0_hal_smartcard.c ****     \retval     FlagStatus: SET or RESET
1771:../firmware/gd32f3x0_hal_peripheral/Source/gd32f3x0_hal_smartcard.c **** */
1772:../firmware/gd32f3x0_hal_peripheral/Source/gd32f3x0_hal_smartcard.c **** FlagStatus hals_smartcard_flag_get(uint32_t smartcard_periph, usart_flag_enum flag)
1773:../firmware/gd32f3x0_hal_peripheral/Source/gd32f3x0_hal_smartcard.c **** {
 5193              		.loc 1 1773 1
 5194              		.cfi_startproc
 5195              		@ args = 0, pretend = 0, frame = 8
 5196              		@ frame_needed = 1, uses_anonymous_args = 0
 5197              		@ link register save eliminated.
 5198 0000 80B4     		push	{r7}
 5199              		.cfi_def_cfa_offset 4
 5200              		.cfi_offset 7, -4
 5201 0002 83B0     		sub	sp, sp, #12
 5202              		.cfi_def_cfa_offset 16
 5203 0004 00AF     		add	r7, sp, #0
 5204              		.cfi_def_cfa_register 7
 5205 0006 7860     		str	r0, [r7, #4]
 5206 0008 0B46     		mov	r3, r1
 5207 000a 7B80     		strh	r3, [r7, #2]	@ movhi
1774:../firmware/gd32f3x0_hal_peripheral/Source/gd32f3x0_hal_smartcard.c ****     if(RESET != (USART_REG_VAL(smartcard_periph, flag) & BIT(USART_BIT_POS(flag)))) {
 5208              		.loc 1 1774 18
 5209 000c 7B88     		ldrh	r3, [r7, #2]
 5210 000e 9B09     		lsrs	r3, r3, #6
 5211 0010 9BB2     		uxth	r3, r3
 5212 0012 1A46     		mov	r2, r3
 5213 0014 7B68     		ldr	r3, [r7, #4]
 5214 0016 1344     		add	r3, r3, r2
 5215 0018 1A68     		ldr	r2, [r3]
 5216              		.loc 1 1774 58
 5217 001a 7B88     		ldrh	r3, [r7, #2]
 5218 001c 03F01F03 		and	r3, r3, #31
 5219              		.loc 1 1774 14
 5220 0020 22FA03F3 		lsr	r3, r2, r3
 5221 0024 03F00103 		and	r3, r3, #1
 5222              		.loc 1 1774 7
 5223 0028 002B     		cmp	r3, #0
 5224 002a 01D0     		beq	.L209
1775:../firmware/gd32f3x0_hal_peripheral/Source/gd32f3x0_hal_smartcard.c ****         return SET;
 5225              		.loc 1 1775 16
 5226 002c 0123     		movs	r3, #1
 5227 002e 00E0     		b	.L210
 5228              	.L209:
1776:../firmware/gd32f3x0_hal_peripheral/Source/gd32f3x0_hal_smartcard.c ****     } else {
1777:../firmware/gd32f3x0_hal_peripheral/Source/gd32f3x0_hal_smartcard.c ****         return RESET;
 5229              		.loc 1 1777 16
 5230 0030 0023     		movs	r3, #0
 5231              	.L210:
1778:../firmware/gd32f3x0_hal_peripheral/Source/gd32f3x0_hal_smartcard.c ****     }
1779:../firmware/gd32f3x0_hal_peripheral/Source/gd32f3x0_hal_smartcard.c **** }
 5232              		.loc 1 1779 1
 5233 0032 1846     		mov	r0, r3
 5234 0034 0C37     		adds	r7, r7, #12
 5235              		.cfi_def_cfa_offset 4
 5236 0036 BD46     		mov	sp, r7
 5237              		.cfi_def_cfa_register 13
 5238              		@ sp needed
 5239 0038 80BC     		pop	{r7}
 5240              		.cfi_restore 7
 5241              		.cfi_def_cfa_offset 0
 5242 003a 7047     		bx	lr
 5243              		.cfi_endproc
 5244              	.LFE173:
 5246              		.section	.text.hals_smartcard_flag_clear,"ax",%progbits
 5247              		.align	1
 5248              		.global	hals_smartcard_flag_clear
 5249              		.syntax unified
 5250              		.thumb
 5251              		.thumb_func
 5252              		.fpu softvfp
 5254              	hals_smartcard_flag_clear:
 5255              	.LFB174:
1780:../firmware/gd32f3x0_hal_peripheral/Source/gd32f3x0_hal_smartcard.c **** 
1781:../firmware/gd32f3x0_hal_peripheral/Source/gd32f3x0_hal_smartcard.c **** /*!
1782:../firmware/gd32f3x0_hal_peripheral/Source/gd32f3x0_hal_smartcard.c ****     \brief      clear SMARTCARD status
1783:../firmware/gd32f3x0_hal_peripheral/Source/gd32f3x0_hal_smartcard.c ****     \param[in]  smartcard_periph: USARTx(x=0,1)
1784:../firmware/gd32f3x0_hal_peripheral/Source/gd32f3x0_hal_smartcard.c ****     \param[in]  flag: flag type
1785:../firmware/gd32f3x0_hal_peripheral/Source/gd32f3x0_hal_smartcard.c ****                 only one parameter can be selected which is shown as below:
1786:../firmware/gd32f3x0_hal_peripheral/Source/gd32f3x0_hal_smartcard.c ****       \arg        USART_FLAG_PERR: parity error flag
1787:../firmware/gd32f3x0_hal_peripheral/Source/gd32f3x0_hal_smartcard.c ****       \arg        USART_FLAG_FERR: frame error flag
1788:../firmware/gd32f3x0_hal_peripheral/Source/gd32f3x0_hal_smartcard.c ****       \arg        USART_FLAG_NERR: noise error flag
1789:../firmware/gd32f3x0_hal_peripheral/Source/gd32f3x0_hal_smartcard.c ****       \arg        USART_FLAG_ORERR: overrun error flag
1790:../firmware/gd32f3x0_hal_peripheral/Source/gd32f3x0_hal_smartcard.c ****       \arg        USART_FLAG_IDLE: idle line detected flag
1791:../firmware/gd32f3x0_hal_peripheral/Source/gd32f3x0_hal_smartcard.c ****       \arg        USART_FLAG_TC: transmission complete flag
1792:../firmware/gd32f3x0_hal_peripheral/Source/gd32f3x0_hal_smartcard.c ****       \arg        USART_FLAG_LBD: LIN break detected flag
1793:../firmware/gd32f3x0_hal_peripheral/Source/gd32f3x0_hal_smartcard.c ****       \arg        USART_FLAG_CTSF: CTS change flag
1794:../firmware/gd32f3x0_hal_peripheral/Source/gd32f3x0_hal_smartcard.c ****       \arg        USART_FLAG_RT: receiver timeout flag
1795:../firmware/gd32f3x0_hal_peripheral/Source/gd32f3x0_hal_smartcard.c ****       \arg        USART_FLAG_EB: end of block flag
1796:../firmware/gd32f3x0_hal_peripheral/Source/gd32f3x0_hal_smartcard.c ****       \arg        USART_FLAG_AM: address match flag
1797:../firmware/gd32f3x0_hal_peripheral/Source/gd32f3x0_hal_smartcard.c ****       \arg        USART_FLAG_WU: wakeup from deep-sleep mode flag
1798:../firmware/gd32f3x0_hal_peripheral/Source/gd32f3x0_hal_smartcard.c ****       \arg        USART_FLAG_EPERR: early parity error flag
1799:../firmware/gd32f3x0_hal_peripheral/Source/gd32f3x0_hal_smartcard.c ****     \param[out] none
1800:../firmware/gd32f3x0_hal_peripheral/Source/gd32f3x0_hal_smartcard.c ****     \retval     none
1801:../firmware/gd32f3x0_hal_peripheral/Source/gd32f3x0_hal_smartcard.c **** */
1802:../firmware/gd32f3x0_hal_peripheral/Source/gd32f3x0_hal_smartcard.c **** void hals_smartcard_flag_clear(uint32_t smartcard_periph, usart_flag_enum flag)
1803:../firmware/gd32f3x0_hal_peripheral/Source/gd32f3x0_hal_smartcard.c **** {
 5256              		.loc 1 1803 1
 5257              		.cfi_startproc
 5258              		@ args = 0, pretend = 0, frame = 8
 5259              		@ frame_needed = 1, uses_anonymous_args = 0
 5260              		@ link register save eliminated.
 5261 0000 80B4     		push	{r7}
 5262              		.cfi_def_cfa_offset 4
 5263              		.cfi_offset 7, -4
 5264 0002 83B0     		sub	sp, sp, #12
 5265              		.cfi_def_cfa_offset 16
 5266 0004 00AF     		add	r7, sp, #0
 5267              		.cfi_def_cfa_register 7
 5268 0006 7860     		str	r0, [r7, #4]
 5269 0008 0B46     		mov	r3, r1
 5270 000a 7B80     		strh	r3, [r7, #2]	@ movhi
1804:../firmware/gd32f3x0_hal_peripheral/Source/gd32f3x0_hal_smartcard.c ****     USART_INTC(smartcard_periph) |= BIT(USART_BIT_POS(flag));
 5271              		.loc 1 1804 34
 5272 000c 7B68     		ldr	r3, [r7, #4]
 5273 000e 2033     		adds	r3, r3, #32
 5274 0010 1A68     		ldr	r2, [r3]
 5275              		.loc 1 1804 37
 5276 0012 7B88     		ldrh	r3, [r7, #2]
 5277 0014 03F01F03 		and	r3, r3, #31
 5278 0018 0121     		movs	r1, #1
 5279 001a 01FA03F3 		lsl	r3, r1, r3
 5280              		.loc 1 1804 34
 5281 001e 7968     		ldr	r1, [r7, #4]
 5282 0020 2031     		adds	r1, r1, #32
 5283 0022 1343     		orrs	r3, r3, r2
 5284 0024 0B60     		str	r3, [r1]
1805:../firmware/gd32f3x0_hal_peripheral/Source/gd32f3x0_hal_smartcard.c **** }
 5285              		.loc 1 1805 1
 5286 0026 00BF     		nop
 5287 0028 0C37     		adds	r7, r7, #12
 5288              		.cfi_def_cfa_offset 4
 5289 002a BD46     		mov	sp, r7
 5290              		.cfi_def_cfa_register 13
 5291              		@ sp needed
 5292 002c 80BC     		pop	{r7}
 5293              		.cfi_restore 7
 5294              		.cfi_def_cfa_offset 0
 5295 002e 7047     		bx	lr
 5296              		.cfi_endproc
 5297              	.LFE174:
 5299              		.section	.text.hals_smartcard_interrupt_enable,"ax",%progbits
 5300              		.align	1
 5301              		.global	hals_smartcard_interrupt_enable
 5302              		.syntax unified
 5303              		.thumb
 5304              		.thumb_func
 5305              		.fpu softvfp
 5307              	hals_smartcard_interrupt_enable:
 5308              	.LFB175:
1806:../firmware/gd32f3x0_hal_peripheral/Source/gd32f3x0_hal_smartcard.c **** 
1807:../firmware/gd32f3x0_hal_peripheral/Source/gd32f3x0_hal_smartcard.c **** /*!
1808:../firmware/gd32f3x0_hal_peripheral/Source/gd32f3x0_hal_smartcard.c ****     \brief      enable SMARTCARD interrupt
1809:../firmware/gd32f3x0_hal_peripheral/Source/gd32f3x0_hal_smartcard.c ****     \param[in]  smartcard_periph: USARTx(x=0,1)
1810:../firmware/gd32f3x0_hal_peripheral/Source/gd32f3x0_hal_smartcard.c ****     \param[in]  interrupt: interrupt
1811:../firmware/gd32f3x0_hal_peripheral/Source/gd32f3x0_hal_smartcard.c ****                 only one parameter can be selected which is shown as below:
1812:../firmware/gd32f3x0_hal_peripheral/Source/gd32f3x0_hal_smartcard.c ****       \arg        USART_INT_IDLE: idle line detected interrupt
1813:../firmware/gd32f3x0_hal_peripheral/Source/gd32f3x0_hal_smartcard.c ****       \arg        USART_INT_RBNE: read data buffer not empty interrupt and overrun error interrupt
1814:../firmware/gd32f3x0_hal_peripheral/Source/gd32f3x0_hal_smartcard.c ****       \arg        USART_INT_TC: transmission complete interrupt
1815:../firmware/gd32f3x0_hal_peripheral/Source/gd32f3x0_hal_smartcard.c ****       \arg        USART_INT_TBE: transmitter buffer empty interrupt
1816:../firmware/gd32f3x0_hal_peripheral/Source/gd32f3x0_hal_smartcard.c ****       \arg        USART_INT_PERR: parity error interrupt
1817:../firmware/gd32f3x0_hal_peripheral/Source/gd32f3x0_hal_smartcard.c ****       \arg        USART_INT_AM: address match interrupt
1818:../firmware/gd32f3x0_hal_peripheral/Source/gd32f3x0_hal_smartcard.c ****       \arg        USART_INT_RT: receiver timeout interrupt
1819:../firmware/gd32f3x0_hal_peripheral/Source/gd32f3x0_hal_smartcard.c ****       \arg        USART_INT_EB: end of block interrupt
1820:../firmware/gd32f3x0_hal_peripheral/Source/gd32f3x0_hal_smartcard.c ****       \arg        USART_INT_LBD: LIN break detection interrupt
1821:../firmware/gd32f3x0_hal_peripheral/Source/gd32f3x0_hal_smartcard.c ****       \arg        USART_INT_ERR: error interrupt
1822:../firmware/gd32f3x0_hal_peripheral/Source/gd32f3x0_hal_smartcard.c ****       \arg        USART_INT_CTS: CTS interrupt
1823:../firmware/gd32f3x0_hal_peripheral/Source/gd32f3x0_hal_smartcard.c ****       \arg        USART_INT_WU: wakeup from deep-sleep mode interrupt
1824:../firmware/gd32f3x0_hal_peripheral/Source/gd32f3x0_hal_smartcard.c ****       \arg        USART_INT_RFF: receive FIFO full interrupt
1825:../firmware/gd32f3x0_hal_peripheral/Source/gd32f3x0_hal_smartcard.c ****     \param[out] none
1826:../firmware/gd32f3x0_hal_peripheral/Source/gd32f3x0_hal_smartcard.c ****     \retval     none
1827:../firmware/gd32f3x0_hal_peripheral/Source/gd32f3x0_hal_smartcard.c **** */
1828:../firmware/gd32f3x0_hal_peripheral/Source/gd32f3x0_hal_smartcard.c **** void hals_smartcard_interrupt_enable(uint32_t smartcard_periph, usart_interrupt_enum interrupt)
1829:../firmware/gd32f3x0_hal_peripheral/Source/gd32f3x0_hal_smartcard.c **** {
 5309              		.loc 1 1829 1
 5310              		.cfi_startproc
 5311              		@ args = 0, pretend = 0, frame = 8
 5312              		@ frame_needed = 1, uses_anonymous_args = 0
 5313              		@ link register save eliminated.
 5314 0000 80B4     		push	{r7}
 5315              		.cfi_def_cfa_offset 4
 5316              		.cfi_offset 7, -4
 5317 0002 83B0     		sub	sp, sp, #12
 5318              		.cfi_def_cfa_offset 16
 5319 0004 00AF     		add	r7, sp, #0
 5320              		.cfi_def_cfa_register 7
 5321 0006 7860     		str	r0, [r7, #4]
 5322 0008 0B46     		mov	r3, r1
 5323 000a 7B80     		strh	r3, [r7, #2]	@ movhi
1830:../firmware/gd32f3x0_hal_peripheral/Source/gd32f3x0_hal_smartcard.c ****     USART_REG_VAL(smartcard_periph, interrupt) |= BIT(USART_BIT_POS(interrupt));
 5324              		.loc 1 1830 48
 5325 000c 7B88     		ldrh	r3, [r7, #2]
 5326 000e 9B09     		lsrs	r3, r3, #6
 5327 0010 9BB2     		uxth	r3, r3
 5328 0012 1A46     		mov	r2, r3
 5329 0014 7B68     		ldr	r3, [r7, #4]
 5330 0016 1344     		add	r3, r3, r2
 5331 0018 1A68     		ldr	r2, [r3]
 5332              		.loc 1 1830 51
 5333 001a 7B88     		ldrh	r3, [r7, #2]
 5334 001c 03F01F03 		and	r3, r3, #31
 5335 0020 0121     		movs	r1, #1
 5336 0022 01FA03F3 		lsl	r3, r1, r3
 5337              		.loc 1 1830 48
 5338 0026 7988     		ldrh	r1, [r7, #2]
 5339 0028 8909     		lsrs	r1, r1, #6
 5340 002a 89B2     		uxth	r1, r1
 5341 002c 0846     		mov	r0, r1
 5342 002e 7968     		ldr	r1, [r7, #4]
 5343 0030 0144     		add	r1, r1, r0
 5344 0032 1343     		orrs	r3, r3, r2
 5345 0034 0B60     		str	r3, [r1]
1831:../firmware/gd32f3x0_hal_peripheral/Source/gd32f3x0_hal_smartcard.c **** }
 5346              		.loc 1 1831 1
 5347 0036 00BF     		nop
 5348 0038 0C37     		adds	r7, r7, #12
 5349              		.cfi_def_cfa_offset 4
 5350 003a BD46     		mov	sp, r7
 5351              		.cfi_def_cfa_register 13
 5352              		@ sp needed
 5353 003c 80BC     		pop	{r7}
 5354              		.cfi_restore 7
 5355              		.cfi_def_cfa_offset 0
 5356 003e 7047     		bx	lr
 5357              		.cfi_endproc
 5358              	.LFE175:
 5360              		.section	.text.hals_smartcard_interrupt_disable,"ax",%progbits
 5361              		.align	1
 5362              		.global	hals_smartcard_interrupt_disable
 5363              		.syntax unified
 5364              		.thumb
 5365              		.thumb_func
 5366              		.fpu softvfp
 5368              	hals_smartcard_interrupt_disable:
 5369              	.LFB176:
1832:../firmware/gd32f3x0_hal_peripheral/Source/gd32f3x0_hal_smartcard.c **** 
1833:../firmware/gd32f3x0_hal_peripheral/Source/gd32f3x0_hal_smartcard.c **** /*!
1834:../firmware/gd32f3x0_hal_peripheral/Source/gd32f3x0_hal_smartcard.c ****     \brief      disable SMARTCARD interrupt
1835:../firmware/gd32f3x0_hal_peripheral/Source/gd32f3x0_hal_smartcard.c ****     \param[in]  smartcard_periph: USARTx(x=0,1)
1836:../firmware/gd32f3x0_hal_peripheral/Source/gd32f3x0_hal_smartcard.c ****     \param[in]  interrupt: interrupt
1837:../firmware/gd32f3x0_hal_peripheral/Source/gd32f3x0_hal_smartcard.c ****                 only one parameter can be selected which is shown as below:
1838:../firmware/gd32f3x0_hal_peripheral/Source/gd32f3x0_hal_smartcard.c ****       \arg        USART_INT_IDLE: idle interrupt
1839:../firmware/gd32f3x0_hal_peripheral/Source/gd32f3x0_hal_smartcard.c ****       \arg        USART_INT_RBNE: read data buffer not empty interrupt and overrun error interrupt
1840:../firmware/gd32f3x0_hal_peripheral/Source/gd32f3x0_hal_smartcard.c ****       \arg        USART_INT_TC: transmission complete interrupt
1841:../firmware/gd32f3x0_hal_peripheral/Source/gd32f3x0_hal_smartcard.c ****       \arg        USART_INT_TBE: transmitter buffer empty interrupt
1842:../firmware/gd32f3x0_hal_peripheral/Source/gd32f3x0_hal_smartcard.c ****       \arg        USART_INT_PERR: parity error interrupt
1843:../firmware/gd32f3x0_hal_peripheral/Source/gd32f3x0_hal_smartcard.c ****       \arg        USART_INT_AM: address match interrupt
1844:../firmware/gd32f3x0_hal_peripheral/Source/gd32f3x0_hal_smartcard.c ****       \arg        USART_INT_RT: receiver timeout interrupt
1845:../firmware/gd32f3x0_hal_peripheral/Source/gd32f3x0_hal_smartcard.c ****       \arg        USART_INT_EB: end of block interrupt
1846:../firmware/gd32f3x0_hal_peripheral/Source/gd32f3x0_hal_smartcard.c ****       \arg        USART_INT_LBD: LIN break detection interrupt
1847:../firmware/gd32f3x0_hal_peripheral/Source/gd32f3x0_hal_smartcard.c ****       \arg        USART_INT_ERR: error interrupt
1848:../firmware/gd32f3x0_hal_peripheral/Source/gd32f3x0_hal_smartcard.c ****       \arg        USART_INT_CTS: CTS interrupt
1849:../firmware/gd32f3x0_hal_peripheral/Source/gd32f3x0_hal_smartcard.c ****       \arg        USART_INT_WU: wakeup from deep-sleep mode interrupt
1850:../firmware/gd32f3x0_hal_peripheral/Source/gd32f3x0_hal_smartcard.c ****       \arg        USART_INT_RFF: receive FIFO full interrupt
1851:../firmware/gd32f3x0_hal_peripheral/Source/gd32f3x0_hal_smartcard.c ****     \param[out] none
1852:../firmware/gd32f3x0_hal_peripheral/Source/gd32f3x0_hal_smartcard.c ****     \retval     none
1853:../firmware/gd32f3x0_hal_peripheral/Source/gd32f3x0_hal_smartcard.c **** */
1854:../firmware/gd32f3x0_hal_peripheral/Source/gd32f3x0_hal_smartcard.c **** void hals_smartcard_interrupt_disable(uint32_t smartcard_periph, usart_interrupt_enum interrupt)
1855:../firmware/gd32f3x0_hal_peripheral/Source/gd32f3x0_hal_smartcard.c **** {
 5370              		.loc 1 1855 1
 5371              		.cfi_startproc
 5372              		@ args = 0, pretend = 0, frame = 8
 5373              		@ frame_needed = 1, uses_anonymous_args = 0
 5374              		@ link register save eliminated.
 5375 0000 80B4     		push	{r7}
 5376              		.cfi_def_cfa_offset 4
 5377              		.cfi_offset 7, -4
 5378 0002 83B0     		sub	sp, sp, #12
 5379              		.cfi_def_cfa_offset 16
 5380 0004 00AF     		add	r7, sp, #0
 5381              		.cfi_def_cfa_register 7
 5382 0006 7860     		str	r0, [r7, #4]
 5383 0008 0B46     		mov	r3, r1
 5384 000a 7B80     		strh	r3, [r7, #2]	@ movhi
1856:../firmware/gd32f3x0_hal_peripheral/Source/gd32f3x0_hal_smartcard.c ****     USART_REG_VAL(smartcard_periph, interrupt) &= ~BIT(USART_BIT_POS(interrupt));
 5385              		.loc 1 1856 48
 5386 000c 7B88     		ldrh	r3, [r7, #2]
 5387 000e 9B09     		lsrs	r3, r3, #6
 5388 0010 9BB2     		uxth	r3, r3
 5389 0012 1A46     		mov	r2, r3
 5390 0014 7B68     		ldr	r3, [r7, #4]
 5391 0016 1344     		add	r3, r3, r2
 5392 0018 1A68     		ldr	r2, [r3]
 5393              		.loc 1 1856 52
 5394 001a 7B88     		ldrh	r3, [r7, #2]
 5395 001c 03F01F03 		and	r3, r3, #31
 5396 0020 0121     		movs	r1, #1
 5397 0022 01FA03F3 		lsl	r3, r1, r3
 5398              		.loc 1 1856 51
 5399 0026 DB43     		mvns	r3, r3
 5400              		.loc 1 1856 48
 5401 0028 7988     		ldrh	r1, [r7, #2]
 5402 002a 8909     		lsrs	r1, r1, #6
 5403 002c 89B2     		uxth	r1, r1
 5404 002e 0846     		mov	r0, r1
 5405 0030 7968     		ldr	r1, [r7, #4]
 5406 0032 0144     		add	r1, r1, r0
 5407 0034 1340     		ands	r3, r3, r2
 5408 0036 0B60     		str	r3, [r1]
1857:../firmware/gd32f3x0_hal_peripheral/Source/gd32f3x0_hal_smartcard.c **** }
 5409              		.loc 1 1857 1
 5410 0038 00BF     		nop
 5411 003a 0C37     		adds	r7, r7, #12
 5412              		.cfi_def_cfa_offset 4
 5413 003c BD46     		mov	sp, r7
 5414              		.cfi_def_cfa_register 13
 5415              		@ sp needed
 5416 003e 80BC     		pop	{r7}
 5417              		.cfi_restore 7
 5418              		.cfi_def_cfa_offset 0
 5419 0040 7047     		bx	lr
 5420              		.cfi_endproc
 5421              	.LFE176:
 5423              		.section	.text.hals_smartcard_interrupt_flag_get,"ax",%progbits
 5424              		.align	1
 5425              		.global	hals_smartcard_interrupt_flag_get
 5426              		.syntax unified
 5427              		.thumb
 5428              		.thumb_func
 5429              		.fpu softvfp
 5431              	hals_smartcard_interrupt_flag_get:
 5432              	.LFB177:
1858:../firmware/gd32f3x0_hal_peripheral/Source/gd32f3x0_hal_smartcard.c **** 
1859:../firmware/gd32f3x0_hal_peripheral/Source/gd32f3x0_hal_smartcard.c **** /*!
1860:../firmware/gd32f3x0_hal_peripheral/Source/gd32f3x0_hal_smartcard.c ****     \brief      get SMARTCARD interrupt flag status
1861:../firmware/gd32f3x0_hal_peripheral/Source/gd32f3x0_hal_smartcard.c ****     \param[in]  smartcard_periph: USARTx(x=0,1)
1862:../firmware/gd32f3x0_hal_peripheral/Source/gd32f3x0_hal_smartcard.c ****     \param[in]  int_flag: interrupt and flag type, refer to usart_interrupt_flag_enum
1863:../firmware/gd32f3x0_hal_peripheral/Source/gd32f3x0_hal_smartcard.c ****                 only one parameter can be selected which is shown as below:
1864:../firmware/gd32f3x0_hal_peripheral/Source/gd32f3x0_hal_smartcard.c ****       \arg        USART_INT_FLAG_EB: end of block interrupt flag
1865:../firmware/gd32f3x0_hal_peripheral/Source/gd32f3x0_hal_smartcard.c ****       \arg        USART_INT_FLAG_RT: receiver timeout interrupt flag
1866:../firmware/gd32f3x0_hal_peripheral/Source/gd32f3x0_hal_smartcard.c ****       \arg        USART_INT_FLAG_AM: address match interrupt flag
1867:../firmware/gd32f3x0_hal_peripheral/Source/gd32f3x0_hal_smartcard.c ****       \arg        USART_INT_FLAG_PERR: parity error interrupt flag
1868:../firmware/gd32f3x0_hal_peripheral/Source/gd32f3x0_hal_smartcard.c ****       \arg        USART_INT_FLAG_TBE: transmitter buffer empty interrupt flag
1869:../firmware/gd32f3x0_hal_peripheral/Source/gd32f3x0_hal_smartcard.c ****       \arg        USART_INT_FLAG_TC: transmission complete interrupt flag
1870:../firmware/gd32f3x0_hal_peripheral/Source/gd32f3x0_hal_smartcard.c ****       \arg        USART_INT_FLAG_RBNE: read data buffer not empty interrupt flag
1871:../firmware/gd32f3x0_hal_peripheral/Source/gd32f3x0_hal_smartcard.c ****       \arg        USART_INT_FLAG_RBNE_ORERR: overrun error interrupt flag
1872:../firmware/gd32f3x0_hal_peripheral/Source/gd32f3x0_hal_smartcard.c ****       \arg        USART_INT_FLAG_IDLE: idle line detected interrupt flag
1873:../firmware/gd32f3x0_hal_peripheral/Source/gd32f3x0_hal_smartcard.c ****       \arg        USART_INT_FLAG_LBD: LIN break detected interrupt flag
1874:../firmware/gd32f3x0_hal_peripheral/Source/gd32f3x0_hal_smartcard.c ****       \arg        USART_INT_FLAG_WU: wakeup from deep-sleep mode interrupt flag
1875:../firmware/gd32f3x0_hal_peripheral/Source/gd32f3x0_hal_smartcard.c ****       \arg        USART_INT_FLAG_CTS: CTS interrupt flag
1876:../firmware/gd32f3x0_hal_peripheral/Source/gd32f3x0_hal_smartcard.c ****       \arg        USART_INT_FLAG_ERR_NERR: noise error interrupt flag
1877:../firmware/gd32f3x0_hal_peripheral/Source/gd32f3x0_hal_smartcard.c ****       \arg        USART_INT_FLAG_ERR_ORERR: overrun error interrupt flag
1878:../firmware/gd32f3x0_hal_peripheral/Source/gd32f3x0_hal_smartcard.c ****       \arg        USART_INT_FLAG_ERR_FERR: frame error interrupt flag
1879:../firmware/gd32f3x0_hal_peripheral/Source/gd32f3x0_hal_smartcard.c ****       \arg        USART_INT_FLAG_RFF: receive FIFO full interrupt flag
1880:../firmware/gd32f3x0_hal_peripheral/Source/gd32f3x0_hal_smartcard.c ****     \param[out] none
1881:../firmware/gd32f3x0_hal_peripheral/Source/gd32f3x0_hal_smartcard.c ****     \retval     FlagStatus: SET or RESET
1882:../firmware/gd32f3x0_hal_peripheral/Source/gd32f3x0_hal_smartcard.c **** */
1883:../firmware/gd32f3x0_hal_peripheral/Source/gd32f3x0_hal_smartcard.c **** FlagStatus hals_smartcard_interrupt_flag_get(uint32_t smartcard_periph,
1884:../firmware/gd32f3x0_hal_peripheral/Source/gd32f3x0_hal_smartcard.c ****         usart_interrupt_flag_enum int_flag)
1885:../firmware/gd32f3x0_hal_peripheral/Source/gd32f3x0_hal_smartcard.c **** {
 5433              		.loc 1 1885 1
 5434              		.cfi_startproc
 5435              		@ args = 0, pretend = 0, frame = 16
 5436              		@ frame_needed = 1, uses_anonymous_args = 0
 5437              		@ link register save eliminated.
 5438 0000 80B4     		push	{r7}
 5439              		.cfi_def_cfa_offset 4
 5440              		.cfi_offset 7, -4
 5441 0002 85B0     		sub	sp, sp, #20
 5442              		.cfi_def_cfa_offset 24
 5443 0004 00AF     		add	r7, sp, #0
 5444              		.cfi_def_cfa_register 7
 5445 0006 7860     		str	r0, [r7, #4]
 5446 0008 3960     		str	r1, [r7]
1886:../firmware/gd32f3x0_hal_peripheral/Source/gd32f3x0_hal_smartcard.c ****     uint32_t intenable = 0U, flagstatus = 0U;
 5447              		.loc 1 1886 14
 5448 000a 0023     		movs	r3, #0
 5449 000c FB60     		str	r3, [r7, #12]
 5450              		.loc 1 1886 30
 5451 000e 0023     		movs	r3, #0
 5452 0010 BB60     		str	r3, [r7, #8]
1887:../firmware/gd32f3x0_hal_peripheral/Source/gd32f3x0_hal_smartcard.c ****     /* get the interrupt enable bit status */
1888:../firmware/gd32f3x0_hal_peripheral/Source/gd32f3x0_hal_smartcard.c ****     intenable = (USART_REG_VAL(smartcard_periph, int_flag) & BIT(USART_BIT_POS(int_flag)));
 5453              		.loc 1 1888 18
 5454 0012 3B68     		ldr	r3, [r7]
 5455 0014 9B09     		lsrs	r3, r3, #6
 5456 0016 C3F30902 		ubfx	r2, r3, #0, #10
 5457 001a 7B68     		ldr	r3, [r7, #4]
 5458 001c 1344     		add	r3, r3, r2
 5459 001e 1A68     		ldr	r2, [r3]
 5460              		.loc 1 1888 62
 5461 0020 3B68     		ldr	r3, [r7]
 5462 0022 03F01F03 		and	r3, r3, #31
 5463 0026 0121     		movs	r1, #1
 5464 0028 01FA03F3 		lsl	r3, r1, r3
 5465              		.loc 1 1888 15
 5466 002c 1340     		ands	r3, r3, r2
 5467 002e FB60     		str	r3, [r7, #12]
1889:../firmware/gd32f3x0_hal_peripheral/Source/gd32f3x0_hal_smartcard.c ****     /* get the corresponding flag bit status */
1890:../firmware/gd32f3x0_hal_peripheral/Source/gd32f3x0_hal_smartcard.c ****     flagstatus = (USART_REG_VAL2(smartcard_periph, int_flag) & BIT(USART_BIT_POS2(int_flag)));
 5468              		.loc 1 1890 19
 5469 0030 3B68     		ldr	r3, [r7]
 5470 0032 9A0D     		lsrs	r2, r3, #22
 5471 0034 7B68     		ldr	r3, [r7, #4]
 5472 0036 1344     		add	r3, r3, r2
 5473 0038 1A68     		ldr	r2, [r3]
 5474              		.loc 1 1890 64
 5475 003a 3B68     		ldr	r3, [r7]
 5476 003c 1B0C     		lsrs	r3, r3, #16
 5477 003e 03F01F03 		and	r3, r3, #31
 5478 0042 0121     		movs	r1, #1
 5479 0044 01FA03F3 		lsl	r3, r1, r3
 5480              		.loc 1 1890 16
 5481 0048 1340     		ands	r3, r3, r2
 5482 004a BB60     		str	r3, [r7, #8]
1891:../firmware/gd32f3x0_hal_peripheral/Source/gd32f3x0_hal_smartcard.c **** 
1892:../firmware/gd32f3x0_hal_peripheral/Source/gd32f3x0_hal_smartcard.c ****     if(flagstatus && intenable) {
 5483              		.loc 1 1892 7
 5484 004c BB68     		ldr	r3, [r7, #8]
 5485 004e 002B     		cmp	r3, #0
 5486 0050 04D0     		beq	.L215
 5487              		.loc 1 1892 19 discriminator 1
 5488 0052 FB68     		ldr	r3, [r7, #12]
 5489 0054 002B     		cmp	r3, #0
 5490 0056 01D0     		beq	.L215
1893:../firmware/gd32f3x0_hal_peripheral/Source/gd32f3x0_hal_smartcard.c ****         return SET;
 5491              		.loc 1 1893 16
 5492 0058 0123     		movs	r3, #1
 5493 005a 00E0     		b	.L216
 5494              	.L215:
1894:../firmware/gd32f3x0_hal_peripheral/Source/gd32f3x0_hal_smartcard.c ****     } else {
1895:../firmware/gd32f3x0_hal_peripheral/Source/gd32f3x0_hal_smartcard.c ****         return RESET;
 5495              		.loc 1 1895 16
 5496 005c 0023     		movs	r3, #0
 5497              	.L216:
1896:../firmware/gd32f3x0_hal_peripheral/Source/gd32f3x0_hal_smartcard.c ****     }
1897:../firmware/gd32f3x0_hal_peripheral/Source/gd32f3x0_hal_smartcard.c **** }
 5498              		.loc 1 1897 1
 5499 005e 1846     		mov	r0, r3
 5500 0060 1437     		adds	r7, r7, #20
 5501              		.cfi_def_cfa_offset 4
 5502 0062 BD46     		mov	sp, r7
 5503              		.cfi_def_cfa_register 13
 5504              		@ sp needed
 5505 0064 80BC     		pop	{r7}
 5506              		.cfi_restore 7
 5507              		.cfi_def_cfa_offset 0
 5508 0066 7047     		bx	lr
 5509              		.cfi_endproc
 5510              	.LFE177:
 5512              		.section	.text.hals_smartcard_interrupt_flag_clear,"ax",%progbits
 5513              		.align	1
 5514              		.global	hals_smartcard_interrupt_flag_clear
 5515              		.syntax unified
 5516              		.thumb
 5517              		.thumb_func
 5518              		.fpu softvfp
 5520              	hals_smartcard_interrupt_flag_clear:
 5521              	.LFB178:
1898:../firmware/gd32f3x0_hal_peripheral/Source/gd32f3x0_hal_smartcard.c **** 
1899:../firmware/gd32f3x0_hal_peripheral/Source/gd32f3x0_hal_smartcard.c **** /*!
1900:../firmware/gd32f3x0_hal_peripheral/Source/gd32f3x0_hal_smartcard.c ****     \brief      clear SMARTCARD interrupt flag
1901:../firmware/gd32f3x0_hal_peripheral/Source/gd32f3x0_hal_smartcard.c ****     \param[in]  smartcard_periph: USARTx(x=0,1)
1902:../firmware/gd32f3x0_hal_peripheral/Source/gd32f3x0_hal_smartcard.c ****     \param[in]  flag: SMARTCARD interrupt flag
1903:../firmware/gd32f3x0_hal_peripheral/Source/gd32f3x0_hal_smartcard.c ****                 only one parameter can be selected which is shown as below:
1904:../firmware/gd32f3x0_hal_peripheral/Source/gd32f3x0_hal_smartcard.c ****       \arg        USART_INT_FLAG_EB: end of block interrupt flag
1905:../firmware/gd32f3x0_hal_peripheral/Source/gd32f3x0_hal_smartcard.c ****       \arg        USART_INT_FLAG_RT: receiver timeout interrupt flag
1906:../firmware/gd32f3x0_hal_peripheral/Source/gd32f3x0_hal_smartcard.c ****       \arg        USART_INT_FLAG_AM: address match interrupt flag
1907:../firmware/gd32f3x0_hal_peripheral/Source/gd32f3x0_hal_smartcard.c ****       \arg        USART_INT_FLAG_PERR: parity error interrupt flag
1908:../firmware/gd32f3x0_hal_peripheral/Source/gd32f3x0_hal_smartcard.c ****       \arg        USART_INT_FLAG_TC: transmission complete interrupt flag
1909:../firmware/gd32f3x0_hal_peripheral/Source/gd32f3x0_hal_smartcard.c ****       \arg        USART_INT_FLAG_RBNE_ORERR: overrun error interrupt flag
1910:../firmware/gd32f3x0_hal_peripheral/Source/gd32f3x0_hal_smartcard.c ****       \arg        USART_INT_FLAG_IDLE: idle line detected interrupt flag
1911:../firmware/gd32f3x0_hal_peripheral/Source/gd32f3x0_hal_smartcard.c ****       \arg        USART_INT_FLAG_LBD: LIN break detected interrupt flag
1912:../firmware/gd32f3x0_hal_peripheral/Source/gd32f3x0_hal_smartcard.c ****       \arg        USART_INT_FLAG_WU: wakeup from deep-sleep mode interrupt flag
1913:../firmware/gd32f3x0_hal_peripheral/Source/gd32f3x0_hal_smartcard.c ****       \arg        USART_INT_FLAG_CTS: CTS change interrupt flag
1914:../firmware/gd32f3x0_hal_peripheral/Source/gd32f3x0_hal_smartcard.c ****       \arg        USART_INT_FLAG_ERR_FERR: frame error interrupt flag
1915:../firmware/gd32f3x0_hal_peripheral/Source/gd32f3x0_hal_smartcard.c ****       \arg        USART_INT_FLAG_ERR_NERR: noise detected interrupt flag
1916:../firmware/gd32f3x0_hal_peripheral/Source/gd32f3x0_hal_smartcard.c ****       \arg        USART_INT_FLAG_ERR_ORERR: overrun error interrupt flag
1917:../firmware/gd32f3x0_hal_peripheral/Source/gd32f3x0_hal_smartcard.c ****       \arg        USART_INT_FLAG_RFF: receive FIFO full interrupt flag
1918:../firmware/gd32f3x0_hal_peripheral/Source/gd32f3x0_hal_smartcard.c ****     \param[out] none
1919:../firmware/gd32f3x0_hal_peripheral/Source/gd32f3x0_hal_smartcard.c ****     \retval     none
1920:../firmware/gd32f3x0_hal_peripheral/Source/gd32f3x0_hal_smartcard.c **** */
1921:../firmware/gd32f3x0_hal_peripheral/Source/gd32f3x0_hal_smartcard.c **** void hals_smartcard_interrupt_flag_clear(uint32_t smartcard_periph,
1922:../firmware/gd32f3x0_hal_peripheral/Source/gd32f3x0_hal_smartcard.c ****         usart_interrupt_flag_enum int_flag)
1923:../firmware/gd32f3x0_hal_peripheral/Source/gd32f3x0_hal_smartcard.c **** {
 5522              		.loc 1 1923 1
 5523              		.cfi_startproc
 5524              		@ args = 0, pretend = 0, frame = 8
 5525              		@ frame_needed = 1, uses_anonymous_args = 0
 5526              		@ link register save eliminated.
 5527 0000 80B4     		push	{r7}
 5528              		.cfi_def_cfa_offset 4
 5529              		.cfi_offset 7, -4
 5530 0002 83B0     		sub	sp, sp, #12
 5531              		.cfi_def_cfa_offset 16
 5532 0004 00AF     		add	r7, sp, #0
 5533              		.cfi_def_cfa_register 7
 5534 0006 7860     		str	r0, [r7, #4]
 5535 0008 3960     		str	r1, [r7]
1924:../firmware/gd32f3x0_hal_peripheral/Source/gd32f3x0_hal_smartcard.c ****     if(USART_INT_FLAG_RFF == int_flag) {
 5536              		.loc 1 1924 7
 5537 000a 3B68     		ldr	r3, [r7]
 5538 000c 0F4A     		ldr	r2, .L221
 5539 000e 9342     		cmp	r3, r2
 5540 0010 08D1     		bne	.L218
1925:../firmware/gd32f3x0_hal_peripheral/Source/gd32f3x0_hal_smartcard.c ****         USART_RFCS(smartcard_periph) &= (uint32_t)(~USART_RFCS_RFFINT);
 5541              		.loc 1 1925 38
 5542 0012 7B68     		ldr	r3, [r7, #4]
 5543 0014 D033     		adds	r3, r3, #208
 5544 0016 1B68     		ldr	r3, [r3]
 5545 0018 7A68     		ldr	r2, [r7, #4]
 5546 001a D032     		adds	r2, r2, #208
 5547 001c 23F40043 		bic	r3, r3, #32768
 5548 0020 1360     		str	r3, [r2]
1926:../firmware/gd32f3x0_hal_peripheral/Source/gd32f3x0_hal_smartcard.c ****     } else {
1927:../firmware/gd32f3x0_hal_peripheral/Source/gd32f3x0_hal_smartcard.c ****         USART_INTC(smartcard_periph) |= BIT(USART_BIT_POS2(int_flag));
1928:../firmware/gd32f3x0_hal_peripheral/Source/gd32f3x0_hal_smartcard.c ****     }
1929:../firmware/gd32f3x0_hal_peripheral/Source/gd32f3x0_hal_smartcard.c **** }
 5549              		.loc 1 1929 1
 5550 0022 0DE0     		b	.L220
 5551              	.L218:
1927:../firmware/gd32f3x0_hal_peripheral/Source/gd32f3x0_hal_smartcard.c ****     }
 5552              		.loc 1 1927 38
 5553 0024 7B68     		ldr	r3, [r7, #4]
 5554 0026 2033     		adds	r3, r3, #32
 5555 0028 1A68     		ldr	r2, [r3]
1927:../firmware/gd32f3x0_hal_peripheral/Source/gd32f3x0_hal_smartcard.c ****     }
 5556              		.loc 1 1927 41
 5557 002a 3B68     		ldr	r3, [r7]
 5558 002c 1B0C     		lsrs	r3, r3, #16
 5559 002e 03F01F03 		and	r3, r3, #31
 5560 0032 0121     		movs	r1, #1
 5561 0034 01FA03F3 		lsl	r3, r1, r3
1927:../firmware/gd32f3x0_hal_peripheral/Source/gd32f3x0_hal_smartcard.c ****     }
 5562              		.loc 1 1927 38
 5563 0038 7968     		ldr	r1, [r7, #4]
 5564 003a 2031     		adds	r1, r1, #32
 5565 003c 1343     		orrs	r3, r3, r2
 5566 003e 0B60     		str	r3, [r1]
 5567              	.L220:
 5568              		.loc 1 1929 1
 5569 0040 00BF     		nop
 5570 0042 0C37     		adds	r7, r7, #12
 5571              		.cfi_def_cfa_offset 4
 5572 0044 BD46     		mov	sp, r7
 5573              		.cfi_def_cfa_register 13
 5574              		@ sp needed
 5575 0046 80BC     		pop	{r7}
 5576              		.cfi_restore 7
 5577              		.cfi_def_cfa_offset 0
 5578 0048 7047     		bx	lr
 5579              	.L222:
 5580 004a 00BF     		.align	2
 5581              	.L221:
 5582 004c 09340F34 		.word	873411593
 5583              		.cfi_endproc
 5584              	.LFE178:
 5586              		.section	.text._smartcard_error_flag_get,"ax",%progbits
 5587              		.align	1
 5588              		.syntax unified
 5589              		.thumb
 5590              		.thumb_func
 5591              		.fpu softvfp
 5593              	_smartcard_error_flag_get:
 5594              	.LFB179:
1930:../firmware/gd32f3x0_hal_peripheral/Source/gd32f3x0_hal_smartcard.c **** 
1931:../firmware/gd32f3x0_hal_peripheral/Source/gd32f3x0_hal_smartcard.c **** /*!
1932:../firmware/gd32f3x0_hal_peripheral/Source/gd32f3x0_hal_smartcard.c ****     \brief      get smartcard error status
1933:../firmware/gd32f3x0_hal_peripheral/Source/gd32f3x0_hal_smartcard.c ****     \param[in]  smartcard: smartcard device information structure
1934:../firmware/gd32f3x0_hal_peripheral/Source/gd32f3x0_hal_smartcard.c ****                     the structure is not necessary to be reconfigured after structrue initializatio
1935:../firmware/gd32f3x0_hal_peripheral/Source/gd32f3x0_hal_smartcard.c ****                     the structure parameters altering is automatically configured by core
1936:../firmware/gd32f3x0_hal_peripheral/Source/gd32f3x0_hal_smartcard.c ****     \param[out] none
1937:../firmware/gd32f3x0_hal_peripheral/Source/gd32f3x0_hal_smartcard.c ****     \retval     error status: RESET or SET
1938:../firmware/gd32f3x0_hal_peripheral/Source/gd32f3x0_hal_smartcard.c **** */
1939:../firmware/gd32f3x0_hal_peripheral/Source/gd32f3x0_hal_smartcard.c **** static FlagStatus _smartcard_error_flag_get(hal_smartcard_dev_struct *smartcard)
1940:../firmware/gd32f3x0_hal_peripheral/Source/gd32f3x0_hal_smartcard.c **** {
 5595              		.loc 1 1940 1
 5596              		.cfi_startproc
 5597              		@ args = 0, pretend = 0, frame = 8
 5598              		@ frame_needed = 1, uses_anonymous_args = 0
 5599              		@ link register save eliminated.
 5600 0000 80B4     		push	{r7}
 5601              		.cfi_def_cfa_offset 4
 5602              		.cfi_offset 7, -4
 5603 0002 83B0     		sub	sp, sp, #12
 5604              		.cfi_def_cfa_offset 16
 5605 0004 00AF     		add	r7, sp, #0
 5606              		.cfi_def_cfa_register 7
 5607 0006 7860     		str	r0, [r7, #4]
1941:../firmware/gd32f3x0_hal_peripheral/Source/gd32f3x0_hal_smartcard.c ****     if(0U == (USART_STAT(smartcard->periph) & (uint32_t)(USART_STAT_PERR | USART_STAT_FERR | \
 5608              		.loc 1 1941 15
 5609 0008 7B68     		ldr	r3, [r7, #4]
 5610 000a 1B68     		ldr	r3, [r3]
 5611 000c 1C33     		adds	r3, r3, #28
 5612 000e 1A68     		ldr	r2, [r3]
 5613              		.loc 1 1941 45
 5614 0010 40F60F03 		movw	r3, #2063
 5615 0014 1340     		ands	r3, r3, r2
 5616              		.loc 1 1941 7
 5617 0016 002B     		cmp	r3, #0
 5618 0018 01D1     		bne	.L224
1942:../firmware/gd32f3x0_hal_peripheral/Source/gd32f3x0_hal_smartcard.c ****               USART_STAT_ORERR | USART_STAT_NERR | USART_STAT_RTF))) {
1943:../firmware/gd32f3x0_hal_peripheral/Source/gd32f3x0_hal_smartcard.c ****         return RESET;
 5619              		.loc 1 1943 16
 5620 001a 0023     		movs	r3, #0
 5621 001c 00E0     		b	.L225
 5622              	.L224:
1944:../firmware/gd32f3x0_hal_peripheral/Source/gd32f3x0_hal_smartcard.c ****     } else {
1945:../firmware/gd32f3x0_hal_peripheral/Source/gd32f3x0_hal_smartcard.c ****         return SET;
 5623              		.loc 1 1945 16
 5624 001e 0123     		movs	r3, #1
 5625              	.L225:
1946:../firmware/gd32f3x0_hal_peripheral/Source/gd32f3x0_hal_smartcard.c ****     }
1947:../firmware/gd32f3x0_hal_peripheral/Source/gd32f3x0_hal_smartcard.c **** }
 5626              		.loc 1 1947 1
 5627 0020 1846     		mov	r0, r3
 5628 0022 0C37     		adds	r7, r7, #12
 5629              		.cfi_def_cfa_offset 4
 5630 0024 BD46     		mov	sp, r7
 5631              		.cfi_def_cfa_register 13
 5632              		@ sp needed
 5633 0026 80BC     		pop	{r7}
 5634              		.cfi_restore 7
 5635              		.cfi_def_cfa_offset 0
 5636 0028 7047     		bx	lr
 5637              		.cfi_endproc
 5638              	.LFE179:
 5640              		.section	.text._smartcard_transmit_complete_interrupt,"ax",%progbits
 5641              		.align	1
 5642              		.syntax unified
 5643              		.thumb
 5644              		.thumb_func
 5645              		.fpu softvfp
 5647              	_smartcard_transmit_complete_interrupt:
 5648              	.LFB180:
1948:../firmware/gd32f3x0_hal_peripheral/Source/gd32f3x0_hal_smartcard.c **** 
1949:../firmware/gd32f3x0_hal_peripheral/Source/gd32f3x0_hal_smartcard.c **** /*!
1950:../firmware/gd32f3x0_hal_peripheral/Source/gd32f3x0_hal_smartcard.c ****     \brief      smartcard transmit complete interrupt handler
1951:../firmware/gd32f3x0_hal_peripheral/Source/gd32f3x0_hal_smartcard.c ****     \param[in]  smartcard: smartcard device information structure
1952:../firmware/gd32f3x0_hal_peripheral/Source/gd32f3x0_hal_smartcard.c ****                     the structure is not necessary to be reconfigured after structrue initializatio
1953:../firmware/gd32f3x0_hal_peripheral/Source/gd32f3x0_hal_smartcard.c ****                     the structure parameters altering is automatically configured by core
1954:../firmware/gd32f3x0_hal_peripheral/Source/gd32f3x0_hal_smartcard.c ****     \param[out] none
1955:../firmware/gd32f3x0_hal_peripheral/Source/gd32f3x0_hal_smartcard.c ****     \retval     none
1956:../firmware/gd32f3x0_hal_peripheral/Source/gd32f3x0_hal_smartcard.c **** */
1957:../firmware/gd32f3x0_hal_peripheral/Source/gd32f3x0_hal_smartcard.c **** static void _smartcard_transmit_complete_interrupt(void *smartcard)
1958:../firmware/gd32f3x0_hal_peripheral/Source/gd32f3x0_hal_smartcard.c **** {
 5649              		.loc 1 1958 1
 5650              		.cfi_startproc
 5651              		@ args = 0, pretend = 0, frame = 16
 5652              		@ frame_needed = 1, uses_anonymous_args = 0
 5653 0000 80B5     		push	{r7, lr}
 5654              		.cfi_def_cfa_offset 8
 5655              		.cfi_offset 7, -8
 5656              		.cfi_offset 14, -4
 5657 0002 84B0     		sub	sp, sp, #16
 5658              		.cfi_def_cfa_offset 24
 5659 0004 00AF     		add	r7, sp, #0
 5660              		.cfi_def_cfa_register 7
 5661 0006 7860     		str	r0, [r7, #4]
1959:../firmware/gd32f3x0_hal_peripheral/Source/gd32f3x0_hal_smartcard.c ****     hal_smartcard_dev_struct *p_smartcard = smartcard;
 5662              		.loc 1 1959 31
 5663 0008 7B68     		ldr	r3, [r7, #4]
 5664 000a FB60     		str	r3, [r7, #12]
1960:../firmware/gd32f3x0_hal_peripheral/Source/gd32f3x0_hal_smartcard.c ****     hal_smartcard_user_cb p_func = (hal_smartcard_user_cb)p_smartcard->tx_callback;
 5665              		.loc 1 1960 70
 5666 000c FB68     		ldr	r3, [r7, #12]
 5667 000e 1B6C     		ldr	r3, [r3, #64]
 5668              		.loc 1 1960 27
 5669 0010 BB60     		str	r3, [r7, #8]
1961:../firmware/gd32f3x0_hal_peripheral/Source/gd32f3x0_hal_smartcard.c **** 
1962:../firmware/gd32f3x0_hal_peripheral/Source/gd32f3x0_hal_smartcard.c ****     /* disable usart transmit complete interrupt */
1963:../firmware/gd32f3x0_hal_peripheral/Source/gd32f3x0_hal_smartcard.c ****     hals_smartcard_interrupt_disable(p_smartcard->periph, USART_INT_TC);
 5670              		.loc 1 1963 5
 5671 0012 FB68     		ldr	r3, [r7, #12]
 5672 0014 1B68     		ldr	r3, [r3]
 5673 0016 0621     		movs	r1, #6
 5674 0018 1846     		mov	r0, r3
 5675 001a FFF7FEFF 		bl	hals_smartcard_interrupt_disable
1964:../firmware/gd32f3x0_hal_peripheral/Source/gd32f3x0_hal_smartcard.c **** 
1965:../firmware/gd32f3x0_hal_peripheral/Source/gd32f3x0_hal_smartcard.c ****     /* check receive state, if free then disable ERR interrupt */
1966:../firmware/gd32f3x0_hal_peripheral/Source/gd32f3x0_hal_smartcard.c ****     if(SMARTCARD_STATE_FREE == p_smartcard->rx_state) {
 5676              		.loc 1 1966 43
 5677 001e FB68     		ldr	r3, [r7, #12]
 5678 0020 93F83930 		ldrb	r3, [r3, #57]
 5679 0024 DBB2     		uxtb	r3, r3
 5680              		.loc 1 1966 7
 5681 0026 002B     		cmp	r3, #0
 5682 0028 06D1     		bne	.L227
1967:../firmware/gd32f3x0_hal_peripheral/Source/gd32f3x0_hal_smartcard.c ****         hals_smartcard_interrupt_disable(p_smartcard->periph, USART_INT_ERR);
 5683              		.loc 1 1967 9
 5684 002a FB68     		ldr	r3, [r7, #12]
 5685 002c 1B68     		ldr	r3, [r3]
 5686 002e 4FF40071 		mov	r1, #512
 5687 0032 1846     		mov	r0, r3
 5688 0034 FFF7FEFF 		bl	hals_smartcard_interrupt_disable
 5689              	.L227:
1968:../firmware/gd32f3x0_hal_peripheral/Source/gd32f3x0_hal_smartcard.c ****     }
1969:../firmware/gd32f3x0_hal_peripheral/Source/gd32f3x0_hal_smartcard.c **** 
1970:../firmware/gd32f3x0_hal_peripheral/Source/gd32f3x0_hal_smartcard.c ****     /* clear transmit complete callback pointer */
1971:../firmware/gd32f3x0_hal_peripheral/Source/gd32f3x0_hal_smartcard.c ****     p_smartcard->smartcard_irq.transmit_complete_handle = NULL;
 5690              		.loc 1 1971 57
 5691 0038 FB68     		ldr	r3, [r7, #12]
 5692 003a 0022     		movs	r2, #0
 5693 003c DA60     		str	r2, [r3, #12]
1972:../firmware/gd32f3x0_hal_peripheral/Source/gd32f3x0_hal_smartcard.c **** 
1973:../firmware/gd32f3x0_hal_peripheral/Source/gd32f3x0_hal_smartcard.c ****     /* re-enable receive */
1974:../firmware/gd32f3x0_hal_peripheral/Source/gd32f3x0_hal_smartcard.c ****     hals_smartcard_receive_config(p_smartcard->periph, USART_RECEIVE_ENABLE);
 5694              		.loc 1 1974 5
 5695 003e FB68     		ldr	r3, [r7, #12]
 5696 0040 1B68     		ldr	r3, [r3]
 5697 0042 0421     		movs	r1, #4
 5698 0044 1846     		mov	r0, r3
 5699 0046 FFF7FEFF 		bl	hals_smartcard_receive_config
1975:../firmware/gd32f3x0_hal_peripheral/Source/gd32f3x0_hal_smartcard.c **** 
1976:../firmware/gd32f3x0_hal_peripheral/Source/gd32f3x0_hal_smartcard.c ****     /* change the Tx state to free */
1977:../firmware/gd32f3x0_hal_peripheral/Source/gd32f3x0_hal_smartcard.c ****     p_smartcard->tx_state = SMARTCARD_STATE_FREE;
 5700              		.loc 1 1977 27
 5701 004a FB68     		ldr	r3, [r7, #12]
 5702 004c 0022     		movs	r2, #0
 5703 004e 83F83820 		strb	r2, [r3, #56]
1978:../firmware/gd32f3x0_hal_peripheral/Source/gd32f3x0_hal_smartcard.c **** 
1979:../firmware/gd32f3x0_hal_peripheral/Source/gd32f3x0_hal_smartcard.c ****     if(NULL != p_func) {
 5704              		.loc 1 1979 7
 5705 0052 BB68     		ldr	r3, [r7, #8]
 5706 0054 002B     		cmp	r3, #0
 5707 0056 02D0     		beq	.L229
1980:../firmware/gd32f3x0_hal_peripheral/Source/gd32f3x0_hal_smartcard.c ****         p_func(p_smartcard);
 5708              		.loc 1 1980 9
 5709 0058 BB68     		ldr	r3, [r7, #8]
 5710 005a F868     		ldr	r0, [r7, #12]
 5711 005c 9847     		blx	r3
 5712              	.LVL4:
 5713              	.L229:
1981:../firmware/gd32f3x0_hal_peripheral/Source/gd32f3x0_hal_smartcard.c ****     }
1982:../firmware/gd32f3x0_hal_peripheral/Source/gd32f3x0_hal_smartcard.c **** }
 5714              		.loc 1 1982 1
 5715 005e 00BF     		nop
 5716 0060 1037     		adds	r7, r7, #16
 5717              		.cfi_def_cfa_offset 8
 5718 0062 BD46     		mov	sp, r7
 5719              		.cfi_def_cfa_register 13
 5720              		@ sp needed
 5721 0064 80BD     		pop	{r7, pc}
 5722              		.cfi_endproc
 5723              	.LFE180:
 5725              		.section	.text._smartcard_transmit_interrupt,"ax",%progbits
 5726              		.align	1
 5727              		.syntax unified
 5728              		.thumb
 5729              		.thumb_func
 5730              		.fpu softvfp
 5732              	_smartcard_transmit_interrupt:
 5733              	.LFB181:
1983:../firmware/gd32f3x0_hal_peripheral/Source/gd32f3x0_hal_smartcard.c **** 
1984:../firmware/gd32f3x0_hal_peripheral/Source/gd32f3x0_hal_smartcard.c **** /*!
1985:../firmware/gd32f3x0_hal_peripheral/Source/gd32f3x0_hal_smartcard.c ****     \brief      smartcard transmit interrupt handler
1986:../firmware/gd32f3x0_hal_peripheral/Source/gd32f3x0_hal_smartcard.c ****     \param[in]  smartcard: smartcard device information structure
1987:../firmware/gd32f3x0_hal_peripheral/Source/gd32f3x0_hal_smartcard.c ****                     the structure is not necessary to be reconfigured after structrue initializatio
1988:../firmware/gd32f3x0_hal_peripheral/Source/gd32f3x0_hal_smartcard.c ****                     the structure parameters altering is automatically configured by core
1989:../firmware/gd32f3x0_hal_peripheral/Source/gd32f3x0_hal_smartcard.c ****     \param[out] none
1990:../firmware/gd32f3x0_hal_peripheral/Source/gd32f3x0_hal_smartcard.c ****     \retval     none
1991:../firmware/gd32f3x0_hal_peripheral/Source/gd32f3x0_hal_smartcard.c **** */
1992:../firmware/gd32f3x0_hal_peripheral/Source/gd32f3x0_hal_smartcard.c **** static void _smartcard_transmit_interrupt(void *smartcard)
1993:../firmware/gd32f3x0_hal_peripheral/Source/gd32f3x0_hal_smartcard.c **** {
 5734              		.loc 1 1993 1
 5735              		.cfi_startproc
 5736              		@ args = 0, pretend = 0, frame = 16
 5737              		@ frame_needed = 1, uses_anonymous_args = 0
 5738 0000 80B5     		push	{r7, lr}
 5739              		.cfi_def_cfa_offset 8
 5740              		.cfi_offset 7, -8
 5741              		.cfi_offset 14, -4
 5742 0002 84B0     		sub	sp, sp, #16
 5743              		.cfi_def_cfa_offset 24
 5744 0004 00AF     		add	r7, sp, #0
 5745              		.cfi_def_cfa_register 7
 5746 0006 7860     		str	r0, [r7, #4]
1994:../firmware/gd32f3x0_hal_peripheral/Source/gd32f3x0_hal_smartcard.c ****     hal_smartcard_dev_struct *p_smartcard = smartcard;
 5747              		.loc 1 1994 31
 5748 0008 7B68     		ldr	r3, [r7, #4]
 5749 000a FB60     		str	r3, [r7, #12]
1995:../firmware/gd32f3x0_hal_peripheral/Source/gd32f3x0_hal_smartcard.c ****     uint32_t length = p_smartcard->txbuffer.length;
 5750              		.loc 1 1995 14
 5751 000c FB68     		ldr	r3, [r7, #12]
 5752 000e 1B6A     		ldr	r3, [r3, #32]
 5753 0010 BB60     		str	r3, [r7, #8]
1996:../firmware/gd32f3x0_hal_peripheral/Source/gd32f3x0_hal_smartcard.c **** 
1997:../firmware/gd32f3x0_hal_peripheral/Source/gd32f3x0_hal_smartcard.c ****     /* Check the remain data to be transmitted */
1998:../firmware/gd32f3x0_hal_peripheral/Source/gd32f3x0_hal_smartcard.c ****     if(p_smartcard->txbuffer.pos < length) {
 5754              		.loc 1 1998 29
 5755 0012 FB68     		ldr	r3, [r7, #12]
 5756 0014 5B6A     		ldr	r3, [r3, #36]
 5757              		.loc 1 1998 7
 5758 0016 BA68     		ldr	r2, [r7, #8]
 5759 0018 9A42     		cmp	r2, r3
 5760 001a 15D9     		bls	.L231
1999:../firmware/gd32f3x0_hal_peripheral/Source/gd32f3x0_hal_smartcard.c ****         hals_smartcard_data_transmit(p_smartcard->periph, (*p_smartcard->txbuffer.buffer & (uint8_t
 5761              		.loc 1 1999 9
 5762 001c FB68     		ldr	r3, [r7, #12]
 5763 001e 1A68     		ldr	r2, [r3]
 5764              		.loc 1 1999 82
 5765 0020 FB68     		ldr	r3, [r7, #12]
 5766 0022 DB69     		ldr	r3, [r3, #28]
 5767              		.loc 1 1999 60
 5768 0024 1B78     		ldrb	r3, [r3]
 5769 0026 DBB2     		uxtb	r3, r3
 5770              		.loc 1 1999 9
 5771 0028 9BB2     		uxth	r3, r3
 5772 002a 1946     		mov	r1, r3
 5773 002c 1046     		mov	r0, r2
 5774 002e FFF7FEFF 		bl	hals_smartcard_data_transmit
2000:../firmware/gd32f3x0_hal_peripheral/Source/gd32f3x0_hal_smartcard.c ****         p_smartcard->txbuffer.buffer++;
 5775              		.loc 1 2000 30
 5776 0032 FB68     		ldr	r3, [r7, #12]
 5777 0034 DB69     		ldr	r3, [r3, #28]
 5778              		.loc 1 2000 37
 5779 0036 5A1C     		adds	r2, r3, #1
 5780 0038 FB68     		ldr	r3, [r7, #12]
 5781 003a DA61     		str	r2, [r3, #28]
2001:../firmware/gd32f3x0_hal_peripheral/Source/gd32f3x0_hal_smartcard.c ****         p_smartcard->txbuffer.pos++;
 5782              		.loc 1 2001 30
 5783 003c FB68     		ldr	r3, [r7, #12]
 5784 003e 5B6A     		ldr	r3, [r3, #36]
 5785              		.loc 1 2001 34
 5786 0040 5A1C     		adds	r2, r3, #1
 5787 0042 FB68     		ldr	r3, [r7, #12]
 5788 0044 5A62     		str	r2, [r3, #36]
2002:../firmware/gd32f3x0_hal_peripheral/Source/gd32f3x0_hal_smartcard.c ****     } else {
2003:../firmware/gd32f3x0_hal_peripheral/Source/gd32f3x0_hal_smartcard.c ****         /* disable TBE interrupt and enable TC interrupt */
2004:../firmware/gd32f3x0_hal_peripheral/Source/gd32f3x0_hal_smartcard.c ****         hals_smartcard_interrupt_disable(p_smartcard->periph, USART_INT_TBE);
2005:../firmware/gd32f3x0_hal_peripheral/Source/gd32f3x0_hal_smartcard.c ****         hals_smartcard_interrupt_enable(p_smartcard->periph, USART_INT_TC);
2006:../firmware/gd32f3x0_hal_peripheral/Source/gd32f3x0_hal_smartcard.c **** 
2007:../firmware/gd32f3x0_hal_peripheral/Source/gd32f3x0_hal_smartcard.c ****         p_smartcard->smartcard_irq.transmit_ready_handle = NULL;
2008:../firmware/gd32f3x0_hal_peripheral/Source/gd32f3x0_hal_smartcard.c ****     }
2009:../firmware/gd32f3x0_hal_peripheral/Source/gd32f3x0_hal_smartcard.c **** }
 5789              		.loc 1 2009 1
 5790 0046 0EE0     		b	.L233
 5791              	.L231:
2004:../firmware/gd32f3x0_hal_peripheral/Source/gd32f3x0_hal_smartcard.c ****         hals_smartcard_interrupt_enable(p_smartcard->periph, USART_INT_TC);
 5792              		.loc 1 2004 9
 5793 0048 FB68     		ldr	r3, [r7, #12]
 5794 004a 1B68     		ldr	r3, [r3]
 5795 004c 0721     		movs	r1, #7
 5796 004e 1846     		mov	r0, r3
 5797 0050 FFF7FEFF 		bl	hals_smartcard_interrupt_disable
2005:../firmware/gd32f3x0_hal_peripheral/Source/gd32f3x0_hal_smartcard.c **** 
 5798              		.loc 1 2005 9
 5799 0054 FB68     		ldr	r3, [r7, #12]
 5800 0056 1B68     		ldr	r3, [r3]
 5801 0058 0621     		movs	r1, #6
 5802 005a 1846     		mov	r0, r3
 5803 005c FFF7FEFF 		bl	hals_smartcard_interrupt_enable
2007:../firmware/gd32f3x0_hal_peripheral/Source/gd32f3x0_hal_smartcard.c ****     }
 5804              		.loc 1 2007 58
 5805 0060 FB68     		ldr	r3, [r7, #12]
 5806 0062 0022     		movs	r2, #0
 5807 0064 9A60     		str	r2, [r3, #8]
 5808              	.L233:
 5809              		.loc 1 2009 1
 5810 0066 00BF     		nop
 5811 0068 1037     		adds	r7, r7, #16
 5812              		.cfi_def_cfa_offset 8
 5813 006a BD46     		mov	sp, r7
 5814              		.cfi_def_cfa_register 13
 5815              		@ sp needed
 5816 006c 80BD     		pop	{r7, pc}
 5817              		.cfi_endproc
 5818              	.LFE181:
 5820              		.section	.text._smartcard_receive_interrupt,"ax",%progbits
 5821              		.align	1
 5822              		.syntax unified
 5823              		.thumb
 5824              		.thumb_func
 5825              		.fpu softvfp
 5827              	_smartcard_receive_interrupt:
 5828              	.LFB182:
2010:../firmware/gd32f3x0_hal_peripheral/Source/gd32f3x0_hal_smartcard.c **** 
2011:../firmware/gd32f3x0_hal_peripheral/Source/gd32f3x0_hal_smartcard.c **** /*!
2012:../firmware/gd32f3x0_hal_peripheral/Source/gd32f3x0_hal_smartcard.c ****     \brief      smartcard receive interrupt handler
2013:../firmware/gd32f3x0_hal_peripheral/Source/gd32f3x0_hal_smartcard.c ****     \param[in]  smartcard: smartcard device information structure
2014:../firmware/gd32f3x0_hal_peripheral/Source/gd32f3x0_hal_smartcard.c ****                     the structure is not necessary to be reconfigured after structrue initializatio
2015:../firmware/gd32f3x0_hal_peripheral/Source/gd32f3x0_hal_smartcard.c ****                     the structure parameters altering is automatically configured by core
2016:../firmware/gd32f3x0_hal_peripheral/Source/gd32f3x0_hal_smartcard.c ****     \param[out] none
2017:../firmware/gd32f3x0_hal_peripheral/Source/gd32f3x0_hal_smartcard.c ****     \retval     none
2018:../firmware/gd32f3x0_hal_peripheral/Source/gd32f3x0_hal_smartcard.c **** */
2019:../firmware/gd32f3x0_hal_peripheral/Source/gd32f3x0_hal_smartcard.c **** static void _smartcard_receive_interrupt(void *smartcard)
2020:../firmware/gd32f3x0_hal_peripheral/Source/gd32f3x0_hal_smartcard.c **** {
 5829              		.loc 1 2020 1
 5830              		.cfi_startproc
 5831              		@ args = 0, pretend = 0, frame = 24
 5832              		@ frame_needed = 1, uses_anonymous_args = 0
 5833 0000 80B5     		push	{r7, lr}
 5834              		.cfi_def_cfa_offset 8
 5835              		.cfi_offset 7, -8
 5836              		.cfi_offset 14, -4
 5837 0002 86B0     		sub	sp, sp, #24
 5838              		.cfi_def_cfa_offset 32
 5839 0004 00AF     		add	r7, sp, #0
 5840              		.cfi_def_cfa_register 7
 5841 0006 7860     		str	r0, [r7, #4]
2021:../firmware/gd32f3x0_hal_peripheral/Source/gd32f3x0_hal_smartcard.c ****     hal_smartcard_dev_struct *p_smartcard = smartcard;
 5842              		.loc 1 2021 31
 5843 0008 7B68     		ldr	r3, [r7, #4]
 5844 000a 7B61     		str	r3, [r7, #20]
2022:../firmware/gd32f3x0_hal_peripheral/Source/gd32f3x0_hal_smartcard.c ****     uint32_t length = p_smartcard->rxbuffer.length;
 5845              		.loc 1 2022 14
 5846 000c 7B69     		ldr	r3, [r7, #20]
 5847 000e DB6A     		ldr	r3, [r3, #44]
 5848 0010 3B61     		str	r3, [r7, #16]
2023:../firmware/gd32f3x0_hal_peripheral/Source/gd32f3x0_hal_smartcard.c **** 
2024:../firmware/gd32f3x0_hal_peripheral/Source/gd32f3x0_hal_smartcard.c ****     /* read data from data register */
2025:../firmware/gd32f3x0_hal_peripheral/Source/gd32f3x0_hal_smartcard.c ****     *p_smartcard->rxbuffer.buffer = (uint8_t)(hals_smartcard_data_receive(p_smartcard->periph) & 0x
 5849              		.loc 1 2025 47
 5850 0012 7B69     		ldr	r3, [r7, #20]
 5851 0014 1B68     		ldr	r3, [r3]
 5852 0016 1846     		mov	r0, r3
 5853 0018 FFF7FEFF 		bl	hals_smartcard_data_receive
 5854 001c 0346     		mov	r3, r0
 5855 001e 1A46     		mov	r2, r3
 5856              		.loc 1 2025 27
 5857 0020 7B69     		ldr	r3, [r7, #20]
 5858 0022 9B6A     		ldr	r3, [r3, #40]
 5859              		.loc 1 2025 37
 5860 0024 D2B2     		uxtb	r2, r2
 5861              		.loc 1 2025 35
 5862 0026 1A70     		strb	r2, [r3]
2026:../firmware/gd32f3x0_hal_peripheral/Source/gd32f3x0_hal_smartcard.c ****     p_smartcard->rxbuffer.buffer++;
 5863              		.loc 1 2026 26
 5864 0028 7B69     		ldr	r3, [r7, #20]
 5865 002a 9B6A     		ldr	r3, [r3, #40]
 5866              		.loc 1 2026 33
 5867 002c 5A1C     		adds	r2, r3, #1
 5868 002e 7B69     		ldr	r3, [r7, #20]
 5869 0030 9A62     		str	r2, [r3, #40]
2027:../firmware/gd32f3x0_hal_peripheral/Source/gd32f3x0_hal_smartcard.c ****     p_smartcard->rxbuffer.pos++;
 5870              		.loc 1 2027 26
 5871 0032 7B69     		ldr	r3, [r7, #20]
 5872 0034 1B6B     		ldr	r3, [r3, #48]
 5873              		.loc 1 2027 30
 5874 0036 5A1C     		adds	r2, r3, #1
 5875 0038 7B69     		ldr	r3, [r7, #20]
 5876 003a 1A63     		str	r2, [r3, #48]
2028:../firmware/gd32f3x0_hal_peripheral/Source/gd32f3x0_hal_smartcard.c **** 
2029:../firmware/gd32f3x0_hal_peripheral/Source/gd32f3x0_hal_smartcard.c ****     if(p_smartcard->rxbuffer.pos == length) {
 5877              		.loc 1 2029 29
 5878 003c 7B69     		ldr	r3, [r7, #20]
 5879 003e 1B6B     		ldr	r3, [r3, #48]
 5880              		.loc 1 2029 7
 5881 0040 3A69     		ldr	r2, [r7, #16]
 5882 0042 9A42     		cmp	r2, r3
 5883 0044 28D1     		bne	.L237
 5884              	.LBB2:
2030:../firmware/gd32f3x0_hal_peripheral/Source/gd32f3x0_hal_smartcard.c ****         hal_smartcard_user_cb p_func = (hal_smartcard_user_cb)p_smartcard->rx_callback;
 5885              		.loc 1 2030 74
 5886 0046 7B69     		ldr	r3, [r7, #20]
 5887 0048 DB6B     		ldr	r3, [r3, #60]
 5888              		.loc 1 2030 31
 5889 004a FB60     		str	r3, [r7, #12]
2031:../firmware/gd32f3x0_hal_peripheral/Source/gd32f3x0_hal_smartcard.c **** 
2032:../firmware/gd32f3x0_hal_peripheral/Source/gd32f3x0_hal_smartcard.c ****         /* disable PERR and RBNE interrupt */
2033:../firmware/gd32f3x0_hal_peripheral/Source/gd32f3x0_hal_smartcard.c ****         hals_smartcard_interrupt_disable(p_smartcard->periph, USART_INT_PERR);
 5890              		.loc 1 2033 9
 5891 004c 7B69     		ldr	r3, [r7, #20]
 5892 004e 1B68     		ldr	r3, [r3]
 5893 0050 0821     		movs	r1, #8
 5894 0052 1846     		mov	r0, r3
 5895 0054 FFF7FEFF 		bl	hals_smartcard_interrupt_disable
2034:../firmware/gd32f3x0_hal_peripheral/Source/gd32f3x0_hal_smartcard.c ****         hals_smartcard_interrupt_disable(p_smartcard->periph, USART_INT_RBNE);
 5896              		.loc 1 2034 9
 5897 0058 7B69     		ldr	r3, [r7, #20]
 5898 005a 1B68     		ldr	r3, [r3]
 5899 005c 0521     		movs	r1, #5
 5900 005e 1846     		mov	r0, r3
 5901 0060 FFF7FEFF 		bl	hals_smartcard_interrupt_disable
2035:../firmware/gd32f3x0_hal_peripheral/Source/gd32f3x0_hal_smartcard.c **** 
2036:../firmware/gd32f3x0_hal_peripheral/Source/gd32f3x0_hal_smartcard.c ****         /* check transmit state, if free then disable ERR interrupt */
2037:../firmware/gd32f3x0_hal_peripheral/Source/gd32f3x0_hal_smartcard.c ****         if(SMARTCARD_STATE_FREE == p_smartcard->tx_state) {
 5902              		.loc 1 2037 47
 5903 0064 7B69     		ldr	r3, [r7, #20]
 5904 0066 93F83830 		ldrb	r3, [r3, #56]
 5905 006a DBB2     		uxtb	r3, r3
 5906              		.loc 1 2037 11
 5907 006c 002B     		cmp	r3, #0
 5908 006e 06D1     		bne	.L236
2038:../firmware/gd32f3x0_hal_peripheral/Source/gd32f3x0_hal_smartcard.c ****             hals_smartcard_interrupt_disable(p_smartcard->periph, USART_INT_ERR);
 5909              		.loc 1 2038 13
 5910 0070 7B69     		ldr	r3, [r7, #20]
 5911 0072 1B68     		ldr	r3, [r3]
 5912 0074 4FF40071 		mov	r1, #512
 5913 0078 1846     		mov	r0, r3
 5914 007a FFF7FEFF 		bl	hals_smartcard_interrupt_disable
 5915              	.L236:
2039:../firmware/gd32f3x0_hal_peripheral/Source/gd32f3x0_hal_smartcard.c ****         }
2040:../firmware/gd32f3x0_hal_peripheral/Source/gd32f3x0_hal_smartcard.c **** 
2041:../firmware/gd32f3x0_hal_peripheral/Source/gd32f3x0_hal_smartcard.c ****         /* reset receive_complete_handle */
2042:../firmware/gd32f3x0_hal_peripheral/Source/gd32f3x0_hal_smartcard.c ****         p_smartcard->smartcard_irq.receive_complete_handle = NULL;
 5916              		.loc 1 2042 60
 5917 007e 7B69     		ldr	r3, [r7, #20]
 5918 0080 0022     		movs	r2, #0
 5919 0082 5A60     		str	r2, [r3, #4]
2043:../firmware/gd32f3x0_hal_peripheral/Source/gd32f3x0_hal_smartcard.c **** 
2044:../firmware/gd32f3x0_hal_peripheral/Source/gd32f3x0_hal_smartcard.c ****         /* change the Rx state to free */
2045:../firmware/gd32f3x0_hal_peripheral/Source/gd32f3x0_hal_smartcard.c ****         p_smartcard->rx_state = SMARTCARD_STATE_FREE;
 5920              		.loc 1 2045 31
 5921 0084 7B69     		ldr	r3, [r7, #20]
 5922 0086 0022     		movs	r2, #0
 5923 0088 83F83920 		strb	r2, [r3, #57]
2046:../firmware/gd32f3x0_hal_peripheral/Source/gd32f3x0_hal_smartcard.c **** 
2047:../firmware/gd32f3x0_hal_peripheral/Source/gd32f3x0_hal_smartcard.c ****         if(NULL != p_func) {
 5924              		.loc 1 2047 11
 5925 008c FB68     		ldr	r3, [r7, #12]
 5926 008e 002B     		cmp	r3, #0
 5927 0090 02D0     		beq	.L237
2048:../firmware/gd32f3x0_hal_peripheral/Source/gd32f3x0_hal_smartcard.c ****             p_func(p_smartcard);
 5928              		.loc 1 2048 13
 5929 0092 FB68     		ldr	r3, [r7, #12]
 5930 0094 7869     		ldr	r0, [r7, #20]
 5931 0096 9847     		blx	r3
 5932              	.LVL5:
 5933              	.L237:
 5934              	.LBE2:
2049:../firmware/gd32f3x0_hal_peripheral/Source/gd32f3x0_hal_smartcard.c ****         }
2050:../firmware/gd32f3x0_hal_peripheral/Source/gd32f3x0_hal_smartcard.c ****     }
2051:../firmware/gd32f3x0_hal_peripheral/Source/gd32f3x0_hal_smartcard.c **** }
 5935              		.loc 1 2051 1
 5936 0098 00BF     		nop
 5937 009a 1837     		adds	r7, r7, #24
 5938              		.cfi_def_cfa_offset 8
 5939 009c BD46     		mov	sp, r7
 5940              		.cfi_def_cfa_register 13
 5941              		@ sp needed
 5942 009e 80BD     		pop	{r7, pc}
 5943              		.cfi_endproc
 5944              	.LFE182:
 5946              		.section	.text._smartcard_transmit_dma,"ax",%progbits
 5947              		.align	1
 5948              		.syntax unified
 5949              		.thumb
 5950              		.thumb_func
 5951              		.fpu softvfp
 5953              	_smartcard_transmit_dma:
 5954              	.LFB183:
2052:../firmware/gd32f3x0_hal_peripheral/Source/gd32f3x0_hal_smartcard.c **** 
2053:../firmware/gd32f3x0_hal_peripheral/Source/gd32f3x0_hal_smartcard.c **** /*!
2054:../firmware/gd32f3x0_hal_peripheral/Source/gd32f3x0_hal_smartcard.c ****     \brief      smartcard DMA transmit handler
2055:../firmware/gd32f3x0_hal_peripheral/Source/gd32f3x0_hal_smartcard.c ****     \param[in]  dma: DMA device information structrue
2056:../firmware/gd32f3x0_hal_peripheral/Source/gd32f3x0_hal_smartcard.c ****     \param[out] none
2057:../firmware/gd32f3x0_hal_peripheral/Source/gd32f3x0_hal_smartcard.c ****     \retval     none
2058:../firmware/gd32f3x0_hal_peripheral/Source/gd32f3x0_hal_smartcard.c **** */
2059:../firmware/gd32f3x0_hal_peripheral/Source/gd32f3x0_hal_smartcard.c **** static void _smartcard_transmit_dma(void *dma)
2060:../firmware/gd32f3x0_hal_peripheral/Source/gd32f3x0_hal_smartcard.c **** {
 5955              		.loc 1 2060 1
 5956              		.cfi_startproc
 5957              		@ args = 0, pretend = 0, frame = 16
 5958              		@ frame_needed = 1, uses_anonymous_args = 0
 5959 0000 80B5     		push	{r7, lr}
 5960              		.cfi_def_cfa_offset 8
 5961              		.cfi_offset 7, -8
 5962              		.cfi_offset 14, -4
 5963 0002 84B0     		sub	sp, sp, #16
 5964              		.cfi_def_cfa_offset 24
 5965 0004 00AF     		add	r7, sp, #0
 5966              		.cfi_def_cfa_register 7
 5967 0006 7860     		str	r0, [r7, #4]
2061:../firmware/gd32f3x0_hal_peripheral/Source/gd32f3x0_hal_smartcard.c ****     hal_dma_dev_struct *p_dma;
2062:../firmware/gd32f3x0_hal_peripheral/Source/gd32f3x0_hal_smartcard.c ****     hal_smartcard_dev_struct *p_smartcard;
2063:../firmware/gd32f3x0_hal_peripheral/Source/gd32f3x0_hal_smartcard.c **** 
2064:../firmware/gd32f3x0_hal_peripheral/Source/gd32f3x0_hal_smartcard.c ****     p_dma = (hal_dma_dev_struct *)dma;
 5968              		.loc 1 2064 11
 5969 0008 7B68     		ldr	r3, [r7, #4]
 5970 000a FB60     		str	r3, [r7, #12]
2065:../firmware/gd32f3x0_hal_peripheral/Source/gd32f3x0_hal_smartcard.c ****     p_smartcard = (hal_smartcard_dev_struct *)p_dma->p_periph;
 5971              		.loc 1 2065 17
 5972 000c FB68     		ldr	r3, [r7, #12]
 5973 000e 5B69     		ldr	r3, [r3, #20]
 5974 0010 BB60     		str	r3, [r7, #8]
2066:../firmware/gd32f3x0_hal_peripheral/Source/gd32f3x0_hal_smartcard.c **** 
2067:../firmware/gd32f3x0_hal_peripheral/Source/gd32f3x0_hal_smartcard.c ****     /* DMA normal mode */
2068:../firmware/gd32f3x0_hal_peripheral/Source/gd32f3x0_hal_smartcard.c ****     if(RESET == (DMA_CHCTL(p_dma->channel) & DMA_CHXCTL_CMEN)) {
 5975              		.loc 1 2068 18
 5976 0012 FB68     		ldr	r3, [r7, #12]
 5977 0014 1B78     		ldrb	r3, [r3]	@ zero_extendqisi2
 5978 0016 1A46     		mov	r2, r3
 5979 0018 1346     		mov	r3, r2
 5980 001a 9B00     		lsls	r3, r3, #2
 5981 001c 1344     		add	r3, r3, r2
 5982 001e 9B00     		lsls	r3, r3, #2
 5983 0020 1A46     		mov	r2, r3
 5984 0022 0D4B     		ldr	r3, .L241
 5985 0024 1344     		add	r3, r3, r2
 5986 0026 1B68     		ldr	r3, [r3]
 5987              		.loc 1 2068 44
 5988 0028 03F02003 		and	r3, r3, #32
 5989              		.loc 1 2068 7
 5990 002c 002B     		cmp	r3, #0
 5991 002e 0FD1     		bne	.L240
2069:../firmware/gd32f3x0_hal_peripheral/Source/gd32f3x0_hal_smartcard.c ****         p_smartcard->txbuffer.pos = p_smartcard->txbuffer.length;
 5992              		.loc 1 2069 58
 5993 0030 BB68     		ldr	r3, [r7, #8]
 5994 0032 1A6A     		ldr	r2, [r3, #32]
 5995              		.loc 1 2069 35
 5996 0034 BB68     		ldr	r3, [r7, #8]
 5997 0036 5A62     		str	r2, [r3, #36]
2070:../firmware/gd32f3x0_hal_peripheral/Source/gd32f3x0_hal_smartcard.c **** 
2071:../firmware/gd32f3x0_hal_peripheral/Source/gd32f3x0_hal_smartcard.c ****         /* disable the dma transfer for transmit request */
2072:../firmware/gd32f3x0_hal_peripheral/Source/gd32f3x0_hal_smartcard.c ****         hals_smartcard_dma_transmit_config(p_smartcard->periph, USART_TRANSMIT_DMA_DISABLE);
 5998              		.loc 1 2072 9
 5999 0038 BB68     		ldr	r3, [r7, #8]
 6000 003a 1B68     		ldr	r3, [r3]
 6001 003c 0021     		movs	r1, #0
 6002 003e 1846     		mov	r0, r3
 6003 0040 FFF7FEFF 		bl	hals_smartcard_dma_transmit_config
2073:../firmware/gd32f3x0_hal_peripheral/Source/gd32f3x0_hal_smartcard.c **** 
2074:../firmware/gd32f3x0_hal_peripheral/Source/gd32f3x0_hal_smartcard.c ****         /* enable TC interrupt */
2075:../firmware/gd32f3x0_hal_peripheral/Source/gd32f3x0_hal_smartcard.c ****         hals_smartcard_interrupt_enable(p_smartcard->periph, USART_INT_TC);
 6004              		.loc 1 2075 9
 6005 0044 BB68     		ldr	r3, [r7, #8]
 6006 0046 1B68     		ldr	r3, [r3]
 6007 0048 0621     		movs	r1, #6
 6008 004a 1846     		mov	r0, r3
 6009 004c FFF7FEFF 		bl	hals_smartcard_interrupt_enable
 6010              	.L240:
2076:../firmware/gd32f3x0_hal_peripheral/Source/gd32f3x0_hal_smartcard.c ****     }
2077:../firmware/gd32f3x0_hal_peripheral/Source/gd32f3x0_hal_smartcard.c **** }
 6011              		.loc 1 2077 1
 6012 0050 00BF     		nop
 6013 0052 1037     		adds	r7, r7, #16
 6014              		.cfi_def_cfa_offset 8
 6015 0054 BD46     		mov	sp, r7
 6016              		.cfi_def_cfa_register 13
 6017              		@ sp needed
 6018 0056 80BD     		pop	{r7, pc}
 6019              	.L242:
 6020              		.align	2
 6021              	.L241:
 6022 0058 08000240 		.word	1073872904
 6023              		.cfi_endproc
 6024              	.LFE183:
 6026              		.section	.text._smartcard_receive_dma,"ax",%progbits
 6027              		.align	1
 6028              		.syntax unified
 6029              		.thumb
 6030              		.thumb_func
 6031              		.fpu softvfp
 6033              	_smartcard_receive_dma:
 6034              	.LFB184:
2078:../firmware/gd32f3x0_hal_peripheral/Source/gd32f3x0_hal_smartcard.c **** 
2079:../firmware/gd32f3x0_hal_peripheral/Source/gd32f3x0_hal_smartcard.c **** /*!
2080:../firmware/gd32f3x0_hal_peripheral/Source/gd32f3x0_hal_smartcard.c ****     \brief      smartcard DMA receive handler
2081:../firmware/gd32f3x0_hal_peripheral/Source/gd32f3x0_hal_smartcard.c ****     \param[in]  dma: DMA device information structrue
2082:../firmware/gd32f3x0_hal_peripheral/Source/gd32f3x0_hal_smartcard.c ****     \param[out] none
2083:../firmware/gd32f3x0_hal_peripheral/Source/gd32f3x0_hal_smartcard.c ****     \retval     none
2084:../firmware/gd32f3x0_hal_peripheral/Source/gd32f3x0_hal_smartcard.c **** */
2085:../firmware/gd32f3x0_hal_peripheral/Source/gd32f3x0_hal_smartcard.c **** static void _smartcard_receive_dma(void *dma)
2086:../firmware/gd32f3x0_hal_peripheral/Source/gd32f3x0_hal_smartcard.c **** {
 6035              		.loc 1 2086 1
 6036              		.cfi_startproc
 6037              		@ args = 0, pretend = 0, frame = 24
 6038              		@ frame_needed = 1, uses_anonymous_args = 0
 6039 0000 80B5     		push	{r7, lr}
 6040              		.cfi_def_cfa_offset 8
 6041              		.cfi_offset 7, -8
 6042              		.cfi_offset 14, -4
 6043 0002 86B0     		sub	sp, sp, #24
 6044              		.cfi_def_cfa_offset 32
 6045 0004 00AF     		add	r7, sp, #0
 6046              		.cfi_def_cfa_register 7
 6047 0006 7860     		str	r0, [r7, #4]
2087:../firmware/gd32f3x0_hal_peripheral/Source/gd32f3x0_hal_smartcard.c ****     hal_dma_dev_struct *p_dma;
2088:../firmware/gd32f3x0_hal_peripheral/Source/gd32f3x0_hal_smartcard.c ****     hal_smartcard_dev_struct *p_smartcard;
2089:../firmware/gd32f3x0_hal_peripheral/Source/gd32f3x0_hal_smartcard.c ****     hal_smartcard_user_cb p_func;
2090:../firmware/gd32f3x0_hal_peripheral/Source/gd32f3x0_hal_smartcard.c **** 
2091:../firmware/gd32f3x0_hal_peripheral/Source/gd32f3x0_hal_smartcard.c ****     p_dma = (hal_dma_dev_struct *)dma;
 6048              		.loc 1 2091 11
 6049 0008 7B68     		ldr	r3, [r7, #4]
 6050 000a 7B61     		str	r3, [r7, #20]
2092:../firmware/gd32f3x0_hal_peripheral/Source/gd32f3x0_hal_smartcard.c ****     p_smartcard = (hal_smartcard_dev_struct *)p_dma->p_periph;
 6051              		.loc 1 2092 17
 6052 000c 7B69     		ldr	r3, [r7, #20]
 6053 000e 5B69     		ldr	r3, [r3, #20]
 6054 0010 3B61     		str	r3, [r7, #16]
2093:../firmware/gd32f3x0_hal_peripheral/Source/gd32f3x0_hal_smartcard.c ****     p_func = (hal_smartcard_user_cb)p_smartcard->rx_callback;
 6055              		.loc 1 2093 48
 6056 0012 3B69     		ldr	r3, [r7, #16]
 6057 0014 DB6B     		ldr	r3, [r3, #60]
 6058              		.loc 1 2093 12
 6059 0016 FB60     		str	r3, [r7, #12]
2094:../firmware/gd32f3x0_hal_peripheral/Source/gd32f3x0_hal_smartcard.c **** 
2095:../firmware/gd32f3x0_hal_peripheral/Source/gd32f3x0_hal_smartcard.c ****     if(RESET == (DMA_CHCTL(p_dma->channel) & DMA_CHXCTL_CMEN)) {
 6060              		.loc 1 2095 18
 6061 0018 7B69     		ldr	r3, [r7, #20]
 6062 001a 1B78     		ldrb	r3, [r3]	@ zero_extendqisi2
 6063 001c 1A46     		mov	r2, r3
 6064 001e 1346     		mov	r3, r2
 6065 0020 9B00     		lsls	r3, r3, #2
 6066 0022 1344     		add	r3, r3, r2
 6067 0024 9B00     		lsls	r3, r3, #2
 6068 0026 1A46     		mov	r2, r3
 6069 0028 154B     		ldr	r3, .L247
 6070 002a 1344     		add	r3, r3, r2
 6071 002c 1B68     		ldr	r3, [r3]
 6072              		.loc 1 2095 44
 6073 002e 03F02003 		and	r3, r3, #32
 6074              		.loc 1 2095 7
 6075 0032 002B     		cmp	r3, #0
 6076 0034 1AD1     		bne	.L244
2096:../firmware/gd32f3x0_hal_peripheral/Source/gd32f3x0_hal_smartcard.c ****         p_smartcard->rxbuffer.pos = p_smartcard->rxbuffer.length;
 6077              		.loc 1 2096 58
 6078 0036 3B69     		ldr	r3, [r7, #16]
 6079 0038 DA6A     		ldr	r2, [r3, #44]
 6080              		.loc 1 2096 35
 6081 003a 3B69     		ldr	r3, [r7, #16]
 6082 003c 1A63     		str	r2, [r3, #48]
2097:../firmware/gd32f3x0_hal_peripheral/Source/gd32f3x0_hal_smartcard.c **** 
2098:../firmware/gd32f3x0_hal_peripheral/Source/gd32f3x0_hal_smartcard.c ****         /* disable the dma transfer for the receiver request */
2099:../firmware/gd32f3x0_hal_peripheral/Source/gd32f3x0_hal_smartcard.c ****         hals_smartcard_dma_receive_config(p_smartcard->periph, USART_RECEIVE_DMA_DISABLE);
 6083              		.loc 1 2099 9
 6084 003e 3B69     		ldr	r3, [r7, #16]
 6085 0040 1B68     		ldr	r3, [r3]
 6086 0042 0021     		movs	r1, #0
 6087 0044 1846     		mov	r0, r3
 6088 0046 FFF7FEFF 		bl	hals_smartcard_dma_receive_config
2100:../firmware/gd32f3x0_hal_peripheral/Source/gd32f3x0_hal_smartcard.c **** 
2101:../firmware/gd32f3x0_hal_peripheral/Source/gd32f3x0_hal_smartcard.c ****         /* disable PERR and ERR(frame error, noise error, overrun error) interrupts */
2102:../firmware/gd32f3x0_hal_peripheral/Source/gd32f3x0_hal_smartcard.c ****         hals_smartcard_interrupt_disable(p_smartcard->periph, USART_INT_PERR);
 6089              		.loc 1 2102 9
 6090 004a 3B69     		ldr	r3, [r7, #16]
 6091 004c 1B68     		ldr	r3, [r3]
 6092 004e 0821     		movs	r1, #8
 6093 0050 1846     		mov	r0, r3
 6094 0052 FFF7FEFF 		bl	hals_smartcard_interrupt_disable
2103:../firmware/gd32f3x0_hal_peripheral/Source/gd32f3x0_hal_smartcard.c ****         hals_smartcard_interrupt_disable(p_smartcard->periph, USART_INT_ERR);
 6095              		.loc 1 2103 9
 6096 0056 3B69     		ldr	r3, [r7, #16]
 6097 0058 1B68     		ldr	r3, [r3]
 6098 005a 4FF40071 		mov	r1, #512
 6099 005e 1846     		mov	r0, r3
 6100 0060 FFF7FEFF 		bl	hals_smartcard_interrupt_disable
2104:../firmware/gd32f3x0_hal_peripheral/Source/gd32f3x0_hal_smartcard.c **** 
2105:../firmware/gd32f3x0_hal_peripheral/Source/gd32f3x0_hal_smartcard.c ****         /* change the Rx state to free */
2106:../firmware/gd32f3x0_hal_peripheral/Source/gd32f3x0_hal_smartcard.c ****         p_smartcard->rx_state = SMARTCARD_STATE_FREE;
 6101              		.loc 1 2106 31
 6102 0064 3B69     		ldr	r3, [r7, #16]
 6103 0066 0022     		movs	r2, #0
 6104 0068 83F83920 		strb	r2, [r3, #57]
 6105              	.L244:
2107:../firmware/gd32f3x0_hal_peripheral/Source/gd32f3x0_hal_smartcard.c ****     }
2108:../firmware/gd32f3x0_hal_peripheral/Source/gd32f3x0_hal_smartcard.c **** 
2109:../firmware/gd32f3x0_hal_peripheral/Source/gd32f3x0_hal_smartcard.c ****     if(NULL != p_func) {
 6106              		.loc 1 2109 7
 6107 006c FB68     		ldr	r3, [r7, #12]
 6108 006e 002B     		cmp	r3, #0
 6109 0070 02D0     		beq	.L246
2110:../firmware/gd32f3x0_hal_peripheral/Source/gd32f3x0_hal_smartcard.c ****         p_func(p_smartcard);
 6110              		.loc 1 2110 9
 6111 0072 FB68     		ldr	r3, [r7, #12]
 6112 0074 3869     		ldr	r0, [r7, #16]
 6113 0076 9847     		blx	r3
 6114              	.LVL6:
 6115              	.L246:
2111:../firmware/gd32f3x0_hal_peripheral/Source/gd32f3x0_hal_smartcard.c ****     }
2112:../firmware/gd32f3x0_hal_peripheral/Source/gd32f3x0_hal_smartcard.c **** }
 6116              		.loc 1 2112 1
 6117 0078 00BF     		nop
 6118 007a 1837     		adds	r7, r7, #24
 6119              		.cfi_def_cfa_offset 8
 6120 007c BD46     		mov	sp, r7
 6121              		.cfi_def_cfa_register 13
 6122              		@ sp needed
 6123 007e 80BD     		pop	{r7, pc}
 6124              	.L248:
 6125              		.align	2
 6126              	.L247:
 6127 0080 08000240 		.word	1073872904
 6128              		.cfi_endproc
 6129              	.LFE184:
 6131              		.section	.text._smartcard_dma_error,"ax",%progbits
 6132              		.align	1
 6133              		.syntax unified
 6134              		.thumb
 6135              		.thumb_func
 6136              		.fpu softvfp
 6138              	_smartcard_dma_error:
 6139              	.LFB185:
2113:../firmware/gd32f3x0_hal_peripheral/Source/gd32f3x0_hal_smartcard.c **** 
2114:../firmware/gd32f3x0_hal_peripheral/Source/gd32f3x0_hal_smartcard.c **** /*!
2115:../firmware/gd32f3x0_hal_peripheral/Source/gd32f3x0_hal_smartcard.c ****     \brief      smartcard dma communication error
2116:../firmware/gd32f3x0_hal_peripheral/Source/gd32f3x0_hal_smartcard.c ****     \param[in]  dma: DMA device information structrue
2117:../firmware/gd32f3x0_hal_peripheral/Source/gd32f3x0_hal_smartcard.c ****     \param[out] none
2118:../firmware/gd32f3x0_hal_peripheral/Source/gd32f3x0_hal_smartcard.c ****     \retval     none
2119:../firmware/gd32f3x0_hal_peripheral/Source/gd32f3x0_hal_smartcard.c **** */
2120:../firmware/gd32f3x0_hal_peripheral/Source/gd32f3x0_hal_smartcard.c **** static void _smartcard_dma_error(void *dma)
2121:../firmware/gd32f3x0_hal_peripheral/Source/gd32f3x0_hal_smartcard.c **** {
 6140              		.loc 1 2121 1
 6141              		.cfi_startproc
 6142              		@ args = 0, pretend = 0, frame = 16
 6143              		@ frame_needed = 1, uses_anonymous_args = 0
 6144 0000 80B5     		push	{r7, lr}
 6145              		.cfi_def_cfa_offset 8
 6146              		.cfi_offset 7, -8
 6147              		.cfi_offset 14, -4
 6148 0002 84B0     		sub	sp, sp, #16
 6149              		.cfi_def_cfa_offset 24
 6150 0004 00AF     		add	r7, sp, #0
 6151              		.cfi_def_cfa_register 7
 6152 0006 7860     		str	r0, [r7, #4]
2122:../firmware/gd32f3x0_hal_peripheral/Source/gd32f3x0_hal_smartcard.c ****     hal_dma_dev_struct *p_dma;
2123:../firmware/gd32f3x0_hal_peripheral/Source/gd32f3x0_hal_smartcard.c ****     hal_smartcard_dev_struct *p_smartcard;
2124:../firmware/gd32f3x0_hal_peripheral/Source/gd32f3x0_hal_smartcard.c **** 
2125:../firmware/gd32f3x0_hal_peripheral/Source/gd32f3x0_hal_smartcard.c ****     p_dma = (hal_dma_dev_struct *)dma;
 6153              		.loc 1 2125 11
 6154 0008 7B68     		ldr	r3, [r7, #4]
 6155 000a FB60     		str	r3, [r7, #12]
2126:../firmware/gd32f3x0_hal_peripheral/Source/gd32f3x0_hal_smartcard.c ****     p_smartcard = (hal_smartcard_dev_struct *)p_dma->p_periph;
 6156              		.loc 1 2126 17
 6157 000c FB68     		ldr	r3, [r7, #12]
 6158 000e 5B69     		ldr	r3, [r3, #20]
 6159 0010 BB60     		str	r3, [r7, #8]
2127:../firmware/gd32f3x0_hal_peripheral/Source/gd32f3x0_hal_smartcard.c **** 
2128:../firmware/gd32f3x0_hal_peripheral/Source/gd32f3x0_hal_smartcard.c ****     if(SMARTCARD_STATE_BUSY == p_smartcard->tx_state) {
 6160              		.loc 1 2128 43
 6161 0012 BB68     		ldr	r3, [r7, #8]
 6162 0014 93F83830 		ldrb	r3, [r3, #56]
 6163 0018 DBB2     		uxtb	r3, r3
 6164              		.loc 1 2128 7
 6165 001a 012B     		cmp	r3, #1
 6166 001c 20D1     		bne	.L250
2129:../firmware/gd32f3x0_hal_peripheral/Source/gd32f3x0_hal_smartcard.c ****         p_smartcard->error_state |= HAL_SMARTCARD_ERROR_DMATX;
 6167              		.loc 1 2129 34
 6168 001e BB68     		ldr	r3, [r7, #8]
 6169 0020 DB8E     		ldrh	r3, [r3, #54]	@ movhi
 6170 0022 9BB2     		uxth	r3, r3
 6171 0024 43F01003 		orr	r3, r3, #16
 6172 0028 9AB2     		uxth	r2, r3
 6173 002a BB68     		ldr	r3, [r7, #8]
 6174 002c DA86     		strh	r2, [r3, #54]	@ movhi
2130:../firmware/gd32f3x0_hal_peripheral/Source/gd32f3x0_hal_smartcard.c ****         p_smartcard->last_error = HAL_SMARTCARD_ERROR_DMATX;
 6175              		.loc 1 2130 33
 6176 002e BB68     		ldr	r3, [r7, #8]
 6177 0030 1022     		movs	r2, #16
 6178 0032 9A86     		strh	r2, [r3, #52]	@ movhi
2131:../firmware/gd32f3x0_hal_peripheral/Source/gd32f3x0_hal_smartcard.c ****         p_smartcard->txbuffer.pos = p_smartcard->txbuffer.length;
 6179              		.loc 1 2131 58
 6180 0034 BB68     		ldr	r3, [r7, #8]
 6181 0036 1A6A     		ldr	r2, [r3, #32]
 6182              		.loc 1 2131 35
 6183 0038 BB68     		ldr	r3, [r7, #8]
 6184 003a 5A62     		str	r2, [r3, #36]
2132:../firmware/gd32f3x0_hal_peripheral/Source/gd32f3x0_hal_smartcard.c **** 
2133:../firmware/gd32f3x0_hal_peripheral/Source/gd32f3x0_hal_smartcard.c ****         /* disable the dma transmit */
2134:../firmware/gd32f3x0_hal_peripheral/Source/gd32f3x0_hal_smartcard.c ****         hals_smartcard_dma_transmit_config(p_smartcard->periph, USART_TRANSMIT_DMA_DISABLE);
 6185              		.loc 1 2134 9
 6186 003c BB68     		ldr	r3, [r7, #8]
 6187 003e 1B68     		ldr	r3, [r3]
 6188 0040 0021     		movs	r1, #0
 6189 0042 1846     		mov	r0, r3
 6190 0044 FFF7FEFF 		bl	hals_smartcard_dma_transmit_config
2135:../firmware/gd32f3x0_hal_peripheral/Source/gd32f3x0_hal_smartcard.c **** 
2136:../firmware/gd32f3x0_hal_peripheral/Source/gd32f3x0_hal_smartcard.c ****         /* disable and ERR(frame error) interrupt */
2137:../firmware/gd32f3x0_hal_peripheral/Source/gd32f3x0_hal_smartcard.c ****         hals_smartcard_interrupt_disable(p_smartcard->periph, USART_INT_ERR);
 6191              		.loc 1 2137 9
 6192 0048 BB68     		ldr	r3, [r7, #8]
 6193 004a 1B68     		ldr	r3, [r3]
 6194 004c 4FF40071 		mov	r1, #512
 6195 0050 1846     		mov	r0, r3
 6196 0052 FFF7FEFF 		bl	hals_smartcard_interrupt_disable
2138:../firmware/gd32f3x0_hal_peripheral/Source/gd32f3x0_hal_smartcard.c **** 
2139:../firmware/gd32f3x0_hal_peripheral/Source/gd32f3x0_hal_smartcard.c ****         /* change the Tx state to free */
2140:../firmware/gd32f3x0_hal_peripheral/Source/gd32f3x0_hal_smartcard.c ****         p_smartcard->tx_state = SMARTCARD_STATE_FREE;
 6197              		.loc 1 2140 31
 6198 0056 BB68     		ldr	r3, [r7, #8]
 6199 0058 0022     		movs	r2, #0
 6200 005a 83F83820 		strb	r2, [r3, #56]
 6201 005e 2BE0     		b	.L251
 6202              	.L250:
2141:../firmware/gd32f3x0_hal_peripheral/Source/gd32f3x0_hal_smartcard.c ****     } else if(SMARTCARD_STATE_BUSY == p_smartcard->rx_state) {
 6203              		.loc 1 2141 50
 6204 0060 BB68     		ldr	r3, [r7, #8]
 6205 0062 93F83930 		ldrb	r3, [r3, #57]
 6206 0066 DBB2     		uxtb	r3, r3
 6207              		.loc 1 2141 14
 6208 0068 012B     		cmp	r3, #1
 6209 006a 25D1     		bne	.L251
2142:../firmware/gd32f3x0_hal_peripheral/Source/gd32f3x0_hal_smartcard.c ****         p_smartcard->error_state |= HAL_SMARTCARD_ERROR_DMARX;
 6210              		.loc 1 2142 34
 6211 006c BB68     		ldr	r3, [r7, #8]
 6212 006e DB8E     		ldrh	r3, [r3, #54]	@ movhi
 6213 0070 9BB2     		uxth	r3, r3
 6214 0072 43F02003 		orr	r3, r3, #32
 6215 0076 9AB2     		uxth	r2, r3
 6216 0078 BB68     		ldr	r3, [r7, #8]
 6217 007a DA86     		strh	r2, [r3, #54]	@ movhi
2143:../firmware/gd32f3x0_hal_peripheral/Source/gd32f3x0_hal_smartcard.c ****         p_smartcard->last_error = HAL_SMARTCARD_ERROR_DMARX;
 6218              		.loc 1 2143 33
 6219 007c BB68     		ldr	r3, [r7, #8]
 6220 007e 2022     		movs	r2, #32
 6221 0080 9A86     		strh	r2, [r3, #52]	@ movhi
2144:../firmware/gd32f3x0_hal_peripheral/Source/gd32f3x0_hal_smartcard.c ****         p_smartcard->rxbuffer.pos = p_smartcard->rxbuffer.length;
 6222              		.loc 1 2144 58
 6223 0082 BB68     		ldr	r3, [r7, #8]
 6224 0084 DA6A     		ldr	r2, [r3, #44]
 6225              		.loc 1 2144 35
 6226 0086 BB68     		ldr	r3, [r7, #8]
 6227 0088 1A63     		str	r2, [r3, #48]
2145:../firmware/gd32f3x0_hal_peripheral/Source/gd32f3x0_hal_smartcard.c **** 
2146:../firmware/gd32f3x0_hal_peripheral/Source/gd32f3x0_hal_smartcard.c ****         /* disable the dma receive */
2147:../firmware/gd32f3x0_hal_peripheral/Source/gd32f3x0_hal_smartcard.c ****         hals_smartcard_dma_receive_config(p_smartcard->periph, USART_RECEIVE_DMA_DISABLE);
 6228              		.loc 1 2147 9
 6229 008a BB68     		ldr	r3, [r7, #8]
 6230 008c 1B68     		ldr	r3, [r3]
 6231 008e 0021     		movs	r1, #0
 6232 0090 1846     		mov	r0, r3
 6233 0092 FFF7FEFF 		bl	hals_smartcard_dma_receive_config
2148:../firmware/gd32f3x0_hal_peripheral/Source/gd32f3x0_hal_smartcard.c **** 
2149:../firmware/gd32f3x0_hal_peripheral/Source/gd32f3x0_hal_smartcard.c ****         /* disable PERR and ERR(frame error, noise error, overrun error) interrupts */
2150:../firmware/gd32f3x0_hal_peripheral/Source/gd32f3x0_hal_smartcard.c ****         hals_smartcard_interrupt_disable(p_smartcard->periph, USART_INT_PERR);
 6234              		.loc 1 2150 9
 6235 0096 BB68     		ldr	r3, [r7, #8]
 6236 0098 1B68     		ldr	r3, [r3]
 6237 009a 0821     		movs	r1, #8
 6238 009c 1846     		mov	r0, r3
 6239 009e FFF7FEFF 		bl	hals_smartcard_interrupt_disable
2151:../firmware/gd32f3x0_hal_peripheral/Source/gd32f3x0_hal_smartcard.c ****         hals_smartcard_interrupt_disable(p_smartcard->periph, USART_INT_ERR);
 6240              		.loc 1 2151 9
 6241 00a2 BB68     		ldr	r3, [r7, #8]
 6242 00a4 1B68     		ldr	r3, [r3]
 6243 00a6 4FF40071 		mov	r1, #512
 6244 00aa 1846     		mov	r0, r3
 6245 00ac FFF7FEFF 		bl	hals_smartcard_interrupt_disable
2152:../firmware/gd32f3x0_hal_peripheral/Source/gd32f3x0_hal_smartcard.c **** 
2153:../firmware/gd32f3x0_hal_peripheral/Source/gd32f3x0_hal_smartcard.c ****         /* change the Rx state to free */
2154:../firmware/gd32f3x0_hal_peripheral/Source/gd32f3x0_hal_smartcard.c ****         p_smartcard->rx_state = SMARTCARD_STATE_FREE;
 6246              		.loc 1 2154 31
 6247 00b0 BB68     		ldr	r3, [r7, #8]
 6248 00b2 0022     		movs	r2, #0
 6249 00b4 83F83920 		strb	r2, [r3, #57]
 6250              	.L251:
2155:../firmware/gd32f3x0_hal_peripheral/Source/gd32f3x0_hal_smartcard.c ****     } else {
2156:../firmware/gd32f3x0_hal_peripheral/Source/gd32f3x0_hal_smartcard.c ****         HAL_DEBUGE("smartcard processor fatal error: dma error exception due to run state");
2157:../firmware/gd32f3x0_hal_peripheral/Source/gd32f3x0_hal_smartcard.c ****     }
2158:../firmware/gd32f3x0_hal_peripheral/Source/gd32f3x0_hal_smartcard.c **** 
2159:../firmware/gd32f3x0_hal_peripheral/Source/gd32f3x0_hal_smartcard.c ****     if(p_smartcard->smartcard_irq.error_handle != NULL) {
 6251              		.loc 1 2159 34
 6252 00b8 BB68     		ldr	r3, [r7, #8]
 6253 00ba 1B69     		ldr	r3, [r3, #16]
 6254              		.loc 1 2159 7
 6255 00bc 002B     		cmp	r3, #0
 6256 00be 06D0     		beq	.L253
2160:../firmware/gd32f3x0_hal_peripheral/Source/gd32f3x0_hal_smartcard.c ****         p_smartcard->smartcard_irq.error_handle(p_smartcard);
 6257              		.loc 1 2160 35
 6258 00c0 BB68     		ldr	r3, [r7, #8]
 6259 00c2 1B69     		ldr	r3, [r3, #16]
 6260              		.loc 1 2160 9
 6261 00c4 B868     		ldr	r0, [r7, #8]
 6262 00c6 9847     		blx	r3
 6263              	.LVL7:
2161:../firmware/gd32f3x0_hal_peripheral/Source/gd32f3x0_hal_smartcard.c **** 
2162:../firmware/gd32f3x0_hal_peripheral/Source/gd32f3x0_hal_smartcard.c ****         /* change the error state to none */
2163:../firmware/gd32f3x0_hal_peripheral/Source/gd32f3x0_hal_smartcard.c ****         p_smartcard->error_state = HAL_SMARTCARD_ERROR_NONE;
 6264              		.loc 1 2163 34
 6265 00c8 BB68     		ldr	r3, [r7, #8]
 6266 00ca 0022     		movs	r2, #0
 6267 00cc DA86     		strh	r2, [r3, #54]	@ movhi
 6268              	.L253:
2164:../firmware/gd32f3x0_hal_peripheral/Source/gd32f3x0_hal_smartcard.c ****     }
2165:../firmware/gd32f3x0_hal_peripheral/Source/gd32f3x0_hal_smartcard.c **** }
 6269              		.loc 1 2165 1
 6270 00ce 00BF     		nop
 6271 00d0 1037     		adds	r7, r7, #16
 6272              		.cfi_def_cfa_offset 8
 6273 00d2 BD46     		mov	sp, r7
 6274              		.cfi_def_cfa_register 13
 6275              		@ sp needed
 6276 00d4 80BD     		pop	{r7, pc}
 6277              		.cfi_endproc
 6278              	.LFE185:
 6280              		.text
 6281              	.Letext0:
 6282              		.file 2 "c:\\program files\\embeddedbuilder_v1.1.0.18805\\tools\\gnu tools arm embedded\\xpack-arm
 6283              		.file 3 "c:\\program files\\embeddedbuilder_v1.1.0.18805\\tools\\gnu tools arm embedded\\xpack-arm
 6284              		.file 4 "c:\\program files\\embeddedbuilder_v1.1.0.18805\\tools\\gnu tools arm embedded\\xpack-arm
 6285              		.file 5 "c:\\program files\\embeddedbuilder_v1.1.0.18805\\tools\\gnu tools arm embedded\\xpack-arm
 6286              		.file 6 "c:\\program files\\embeddedbuilder_v1.1.0.18805\\tools\\gnu tools arm embedded\\xpack-arm
 6287              		.file 7 "c:\\program files\\embeddedbuilder_v1.1.0.18805\\tools\\gnu tools arm embedded\\xpack-arm
 6288              		.file 8 "../firmware/GD32f3x0_hal_peripheral/Include/gd32f3x0_hal.h"
 6289              		.file 9 "../firmware/cmsis/inc/core_cm4.h"
 6290              		.file 10 "../firmware/cmsis/inc/system_gd32f3x0.h"
 6291              		.file 11 "../firmware/cmsis/inc/gd32f3x0.h"
 6292              		.file 12 "../firmware/GD32f3x0_hal_peripheral/Include/gd32f3x0_hal_dma.h"
 6293              		.file 13 "c:\\program files\\embeddedbuilder_v1.1.0.18805\\tools\\gnu tools arm embedded\\xpack-ar
 6294              		.file 14 "../firmware/GD32f3x0_hal_peripheral/Include/gd32f3x0_hal_rcu.h"
 6295              		.file 15 "../firmware/GD32f3x0_hal_peripheral/Include/gd32f3x0_hal_usart_com.h"
 6296              		.file 16 "../firmware/GD32f3x0_hal_peripheral/Include/gd32f3x0_hal_smartcard.h"
DEFINED SYMBOLS
                            *ABS*:00000000 gd32f3x0_hal_smartcard.c
C:\Users\peter\AppData\Local\Temp\ccKN8rjI.s:16     .text.hal_smartcard_struct_init:00000000 $t
C:\Users\peter\AppData\Local\Temp\ccKN8rjI.s:24     .text.hal_smartcard_struct_init:00000000 hal_smartcard_struct_init
C:\Users\peter\AppData\Local\Temp\ccKN8rjI.s:50     .text.hal_smartcard_struct_init:0000001c $d
C:\Users\peter\AppData\Local\Temp\ccKN8rjI.s:54     .text.hal_smartcard_struct_init:0000002c $t
C:\Users\peter\AppData\Local\Temp\ccKN8rjI.s:294    .text.hal_smartcard_deinit:00000000 $t
C:\Users\peter\AppData\Local\Temp\ccKN8rjI.s:301    .text.hal_smartcard_deinit:00000000 hal_smartcard_deinit
C:\Users\peter\AppData\Local\Temp\ccKN8rjI.s:2846   .text.hals_smartcard_deinit:00000000 hals_smartcard_deinit
C:\Users\peter\AppData\Local\Temp\ccKN8rjI.s:348    .text.hal_smartcard_deinit:00000034 $d
C:\Users\peter\AppData\Local\Temp\ccKN8rjI.s:353    .text.hal_smartcard_init:00000000 $t
C:\Users\peter\AppData\Local\Temp\ccKN8rjI.s:360    .text.hal_smartcard_init:00000000 hal_smartcard_init
C:\Users\peter\AppData\Local\Temp\ccKN8rjI.s:3290   .text.hals_smartcard_disable:00000000 hals_smartcard_disable
C:\Users\peter\AppData\Local\Temp\ccKN8rjI.s:2915   .text.hals_smartcard_baudrate_set:00000000 hals_smartcard_baudrate_set
C:\Users\peter\AppData\Local\Temp\ccKN8rjI.s:4417   .text.hals_smartcard_mode_enable:00000000 hals_smartcard_mode_enable
C:\Users\peter\AppData\Local\Temp\ccKN8rjI.s:3247   .text.hals_smartcard_enable:00000000 hals_smartcard_enable
C:\Users\peter\AppData\Local\Temp\ccKN8rjI.s:878    .text.hal_smartcard_irq:00000000 $t
C:\Users\peter\AppData\Local\Temp\ccKN8rjI.s:885    .text.hal_smartcard_irq:00000000 hal_smartcard_irq
C:\Users\peter\AppData\Local\Temp\ccKN8rjI.s:5593   .text._smartcard_error_flag_get:00000000 _smartcard_error_flag_get
C:\Users\peter\AppData\Local\Temp\ccKN8rjI.s:5431   .text.hals_smartcard_interrupt_flag_get:00000000 hals_smartcard_interrupt_flag_get
C:\Users\peter\AppData\Local\Temp\ccKN8rjI.s:5520   .text.hals_smartcard_interrupt_flag_clear:00000000 hals_smartcard_interrupt_flag_clear
C:\Users\peter\AppData\Local\Temp\ccKN8rjI.s:1217   .text.hal_smartcard_irq:00000200 $d
C:\Users\peter\AppData\Local\Temp\ccKN8rjI.s:1230   .text.hal_smartcard_irq_handle_set:00000000 $t
C:\Users\peter\AppData\Local\Temp\ccKN8rjI.s:1237   .text.hal_smartcard_irq_handle_set:00000000 hal_smartcard_irq_handle_set
C:\Users\peter\AppData\Local\Temp\ccKN8rjI.s:5307   .text.hals_smartcard_interrupt_enable:00000000 hals_smartcard_interrupt_enable
C:\Users\peter\AppData\Local\Temp\ccKN8rjI.s:5368   .text.hals_smartcard_interrupt_disable:00000000 hals_smartcard_interrupt_disable
C:\Users\peter\AppData\Local\Temp\ccKN8rjI.s:1402   .text.hal_smartcard_irq_handle_all_reset:00000000 $t
C:\Users\peter\AppData\Local\Temp\ccKN8rjI.s:1409   .text.hal_smartcard_irq_handle_all_reset:00000000 hal_smartcard_irq_handle_all_reset
C:\Users\peter\AppData\Local\Temp\ccKN8rjI.s:1455   .text.hal_smartcard_transmit_poll:00000000 $t
C:\Users\peter\AppData\Local\Temp\ccKN8rjI.s:1462   .text.hal_smartcard_transmit_poll:00000000 hal_smartcard_transmit_poll
C:\Users\peter\AppData\Local\Temp\ccKN8rjI.s:3384   .text.hals_smartcard_receive_config:00000000 hals_smartcard_receive_config
C:\Users\peter\AppData\Local\Temp\ccKN8rjI.s:4111   .text.hals_smartcard_command_enable:00000000 hals_smartcard_command_enable
C:\Users\peter\AppData\Local\Temp\ccKN8rjI.s:3333   .text.hals_smartcard_transmit_config:00000000 hals_smartcard_transmit_config
C:\Users\peter\AppData\Local\Temp\ccKN8rjI.s:5191   .text.hals_smartcard_flag_get:00000000 hals_smartcard_flag_get
C:\Users\peter\AppData\Local\Temp\ccKN8rjI.s:4018   .text.hals_smartcard_data_transmit:00000000 hals_smartcard_data_transmit
C:\Users\peter\AppData\Local\Temp\ccKN8rjI.s:1686   .text.hal_smartcard_receive_poll:00000000 $t
C:\Users\peter\AppData\Local\Temp\ccKN8rjI.s:1693   .text.hal_smartcard_receive_poll:00000000 hal_smartcard_receive_poll
C:\Users\peter\AppData\Local\Temp\ccKN8rjI.s:4066   .text.hals_smartcard_data_receive:00000000 hals_smartcard_data_receive
C:\Users\peter\AppData\Local\Temp\ccKN8rjI.s:1856   .text.hal_smartcard_transmit_interrupt:00000000 $t
C:\Users\peter\AppData\Local\Temp\ccKN8rjI.s:1863   .text.hal_smartcard_transmit_interrupt:00000000 hal_smartcard_transmit_interrupt
C:\Users\peter\AppData\Local\Temp\ccKN8rjI.s:1991   .text.hal_smartcard_transmit_interrupt:000000c8 $d
C:\Users\peter\AppData\Local\Temp\ccKN8rjI.s:5732   .text._smartcard_transmit_interrupt:00000000 _smartcard_transmit_interrupt
C:\Users\peter\AppData\Local\Temp\ccKN8rjI.s:5647   .text._smartcard_transmit_complete_interrupt:00000000 _smartcard_transmit_complete_interrupt
C:\Users\peter\AppData\Local\Temp\ccKN8rjI.s:1998   .text.hal_smartcard_receive_interrupt:00000000 $t
C:\Users\peter\AppData\Local\Temp\ccKN8rjI.s:2005   .text.hal_smartcard_receive_interrupt:00000000 hal_smartcard_receive_interrupt
C:\Users\peter\AppData\Local\Temp\ccKN8rjI.s:2111   .text.hal_smartcard_receive_interrupt:0000009c $d
C:\Users\peter\AppData\Local\Temp\ccKN8rjI.s:5827   .text._smartcard_receive_interrupt:00000000 _smartcard_receive_interrupt
C:\Users\peter\AppData\Local\Temp\ccKN8rjI.s:2116   .text.hal_smartcard_transmit_dma:00000000 $t
C:\Users\peter\AppData\Local\Temp\ccKN8rjI.s:2123   .text.hal_smartcard_transmit_dma:00000000 hal_smartcard_transmit_dma
C:\Users\peter\AppData\Local\Temp\ccKN8rjI.s:4894   .text.hals_smartcard_dma_transmit_config:00000000 hals_smartcard_dma_transmit_config
C:\Users\peter\AppData\Local\Temp\ccKN8rjI.s:2349   .text.hal_smartcard_transmit_dma:00000150 $d
C:\Users\peter\AppData\Local\Temp\ccKN8rjI.s:5953   .text._smartcard_transmit_dma:00000000 _smartcard_transmit_dma
C:\Users\peter\AppData\Local\Temp\ccKN8rjI.s:6138   .text._smartcard_dma_error:00000000 _smartcard_dma_error
C:\Users\peter\AppData\Local\Temp\ccKN8rjI.s:2357   .text.hal_smartcard_receive_dma:00000000 $t
C:\Users\peter\AppData\Local\Temp\ccKN8rjI.s:2364   .text.hal_smartcard_receive_dma:00000000 hal_smartcard_receive_dma
C:\Users\peter\AppData\Local\Temp\ccKN8rjI.s:4835   .text.hals_smartcard_dma_receive_config:00000000 hals_smartcard_dma_receive_config
C:\Users\peter\AppData\Local\Temp\ccKN8rjI.s:2568   .text.hal_smartcard_receive_dma:00000128 $d
C:\Users\peter\AppData\Local\Temp\ccKN8rjI.s:6033   .text._smartcard_receive_dma:00000000 _smartcard_receive_dma
C:\Users\peter\AppData\Local\Temp\ccKN8rjI.s:2574   .text.hal_smartcard_transmit_stop:00000000 $t
C:\Users\peter\AppData\Local\Temp\ccKN8rjI.s:2581   .text.hal_smartcard_transmit_stop:00000000 hal_smartcard_transmit_stop
C:\Users\peter\AppData\Local\Temp\ccKN8rjI.s:2678   .text.hal_smartcard_transmit_stop:00000094 $d
C:\Users\peter\AppData\Local\Temp\ccKN8rjI.s:2683   .text.hal_smartcard_receive_stop:00000000 $t
C:\Users\peter\AppData\Local\Temp\ccKN8rjI.s:2690   .text.hal_smartcard_receive_stop:00000000 hal_smartcard_receive_stop
C:\Users\peter\AppData\Local\Temp\ccKN8rjI.s:2829   .text.hal_smartcard_receive_stop:000000e8 $d
C:\Users\peter\AppData\Local\Temp\ccKN8rjI.s:2839   .text.hals_smartcard_deinit:00000000 $t
C:\Users\peter\AppData\Local\Temp\ccKN8rjI.s:2902   .text.hals_smartcard_deinit:00000048 $d
C:\Users\peter\AppData\Local\Temp\ccKN8rjI.s:2908   .text.hals_smartcard_baudrate_set:00000000 $t
C:\Users\peter\AppData\Local\Temp\ccKN8rjI.s:3058   .text.hals_smartcard_baudrate_set:000000c4 $d
C:\Users\peter\AppData\Local\Temp\ccKN8rjI.s:3064   .text.hals_smartcard_parity_config:00000000 $t
C:\Users\peter\AppData\Local\Temp\ccKN8rjI.s:3071   .text.hals_smartcard_parity_config:00000000 hals_smartcard_parity_config
C:\Users\peter\AppData\Local\Temp\ccKN8rjI.s:3121   .text.hals_smartcard_word_length_set:00000000 $t
C:\Users\peter\AppData\Local\Temp\ccKN8rjI.s:3128   .text.hals_smartcard_word_length_set:00000000 hals_smartcard_word_length_set
C:\Users\peter\AppData\Local\Temp\ccKN8rjI.s:3178   .text.hals_smartcard_stop_bit_set:00000000 $t
C:\Users\peter\AppData\Local\Temp\ccKN8rjI.s:3185   .text.hals_smartcard_stop_bit_set:00000000 hals_smartcard_stop_bit_set
C:\Users\peter\AppData\Local\Temp\ccKN8rjI.s:3240   .text.hals_smartcard_enable:00000000 $t
C:\Users\peter\AppData\Local\Temp\ccKN8rjI.s:3283   .text.hals_smartcard_disable:00000000 $t
C:\Users\peter\AppData\Local\Temp\ccKN8rjI.s:3326   .text.hals_smartcard_transmit_config:00000000 $t
C:\Users\peter\AppData\Local\Temp\ccKN8rjI.s:3377   .text.hals_smartcard_receive_config:00000000 $t
C:\Users\peter\AppData\Local\Temp\ccKN8rjI.s:3428   .text.hals_smartcard_data_first_config:00000000 $t
C:\Users\peter\AppData\Local\Temp\ccKN8rjI.s:3435   .text.hals_smartcard_data_first_config:00000000 hals_smartcard_data_first_config
C:\Users\peter\AppData\Local\Temp\ccKN8rjI.s:3490   .text.hals_smartcard_invert_config:00000000 $t
C:\Users\peter\AppData\Local\Temp\ccKN8rjI.s:3497   .text.hals_smartcard_invert_config:00000000 hals_smartcard_invert_config
C:\Users\peter\AppData\Local\Temp\ccKN8rjI.s:3528   .text.hals_smartcard_invert_config:00000024 $d
C:\Users\peter\AppData\Local\Temp\ccKN8rjI.s:3536   .text.hals_smartcard_invert_config:00000044 $t
C:\Users\peter\AppData\Local\Temp\ccKN8rjI.s:3644   .text.hals_smartcard_overrun_enable:00000000 $t
C:\Users\peter\AppData\Local\Temp\ccKN8rjI.s:3651   .text.hals_smartcard_overrun_enable:00000000 hals_smartcard_overrun_enable
C:\Users\peter\AppData\Local\Temp\ccKN8rjI.s:3695   .text.hals_smartcard_overrun_disable:00000000 $t
C:\Users\peter\AppData\Local\Temp\ccKN8rjI.s:3702   .text.hals_smartcard_overrun_disable:00000000 hals_smartcard_overrun_disable
C:\Users\peter\AppData\Local\Temp\ccKN8rjI.s:3746   .text.hals_smartcard_oversample_config:00000000 $t
C:\Users\peter\AppData\Local\Temp\ccKN8rjI.s:3753   .text.hals_smartcard_oversample_config:00000000 hals_smartcard_oversample_config
C:\Users\peter\AppData\Local\Temp\ccKN8rjI.s:3803   .text.hals_smartcard_sample_bit_config:00000000 $t
C:\Users\peter\AppData\Local\Temp\ccKN8rjI.s:3810   .text.hals_smartcard_sample_bit_config:00000000 hals_smartcard_sample_bit_config
C:\Users\peter\AppData\Local\Temp\ccKN8rjI.s:3865   .text.hals_smartcard_receiver_timeout_enable:00000000 $t
C:\Users\peter\AppData\Local\Temp\ccKN8rjI.s:3872   .text.hals_smartcard_receiver_timeout_enable:00000000 hals_smartcard_receiver_timeout_enable
C:\Users\peter\AppData\Local\Temp\ccKN8rjI.s:3910   .text.hals_smartcard_receiver_timeout_disable:00000000 $t
C:\Users\peter\AppData\Local\Temp\ccKN8rjI.s:3917   .text.hals_smartcard_receiver_timeout_disable:00000000 hals_smartcard_receiver_timeout_disable
C:\Users\peter\AppData\Local\Temp\ccKN8rjI.s:3955   .text.hals_smartcard_receiver_timeout_threshold_config:00000000 $t
C:\Users\peter\AppData\Local\Temp\ccKN8rjI.s:3962   .text.hals_smartcard_receiver_timeout_threshold_config:00000000 hals_smartcard_receiver_timeout_threshold_config
C:\Users\peter\AppData\Local\Temp\ccKN8rjI.s:4011   .text.hals_smartcard_data_transmit:00000000 $t
C:\Users\peter\AppData\Local\Temp\ccKN8rjI.s:4059   .text.hals_smartcard_data_receive:00000000 $t
C:\Users\peter\AppData\Local\Temp\ccKN8rjI.s:4104   .text.hals_smartcard_command_enable:00000000 $t
C:\Users\peter\AppData\Local\Temp\ccKN8rjI.s:4152   .text.hals_smartcard_clock_enable:00000000 $t
C:\Users\peter\AppData\Local\Temp\ccKN8rjI.s:4159   .text.hals_smartcard_clock_enable:00000000 hals_smartcard_clock_enable
C:\Users\peter\AppData\Local\Temp\ccKN8rjI.s:4203   .text.hals_smartcard_clock_disable:00000000 $t
C:\Users\peter\AppData\Local\Temp\ccKN8rjI.s:4210   .text.hals_smartcard_clock_disable:00000000 hals_smartcard_clock_disable
C:\Users\peter\AppData\Local\Temp\ccKN8rjI.s:4254   .text.hals_smartcard_synchronous_clock_config:00000000 $t
C:\Users\peter\AppData\Local\Temp\ccKN8rjI.s:4261   .text.hals_smartcard_synchronous_clock_config:00000000 hals_smartcard_synchronous_clock_config
C:\Users\peter\AppData\Local\Temp\ccKN8rjI.s:4344   .text.hals_smartcard_guard_time_config:00000000 $t
C:\Users\peter\AppData\Local\Temp\ccKN8rjI.s:4351   .text.hals_smartcard_guard_time_config:00000000 hals_smartcard_guard_time_config
C:\Users\peter\AppData\Local\Temp\ccKN8rjI.s:4410   .text.hals_smartcard_mode_enable:00000000 $t
C:\Users\peter\AppData\Local\Temp\ccKN8rjI.s:4461   .text.hals_smartcard_mode_disable:00000000 $t
C:\Users\peter\AppData\Local\Temp\ccKN8rjI.s:4468   .text.hals_smartcard_mode_disable:00000000 hals_smartcard_mode_disable
C:\Users\peter\AppData\Local\Temp\ccKN8rjI.s:4512   .text.hals_smartcard_mode_nack_enable:00000000 $t
C:\Users\peter\AppData\Local\Temp\ccKN8rjI.s:4519   .text.hals_smartcard_mode_nack_enable:00000000 hals_smartcard_mode_nack_enable
C:\Users\peter\AppData\Local\Temp\ccKN8rjI.s:4563   .text.hals_smartcard_mode_nack_disable:00000000 $t
C:\Users\peter\AppData\Local\Temp\ccKN8rjI.s:4570   .text.hals_smartcard_mode_nack_disable:00000000 hals_smartcard_mode_nack_disable
C:\Users\peter\AppData\Local\Temp\ccKN8rjI.s:4614   .text.hals_smartcard_mode_early_nack_enable:00000000 $t
C:\Users\peter\AppData\Local\Temp\ccKN8rjI.s:4621   .text.hals_smartcard_mode_early_nack_enable:00000000 hals_smartcard_mode_early_nack_enable
C:\Users\peter\AppData\Local\Temp\ccKN8rjI.s:4659   .text.hals_smartcard_mode_early_nack_disable:00000000 $t
C:\Users\peter\AppData\Local\Temp\ccKN8rjI.s:4666   .text.hals_smartcard_mode_early_nack_disable:00000000 hals_smartcard_mode_early_nack_disable
C:\Users\peter\AppData\Local\Temp\ccKN8rjI.s:4704   .text.hals_smartcard_autoretry_config:00000000 $t
C:\Users\peter\AppData\Local\Temp\ccKN8rjI.s:4711   .text.hals_smartcard_autoretry_config:00000000 hals_smartcard_autoretry_config
C:\Users\peter\AppData\Local\Temp\ccKN8rjI.s:4770   .text.hals_smartcard_block_length_config:00000000 $t
C:\Users\peter\AppData\Local\Temp\ccKN8rjI.s:4777   .text.hals_smartcard_block_length_config:00000000 hals_smartcard_block_length_config
C:\Users\peter\AppData\Local\Temp\ccKN8rjI.s:4828   .text.hals_smartcard_dma_receive_config:00000000 $t
C:\Users\peter\AppData\Local\Temp\ccKN8rjI.s:4887   .text.hals_smartcard_dma_transmit_config:00000000 $t
C:\Users\peter\AppData\Local\Temp\ccKN8rjI.s:4946   .text.hals_smartcard_reception_error_dma_enable:00000000 $t
C:\Users\peter\AppData\Local\Temp\ccKN8rjI.s:4953   .text.hals_smartcard_reception_error_dma_enable:00000000 hals_smartcard_reception_error_dma_enable
C:\Users\peter\AppData\Local\Temp\ccKN8rjI.s:4997   .text.hals_smartcard_reception_error_dma_disable:00000000 $t
C:\Users\peter\AppData\Local\Temp\ccKN8rjI.s:5004   .text.hals_smartcard_reception_error_dma_disable:00000000 hals_smartcard_reception_error_dma_disable
C:\Users\peter\AppData\Local\Temp\ccKN8rjI.s:5048   .text.hals_smartcard_receive_fifo_enable:00000000 $t
C:\Users\peter\AppData\Local\Temp\ccKN8rjI.s:5055   .text.hals_smartcard_receive_fifo_enable:00000000 hals_smartcard_receive_fifo_enable
C:\Users\peter\AppData\Local\Temp\ccKN8rjI.s:5093   .text.hals_smartcard_receive_fifo_disable:00000000 $t
C:\Users\peter\AppData\Local\Temp\ccKN8rjI.s:5100   .text.hals_smartcard_receive_fifo_disable:00000000 hals_smartcard_receive_fifo_disable
C:\Users\peter\AppData\Local\Temp\ccKN8rjI.s:5138   .text.hals_smartcard_receive_fifo_counter_number:00000000 $t
C:\Users\peter\AppData\Local\Temp\ccKN8rjI.s:5145   .text.hals_smartcard_receive_fifo_counter_number:00000000 hals_smartcard_receive_fifo_counter_number
C:\Users\peter\AppData\Local\Temp\ccKN8rjI.s:5184   .text.hals_smartcard_flag_get:00000000 $t
C:\Users\peter\AppData\Local\Temp\ccKN8rjI.s:5247   .text.hals_smartcard_flag_clear:00000000 $t
C:\Users\peter\AppData\Local\Temp\ccKN8rjI.s:5254   .text.hals_smartcard_flag_clear:00000000 hals_smartcard_flag_clear
C:\Users\peter\AppData\Local\Temp\ccKN8rjI.s:5300   .text.hals_smartcard_interrupt_enable:00000000 $t
C:\Users\peter\AppData\Local\Temp\ccKN8rjI.s:5361   .text.hals_smartcard_interrupt_disable:00000000 $t
C:\Users\peter\AppData\Local\Temp\ccKN8rjI.s:5424   .text.hals_smartcard_interrupt_flag_get:00000000 $t
C:\Users\peter\AppData\Local\Temp\ccKN8rjI.s:5513   .text.hals_smartcard_interrupt_flag_clear:00000000 $t
C:\Users\peter\AppData\Local\Temp\ccKN8rjI.s:5582   .text.hals_smartcard_interrupt_flag_clear:0000004c $d
C:\Users\peter\AppData\Local\Temp\ccKN8rjI.s:5587   .text._smartcard_error_flag_get:00000000 $t
C:\Users\peter\AppData\Local\Temp\ccKN8rjI.s:5641   .text._smartcard_transmit_complete_interrupt:00000000 $t
C:\Users\peter\AppData\Local\Temp\ccKN8rjI.s:5726   .text._smartcard_transmit_interrupt:00000000 $t
C:\Users\peter\AppData\Local\Temp\ccKN8rjI.s:5821   .text._smartcard_receive_interrupt:00000000 $t
C:\Users\peter\AppData\Local\Temp\ccKN8rjI.s:5947   .text._smartcard_transmit_dma:00000000 $t
C:\Users\peter\AppData\Local\Temp\ccKN8rjI.s:6022   .text._smartcard_transmit_dma:00000058 $d
C:\Users\peter\AppData\Local\Temp\ccKN8rjI.s:6027   .text._smartcard_receive_dma:00000000 $t
C:\Users\peter\AppData\Local\Temp\ccKN8rjI.s:6127   .text._smartcard_receive_dma:00000080 $d
C:\Users\peter\AppData\Local\Temp\ccKN8rjI.s:6132   .text._smartcard_dma_error:00000000 $t
                           .group:00000000 wm4.0.b316ac8f61e0e6e0285f1e03e5bd3513
                           .group:00000000 wm4.stdarg.h.31.b55da1089056868966f25de5dbfc7d3c
                           .group:00000000 wm4._newlib_version.h.4.9ba035841e762c3308916a0ce96032e7
                           .group:00000000 wm4.newlib.h.18.ac66930cc5dc086504ebba5cc05ab7f1
                           .group:00000000 wm4.ieeefp.h.77.d5685ba212d3ed6e914898d045f873e3
                           .group:00000000 wm4.features.h.22.fad1cec3bc7ff06488171438dbdcfd02
                           .group:00000000 wm4.config.h.220.6cac6a9685cfce5e83c17784171638d9
                           .group:00000000 wm4._ansi.h.31.de524f58584151836e90d8620a16f8e8
                           .group:00000000 wm4.stdio.h.31.7c0e28c411445f3f9c5b11accf882760
                           .group:00000000 wm4._default_types.h.6.959254cf5f09734ea7516c89e8bb21bd
                           .group:00000000 wm4.stddef.h.181.c3f52a3b0f4c288bddb5dda1562858e2
                           .group:00000000 wm4.cdefs.h.49.6260d97adb8d27534cbdc0f868b8ea87
                           .group:00000000 wm4.stddef.h.39.b727a6c3269d9d6ef9fc646b721a8287
                           .group:00000000 wm4.lock.h.2.1461d1fff82dffe8bfddc23307f6484f
                           .group:00000000 wm4._types.h.125.5cf8a495f1f7ef36777ad868a1e32068
                           .group:00000000 wm4.stddef.h.155.3588ebfdd1e8c7ede80509bb9c3b8009
                           .group:00000000 wm4._types.h.184.03611d4f6b5bec9997bcf4279eceba07
                           .group:00000000 wm4.reent.h.17.90c2574d4acdcfce933db5cb09ff35fe
                           .group:00000000 wm4.types.h.40.e8c16e7ec36ba55f133d0616070e25fc
                           .group:00000000 wm4._stdint.h.10.c24fa3af3bc1706662bb5593a907e841
                           .group:00000000 wm4._endian.h.31.65a10590763c3dde1ac4a7f66d7d4891
                           .group:00000000 wm4.endian.h.9.49f3a4695c1b61e8a0808de3c4a106cb
                           .group:00000000 wm4._timeval.h.30.0e8bfd94e85db17dda3286ee81496fe6
                           .group:00000000 wm4.timespec.h.41.d855182eb0e690443ab8651bcedca6e1
                           .group:00000000 wm4.select.h.19.97ca6fd0c752a0f3b6719fd314d361e6
                           .group:00000000 wm4.types.h.69.ed3eae3cf73030a737515151ebcab7a1
                           .group:00000000 wm4.sched.h.22.c60982713a5c428609783c78f9c78d95
                           .group:00000000 wm4._pthreadtypes.h.36.fcee9961c35163dde6267ef772ad1972
                           .group:00000000 wm4.stdio.h.2.4aa87247282eca6c8f36f9de33d8df1a
                           .group:00000000 wm4.stdio.h.81.932d0c162786b883f622b8d05c120c78
                           .group:00000000 wm4.gd32f3x0_hal.h.52.43337a488df56bad1a66550eb74593ea
                           .group:00000000 wm4.gd32f3x0.h.36.5dfcb46b6e5e152feffb6039fee007e2
                           .group:00000000 wm4.core_cm4.h.47.434d5634a5df7142236685d6945e71d7
                           .group:00000000 wm4._intsup.h.10.cce27fed8484c08a33f522034c30d2b5
                           .group:00000000 wm4.stdint.h.23.d53047a68f4a85177f80b422d52785ed
                           .group:00000000 wm4.core_cmInstr.h.25.d8165482ef3061013a2fc83e2d85f3d9
                           .group:00000000 wm4.core_cm4_simd.h.43.bf657009d9c246d6ac6e7b120cdd899a
                           .group:00000000 wm4.core_cm4.h.196.7d82f39a4c9e2de723b837137e6ae289
                           .group:00000000 wm4.gd32f3x0.h.180.82f67477079136206c5871e7542ee564
                           .group:00000000 wm4.gd32f3x0_libopt.h.36.45b869ab1209cc1a50f3dfc76a311cb9
                           .group:00000000 wm4.gd32f3x0_hal_dma.h.41.ca879783be1737b965b3ae4e7f93f872
                           .group:00000000 wm4.string.h.8.c4b8571ce60dff2817f43fec8b86aecd
                           .group:00000000 wm4.stddef.h.155.ba788add86a0e365f264484f110c3c29
                           .group:00000000 wm4.stdlib.h.13.4ed386f5c1a80d71e72172885d946ef2
                           .group:00000000 wm4.alloca.h.8.dfc0c703c47ec3e69746825b17d9e66d
                           .group:00000000 wm4.stdlib.h.56.d4493cd3736e51e9d56335045f26df45
                           .group:00000000 wm4.gd32f3x0_hal_fmc.h.43.2987de260e370bf3f5b8a24cb7cf3bf8
                           .group:00000000 wm4.gd32f3x0_hal_pmu.h.36.5635520c461bb7aaf91bffd9cbfc72ad
                           .group:00000000 wm4.gd32f3x0_hal_gpio.h.36.a12be1408d39f193128846456cde3d37
                           .group:00000000 wm4.gd32f3x0_hal_rcu.h.38.87d0c22ec8715f857cfeeefdccb19c2d
                           .group:00000000 wm4.gd32f3x0_hal_exti.h.36.1ea5944bb2717abba6eb4f5f2b24bf84
                           .group:00000000 wm4.gd32f3x0_hal_sys.h.35.2ceb07a2f85f308445b52768bbccb36f
                           .group:00000000 wm4.gd32f3x0_hal_syscfg.h.36.72a727ef72a22345530b3ff53cbe3ce3
                           .group:00000000 wm4.gd32f3x0_hal_nvic.h.36.4aa8cd20672a0a2c198d8567b1de409e
                           .group:00000000 wm4.gd32f3x0_hal_cmp.h.36.f85d9d5e9ce0d5ec5a6c328e83b87368
                           .group:00000000 wm4.gd32f3x0_hal_crc.h.36.1900d76e2c07c18b1ef1c9b856f287b8
                           .group:00000000 wm4.gd32f3x0_hal_adc.h.36.8c3322d47f1ee3cab423f686efb96e34
                           .group:00000000 wm4.gd32f3x0_hal_ctc.h.36.847bc0cba62101d5ce7e8bf46a1d8bff
                           .group:00000000 wm4.gd32f3x0_hal_fwdgt.h.37.9a77d48f0ebb1bea9efac8306d3abfa3
                           .group:00000000 wm4.gd32f3x0_hal_wwdgt.h.36.19843a8487f7f073536e58bdf0d3f2d3
                           .group:00000000 wm4.gd32f3x0_hal_spi_com.h.36.6baebef46bf9bda5babad635e2a47342
                           .group:00000000 wm4.gd32f3x0_hal_spi.h.36.c5af6148e40a30fadbbdd1f06ceea13d
                           .group:00000000 wm4.gd32f3x0_hal_i2s.h.36.e903082eeeee8f5fb4aff85df922f163
                           .group:00000000 wm4.gd32f3x0_hal_usart_com.h.36.69752e97184d87492213ad2f277017fc
                           .group:00000000 wm4.gd32f3x0_hal_uart.h.36.cbee0c6c192eff6011d6338977fcd04b
                           .group:00000000 wm4.gd32f3x0_hal_usrt.h.36.ffd63cfab4e0501d677bc717158e43a6
                           .group:00000000 wm4.gd32f3x0_hal_irda.h.36.3910de0ccf8d5623643304fed3f81eb2
                           .group:00000000 wm4.gd32f3x0_hal_smartcard.h.36.ab9bc113f17ef2e0fb1ebed69f0678d8
                           .group:00000000 wm4.gd32f3x0_hal_rtc.h.36.5e01e9f7c643662797b76c8fb127db6a
                           .group:00000000 wm4.gd32f3x0_hal_i2c_com.h.36.93c032b15c0ba33e15ba767e036a725b
                           .group:00000000 wm4.gd32f3x0_hal_i2c.h.36.5070b63e35481aadf06d643445a9b538
                           .group:00000000 wm4.gd32f3x0_hal_smbus.h.36.ff84c1a5256828a88dd698d2f412ded9
                           .group:00000000 wm4.gd32f3x0_hal_timer.h.36.1cc370b1b382cdb697c16ab5f59079f9
                           .group:00000000 wm4.gd32f3x0_hal.h.138.6420920baed40fecd6e3a38f9485824a

UNDEFINED SYMBOLS
hals_uart_halfduplex_disable
hals_irda_mode_disable
hals_uart_lin_mode_disable
hal_sys_basetick_count_get
hal_sys_basetick_timeout_check
hal_dma_start_interrupt
hal_dma_stop
hal_rcu_periph_reset_enable
hal_rcu_periph_reset_disable
hals_rcu_clock_freq_get
