   1              		.cpu cortex-m4
   2              		.eabi_attribute 20, 1
   3              		.eabi_attribute 21, 1
   4              		.eabi_attribute 23, 3
   5              		.eabi_attribute 24, 1
   6              		.eabi_attribute 25, 1
   7              		.eabi_attribute 26, 1
   8              		.eabi_attribute 30, 6
   9              		.eabi_attribute 34, 1
  10              		.eabi_attribute 18, 4
  11              		.file	"gd32f3x0_hal_it.c"
  12              		.text
  13              	.Ltext0:
  14              		.cfi_sections	.debug_frame
  15              		.section	.text.NMI_Handler,"ax",%progbits
  16              		.align	1
  17              		.global	NMI_Handler
  18              		.arch armv7e-m
  19              		.syntax unified
  20              		.thumb
  21              		.thumb_func
  22              		.fpu softvfp
  24              	NMI_Handler:
  25              	.LFB119:
  26              		.file 1 "../src/gd32f3x0_hal_it.c"
   1:../src/gd32f3x0_hal_it.c **** /*
   2:../src/gd32f3x0_hal_it.c ****     \file  gd32f3x0_hal_it.c
   3:../src/gd32f3x0_hal_it.c **** */
   4:../src/gd32f3x0_hal_it.c **** /*
   5:../src/gd32f3x0_hal_it.c ****     Copyright (c) 2024, GigaDevice Semiconductor Inc.
   6:../src/gd32f3x0_hal_it.c **** 
   7:../src/gd32f3x0_hal_it.c ****     All rights reserved.
   8:../src/gd32f3x0_hal_it.c **** 
   9:../src/gd32f3x0_hal_it.c ****     Redistribution and use in source and binary forms, with or without modification,
  10:../src/gd32f3x0_hal_it.c **** are permitted provided that the following conditions are met:
  11:../src/gd32f3x0_hal_it.c **** 
  12:../src/gd32f3x0_hal_it.c ****     1. Redistributions of source code must retain the above copyright notice, this 
  13:../src/gd32f3x0_hal_it.c ****        list of conditions and the following disclaimer.
  14:../src/gd32f3x0_hal_it.c ****     2. Redistributions in binary form must reproduce the above copyright notice, 
  15:../src/gd32f3x0_hal_it.c ****        this list of conditions and the following disclaimer in the documentation 
  16:../src/gd32f3x0_hal_it.c ****        and/or other materials provided with the distribution.
  17:../src/gd32f3x0_hal_it.c ****     3. Neither the name of the copyright holder nor the names of its contributors 
  18:../src/gd32f3x0_hal_it.c ****        may be used to endorse or promote products derived from this software without 
  19:../src/gd32f3x0_hal_it.c ****        specific prior written permission.
  20:../src/gd32f3x0_hal_it.c **** 
  21:../src/gd32f3x0_hal_it.c ****     THIS SOFTWARE IS PROVIDED BY THE COPYRIGHT HOLDERS AND CONTRIBUTORS "AS IS" 
  22:../src/gd32f3x0_hal_it.c **** AND ANY EXPRESS OR IMPLIED WARRANTIES, INCLUDING, BUT NOT LIMITED TO, THE IMPLIED 
  23:../src/gd32f3x0_hal_it.c **** WARRANTIES OF MERCHANTABILITY AND FITNESS FOR A PARTICULAR PURPOSE ARE DISCLAIMED. 
  24:../src/gd32f3x0_hal_it.c **** IN NO EVENT SHALL THE COPYRIGHT HOLDER OR CONTRIBUTORS BE LIABLE FOR ANY DIRECT, 
  25:../src/gd32f3x0_hal_it.c **** INDIRECT, INCIDENTAL, SPECIAL, EXEMPLARY, OR CONSEQUENTIAL DAMAGES (INCLUDING, BUT 
  26:../src/gd32f3x0_hal_it.c **** NOT LIMITED TO, PROCUREMENT OF SUBSTITUTE GOODS OR SERVICES; LOSS OF USE, DATA, OR 
  27:../src/gd32f3x0_hal_it.c **** PROFITS; OR BUSINESS INTERRUPTION) HOWEVER CAUSED AND ON ANY THEORY OF LIABILITY, 
  28:../src/gd32f3x0_hal_it.c **** WHETHER IN CONTRACT, STRICT LIABILITY, OR TORT (INCLUDING NEGLIGENCE OR OTHERWISE) 
  29:../src/gd32f3x0_hal_it.c **** ARISING IN ANY WAY OUT OF THE USE OF THIS SOFTWARE, EVEN IF ADVISED OF THE POSSIBILITY 
  30:../src/gd32f3x0_hal_it.c **** OF SUCH DAMAGE.
  31:../src/gd32f3x0_hal_it.c **** */
  32:../src/gd32f3x0_hal_it.c **** #include "gd32f3x0_hal_it.h"
  33:../src/gd32f3x0_hal_it.c **** #include "gd32f3x0_hal.h"
  34:../src/gd32f3x0_hal_it.c **** #include "gd32f3x0_hal_init.h"
  35:../src/gd32f3x0_hal_it.c **** 
  36:../src/gd32f3x0_hal_it.c **** void NMI_Handler(void)
  37:../src/gd32f3x0_hal_it.c **** {
  27              		.loc 1 37 1
  28              		.cfi_startproc
  29              		@ args = 0, pretend = 0, frame = 0
  30              		@ frame_needed = 1, uses_anonymous_args = 0
  31              		@ link register save eliminated.
  32 0000 80B4     		push	{r7}
  33              		.cfi_def_cfa_offset 4
  34              		.cfi_offset 7, -4
  35 0002 00AF     		add	r7, sp, #0
  36              		.cfi_def_cfa_register 7
  38:../src/gd32f3x0_hal_it.c ****     /* user code [NonMaskableInt_IRQn local 0] begin */
  39:../src/gd32f3x0_hal_it.c ****     /* user code [NonMaskableInt_IRQn local 0] end */
  40:../src/gd32f3x0_hal_it.c ****     /* user code [NonMaskableInt_IRQn local 1] begin */
  41:../src/gd32f3x0_hal_it.c ****     /* user code [NonMaskableInt_IRQn local 1] end */
  42:../src/gd32f3x0_hal_it.c **** }
  37              		.loc 1 42 1
  38 0004 00BF     		nop
  39 0006 BD46     		mov	sp, r7
  40              		.cfi_def_cfa_register 13
  41              		@ sp needed
  42 0008 80BC     		pop	{r7}
  43              		.cfi_restore 7
  44              		.cfi_def_cfa_offset 0
  45 000a 7047     		bx	lr
  46              		.cfi_endproc
  47              	.LFE119:
  49              		.section	.text.SVC_Handler,"ax",%progbits
  50              		.align	1
  51              		.global	SVC_Handler
  52              		.syntax unified
  53              		.thumb
  54              		.thumb_func
  55              		.fpu softvfp
  57              	SVC_Handler:
  58              	.LFB120:
  43:../src/gd32f3x0_hal_it.c **** 
  44:../src/gd32f3x0_hal_it.c **** void SVC_Handler(void)
  45:../src/gd32f3x0_hal_it.c **** {
  59              		.loc 1 45 1
  60              		.cfi_startproc
  61              		@ args = 0, pretend = 0, frame = 0
  62              		@ frame_needed = 1, uses_anonymous_args = 0
  63              		@ link register save eliminated.
  64 0000 80B4     		push	{r7}
  65              		.cfi_def_cfa_offset 4
  66              		.cfi_offset 7, -4
  67 0002 00AF     		add	r7, sp, #0
  68              		.cfi_def_cfa_register 7
  46:../src/gd32f3x0_hal_it.c ****     /* user code [SVCall_IRQn local 0] begin */
  47:../src/gd32f3x0_hal_it.c ****     /* user code [SVCall_IRQn local 0] end */
  48:../src/gd32f3x0_hal_it.c ****     /* user code [SVCall_IRQn local 1] begin */
  49:../src/gd32f3x0_hal_it.c ****     /* user code [SVCall_IRQn local 1] end */
  50:../src/gd32f3x0_hal_it.c **** }
  69              		.loc 1 50 1
  70 0004 00BF     		nop
  71 0006 BD46     		mov	sp, r7
  72              		.cfi_def_cfa_register 13
  73              		@ sp needed
  74 0008 80BC     		pop	{r7}
  75              		.cfi_restore 7
  76              		.cfi_def_cfa_offset 0
  77 000a 7047     		bx	lr
  78              		.cfi_endproc
  79              	.LFE120:
  81              		.section	.text.PendSV_Handler,"ax",%progbits
  82              		.align	1
  83              		.global	PendSV_Handler
  84              		.syntax unified
  85              		.thumb
  86              		.thumb_func
  87              		.fpu softvfp
  89              	PendSV_Handler:
  90              	.LFB121:
  51:../src/gd32f3x0_hal_it.c **** 
  52:../src/gd32f3x0_hal_it.c **** void PendSV_Handler(void)
  53:../src/gd32f3x0_hal_it.c **** {
  91              		.loc 1 53 1
  92              		.cfi_startproc
  93              		@ args = 0, pretend = 0, frame = 0
  94              		@ frame_needed = 1, uses_anonymous_args = 0
  95              		@ link register save eliminated.
  96 0000 80B4     		push	{r7}
  97              		.cfi_def_cfa_offset 4
  98              		.cfi_offset 7, -4
  99 0002 00AF     		add	r7, sp, #0
 100              		.cfi_def_cfa_register 7
  54:../src/gd32f3x0_hal_it.c ****     /* user code [PendSV_IRQn local 0] begin */
  55:../src/gd32f3x0_hal_it.c ****     /* user code [PendSV_IRQn local 0] end */
  56:../src/gd32f3x0_hal_it.c ****     /* user code [PendSV_IRQn local 1] begin */
  57:../src/gd32f3x0_hal_it.c ****     /* user code [PendSV_IRQn local 1] end */
  58:../src/gd32f3x0_hal_it.c **** }
 101              		.loc 1 58 1
 102 0004 00BF     		nop
 103 0006 BD46     		mov	sp, r7
 104              		.cfi_def_cfa_register 13
 105              		@ sp needed
 106 0008 80BC     		pop	{r7}
 107              		.cfi_restore 7
 108              		.cfi_def_cfa_offset 0
 109 000a 7047     		bx	lr
 110              		.cfi_endproc
 111              	.LFE121:
 113              		.section	.text.SysTick_Handler,"ax",%progbits
 114              		.align	1
 115              		.global	SysTick_Handler
 116              		.syntax unified
 117              		.thumb
 118              		.thumb_func
 119              		.fpu softvfp
 121              	SysTick_Handler:
 122              	.LFB122:
  59:../src/gd32f3x0_hal_it.c **** 
  60:../src/gd32f3x0_hal_it.c **** void SysTick_Handler(void)
  61:../src/gd32f3x0_hal_it.c **** {
 123              		.loc 1 61 1
 124              		.cfi_startproc
 125              		@ args = 0, pretend = 0, frame = 0
 126              		@ frame_needed = 1, uses_anonymous_args = 0
 127 0000 80B5     		push	{r7, lr}
 128              		.cfi_def_cfa_offset 8
 129              		.cfi_offset 7, -8
 130              		.cfi_offset 14, -4
 131 0002 00AF     		add	r7, sp, #0
 132              		.cfi_def_cfa_register 7
  62:../src/gd32f3x0_hal_it.c ****     /* user code [SysTick_IRQn local 0] begin */
  63:../src/gd32f3x0_hal_it.c ****     /* user code [SysTick_IRQn local 0] end */
  64:../src/gd32f3x0_hal_it.c ****     hal_sys_basetick_irq();
 133              		.loc 1 64 5
 134 0004 FFF7FEFF 		bl	hal_sys_basetick_irq
  65:../src/gd32f3x0_hal_it.c ****     /* user code [SysTick_IRQn local 1] begin */
  66:../src/gd32f3x0_hal_it.c ****     /* user code [SysTick_IRQn local 1] end */
  67:../src/gd32f3x0_hal_it.c **** }
 135              		.loc 1 67 1
 136 0008 00BF     		nop
 137 000a 80BD     		pop	{r7, pc}
 138              		.cfi_endproc
 139              	.LFE122:
 141              		.section	.text.DMA_Channel0_IRQHandler,"ax",%progbits
 142              		.align	1
 143              		.global	DMA_Channel0_IRQHandler
 144              		.syntax unified
 145              		.thumb
 146              		.thumb_func
 147              		.fpu softvfp
 149              	DMA_Channel0_IRQHandler:
 150              	.LFB123:
  68:../src/gd32f3x0_hal_it.c **** 
  69:../src/gd32f3x0_hal_it.c **** void DMA_Channel0_IRQHandler(void)
  70:../src/gd32f3x0_hal_it.c **** {
 151              		.loc 1 70 1
 152              		.cfi_startproc
 153              		@ args = 0, pretend = 0, frame = 0
 154              		@ frame_needed = 1, uses_anonymous_args = 0
 155 0000 80B5     		push	{r7, lr}
 156              		.cfi_def_cfa_offset 8
 157              		.cfi_offset 7, -8
 158              		.cfi_offset 14, -4
 159 0002 00AF     		add	r7, sp, #0
 160              		.cfi_def_cfa_register 7
  71:../src/gd32f3x0_hal_it.c ****     /* user code [DMA_Channel0_IRQn local 0] begin */
  72:../src/gd32f3x0_hal_it.c ****     /* user code [DMA_Channel0_IRQn local 0] end */
  73:../src/gd32f3x0_hal_it.c ****     hal_dma_irq(&dma_adc_info);
 161              		.loc 1 73 5
 162 0004 0248     		ldr	r0, .L6
 163 0006 FFF7FEFF 		bl	hal_dma_irq
  74:../src/gd32f3x0_hal_it.c ****     /* user code [DMA_Channel0_IRQn local 1] begin */
  75:../src/gd32f3x0_hal_it.c ****     /* user code [DMA_Channel0_IRQn local 1] end */
  76:../src/gd32f3x0_hal_it.c **** }
 164              		.loc 1 76 1
 165 000a 00BF     		nop
 166 000c 80BD     		pop	{r7, pc}
 167              	.L7:
 168 000e 00BF     		.align	2
 169              	.L6:
 170 0010 00000000 		.word	dma_adc_info
 171              		.cfi_endproc
 172              	.LFE123:
 174              		.text
 175              	.Letext0:
 176              		.file 2 "c:\\program files\\embeddedbuilder_v1.1.0.18805\\tools\\gnu tools arm embedded\\xpack-arm
 177              		.file 3 "c:\\program files\\embeddedbuilder_v1.1.0.18805\\tools\\gnu tools arm embedded\\xpack-arm
 178              		.file 4 "c:\\program files\\embeddedbuilder_v1.1.0.18805\\tools\\gnu tools arm embedded\\xpack-arm
 179              		.file 5 "c:\\program files\\embeddedbuilder_v1.1.0.18805\\tools\\gnu tools arm embedded\\xpack-arm
 180              		.file 6 "c:\\program files\\embeddedbuilder_v1.1.0.18805\\tools\\gnu tools arm embedded\\xpack-arm
 181              		.file 7 "c:\\program files\\embeddedbuilder_v1.1.0.18805\\tools\\gnu tools arm embedded\\xpack-arm
 182              		.file 8 "../firmware/GD32f3x0_hal_peripheral/Include/gd32f3x0_hal.h"
 183              		.file 9 "../firmware/cmsis/inc/core_cm4.h"
 184              		.file 10 "../firmware/cmsis/inc/system_gd32f3x0.h"
 185              		.file 11 "../firmware/GD32f3x0_hal_peripheral/Include/gd32f3x0_hal_dma.h"
 186              		.file 12 "c:\\program files\\embeddedbuilder_v1.1.0.18805\\tools\\gnu tools arm embedded\\xpack-ar
 187              		.file 13 "../firmware/GD32f3x0_hal_peripheral/Include/gd32f3x0_hal_adc.h"
 188              		.file 14 "../firmware/GD32f3x0_hal_peripheral/Include/gd32f3x0_hal_uart.h"
 189              		.file 15 "../inc/gd32f3x0_hal_init.h"